ARM GAS  C:\Users\25521\AppData\Local\Temp\ccyXyOxE.s 			page 1


   1              		.cpu cortex-m4
   2              		.eabi_attribute 27, 1
   3              		.eabi_attribute 28, 1
   4              		.eabi_attribute 20, 1
   5              		.eabi_attribute 21, 1
   6              		.eabi_attribute 23, 3
   7              		.eabi_attribute 24, 1
   8              		.eabi_attribute 25, 1
   9              		.eabi_attribute 26, 1
  10              		.eabi_attribute 30, 2
  11              		.eabi_attribute 34, 1
  12              		.eabi_attribute 18, 4
  13              		.file	"aseba_node.c"
  14              		.text
  15              	.Ltext0:
  16              		.cfi_sections	.debug_frame
  17              		.section	.text.aseba_vm_thd,"ax",%progbits
  18              		.align	1
  19              		.p2align 4,,15
  20              		.syntax unified
  21              		.thumb
  22              		.thumb_func
  23              		.fpu fpv4-sp-d16
  24              		.type	aseba_vm_thd, %function
  25              	aseba_vm_thd:
  26              	.LFB272:
  27              		.file 1 "../e-puck2_main-processor/src/aseba_vm/aseba_node.c"
  28              		.loc 1 43 0
  29              		.cfi_startproc
  30              		@ args = 0, pretend = 0, frame = 8
  31              		@ frame_needed = 0, uses_anonymous_args = 0
  32              	.LVL0:
  33 0000 2DE9F041 		push	{r4, r5, r6, r7, r8, lr}
  34              		.cfi_def_cfa_offset 24
  35              		.cfi_offset 4, -24
  36              		.cfi_offset 5, -20
  37              		.cfi_offset 6, -16
  38              		.cfi_offset 7, -12
  39              		.cfi_offset 8, -8
  40              		.cfi_offset 14, -4
  41              	.LBB11:
  42              	.LBB12:
  43              		.file 2 "../e-puck2_main-processor/ChibiOS//os/rt/include/chregistry.h"
  44              		.loc 2 135 0
  45 0004 1E4A     		ldr	r2, .L12
  46              	.LBE12:
  47              	.LBE11:
  48              		.loc 1 43 0
  49 0006 1F4B     		ldr	r3, .L12+4
  50              	.LBB14:
  51              	.LBB13:
  52              		.loc 2 135 0
  53 0008 9269     		ldr	r2, [r2, #24]
  54 000a 1F49     		ldr	r1, .L12+8
  55 000c 9161     		str	r1, [r2, #24]
  56              	.LBE13:
  57              	.LBE14:
ARM GAS  C:\Users\25521\AppData\Local\Temp\ccyXyOxE.s 			page 2


  58              		.loc 1 43 0
  59 000e 82B0     		sub	sp, sp, #8
  60              		.cfi_def_cfa_offset 32
  61              		.loc 1 43 0
  62 0010 1B68     		ldr	r3, [r3]
  63              		.loc 1 48 0
  64 0012 1E48     		ldr	r0, .L12+12
  65              	.LVL1:
  66              		.loc 1 43 0
  67 0014 0193     		str	r3, [sp, #4]
  68              		.loc 1 48 0
  69 0016 4FF6FF71 		movw	r1, #65535
  70 001a 1C4D     		ldr	r5, .L12+12
  71 001c 1C4E     		ldr	r6, .L12+16
  72 001e DFF87480 		ldr	r8, .L12+20
  73 0022 FFF7FEFF 		bl	AsebaVMSetupEvent
  74              	.LVL2:
  75              	.LBB15:
  76              		.loc 1 55 0
  77 0026 2C46     		mov	r4, r5
  78              		.loc 1 79 0
  79 0028 0127     		movs	r7, #1
  80              	.L2:
  81              		.loc 1 52 0
  82 002a FFF7FEFF 		bl	chThdYield
  83              	.LVL3:
  84              		.loc 1 55 0
  85 002e 2046     		mov	r0, r4
  86 0030 FFF7FEFF 		bl	aseba_read_variables_from_system
  87              	.LVL4:
  88              		.loc 1 58 0
  89 0034 4FF47A71 		mov	r1, #1000
  90 0038 2046     		mov	r0, r4
  91 003a FFF7FEFF 		bl	AsebaVMRun
  92              	.LVL5:
  93              		.loc 1 59 0
  94 003e 2046     		mov	r0, r4
  95 0040 FFF7FEFF 		bl	AsebaProcessIncomingEvents
  96              	.LVL6:
  97              		.loc 1 62 0
  98 0044 2046     		mov	r0, r4
  99 0046 FFF7FEFF 		bl	aseba_write_variables_to_system
 100              	.LVL7:
 101              		.loc 1 70 0
 102 004a 2B8B     		ldrh	r3, [r5, #24]
 103 004c 9B07     		lsls	r3, r3, #30
 104 004e ECD1     		bne	.L2
 105              		.loc 1 74 0
 106 0050 3268     		ldr	r2, [r6]
 107 0052 92FAA2F3 		rbit	r3, r2
 108 0056 B3FA83F3 		clz	r3, r3
 109              		.loc 1 83 0
 110 005a C3F57F41 		rsb	r1, r3, #65280
 111 005e FE31     		adds	r1, r1, #254
 112              		.loc 1 79 0
 113 0060 07FA03F3 		lsl	r3, r7, r3
 114 0064 22EA0303 		bic	r3, r2, r3
ARM GAS  C:\Users\25521\AppData\Local\Temp\ccyXyOxE.s 			page 3


 115              		.loc 1 83 0
 116 0068 89B2     		uxth	r1, r1
 117 006a 2046     		mov	r0, r4
 118              		.loc 1 74 0
 119 006c 002A     		cmp	r2, #0
 120 006e DCD0     		beq	.L2
 121              		.loc 1 81 0
 122 0070 2A88     		ldrh	r2, [r5]
 123              		.loc 1 79 0
 124 0072 3360     		str	r3, [r6]
 125              		.loc 1 81 0
 126 0074 A8F80220 		strh	r2, [r8, #2]	@ movhi
 127              		.loc 1 83 0
 128 0078 FFF7FEFF 		bl	AsebaVMSetupEvent
 129              	.LVL8:
 130 007c D5E7     		b	.L2
 131              	.L13:
 132 007e 00BF     		.align	2
 133              	.L12:
 134 0080 00000000 		.word	ch
 135 0084 00000000 		.word	__stack_chk_guard
 136 0088 00000000 		.word	.LC0
 137 008c 00000000 		.word	.LANCHOR0
 138 0090 00000000 		.word	.LANCHOR1
 139 0094 00000000 		.word	vmVariables
 140              	.LBE15:
 141              		.cfi_endproc
 142              	.LFE272:
 143              		.size	aseba_vm_thd, .-aseba_vm_thd
 144              		.section	.text.aseba_vm_init,"ax",%progbits
 145              		.align	1
 146              		.p2align 4,,15
 147              		.global	aseba_vm_init
 148              		.syntax unified
 149              		.thumb
 150              		.thumb_func
 151              		.fpu fpv4-sp-d16
 152              		.type	aseba_vm_init, %function
 153              	aseba_vm_init:
 154              	.LFB273:
 155              		.loc 1 89 0
 156              		.cfi_startproc
 157              		@ args = 0, pretend = 0, frame = 8
 158              		@ frame_needed = 0, uses_anonymous_args = 0
 159 0000 30B5     		push	{r4, r5, lr}
 160              		.cfi_def_cfa_offset 12
 161              		.cfi_offset 4, -12
 162              		.cfi_offset 5, -8
 163              		.cfi_offset 14, -4
 164 0002 114D     		ldr	r5, .L20
 165              		.loc 1 92 0
 166 0004 1148     		ldr	r0, .L20+4
 167              		.loc 1 89 0
 168 0006 2B68     		ldr	r3, [r5]
 169              		.loc 1 92 0
 170 0008 114C     		ldr	r4, .L20+8
 171              		.loc 1 89 0
ARM GAS  C:\Users\25521\AppData\Local\Temp\ccyXyOxE.s 			page 4


 172 000a 83B0     		sub	sp, sp, #12
 173              		.cfi_def_cfa_offset 24
 174              		.loc 1 89 0
 175 000c 0193     		str	r3, [sp, #4]
 176              		.loc 1 92 0
 177 000e FFF7FEFF 		bl	parameter_integer_get
 178              	.LVL9:
 179 0012 2080     		strh	r0, [r4]	@ movhi
 180              		.loc 1 94 0
 181 0014 2046     		mov	r0, r4
 182 0016 FFF7FEFF 		bl	AsebaVMInit
 183              	.LVL10:
 184              		.loc 1 99 0
 185 001a 0E49     		ldr	r1, .L20+12
 186 001c 0A88     		ldrh	r2, [r1]	@ unaligned
 187              	.LVL11:
 188              		.loc 1 104 0
 189 001e 4FF6FF73 		movw	r3, #65535
 190 0022 9A42     		cmp	r2, r3
 191 0024 03D0     		beq	.L15
 192              		.loc 1 105 0
 193 0026 0231     		adds	r1, r1, #2
 194 0028 6068     		ldr	r0, [r4, #4]
 195 002a FFF7FEFF 		bl	memcpy
 196              	.LVL12:
 197              	.L15:
 198              		.loc 1 108 0
 199 002e 019A     		ldr	r2, [sp, #4]
 200 0030 2B68     		ldr	r3, [r5]
 201 0032 9A42     		cmp	r2, r3
 202 0034 06D1     		bne	.L19
 203 0036 4FF4FA70 		mov	r0, #500
 204              		.loc 1 109 0
 205 003a 03B0     		add	sp, sp, #12
 206              		.cfi_remember_state
 207              		.cfi_def_cfa_offset 12
 208              		@ sp needed
 209 003c BDE83040 		pop	{r4, r5, lr}
 210              		.cfi_restore 14
 211              		.cfi_restore 5
 212              		.cfi_restore 4
 213              		.cfi_def_cfa_offset 0
 214              		.loc 1 108 0
 215 0040 FFF7FEBF 		b	chThdSleep
 216              	.LVL13:
 217              	.L19:
 218              		.cfi_restore_state
 219 0044 FFF7FEFF 		bl	__stack_chk_fail
 220              	.LVL14:
 221              	.L21:
 222              		.align	2
 223              	.L20:
 224 0048 00000000 		.word	__stack_chk_guard
 225 004c 00000000 		.word	.LANCHOR2
 226 0050 00000000 		.word	.LANCHOR0
 227 0054 00000000 		.word	_aseba_bytecode_start
 228              		.cfi_endproc
ARM GAS  C:\Users\25521\AppData\Local\Temp\ccyXyOxE.s 			page 5


 229              	.LFE273:
 230              		.size	aseba_vm_init, .-aseba_vm_init
 231              		.section	.text.aseba_declare_parameters,"ax",%progbits
 232              		.align	1
 233              		.p2align 4,,15
 234              		.global	aseba_declare_parameters
 235              		.syntax unified
 236              		.thumb
 237              		.thumb_func
 238              		.fpu fpv4-sp-d16
 239              		.type	aseba_declare_parameters, %function
 240              	aseba_declare_parameters:
 241              	.LFB274:
 242              		.loc 1 112 0
 243              		.cfi_startproc
 244              		@ args = 0, pretend = 0, frame = 8
 245              		@ frame_needed = 0, uses_anonymous_args = 0
 246              	.LVL15:
 247 0000 30B5     		push	{r4, r5, lr}
 248              		.cfi_def_cfa_offset 12
 249              		.cfi_offset 4, -12
 250              		.cfi_offset 5, -8
 251              		.cfi_offset 14, -4
 252 0002 0B4C     		ldr	r4, .L27
 253              		.loc 1 113 0
 254 0004 0B4A     		ldr	r2, .L27+4
 255              		.loc 1 112 0
 256 0006 2368     		ldr	r3, [r4]
 257 0008 83B0     		sub	sp, sp, #12
 258              		.cfi_def_cfa_offset 24
 259              		.loc 1 113 0
 260 000a 0146     		mov	r1, r0
 261              		.loc 1 112 0
 262 000c 0193     		str	r3, [sp, #4]
 263 000e 0546     		mov	r5, r0
 264              		.loc 1 113 0
 265 0010 2A23     		movs	r3, #42
 266 0012 0948     		ldr	r0, .L27+8
 267              	.LVL16:
 268 0014 FFF7FEFF 		bl	parameter_integer_declare_with_default
 269              	.LVL17:
 270              		.loc 1 115 0
 271 0018 019A     		ldr	r2, [sp, #4]
 272 001a 2368     		ldr	r3, [r4]
 273 001c 9A42     		cmp	r2, r3
 274 001e 05D1     		bne	.L26
 275 0020 2846     		mov	r0, r5
 276              		.loc 1 116 0
 277 0022 03B0     		add	sp, sp, #12
 278              		.cfi_remember_state
 279              		.cfi_def_cfa_offset 12
 280              		@ sp needed
 281 0024 BDE83040 		pop	{r4, r5, lr}
 282              		.cfi_restore 14
 283              		.cfi_restore 5
 284              		.cfi_restore 4
 285              		.cfi_def_cfa_offset 0
ARM GAS  C:\Users\25521\AppData\Local\Temp\ccyXyOxE.s 			page 6


 286              	.LVL18:
 287              		.loc 1 115 0
 288 0028 FFF7FEBF 		b	aseba_variables_init
 289              	.LVL19:
 290              	.L26:
 291              		.cfi_restore_state
 292 002c FFF7FEFF 		bl	__stack_chk_fail
 293              	.LVL20:
 294              	.L28:
 295              		.align	2
 296              	.L27:
 297 0030 00000000 		.word	__stack_chk_guard
 298 0034 00000000 		.word	.LC1
 299 0038 00000000 		.word	.LANCHOR2
 300              		.cfi_endproc
 301              	.LFE274:
 302              		.size	aseba_declare_parameters, .-aseba_declare_parameters
 303              		.section	.text.aseba_vm_start,"ax",%progbits
 304              		.align	1
 305              		.p2align 4,,15
 306              		.global	aseba_vm_start
 307              		.syntax unified
 308              		.thumb
 309              		.thumb_func
 310              		.fpu fpv4-sp-d16
 311              		.type	aseba_vm_start, %function
 312              	aseba_vm_start:
 313              	.LFB275:
 314              		.loc 1 119 0
 315              		.cfi_startproc
 316              		@ args = 0, pretend = 0, frame = 8
 317              		@ frame_needed = 0, uses_anonymous_args = 0
 318 0000 10B5     		push	{r4, lr}
 319              		.cfi_def_cfa_offset 8
 320              		.cfi_offset 4, -8
 321              		.cfi_offset 14, -4
 322 0002 0A4C     		ldr	r4, .L33
 323              		.loc 1 121 0
 324 0004 0A4B     		ldr	r3, .L33+4
 325              		.loc 1 119 0
 326 0006 2268     		ldr	r2, [r4]
 327              		.loc 1 121 0
 328 0008 0A48     		ldr	r0, .L33+8
 329              		.loc 1 119 0
 330 000a 84B0     		sub	sp, sp, #16
 331              		.cfi_def_cfa_offset 24
 332              		.loc 1 121 0
 333 000c 4FF4AF61 		mov	r1, #1400
 334              		.loc 1 119 0
 335 0010 0392     		str	r2, [sp, #12]
 336              		.loc 1 121 0
 337 0012 0022     		movs	r2, #0
 338 0014 0092     		str	r2, [sp]
 339 0016 0222     		movs	r2, #2
 340 0018 FFF7FEFF 		bl	chThdCreateStatic
 341              	.LVL21:
 342              		.loc 1 122 0
ARM GAS  C:\Users\25521\AppData\Local\Temp\ccyXyOxE.s 			page 7


 343 001c 039A     		ldr	r2, [sp, #12]
 344 001e 2368     		ldr	r3, [r4]
 345 0020 9A42     		cmp	r2, r3
 346 0022 01D1     		bne	.L32
 347 0024 04B0     		add	sp, sp, #16
 348              		.cfi_remember_state
 349              		.cfi_def_cfa_offset 8
 350              		@ sp needed
 351 0026 10BD     		pop	{r4, pc}
 352              	.L32:
 353              		.cfi_restore_state
 354 0028 FFF7FEFF 		bl	__stack_chk_fail
 355              	.LVL22:
 356              	.L34:
 357              		.align	2
 358              	.L33:
 359 002c 00000000 		.word	__stack_chk_guard
 360 0030 00000000 		.word	aseba_vm_thd
 361 0034 00000000 		.word	.LANCHOR3
 362              		.cfi_endproc
 363              	.LFE275:
 364              		.size	aseba_vm_start, .-aseba_vm_start
 365              		.section	.text.AsebaIdle,"ax",%progbits
 366              		.align	1
 367              		.p2align 4,,15
 368              		.global	AsebaIdle
 369              		.syntax unified
 370              		.thumb
 371              		.thumb_func
 372              		.fpu fpv4-sp-d16
 373              		.type	AsebaIdle, %function
 374              	AsebaIdle:
 375              	.LFB276:
 376              		.loc 1 125 0
 377              		.cfi_startproc
 378              		@ args = 0, pretend = 0, frame = 8
 379              		@ frame_needed = 0, uses_anonymous_args = 0
 380 0000 00B5     		push	{lr}
 381              		.cfi_def_cfa_offset 4
 382              		.cfi_offset 14, -4
 383 0002 074B     		ldr	r3, .L40
 384 0004 83B0     		sub	sp, sp, #12
 385              		.cfi_def_cfa_offset 16
 386              		.loc 1 125 0
 387 0006 1A68     		ldr	r2, [r3]
 388 0008 0192     		str	r2, [sp, #4]
 389              		.loc 1 126 0
 390 000a 019A     		ldr	r2, [sp, #4]
 391 000c 1B68     		ldr	r3, [r3]
 392 000e 9A42     		cmp	r2, r3
 393 0010 04D1     		bne	.L39
 394              		.loc 1 127 0
 395 0012 03B0     		add	sp, sp, #12
 396              		.cfi_remember_state
 397              		.cfi_def_cfa_offset 4
 398              		@ sp needed
 399 0014 5DF804EB 		ldr	lr, [sp], #4
ARM GAS  C:\Users\25521\AppData\Local\Temp\ccyXyOxE.s 			page 8


 400              		.cfi_restore 14
 401              		.cfi_def_cfa_offset 0
 402              		.loc 1 126 0
 403 0018 FFF7FEBF 		b	chThdYield
 404              	.LVL23:
 405              	.L39:
 406              		.cfi_restore_state
 407 001c FFF7FEFF 		bl	__stack_chk_fail
 408              	.LVL24:
 409              	.L41:
 410              		.align	2
 411              	.L40:
 412 0020 00000000 		.word	__stack_chk_guard
 413              		.cfi_endproc
 414              	.LFE276:
 415              		.size	AsebaIdle, .-AsebaIdle
 416              		.section	.text.AsebaPutVmToSleep,"ax",%progbits
 417              		.align	1
 418              		.p2align 4,,15
 419              		.global	AsebaPutVmToSleep
 420              		.syntax unified
 421              		.thumb
 422              		.thumb_func
 423              		.fpu fpv4-sp-d16
 424              		.type	AsebaPutVmToSleep, %function
 425              	AsebaPutVmToSleep:
 426              	.LFB277:
 427              		.loc 1 130 0
 428              		.cfi_startproc
 429              		@ args = 0, pretend = 0, frame = 8
 430              		@ frame_needed = 0, uses_anonymous_args = 0
 431              	.LVL25:
 432 0000 00B5     		push	{lr}
 433              		.cfi_def_cfa_offset 4
 434              		.cfi_offset 14, -4
 435 0002 084B     		ldr	r3, .L47
 436 0004 83B0     		sub	sp, sp, #12
 437              		.cfi_def_cfa_offset 16
 438              		.loc 1 130 0
 439 0006 1A68     		ldr	r2, [r3]
 440 0008 0192     		str	r2, [sp, #4]
 441              		.loc 1 132 0
 442 000a 019A     		ldr	r2, [sp, #4]
 443 000c 1B68     		ldr	r3, [r3]
 444 000e 9A42     		cmp	r2, r3
 445 0010 06D1     		bne	.L46
 446 0012 4FF47A70 		mov	r0, #1000
 447              	.LVL26:
 448              		.loc 1 133 0
 449 0016 03B0     		add	sp, sp, #12
 450              		.cfi_remember_state
 451              		.cfi_def_cfa_offset 4
 452              		@ sp needed
 453 0018 5DF804EB 		ldr	lr, [sp], #4
 454              		.cfi_restore 14
 455              		.cfi_def_cfa_offset 0
 456              		.loc 1 132 0
ARM GAS  C:\Users\25521\AppData\Local\Temp\ccyXyOxE.s 			page 9


 457 001c FFF7FEBF 		b	chThdSleep
 458              	.LVL27:
 459              	.L46:
 460              		.cfi_restore_state
 461 0020 FFF7FEFF 		bl	__stack_chk_fail
 462              	.LVL28:
 463              	.L48:
 464              		.align	2
 465              	.L47:
 466 0024 00000000 		.word	__stack_chk_guard
 467              		.cfi_endproc
 468              	.LFE277:
 469              		.size	AsebaPutVmToSleep, .-AsebaPutVmToSleep
 470              		.section	.text.AsebaResetIntoBootloader,"ax",%progbits
 471              		.align	1
 472              		.p2align 4,,15
 473              		.global	AsebaResetIntoBootloader
 474              		.syntax unified
 475              		.thumb
 476              		.thumb_func
 477              		.fpu fpv4-sp-d16
 478              		.type	AsebaResetIntoBootloader, %function
 479              	AsebaResetIntoBootloader:
 480              	.LFB278:
 481              		.loc 1 136 0
 482              		.cfi_startproc
 483              		@ Volatile: function does not return.
 484              		@ args = 0, pretend = 0, frame = 8
 485              		@ frame_needed = 0, uses_anonymous_args = 0
 486              		@ link register save eliminated.
 487              	.LVL29:
 488 0000 084B     		ldr	r3, .L53
 489 0002 82B0     		sub	sp, sp, #8
 490              		.cfi_def_cfa_offset 8
 491              		.loc 1 136 0
 492 0004 1B68     		ldr	r3, [r3]
 493 0006 0193     		str	r3, [sp, #4]
 494              	.LBB24:
 495              	.LBB25:
 496              	.LBB26:
 497              	.LBB27:
 498              		.file 3 "../e-puck2_main-processor/ChibiOS//os/ext/CMSIS/include/core_cmInstr.h"
 499              		.loc 3 478 0
 500              		.syntax unified
 501              	@ 478 "../e-puck2_main-processor/ChibiOS//os/ext/CMSIS/include/core_cmInstr.h" 1
 502 0008 BFF34F8F 		dsb 0xF
 503              	@ 0 "" 2
 504              		.thumb
 505              		.syntax unified
 506              	.LBE27:
 507              	.LBE26:
 508              		.file 4 "../e-puck2_main-processor/ChibiOS//os/ext/CMSIS/include/core_cm4.h"
 509              		.loc 4 1726 0
 510 000c 0649     		ldr	r1, .L53+4
 511              		.loc 4 1725 0
 512 000e 074B     		ldr	r3, .L53+8
 513              		.loc 4 1726 0
ARM GAS  C:\Users\25521\AppData\Local\Temp\ccyXyOxE.s 			page 10


 514 0010 CA68     		ldr	r2, [r1, #12]
 515 0012 02F4E062 		and	r2, r2, #1792
 516              		.loc 4 1725 0
 517 0016 1343     		orrs	r3, r3, r2
 518 0018 CB60     		str	r3, [r1, #12]
 519              	.LBB28:
 520              	.LBB29:
 521              		.loc 3 478 0
 522              		.syntax unified
 523              	@ 478 "../e-puck2_main-processor/ChibiOS//os/ext/CMSIS/include/core_cmInstr.h" 1
 524 001a BFF34F8F 		dsb 0xF
 525              	@ 0 "" 2
 526              		.thumb
 527              		.syntax unified
 528              	.L50:
 529              	.LBE29:
 530              	.LBE28:
 531              	.LBB30:
 532              	.LBB31:
 533              		.loc 3 423 0
 534              		.syntax unified
 535              	@ 423 "../e-puck2_main-processor/ChibiOS//os/ext/CMSIS/include/core_cmInstr.h" 1
 536 001e 00BF     		nop
 537              	@ 0 "" 2
 538              		.thumb
 539              		.syntax unified
 540 0020 FDE7     		b	.L50
 541              	.L54:
 542 0022 00BF     		.align	2
 543              	.L53:
 544 0024 00000000 		.word	__stack_chk_guard
 545 0028 00ED00E0 		.word	-536810240
 546 002c 0400FA05 		.word	100270084
 547              	.LBE31:
 548              	.LBE30:
 549              	.LBE25:
 550              	.LBE24:
 551              		.cfi_endproc
 552              	.LFE278:
 553              		.size	AsebaResetIntoBootloader, .-AsebaResetIntoBootloader
 554              		.section	.text.AsebaNativeFunction,"ax",%progbits
 555              		.align	1
 556              		.p2align 4,,15
 557              		.global	AsebaNativeFunction
 558              		.syntax unified
 559              		.thumb
 560              		.thumb_func
 561              		.fpu fpv4-sp-d16
 562              		.type	AsebaNativeFunction, %function
 563              	AsebaNativeFunction:
 564              	.LFB279:
 565              		.loc 1 142 0
 566              		.cfi_startproc
 567              		@ args = 0, pretend = 0, frame = 8
 568              		@ frame_needed = 0, uses_anonymous_args = 0
 569              	.LVL30:
 570 0000 10B5     		push	{r4, lr}
ARM GAS  C:\Users\25521\AppData\Local\Temp\ccyXyOxE.s 			page 11


 571              		.cfi_def_cfa_offset 8
 572              		.cfi_offset 4, -8
 573              		.cfi_offset 14, -4
 574              		.loc 1 143 0
 575 0002 0E4A     		ldr	r2, .L62
 576              		.loc 1 142 0
 577 0004 0E4B     		ldr	r3, .L62+4
 578              		.loc 1 143 0
 579 0006 1268     		ldr	r2, [r2]
 580              		.loc 1 142 0
 581 0008 1C68     		ldr	r4, [r3]
 582 000a 82B0     		sub	sp, sp, #8
 583              		.cfi_def_cfa_offset 16
 584              		.loc 1 143 0
 585 000c 9142     		cmp	r1, r2
 586              		.loc 1 142 0
 587 000e 0194     		str	r4, [sp, #4]
 588              		.loc 1 144 0
 589 0010 019A     		ldr	r2, [sp, #4]
 590 0012 1B68     		ldr	r3, [r3]
 591              		.loc 1 143 0
 592 0014 08DA     		bge	.L56
 593              		.loc 1 144 0
 594 0016 9A42     		cmp	r2, r3
 595 0018 0ED1     		bne	.L61
 596 001a 0A4B     		ldr	r3, .L62+8
 597 001c 53F82130 		ldr	r3, [r3, r1, lsl #2]
 598              		.loc 1 148 0
 599 0020 02B0     		add	sp, sp, #8
 600              		.cfi_remember_state
 601              		.cfi_def_cfa_offset 8
 602              		@ sp needed
 603 0022 BDE81040 		pop	{r4, lr}
 604              		.cfi_restore 14
 605              		.cfi_restore 4
 606              		.cfi_def_cfa_offset 0
 607              		.loc 1 144 0
 608 0026 1847     		bx	r3	@ indirect register sibling call
 609              	.LVL31:
 610              	.L56:
 611              		.cfi_restore_state
 612              		.loc 1 146 0
 613 0028 9A42     		cmp	r2, r3
 614 002a 05D1     		bne	.L61
 615 002c 0649     		ldr	r1, .L62+12
 616              	.LVL32:
 617              		.loc 1 148 0
 618 002e 02B0     		add	sp, sp, #8
 619              		.cfi_remember_state
 620              		.cfi_def_cfa_offset 8
 621              		@ sp needed
 622 0030 BDE81040 		pop	{r4, lr}
 623              		.cfi_restore 14
 624              		.cfi_restore 4
 625              		.cfi_def_cfa_offset 0
 626              		.loc 1 146 0
 627 0034 FFF7FEBF 		b	AsebaVMEmitNodeSpecificError
ARM GAS  C:\Users\25521\AppData\Local\Temp\ccyXyOxE.s 			page 12


 628              	.LVL33:
 629              	.L61:
 630              		.cfi_restore_state
 631 0038 FFF7FEFF 		bl	__stack_chk_fail
 632              	.LVL34:
 633              	.L63:
 634              		.align	2
 635              	.L62:
 636 003c 00000000 		.word	nativeFunctions_length
 637 0040 00000000 		.word	__stack_chk_guard
 638 0044 00000000 		.word	nativeFunctions
 639 0048 00000000 		.word	.LC2
 640              		.cfi_endproc
 641              	.LFE279:
 642              		.size	AsebaNativeFunction, .-AsebaNativeFunction
 643              		.section	.text.AsebaGetNativeFunctionsDescriptions,"ax",%progbits
 644              		.align	1
 645              		.p2align 4,,15
 646              		.global	AsebaGetNativeFunctionsDescriptions
 647              		.syntax unified
 648              		.thumb
 649              		.thumb_func
 650              		.fpu fpv4-sp-d16
 651              		.type	AsebaGetNativeFunctionsDescriptions, %function
 652              	AsebaGetNativeFunctionsDescriptions:
 653              	.LFB280:
 654              		.loc 1 151 0
 655              		.cfi_startproc
 656              		@ args = 0, pretend = 0, frame = 8
 657              		@ frame_needed = 0, uses_anonymous_args = 0
 658              	.LVL35:
 659 0000 00B5     		push	{lr}
 660              		.cfi_def_cfa_offset 4
 661              		.cfi_offset 14, -4
 662 0002 074B     		ldr	r3, .L68
 663 0004 83B0     		sub	sp, sp, #12
 664              		.cfi_def_cfa_offset 16
 665              		.loc 1 151 0
 666 0006 1A68     		ldr	r2, [r3]
 667 0008 0192     		str	r2, [sp, #4]
 668              		.loc 1 154 0
 669 000a 019A     		ldr	r2, [sp, #4]
 670 000c 1B68     		ldr	r3, [r3]
 671 000e 9A42     		cmp	r2, r3
 672 0010 03D1     		bne	.L67
 673 0012 0448     		ldr	r0, .L68+4
 674              	.LVL36:
 675 0014 03B0     		add	sp, sp, #12
 676              		.cfi_remember_state
 677              		.cfi_def_cfa_offset 4
 678              		@ sp needed
 679 0016 5DF804FB 		ldr	pc, [sp], #4
 680              	.LVL37:
 681              	.L67:
 682              		.cfi_restore_state
 683 001a FFF7FEFF 		bl	__stack_chk_fail
 684              	.LVL38:
ARM GAS  C:\Users\25521\AppData\Local\Temp\ccyXyOxE.s 			page 13


 685              	.L69:
 686 001e 00BF     		.align	2
 687              	.L68:
 688 0020 00000000 		.word	__stack_chk_guard
 689 0024 00000000 		.word	nativeFunctionsDescription
 690              		.cfi_endproc
 691              	.LFE280:
 692              		.size	AsebaGetNativeFunctionsDescriptions, .-AsebaGetNativeFunctionsDescriptions
 693              		.section	.text.AsebaGetVMDescription,"ax",%progbits
 694              		.align	1
 695              		.p2align 4,,15
 696              		.global	AsebaGetVMDescription
 697              		.syntax unified
 698              		.thumb
 699              		.thumb_func
 700              		.fpu fpv4-sp-d16
 701              		.type	AsebaGetVMDescription, %function
 702              	AsebaGetVMDescription:
 703              	.LFB281:
 704              		.loc 1 158 0
 705              		.cfi_startproc
 706              		@ args = 0, pretend = 0, frame = 8
 707              		@ frame_needed = 0, uses_anonymous_args = 0
 708              	.LVL39:
 709 0000 00B5     		push	{lr}
 710              		.cfi_def_cfa_offset 4
 711              		.cfi_offset 14, -4
 712 0002 074B     		ldr	r3, .L74
 713 0004 83B0     		sub	sp, sp, #12
 714              		.cfi_def_cfa_offset 16
 715              		.loc 1 158 0
 716 0006 1A68     		ldr	r2, [r3]
 717 0008 0192     		str	r2, [sp, #4]
 718              		.loc 1 161 0
 719 000a 019A     		ldr	r2, [sp, #4]
 720 000c 1B68     		ldr	r3, [r3]
 721 000e 9A42     		cmp	r2, r3
 722 0010 03D1     		bne	.L73
 723 0012 0448     		ldr	r0, .L74+4
 724              	.LVL40:
 725 0014 03B0     		add	sp, sp, #12
 726              		.cfi_remember_state
 727              		.cfi_def_cfa_offset 4
 728              		@ sp needed
 729 0016 5DF804FB 		ldr	pc, [sp], #4
 730              	.LVL41:
 731              	.L73:
 732              		.cfi_restore_state
 733 001a FFF7FEFF 		bl	__stack_chk_fail
 734              	.LVL42:
 735              	.L75:
 736 001e 00BF     		.align	2
 737              	.L74:
 738 0020 00000000 		.word	__stack_chk_guard
 739 0024 00000000 		.word	vmDescription
 740              		.cfi_endproc
 741              	.LFE281:
ARM GAS  C:\Users\25521\AppData\Local\Temp\ccyXyOxE.s 			page 14


 742              		.size	AsebaGetVMDescription, .-AsebaGetVMDescription
 743              		.section	.text.AsebaGetLocalEventsDescriptions,"ax",%progbits
 744              		.align	1
 745              		.p2align 4,,15
 746              		.global	AsebaGetLocalEventsDescriptions
 747              		.syntax unified
 748              		.thumb
 749              		.thumb_func
 750              		.fpu fpv4-sp-d16
 751              		.type	AsebaGetLocalEventsDescriptions, %function
 752              	AsebaGetLocalEventsDescriptions:
 753              	.LFB282:
 754              		.loc 1 164 0
 755              		.cfi_startproc
 756              		@ args = 0, pretend = 0, frame = 8
 757              		@ frame_needed = 0, uses_anonymous_args = 0
 758              	.LVL43:
 759 0000 00B5     		push	{lr}
 760              		.cfi_def_cfa_offset 4
 761              		.cfi_offset 14, -4
 762 0002 074B     		ldr	r3, .L80
 763 0004 83B0     		sub	sp, sp, #12
 764              		.cfi_def_cfa_offset 16
 765              		.loc 1 164 0
 766 0006 1A68     		ldr	r2, [r3]
 767 0008 0192     		str	r2, [sp, #4]
 768              		.loc 1 167 0
 769 000a 019A     		ldr	r2, [sp, #4]
 770 000c 1B68     		ldr	r3, [r3]
 771 000e 9A42     		cmp	r2, r3
 772 0010 03D1     		bne	.L79
 773 0012 0448     		ldr	r0, .L80+4
 774              	.LVL44:
 775 0014 03B0     		add	sp, sp, #12
 776              		.cfi_remember_state
 777              		.cfi_def_cfa_offset 4
 778              		@ sp needed
 779 0016 5DF804FB 		ldr	pc, [sp], #4
 780              	.LVL45:
 781              	.L79:
 782              		.cfi_restore_state
 783 001a FFF7FEFF 		bl	__stack_chk_fail
 784              	.LVL46:
 785              	.L81:
 786 001e 00BF     		.align	2
 787              	.L80:
 788 0020 00000000 		.word	__stack_chk_guard
 789 0024 00000000 		.word	localEvents
 790              		.cfi_endproc
 791              	.LFE282:
 792              		.size	AsebaGetLocalEventsDescriptions, .-AsebaGetLocalEventsDescriptions
 793              		.section	.text.AsebaShouldDropPacket,"ax",%progbits
 794              		.align	1
 795              		.p2align 4,,15
 796              		.global	AsebaShouldDropPacket
 797              		.syntax unified
 798              		.thumb
ARM GAS  C:\Users\25521\AppData\Local\Temp\ccyXyOxE.s 			page 15


 799              		.thumb_func
 800              		.fpu fpv4-sp-d16
 801              		.type	AsebaShouldDropPacket, %function
 802              	AsebaShouldDropPacket:
 803              	.LFB283:
 804              		.loc 1 171 0
 805              		.cfi_startproc
 806              		@ args = 0, pretend = 0, frame = 8
 807              		@ frame_needed = 0, uses_anonymous_args = 0
 808              	.LVL47:
 809 0000 70B5     		push	{r4, r5, r6, lr}
 810              		.cfi_def_cfa_offset 16
 811              		.cfi_offset 4, -16
 812              		.cfi_offset 5, -12
 813              		.cfi_offset 6, -8
 814              		.cfi_offset 14, -4
 815 0002 0E4C     		ldr	r4, .L89
 816 0004 82B0     		sub	sp, sp, #8
 817              		.cfi_def_cfa_offset 24
 818              		.loc 1 171 0
 819 0006 2368     		ldr	r3, [r4]
 820 0008 0193     		str	r3, [sp, #4]
 821 000a 0546     		mov	r5, r0
 822 000c 0E46     		mov	r6, r1
 823              		.loc 1 173 0
 824 000e FFF7FEFF 		bl	aseba_is_bridge
 825              	.LVL48:
 826              		.loc 1 178 0
 827 0012 019A     		ldr	r2, [sp, #4]
 828 0014 2368     		ldr	r3, [r4]
 829              		.loc 1 173 0
 830 0016 28B1     		cbz	r0, .L88
 831              		.loc 1 178 0
 832 0018 9A42     		cmp	r2, r3
 833 001a 4FF00000 		mov	r0, #0
 834 001e 0BD1     		bne	.L87
 835 0020 02B0     		add	sp, sp, #8
 836              		.cfi_remember_state
 837              		.cfi_def_cfa_offset 16
 838              		@ sp needed
 839 0022 70BD     		pop	{r4, r5, r6, pc}
 840              	.LVL49:
 841              	.L88:
 842              		.cfi_restore_state
 843              		.loc 1 177 0
 844 0024 9A42     		cmp	r2, r3
 845 0026 07D1     		bne	.L87
 846 0028 0548     		ldr	r0, .L89+4
 847 002a 3246     		mov	r2, r6
 848 002c 2946     		mov	r1, r5
 849              		.loc 1 178 0
 850 002e 02B0     		add	sp, sp, #8
 851              		.cfi_remember_state
 852              		.cfi_def_cfa_offset 16
 853              		@ sp needed
 854 0030 BDE87040 		pop	{r4, r5, r6, lr}
 855              		.cfi_restore 14
ARM GAS  C:\Users\25521\AppData\Local\Temp\ccyXyOxE.s 			page 16


 856              		.cfi_restore 6
 857              		.cfi_restore 5
 858              		.cfi_restore 4
 859              		.cfi_def_cfa_offset 0
 860              	.LVL50:
 861              		.loc 1 177 0
 862 0034 FFF7FEBF 		b	AsebaVMShouldDropPacket
 863              	.LVL51:
 864              	.L87:
 865              		.cfi_restore_state
 866              		.loc 1 178 0
 867 0038 FFF7FEFF 		bl	__stack_chk_fail
 868              	.LVL52:
 869              	.L90:
 870              		.align	2
 871              	.L89:
 872 003c 00000000 		.word	__stack_chk_guard
 873 0040 00000000 		.word	.LANCHOR0
 874              		.cfi_endproc
 875              	.LFE283:
 876              		.size	AsebaShouldDropPacket, .-AsebaShouldDropPacket
 877              		.section	.text.AsebaWriteBytecode,"ax",%progbits
 878              		.align	1
 879              		.p2align 4,,15
 880              		.global	AsebaWriteBytecode
 881              		.syntax unified
 882              		.thumb
 883              		.thumb_func
 884              		.fpu fpv4-sp-d16
 885              		.type	AsebaWriteBytecode, %function
 886              	AsebaWriteBytecode:
 887              	.LFB284:
 888              		.loc 1 181 0
 889              		.cfi_startproc
 890              		@ args = 0, pretend = 0, frame = 8
 891              		@ frame_needed = 0, uses_anonymous_args = 0
 892              	.LVL53:
 893 0000 30B5     		push	{r4, r5, lr}
 894              		.cfi_def_cfa_offset 12
 895              		.cfi_offset 4, -12
 896              		.cfi_offset 5, -8
 897              		.cfi_offset 14, -4
 898 0002 0F4D     		ldr	r5, .L96
 899 0004 83B0     		sub	sp, sp, #12
 900              		.cfi_def_cfa_offset 24
 901              		.loc 1 181 0
 902 0006 2B68     		ldr	r3, [r5]
 903 0008 0193     		str	r3, [sp, #4]
 904 000a 0446     		mov	r4, r0
 905              		.loc 1 184 0
 906 000c FFF7FEFF 		bl	flash_unlock
 907              	.LVL54:
 908              		.loc 1 185 0
 909 0010 0C48     		ldr	r0, .L96+4
 910 0012 FFF7FEFF 		bl	flash_sector_erase
 911              	.LVL55:
 912              		.loc 1 186 0
ARM GAS  C:\Users\25521\AppData\Local\Temp\ccyXyOxE.s 			page 17


 913 0016 A11C     		adds	r1, r4, #2
 914 0018 0222     		movs	r2, #2
 915 001a 0A48     		ldr	r0, .L96+4
 916 001c FFF7FEFF 		bl	flash_write
 917              	.LVL56:
 918              		.loc 1 187 0
 919 0020 6288     		ldrh	r2, [r4, #2]
 920 0022 6168     		ldr	r1, [r4, #4]
 921 0024 0848     		ldr	r0, .L96+8
 922 0026 FFF7FEFF 		bl	flash_write
 923              	.LVL57:
 924              		.loc 1 188 0
 925 002a 019A     		ldr	r2, [sp, #4]
 926 002c 2B68     		ldr	r3, [r5]
 927 002e 9A42     		cmp	r2, r3
 928 0030 04D1     		bne	.L95
 929              		.loc 1 189 0
 930 0032 03B0     		add	sp, sp, #12
 931              		.cfi_remember_state
 932              		.cfi_def_cfa_offset 12
 933              		@ sp needed
 934 0034 BDE83040 		pop	{r4, r5, lr}
 935              		.cfi_restore 14
 936              		.cfi_restore 5
 937              		.cfi_restore 4
 938              		.cfi_def_cfa_offset 0
 939              	.LVL58:
 940              		.loc 1 188 0
 941 0038 FFF7FEBF 		b	flash_lock
 942              	.LVL59:
 943              	.L95:
 944              		.cfi_restore_state
 945 003c FFF7FEFF 		bl	__stack_chk_fail
 946              	.LVL60:
 947              	.L97:
 948              		.align	2
 949              	.L96:
 950 0040 00000000 		.word	__stack_chk_guard
 951 0044 00000000 		.word	_aseba_bytecode_start
 952 0048 02000000 		.word	_aseba_bytecode_start+2
 953              		.cfi_endproc
 954              	.LFE284:
 955              		.size	AsebaWriteBytecode, .-AsebaWriteBytecode
 956              		.global	vmState
 957              		.global	events_flags
 958              		.section	.bss.aseba_vm_thd_wa.12250,"aw",%nobits
 959              		.align	3
 960              		.set	.LANCHOR3,. + 0
 961              		.type	aseba_vm_thd_wa.12250, %object
 962              		.size	aseba_vm_thd_wa.12250, 1400
 963              	aseba_vm_thd_wa.12250:
 964 0000 00000000 		.space	1400
 964      00000000 
 964      00000000 
 964      00000000 
 964      00000000 
 965              		.section	.bss.events_flags,"aw",%nobits
ARM GAS  C:\Users\25521\AppData\Local\Temp\ccyXyOxE.s 			page 18


 966              		.align	2
 967              		.set	.LANCHOR1,. + 0
 968              		.type	events_flags, %object
 969              		.size	events_flags, 4
 970              	events_flags:
 971 0000 00000000 		.space	4
 972              		.section	.bss.nodeId_param,"aw",%nobits
 973              		.align	2
 974              		.set	.LANCHOR2,. + 0
 975              		.type	nodeId_param, %object
 976              		.size	nodeId_param, 24
 977              	nodeId_param:
 978 0000 00000000 		.space	24
 978      00000000 
 978      00000000 
 978      00000000 
 978      00000000 
 979              		.section	.bss.vmBytecode,"aw",%nobits
 980              		.align	2
 981              		.type	vmBytecode, %object
 982              		.size	vmBytecode, 3068
 983              	vmBytecode:
 984 0000 00000000 		.space	3068
 984      00000000 
 984      00000000 
 984      00000000 
 984      00000000 
 985              		.section	.bss.vmStack,"aw",%nobits
 986              		.align	2
 987              		.type	vmStack, %object
 988              		.size	vmStack, 256
 989              	vmStack:
 990 0000 00000000 		.space	256
 990      00000000 
 990      00000000 
 990      00000000 
 990      00000000 
 991              		.section	.data.vmState,"aw",%progbits
 992              		.align	2
 993              		.set	.LANCHOR0,. + 0
 994              		.type	vmState, %object
 995              		.size	vmState, 64
 996              	vmState:
 997 0000 0000     		.short	0
 998 0002 FE05     		.short	1534
 999 0004 00000000 		.word	vmBytecode
 1000 0008 3B01     		.short	315
 1001 000a 0000     		.space	2
 1002 000c 00000000 		.word	vmVariables
 1003 0010 8000     		.short	128
 1004 0012 0000     		.space	2
 1005 0014 00000000 		.word	vmStack
 1006 0018 0000     		.short	0
 1007 001a 0000     		.short	0
 1008 001c 0000     		.short	0
 1009 001e 0000     		.short	0
 1010 0020 00000000 		.space	30
ARM GAS  C:\Users\25521\AppData\Local\Temp\ccyXyOxE.s 			page 19


 1010      00000000 
 1010      00000000 
 1010      00000000 
 1010      00000000 
 1011 003e 0000     		.short	0
 1012              		.section	.rodata.AsebaNativeFunction.str1.4,"aMS",%progbits,1
 1013              		.align	2
 1014              	.LC2:
 1015 0000 496E7661 		.ascii	"Invalid native function.\000"
 1015      6C696420 
 1015      6E617469 
 1015      76652066 
 1015      756E6374 
 1016              		.section	.rodata.aseba_declare_parameters.str1.4,"aMS",%progbits,1
 1017              		.align	2
 1018              	.LC1:
 1019 0000 696400   		.ascii	"id\000"
 1020              		.section	.rodata.aseba_vm_thd.str1.4,"aMS",%progbits,1
 1021              		.align	2
 1022              	.LC0:
 1023 0000 61736562 		.ascii	"aseba\000"
 1023      6100
 1024              		.text
 1025              	.Letext0:
 1026              		.file 5 "d:\\eclipse_e-puck2_win32_11_apr_2018\\eclipse_e-puck2\\tools\\gcc-arm-none-eabi-7-2017-q
 1027              		.file 6 "d:\\eclipse_e-puck2_win32_11_apr_2018\\eclipse_e-puck2\\tools\\gcc-arm-none-eabi-7-2017-q
 1028              		.file 7 "d:\\eclipse_e-puck2_win32_11_apr_2018\\eclipse_e-puck2\\tools\\gcc-arm-none-eabi-7-2017-q
 1029              		.file 8 "../e-puck2_main-processor/ChibiOS//os/rt/ports/ARMCMx/compilers/GCC/chtypes.h"
 1030              		.file 9 "../e-puck2_main-processor/ChibiOS//os/rt/include/chsystypes.h"
 1031              		.file 10 "../e-puck2_main-processor/ChibiOS//os/rt/include/chschd.h"
 1032              		.file 11 "../e-puck2_main-processor/ChibiOS//os/ext/CMSIS/ST/system_stm32f4xx.h"
 1033              		.file 12 "../e-puck2_main-processor/ChibiOS//os/ext/CMSIS/ST/stm32f407xx.h"
 1034              		.file 13 "../e-puck2_main-processor/ChibiOS//os/rt/ports/ARMCMx/chcore.h"
 1035              		.file 14 "../e-puck2_main-processor/ChibiOS//os/rt/ports/ARMCMx/chcore_v7m.h"
 1036              		.file 15 "../e-puck2_main-processor/ChibiOS//os/rt/include/chdebug.h"
 1037              		.file 16 "../e-puck2_main-processor/ChibiOS//os/rt/include/chtm.h"
 1038              		.file 17 "../e-puck2_main-processor/ChibiOS//os/rt/include/chstats.h"
 1039              		.file 18 "../e-puck2_main-processor/ChibiOS//os/rt/include/chsem.h"
 1040              		.file 19 "../e-puck2_main-processor/ChibiOS//os/rt/include/chmtx.h"
 1041              		.file 20 "../e-puck2_main-processor/ChibiOS//os/rt/include/chevents.h"
 1042              		.file 21 "../e-puck2_main-processor/ChibiOS//os/rt/include/chqueues.h"
 1043              		.file 22 "../e-puck2_main-processor/ChibiOS//os/hal/ports/STM32/LLD/DMAv2/stm32_dma.h"
 1044              		.file 23 "../e-puck2_main-processor/ChibiOS//os/hal/include/hal_ioblock.h"
 1045              		.file 24 "../e-puck2_main-processor/ChibiOS//os/hal/ports/STM32/LLD/GPIOv2/pal_lld.h"
 1046              		.file 25 "../e-puck2_main-processor/ChibiOS//os/hal/include/adc.h"
 1047              		.file 26 "../e-puck2_main-processor/ChibiOS//os/hal/ports/STM32/LLD/ADCv2/adc_lld.h"
 1048              		.file 27 "../e-puck2_main-processor/ChibiOS//os/hal/include/can.h"
 1049              		.file 28 "../e-puck2_main-processor/ChibiOS//os/hal/ports/STM32/LLD/CANv1/can_lld.h"
 1050              		.file 29 "../e-puck2_main-processor/ChibiOS//os/hal/include/dac.h"
 1051              		.file 30 "../e-puck2_main-processor/ChibiOS//os/hal/ports/STM32/LLD/DACv1/dac_lld.h"
 1052              		.file 31 "../e-puck2_main-processor/ChibiOS//os/hal/include/ext.h"
 1053              		.file 32 "../e-puck2_main-processor/ChibiOS//os/hal/ports/STM32/LLD/EXTIv1/ext_lld.h"
 1054              		.file 33 "../e-puck2_main-processor/ChibiOS//os/hal/include/gpt.h"
 1055              		.file 34 "../e-puck2_main-processor/ChibiOS//os/hal/ports/STM32/LLD/TIMv1/gpt_lld.h"
 1056              		.file 35 "../e-puck2_main-processor/ChibiOS//os/hal/ports/STM32/LLD/TIMv1/stm32_tim.h"
 1057              		.file 36 "../e-puck2_main-processor/ChibiOS//os/hal/include/i2c.h"
 1058              		.file 37 "../e-puck2_main-processor/ChibiOS//os/hal/ports/STM32/LLD/I2Cv1/i2c_lld.h"
ARM GAS  C:\Users\25521\AppData\Local\Temp\ccyXyOxE.s 			page 20


 1059              		.file 38 "../e-puck2_main-processor/ChibiOS//os/hal/include/i2s.h"
 1060              		.file 39 "../e-puck2_main-processor/ChibiOS//os/hal/ports/STM32/LLD/SPIv1/i2s_lld.h"
 1061              		.file 40 "../e-puck2_main-processor/ChibiOS//os/hal/include/pwm.h"
 1062              		.file 41 "../e-puck2_main-processor/ChibiOS//os/hal/ports/STM32/LLD/TIMv1/pwm_lld.h"
 1063              		.file 42 "../e-puck2_main-processor/ChibiOS//os/hal/include/serial.h"
 1064              		.file 43 "../e-puck2_main-processor/ChibiOS//os/hal/ports/STM32/LLD/USARTv1/serial_lld.h"
 1065              		.file 44 "../e-puck2_main-processor/ChibiOS//os/hal/include/sdc.h"
 1066              		.file 45 "../e-puck2_main-processor/ChibiOS//os/hal/ports/STM32/LLD/SDIOv1/sdc_lld.h"
 1067              		.file 46 "../e-puck2_main-processor/ChibiOS//os/hal/include/spi.h"
 1068              		.file 47 "../e-puck2_main-processor/ChibiOS//os/hal/ports/STM32/LLD/SPIv1/spi_lld.h"
 1069              		.file 48 "../e-puck2_main-processor/ChibiOS//os/hal/include/usb.h"
 1070              		.file 49 "../e-puck2_main-processor/ChibiOS//os/hal/ports/STM32/LLD/OTGv1/usb_lld.h"
 1071              		.file 50 "../e-puck2_main-processor/ChibiOS//os/hal/ports/STM32/LLD/OTGv1/stm32_otg.h"
 1072              		.file 51 "../e-puck2_main-processor/ChibiOS//os/hal/include/serial_usb.h"
 1073              		.file 52 "../e-puck2_main-processor/src/usbcfg.h"
 1074              		.file 53 "d:\\eclipse_e-puck2_win32_11_apr_2018\\eclipse_e-puck2\\tools\\gcc-arm-none-eabi-7-2017-
 1075              		.file 54 "d:\\eclipse_e-puck2_win32_11_apr_2018\\eclipse_e-puck2\\tools\\gcc-arm-none-eabi-7-2017-
 1076              		.file 55 "d:\\eclipse_e-puck2_win32_11_apr_2018\\eclipse_e-puck2\\tools\\gcc-arm-none-eabi-7-2017-
 1077              		.file 56 "d:\\eclipse_e-puck2_win32_11_apr_2018\\eclipse_e-puck2\\tools\\gcc-arm-none-eabi-7-2017-
 1078              		.file 57 "../e-puck2_main-processor/aseba/common/types.h"
 1079              		.file 58 "../e-puck2_main-processor/aseba/common/consts.h"
 1080              		.file 59 "../e-puck2_main-processor/aseba/transport/buffer/../../vm/vm.h"
 1081              		.file 60 "../e-puck2_main-processor/aseba/transport/buffer/../../vm/natives.h"
 1082              		.file 61 "../e-puck2_main-processor/src/parameter/parameter.h"
 1083              		.file 62 "../e-puck2_main-processor/src/sensors/mpu9250.h"
 1084              		.file 63 "../e-puck2_main-processor/src/leds.h"
 1085              		.file 64 "../e-puck2_main-processor/src/aseba_vm/skel_user.h"
 1086              		.file 65 "../e-puck2_main-processor/src/aseba_vm/aseba_node.h"
 1087              		.file 66 "../e-puck2_main-processor/src/flash/flash.h"
 1088              		.file 67 "../e-puck2_main-processor/src/aseba_vm/aseba_bridge.h"
 1089              		.file 68 "../e-puck2_main-processor/ChibiOS//os/rt/include/chthreads.h"
 1090              		.file 69 "../e-puck2_main-processor/aseba/transport/buffer/vm-buffer.h"
 1091              		.file 70 "<built-in>"