ARM GAS  C:\Users\25521\AppData\Local\Temp\ccF2BKN4.s 			page 1


   1              		.cpu cortex-m4
   2              		.eabi_attribute 27, 1
   3              		.eabi_attribute 28, 1
   4              		.eabi_attribute 20, 1
   5              		.eabi_attribute 21, 1
   6              		.eabi_attribute 23, 3
   7              		.eabi_attribute 24, 1
   8              		.eabi_attribute 25, 1
   9              		.eabi_attribute 26, 1
  10              		.eabi_attribute 30, 2
  11              		.eabi_attribute 34, 1
  12              		.eabi_attribute 18, 4
  13              		.file	"battery_level.c"
  14              		.text
  15              	.Ltext0:
  16              		.cfi_sections	.debug_frame
  17              		.section	.text.adc_cb,"ax",%progbits
  18              		.align	1
  19              		.p2align 4,,15
  20              		.syntax unified
  21              		.thumb
  22              		.thumb_func
  23              		.fpu fpv4-sp-d16
  24              		.type	adc_cb, %function
  25              	adc_cb:
  26              	.LFB270:
  27              		.file 1 "../e-puck2_main-processor/src/sensors/battery_level.c"
  28              		.loc 1 55 0
  29              		.cfi_startproc
  30              		@ args = 0, pretend = 0, frame = 8
  31              		@ frame_needed = 0, uses_anonymous_args = 0
  32              	.LVL0:
  33 0000 70B5     		push	{r4, r5, r6, lr}
  34              		.cfi_def_cfa_offset 16
  35              		.cfi_offset 4, -16
  36              		.cfi_offset 5, -12
  37              		.cfi_offset 6, -8
  38              		.cfi_offset 14, -4
  39 0002 1C4D     		ldr	r5, .L12
  40              		.loc 1 59 0
  41 0004 1C4E     		ldr	r6, .L12+4
  42              		.loc 1 55 0
  43 0006 2B68     		ldr	r3, [r5]
  44 0008 82B0     		sub	sp, sp, #8
  45              		.cfi_def_cfa_offset 24
  46              		.loc 1 55 0
  47 000a 0193     		str	r3, [sp, #4]
  48              		.loc 1 59 0
  49 000c 0023     		movs	r3, #0
  50 000e 3360     		str	r3, [r6]
  51              	.LVL1:
  52              	.LBB43:
  53              		.loc 1 60 0
  54 0010 4AB1     		cbz	r2, .L2
  55 0012 0239     		subs	r1, r1, #2
  56              	.LVL2:
  57 0014 01EB4204 		add	r4, r1, r2, lsl #1
ARM GAS  C:\Users\25521\AppData\Local\Temp\ccF2BKN4.s 			page 2


  58              	.LVL3:
  59              	.L3:
  60              		.loc 1 61 0 discriminator 3
  61 0018 31F8020F 		ldrh	r0, [r1, #2]!
  62              		.loc 1 60 0 discriminator 3
  63 001c A142     		cmp	r1, r4
  64              		.loc 1 61 0 discriminator 3
  65 001e 0344     		add	r3, r3, r0
  66              		.loc 1 60 0 discriminator 3
  67 0020 FAD1     		bne	.L3
  68 0022 B3FBF2F2 		udiv	r2, r3, r2
  69              	.LVL4:
  70              	.L2:
  71              	.LBE43:
  72              		.loc 1 63 0
  73 0026 3260     		str	r2, [r6]
  74              	.LVL5:
  75              	.LBB44:
  76              	.LBB45:
  77              	.LBB46:
  78              	.LBB47:
  79              	.LBB48:
  80              	.LBB49:
  81              		.file 2 "../e-puck2_main-processor/ChibiOS//os/ext/CMSIS/include/core_cmFunc.h"
  82              		.loc 2 548 0
  83 0028 2024     		movs	r4, #32
  84              		.syntax unified
  85              	@ 548 "../e-puck2_main-processor/ChibiOS//os/ext/CMSIS/include/core_cmFunc.h" 1
  86 002a 84F31188 		MSR basepri, r4
  87              	@ 0 "" 2
  88              	.LVL6:
  89              		.thumb
  90              		.syntax unified
  91              	.LBE49:
  92              	.LBE48:
  93              	.LBE47:
  94              	.LBE46:
  95              		.file 3 "../e-puck2_main-processor/ChibiOS//os/rt/include/chsys.h"
  96              		.loc 3 389 0
  97 002e FFF7FEFF 		bl	_stats_start_measure_crit_isr
  98              	.LVL7:
  99              		.loc 3 390 0
 100 0032 FFF7FEFF 		bl	_dbg_check_lock_from_isr
 101              	.LVL8:
 102              	.LBE45:
 103              	.LBE44:
 104              		.loc 1 66 0
 105 0036 2346     		mov	r3, r4
 106 0038 1048     		ldr	r0, .L12+8
 107 003a 114A     		ldr	r2, .L12+12
 108 003c 1149     		ldr	r1, .L12+16
 109 003e FFF7FEFF 		bl	adcStartConversionI
 110              	.LVL9:
 111              	.LBB50:
 112              	.LBB51:
 113              		.file 4 "../e-puck2_main-processor/ChibiOS//os/rt/include/chbsem.h"
 114              		.loc 4 268 0
ARM GAS  C:\Users\25521\AppData\Local\Temp\ccF2BKN4.s 			page 3


 115 0042 FFF7FEFF 		bl	chDbgCheckClassI
 116              	.LVL10:
 117              		.loc 4 270 0
 118 0046 1048     		ldr	r0, .L12+20
 119 0048 8368     		ldr	r3, [r0, #8]
 120 004a 002B     		cmp	r3, #0
 121 004c 0CDD     		ble	.L10
 122              	.L4:
 123              	.LVL11:
 124              	.LBE51:
 125              	.LBE50:
 126              	.LBB53:
 127              	.LBB54:
 128              		.loc 3 408 0
 129 004e FFF7FEFF 		bl	_dbg_check_unlock_from_isr
 130              	.LVL12:
 131              		.loc 3 409 0
 132 0052 FFF7FEFF 		bl	_stats_stop_measure_crit_isr
 133              	.LVL13:
 134              	.LBB55:
 135              	.LBB56:
 136              	.LBB57:
 137              	.LBB58:
 138              		.loc 2 548 0
 139 0056 0023     		movs	r3, #0
 140              		.syntax unified
 141              	@ 548 "../e-puck2_main-processor/ChibiOS//os/ext/CMSIS/include/core_cmFunc.h" 1
 142 0058 83F31188 		MSR basepri, r3
 143              	@ 0 "" 2
 144              	.LVL14:
 145              		.thumb
 146              		.syntax unified
 147              	.LBE58:
 148              	.LBE57:
 149              	.LBE56:
 150              	.LBE55:
 151              	.LBE54:
 152              	.LBE53:
 153              		.loc 1 69 0
 154 005c 019A     		ldr	r2, [sp, #4]
 155 005e 2B68     		ldr	r3, [r5]
 156 0060 9A42     		cmp	r2, r3
 157 0062 04D1     		bne	.L11
 158 0064 02B0     		add	sp, sp, #8
 159              		.cfi_remember_state
 160              		.cfi_def_cfa_offset 16
 161              		@ sp needed
 162 0066 70BD     		pop	{r4, r5, r6, pc}
 163              	.LVL15:
 164              	.L10:
 165              		.cfi_restore_state
 166              	.LBB59:
 167              	.LBB52:
 168              		.loc 4 271 0
 169 0068 FFF7FEFF 		bl	chSemSignalI
 170              	.LVL16:
 171 006c EFE7     		b	.L4
ARM GAS  C:\Users\25521\AppData\Local\Temp\ccF2BKN4.s 			page 4


 172              	.LVL17:
 173              	.L11:
 174              	.LBE52:
 175              	.LBE59:
 176              		.loc 1 69 0
 177 006e FFF7FEFF 		bl	__stack_chk_fail
 178              	.LVL18:
 179              	.L13:
 180 0072 00BF     		.align	2
 181              	.L12:
 182 0074 00000000 		.word	__stack_chk_guard
 183 0078 00000000 		.word	.LANCHOR0
 184 007c 00000000 		.word	ADCD3
 185 0080 00000000 		.word	.LANCHOR1
 186 0084 00000000 		.word	.LANCHOR2
 187 0088 00000000 		.word	.LANCHOR3
 188              		.cfi_endproc
 189              	.LFE270:
 190              		.size	adc_cb, .-adc_cb
 191              		.section	.text.battery_thd,"ax",%progbits
 192              		.align	1
 193              		.p2align 4,,15
 194              		.syntax unified
 195              		.thumb
 196              		.thumb_func
 197              		.fpu fpv4-sp-d16
 198              		.type	battery_thd, %function
 199              	battery_thd:
 200              	.LFB271:
 201              		.loc 1 75 0
 202              		.cfi_startproc
 203              		@ args = 0, pretend = 0, frame = 128
 204              		@ frame_needed = 0, uses_anonymous_args = 0
 205              	.LVL19:
 206 0000 70B5     		push	{r4, r5, r6, lr}
 207              		.cfi_def_cfa_offset 16
 208              		.cfi_offset 4, -16
 209              		.cfi_offset 5, -12
 210              		.cfi_offset 6, -8
 211              		.cfi_offset 14, -4
 212 0002 2DED068B 		vpush.64	{d8, d9, d10}
 213              		.cfi_def_cfa_offset 40
 214              		.cfi_offset 80, -40
 215              		.cfi_offset 81, -36
 216              		.cfi_offset 82, -32
 217              		.cfi_offset 83, -28
 218              		.cfi_offset 84, -24
 219              		.cfi_offset 85, -20
 220              	.LBB60:
 221              	.LBB61:
 222              		.file 5 "../e-puck2_main-processor/ChibiOS//os/rt/include/chregistry.h"
 223              		.loc 5 135 0
 224 0006 374B     		ldr	r3, .L18
 225              	.LBE61:
 226              	.LBE60:
 227              		.loc 1 75 0
 228 0008 374A     		ldr	r2, .L18+4
ARM GAS  C:\Users\25521\AppData\Local\Temp\ccF2BKN4.s 			page 5


 229              	.LBB65:
 230              	.LBB62:
 231              		.loc 5 135 0
 232 000a 9B69     		ldr	r3, [r3, #24]
 233              	.LBE62:
 234              	.LBE65:
 235              		.loc 1 82 0
 236 000c 374C     		ldr	r4, .L18+8
 237              	.LBB66:
 238              	.LBB63:
 239              		.loc 5 135 0
 240 000e 3849     		ldr	r1, .L18+12
 241              	.LBE63:
 242              	.LBE66:
 243              		.loc 1 75 0
 244 0010 1068     		ldr	r0, [r2]
 245              	.LVL20:
 246              	.LBB67:
 247              	.LBB64:
 248              		.loc 5 135 0
 249 0012 9961     		str	r1, [r3, #24]
 250              	.LBE64:
 251              	.LBE67:
 252              		.loc 1 75 0
 253 0014 A2B0     		sub	sp, sp, #136
 254              		.cfi_def_cfa_offset 176
 255              		.loc 1 80 0
 256 0016 04AD     		add	r5, sp, #16
 257              		.loc 1 81 0
 258 0018 02AE     		add	r6, sp, #8
 259              		.loc 1 82 0
 260 001a 0C23     		movs	r3, #12
 261 001c 2946     		mov	r1, r5
 262 001e 0093     		str	r3, [sp]
 263 0020 3246     		mov	r2, r6
 264 0022 2346     		mov	r3, r4
 265              		.loc 1 75 0
 266 0024 2190     		str	r0, [sp, #132]
 267              		.loc 1 80 0
 268 0026 CDE90455 		strd	r5, r5, [sp, #16]
 269              		.loc 1 82 0
 270 002a 09A8     		add	r0, sp, #36
 271              		.loc 1 80 0
 272 002c 0025     		movs	r5, #0
 273 002e CDE90655 		strd	r5, r5, [sp, #24]
 274 0032 0895     		str	r5, [sp, #32]
 275              		.loc 1 81 0
 276 0034 CDE90266 		strd	r6, r6, [sp, #8]
 277              		.loc 1 82 0
 278 0038 FFF7FEFF 		bl	messagebus_topic_init
 279              	.LVL21:
 280              		.loc 1 83 0
 281 003c 09A9     		add	r1, sp, #36
 282 003e 2D4A     		ldr	r2, .L18+16
 283 0040 2D48     		ldr	r0, .L18+20
 284              		.loc 1 98 0
 285 0042 2E4D     		ldr	r5, .L18+24
ARM GAS  C:\Users\25521\AppData\Local\Temp\ccF2BKN4.s 			page 6


 286              		.loc 1 102 0
 287 0044 DFED2EAA 		vldr.32	s21, .L18+28
 288              		.loc 1 103 0
 289 0048 9FED2EAA 		vldr.32	s20, .L18+32
 290 004c DFED2E9A 		vldr.32	s19, .L18+36
 291              		.loc 1 104 0
 292 0050 9FED2E9A 		vldr.32	s18, .L18+40
 293              		.loc 1 105 0
 294 0054 DFED2E8A 		vldr.32	s17, .L18+44
 295              		.loc 1 100 0
 296 0058 9FED2E8A 		vldr.32	s16, .L18+48
 297              		.loc 1 83 0
 298 005c FFF7FEFF 		bl	messagebus_advertise_topic
 299              	.LVL22:
 300              		.loc 1 87 0
 301 0060 2D48     		ldr	r0, .L18+52
 302 0062 FFF7FEFF 		bl	adcAcquireBus
 303              	.LVL23:
 304              		.loc 1 88 0
 305 0066 2023     		movs	r3, #32
 306 0068 2C4A     		ldr	r2, .L18+56
 307 006a 2D49     		ldr	r1, .L18+60
 308 006c 2A48     		ldr	r0, .L18+52
 309 006e FFF7FEFF 		bl	adcStartConversion
 310              	.LVL24:
 311              	.LBB68:
 312              	.LBB69:
 313              		.loc 4 143 0
 314 0072 2C48     		ldr	r0, .L18+64
 315 0074 FFF7FEFF 		bl	chSemWait
 316              	.LVL25:
 317              	.LBE69:
 318              	.LBE68:
 319              		.loc 1 98 0
 320 0078 2B88     		ldrh	r3, [r5]
 321 007a 2381     		strh	r3, [r4, #8]	@ movhi
 322              	.L15:
 323              		.loc 1 102 0
 324 007c 07EE903A 		vmov	s15, r3	@ int
 325 0080 F8EEE77A 		vcvt.f32.s32	s15, s15
 326              		.loc 1 106 0
 327 0084 0C22     		movs	r2, #12
 328              		.loc 1 102 0
 329 0086 C7EEAA6A 		vdiv.f32	s13, s15, s21
 330              		.loc 1 106 0
 331 008a 1849     		ldr	r1, .L18+8
 332 008c 09A8     		add	r0, sp, #36
 333              		.loc 1 103 0
 334 008e 36EECA7A 		vsub.f32	s14, s13, s20
 335              		.loc 1 102 0
 336 0092 C4ED006A 		vstr.32	s13, [r4]
 337              		.loc 1 103 0
 338 0096 27EE297A 		vmul.f32	s14, s14, s19
 339              		.loc 1 104 0
 340 009a C7EE097A 		vdiv.f32	s15, s14, s18
 341              		.loc 1 105 0
 342 009e 77EEA87A 		vadd.f32	s15, s15, s17
ARM GAS  C:\Users\25521\AppData\Local\Temp\ccF2BKN4.s 			page 7


 343              		.loc 1 103 0
 344 00a2 C4ED017A 		vstr.32	s15, [r4, #4]
 345              		.loc 1 106 0
 346 00a6 FFF7FEFF 		bl	messagebus_topic_publish
 347              	.LVL26:
 348              		.loc 1 111 0
 349 00aa 4FF4FA70 		mov	r0, #500
 350 00ae FFF7FEFF 		bl	chThdSleep
 351              	.LVL27:
 352              	.LBB71:
 353              	.LBB70:
 354              		.loc 4 143 0
 355 00b2 1C48     		ldr	r0, .L18+64
 356 00b4 FFF7FEFF 		bl	chSemWait
 357              	.LVL28:
 358              	.LBE70:
 359              	.LBE71:
 360              		.loc 1 100 0
 361 00b8 2389     		ldrh	r3, [r4, #8]
 362 00ba D5ED007A 		vldr.32	s15, [r5]	@ int
 363 00be DFED1A6A 		vldr.32	s13, .L18+68
 364 00c2 07EE103A 		vmov	s14, r3	@ int
 365 00c6 F8EE677A 		vcvt.f32.u32	s15, s15
 366 00ca B8EE477A 		vcvt.f32.u32	s14, s14
 367 00ce 67EE887A 		vmul.f32	s15, s15, s16
 368 00d2 E7EE267A 		vfma.f32	s15, s14, s13
 369 00d6 FCEEE77A 		vcvt.u32.f32	s15, s15
 370 00da 17EE903A 		vmov	r3, s15	@ int
 371 00de 9BB2     		uxth	r3, r3
 372 00e0 2381     		strh	r3, [r4, #8]	@ movhi
 373 00e2 CBE7     		b	.L15
 374              	.L19:
 375              		.align	2
 376              	.L18:
 377 00e4 00000000 		.word	ch
 378 00e8 00000000 		.word	__stack_chk_guard
 379 00ec 00000000 		.word	.LANCHOR4
 380 00f0 00000000 		.word	.LC0
 381 00f4 0C000000 		.word	.LC1
 382 00f8 00000000 		.word	bus
 383 00fc 00000000 		.word	.LANCHOR0
 384 0100 CDCC4C44 		.word	1145883853
 385 0104 9A995940 		.word	1079613850
 386 0108 0000C842 		.word	1120403456
 387 010c C8CC4C3F 		.word	1061997768
 388 0110 00000000 		.word	0
 389 0114 CDCC4C3E 		.word	1045220557
 390 0118 00000000 		.word	ADCD3
 391 011c 00000000 		.word	.LANCHOR1
 392 0120 00000000 		.word	.LANCHOR2
 393 0124 00000000 		.word	.LANCHOR3
 394 0128 CDCC4C3F 		.word	1061997773
 395              		.cfi_endproc
 396              	.LFE271:
 397              		.size	battery_thd, .-battery_thd
 398              		.section	.text.battery_level_start,"ax",%progbits
 399              		.align	1
ARM GAS  C:\Users\25521\AppData\Local\Temp\ccF2BKN4.s 			page 8


 400              		.p2align 4,,15
 401              		.global	battery_level_start
 402              		.syntax unified
 403              		.thumb
 404              		.thumb_func
 405              		.fpu fpv4-sp-d16
 406              		.type	battery_level_start, %function
 407              	battery_level_start:
 408              	.LFB272:
 409              		.loc 1 121 0
 410              		.cfi_startproc
 411              		@ args = 0, pretend = 0, frame = 8
 412              		@ frame_needed = 0, uses_anonymous_args = 0
 413 0000 10B5     		push	{r4, lr}
 414              		.cfi_def_cfa_offset 8
 415              		.cfi_offset 4, -8
 416              		.cfi_offset 14, -4
 417 0002 0C4C     		ldr	r4, .L24
 418              		.loc 1 122 0
 419 0004 0C48     		ldr	r0, .L24+4
 420              		.loc 1 121 0
 421 0006 2368     		ldr	r3, [r4]
 422 0008 84B0     		sub	sp, sp, #16
 423              		.cfi_def_cfa_offset 24
 424              		.loc 1 122 0
 425 000a 0021     		movs	r1, #0
 426              		.loc 1 121 0
 427 000c 0393     		str	r3, [sp, #12]
 428              		.loc 1 122 0
 429 000e FFF7FEFF 		bl	adcStart
 430              	.LVL29:
 431              		.loc 1 124 0
 432 0012 0023     		movs	r3, #0
 433 0014 0093     		str	r3, [sp]
 434 0016 4022     		movs	r2, #64
 435 0018 084B     		ldr	r3, .L24+8
 436 001a 0948     		ldr	r0, .L24+12
 437 001c 4FF41E71 		mov	r1, #632
 438 0020 FFF7FEFF 		bl	chThdCreateStatic
 439              	.LVL30:
 440              		.loc 1 125 0
 441 0024 039A     		ldr	r2, [sp, #12]
 442 0026 2368     		ldr	r3, [r4]
 443 0028 9A42     		cmp	r2, r3
 444 002a 01D1     		bne	.L23
 445 002c 04B0     		add	sp, sp, #16
 446              		.cfi_remember_state
 447              		.cfi_def_cfa_offset 8
 448              		@ sp needed
 449 002e 10BD     		pop	{r4, pc}
 450              	.L23:
 451              		.cfi_restore_state
 452 0030 FFF7FEFF 		bl	__stack_chk_fail
 453              	.LVL31:
 454              	.L25:
 455              		.align	2
 456              	.L24:
ARM GAS  C:\Users\25521\AppData\Local\Temp\ccF2BKN4.s 			page 9


 457 0034 00000000 		.word	__stack_chk_guard
 458 0038 00000000 		.word	ADCD3
 459 003c 00000000 		.word	battery_thd
 460 0040 00000000 		.word	.LANCHOR5
 461              		.cfi_endproc
 462              	.LFE272:
 463              		.size	battery_level_start, .-battery_level_start
 464              		.section	.text.get_battery_raw,"ax",%progbits
 465              		.align	1
 466              		.p2align 4,,15
 467              		.global	get_battery_raw
 468              		.syntax unified
 469              		.thumb
 470              		.thumb_func
 471              		.fpu fpv4-sp-d16
 472              		.type	get_battery_raw, %function
 473              	get_battery_raw:
 474              	.LFB273:
 475              		.loc 1 127 0
 476              		.cfi_startproc
 477              		@ args = 0, pretend = 0, frame = 8
 478              		@ frame_needed = 0, uses_anonymous_args = 0
 479 0000 00B5     		push	{lr}
 480              		.cfi_def_cfa_offset 4
 481              		.cfi_offset 14, -4
 482 0002 074B     		ldr	r3, .L30
 483              		.loc 1 128 0
 484 0004 0749     		ldr	r1, .L30+4
 485              		.loc 1 127 0
 486 0006 1A68     		ldr	r2, [r3]
 487              		.loc 1 129 0
 488 0008 0889     		ldrh	r0, [r1, #8]
 489              		.loc 1 127 0
 490 000a 83B0     		sub	sp, sp, #12
 491              		.cfi_def_cfa_offset 16
 492              		.loc 1 127 0
 493 000c 0192     		str	r2, [sp, #4]
 494              		.loc 1 129 0
 495 000e 019A     		ldr	r2, [sp, #4]
 496 0010 1B68     		ldr	r3, [r3]
 497 0012 9A42     		cmp	r2, r3
 498 0014 02D1     		bne	.L29
 499 0016 03B0     		add	sp, sp, #12
 500              		.cfi_remember_state
 501              		.cfi_def_cfa_offset 4
 502              		@ sp needed
 503 0018 5DF804FB 		ldr	pc, [sp], #4
 504              	.L29:
 505              		.cfi_restore_state
 506 001c FFF7FEFF 		bl	__stack_chk_fail
 507              	.LVL32:
 508              	.L31:
 509              		.align	2
 510              	.L30:
 511 0020 00000000 		.word	__stack_chk_guard
 512 0024 00000000 		.word	.LANCHOR4
 513              		.cfi_endproc
ARM GAS  C:\Users\25521\AppData\Local\Temp\ccF2BKN4.s 			page 10


 514              	.LFE273:
 515              		.size	get_battery_raw, .-get_battery_raw
 516              		.section	.text.get_battery_voltage,"ax",%progbits
 517              		.align	1
 518              		.p2align 4,,15
 519              		.global	get_battery_voltage
 520              		.syntax unified
 521              		.thumb
 522              		.thumb_func
 523              		.fpu fpv4-sp-d16
 524              		.type	get_battery_voltage, %function
 525              	get_battery_voltage:
 526              	.LFB274:
 527              		.loc 1 131 0
 528              		.cfi_startproc
 529              		@ args = 0, pretend = 0, frame = 8
 530              		@ frame_needed = 0, uses_anonymous_args = 0
 531 0000 00B5     		push	{lr}
 532              		.cfi_def_cfa_offset 4
 533              		.cfi_offset 14, -4
 534 0002 084B     		ldr	r3, .L36
 535              		.loc 1 132 0
 536 0004 0849     		ldr	r1, .L36+4
 537              		.loc 1 131 0
 538 0006 1A68     		ldr	r2, [r3]
 539              		.loc 1 133 0
 540 0008 91ED000A 		vldr.32	s0, [r1]
 541              		.loc 1 131 0
 542 000c 83B0     		sub	sp, sp, #12
 543              		.cfi_def_cfa_offset 16
 544              		.loc 1 131 0
 545 000e 0192     		str	r2, [sp, #4]
 546              		.loc 1 133 0
 547 0010 019A     		ldr	r2, [sp, #4]
 548 0012 1B68     		ldr	r3, [r3]
 549 0014 9A42     		cmp	r2, r3
 550 0016 02D1     		bne	.L35
 551 0018 03B0     		add	sp, sp, #12
 552              		.cfi_remember_state
 553              		.cfi_def_cfa_offset 4
 554              		@ sp needed
 555 001a 5DF804FB 		ldr	pc, [sp], #4
 556              	.L35:
 557              		.cfi_restore_state
 558 001e FFF7FEFF 		bl	__stack_chk_fail
 559              	.LVL33:
 560              	.L37:
 561 0022 00BF     		.align	2
 562              	.L36:
 563 0024 00000000 		.word	__stack_chk_guard
 564 0028 00000000 		.word	.LANCHOR4
 565              		.cfi_endproc
 566              	.LFE274:
 567              		.size	get_battery_voltage, .-get_battery_voltage
 568              		.section	.text.get_battery_percentage,"ax",%progbits
 569              		.align	1
 570              		.p2align 4,,15
ARM GAS  C:\Users\25521\AppData\Local\Temp\ccF2BKN4.s 			page 11


 571              		.global	get_battery_percentage
 572              		.syntax unified
 573              		.thumb
 574              		.thumb_func
 575              		.fpu fpv4-sp-d16
 576              		.type	get_battery_percentage, %function
 577              	get_battery_percentage:
 578              	.LFB275:
 579              		.loc 1 135 0
 580              		.cfi_startproc
 581              		@ args = 0, pretend = 0, frame = 8
 582              		@ frame_needed = 0, uses_anonymous_args = 0
 583 0000 00B5     		push	{lr}
 584              		.cfi_def_cfa_offset 4
 585              		.cfi_offset 14, -4
 586 0002 084B     		ldr	r3, .L42
 587              		.loc 1 136 0
 588 0004 0849     		ldr	r1, .L42+4
 589              		.loc 1 135 0
 590 0006 1A68     		ldr	r2, [r3]
 591              		.loc 1 137 0
 592 0008 91ED010A 		vldr.32	s0, [r1, #4]
 593              		.loc 1 135 0
 594 000c 83B0     		sub	sp, sp, #12
 595              		.cfi_def_cfa_offset 16
 596              		.loc 1 135 0
 597 000e 0192     		str	r2, [sp, #4]
 598              		.loc 1 137 0
 599 0010 019A     		ldr	r2, [sp, #4]
 600 0012 1B68     		ldr	r3, [r3]
 601 0014 9A42     		cmp	r2, r3
 602 0016 02D1     		bne	.L41
 603 0018 03B0     		add	sp, sp, #12
 604              		.cfi_remember_state
 605              		.cfi_def_cfa_offset 4
 606              		@ sp needed
 607 001a 5DF804FB 		ldr	pc, [sp], #4
 608              	.L41:
 609              		.cfi_restore_state
 610 001e FFF7FEFF 		bl	__stack_chk_fail
 611              	.LVL34:
 612              	.L43:
 613 0022 00BF     		.align	2
 614              	.L42:
 615 0024 00000000 		.word	__stack_chk_guard
 616 0028 00000000 		.word	.LANCHOR4
 617              		.cfi_endproc
 618              	.LFE275:
 619              		.size	get_battery_percentage, .-get_battery_percentage
 620              		.section	.text.battery_check,"ax",%progbits
 621              		.align	1
 622              		.p2align 4,,15
 623              		.global	battery_check
 624              		.syntax unified
 625              		.thumb
 626              		.thumb_func
 627              		.fpu fpv4-sp-d16
ARM GAS  C:\Users\25521\AppData\Local\Temp\ccF2BKN4.s 			page 12


 628              		.type	battery_check, %function
 629              	battery_check:
 630              	.LFB276:
 631              		.loc 1 139 0
 632              		.cfi_startproc
 633              		@ args = 0, pretend = 0, frame = 8
 634              		@ frame_needed = 0, uses_anonymous_args = 0
 635 0000 30B5     		push	{r4, r5, lr}
 636              		.cfi_def_cfa_offset 12
 637              		.cfi_offset 4, -12
 638              		.cfi_offset 5, -8
 639              		.cfi_offset 14, -4
 640              		.loc 1 140 0
 641 0002 134D     		ldr	r5, .L55
 642              		.loc 1 139 0
 643 0004 134C     		ldr	r4, .L55+4
 644              		.loc 1 140 0
 645 0006 2A89     		ldrh	r2, [r5, #8]
 646              		.loc 1 139 0
 647 0008 2368     		ldr	r3, [r4]
 648 000a 83B0     		sub	sp, sp, #12
 649              		.cfi_def_cfa_offset 24
 650              		.loc 1 139 0
 651 000c 0193     		str	r3, [sp, #4]
 652              		.loc 1 140 0
 653 000e 40F65333 		movw	r3, #2899
 654 0012 9A42     		cmp	r2, r3
 655              		.loc 1 143 0
 656 0014 8DBF     		iteet	hi
 657 0016 0021     		movhi	r1, #0
 658              		.loc 1 141 0
 659 0018 0121     		movls	r1, #1
 660 001a 0020     		movls	r0, #0
 661              		.loc 1 143 0
 662 001c 0846     		movhi	r0, r1
 663 001e FFF7FEFF 		bl	set_led
 664              	.LVL35:
 665              		.loc 1 146 0
 666 0022 2A89     		ldrh	r2, [r5, #8]
 667 0024 40F62723 		movw	r3, #2599
 668 0028 9A42     		cmp	r2, r3
 669              		.loc 1 147 0
 670 002a 019A     		ldr	r2, [sp, #4]
 671 002c 2368     		ldr	r3, [r4]
 672              		.loc 1 146 0
 673 002e 09D9     		bls	.L54
 674              		.loc 1 149 0
 675 0030 9A42     		cmp	r2, r3
 676 0032 08BF     		it	eq
 677 0034 0021     		moveq	r1, #0
 678 0036 09D1     		bne	.L53
 679              	.L52:
 680 0038 0120     		movs	r0, #1
 681              		.loc 1 151 0
 682 003a 03B0     		add	sp, sp, #12
 683              		.cfi_remember_state
 684              		.cfi_def_cfa_offset 12
ARM GAS  C:\Users\25521\AppData\Local\Temp\ccF2BKN4.s 			page 13


 685              		@ sp needed
 686 003c BDE83040 		pop	{r4, r5, lr}
 687              		.cfi_restore 14
 688              		.cfi_restore 5
 689              		.cfi_restore 4
 690              		.cfi_def_cfa_offset 0
 691              		.loc 1 149 0
 692 0040 FFF7FEBF 		b	set_led
 693              	.LVL36:
 694              	.L54:
 695              		.cfi_restore_state
 696              		.loc 1 147 0
 697 0044 9A42     		cmp	r2, r3
 698 0046 08BF     		it	eq
 699 0048 0121     		moveq	r1, #1
 700 004a F5D0     		beq	.L52
 701              	.L53:
 702              		.loc 1 149 0
 703 004c FFF7FEFF 		bl	__stack_chk_fail
 704              	.LVL37:
 705              	.L56:
 706              		.align	2
 707              	.L55:
 708 0050 00000000 		.word	.LANCHOR4
 709 0054 00000000 		.word	__stack_chk_guard
 710              		.cfi_endproc
 711              	.LFE276:
 712              		.size	battery_check, .-battery_check
 713              		.section	.bss.adc_samples,"aw",%nobits
 714              		.align	2
 715              		.set	.LANCHOR1,. + 0
 716              		.type	adc_samples, %object
 717              		.size	adc_samples, 64
 718              	adc_samples:
 719 0000 00000000 		.space	64
 719      00000000 
 719      00000000 
 719      00000000 
 719      00000000 
 720              		.section	.bss.adc_value,"aw",%nobits
 721              		.align	2
 722              		.set	.LANCHOR0,. + 0
 723              		.type	adc_value, %object
 724              		.size	adc_value, 4
 725              	adc_value:
 726 0000 00000000 		.space	4
 727              		.section	.bss.battery_thd_wa.12184,"aw",%nobits
 728              		.align	3
 729              		.set	.LANCHOR5,. + 0
 730              		.type	battery_thd_wa.12184, %object
 731              		.size	battery_thd_wa.12184, 632
 732              	battery_thd_wa.12184:
 733 0000 00000000 		.space	632
 733      00000000 
 733      00000000 
 733      00000000 
 733      00000000 
ARM GAS  C:\Users\25521\AppData\Local\Temp\ccF2BKN4.s 			page 14


 734              		.section	.bss.battery_value,"aw",%nobits
 735              		.align	2
 736              		.set	.LANCHOR4,. + 0
 737              		.type	battery_value, %object
 738              		.size	battery_value, 12
 739              	battery_value:
 740 0000 00000000 		.space	12
 740      00000000 
 740      00000000 
 741              		.section	.data.measurement_ready,"aw",%progbits
 742              		.align	2
 743              		.set	.LANCHOR3,. + 0
 744              		.type	measurement_ready, %object
 745              		.size	measurement_ready, 12
 746              	measurement_ready:
 747 0000 00000000 		.word	measurement_ready
 748 0004 00000000 		.word	measurement_ready
 749 0008 00000000 		.word	0
 750              		.section	.rodata.battery_thd.str1.4,"aMS",%progbits,1
 751              		.align	2
 752              	.LC0:
 753 0000 42617474 		.ascii	"Battery Thd\000"
 753      65727920 
 753      54686400 
 754              	.LC1:
 755 000c 2F626174 		.ascii	"/battery_level\000"
 755      74657279 
 755      5F6C6576 
 755      656C00
 756              		.section	.rodata.group,"a",%progbits
 757              		.align	2
 758              		.set	.LANCHOR2,. + 0
 759              		.type	group, %object
 760              		.size	group, 40
 761              	group:
 762 0000 00       		.byte	0
 763 0001 00       		.space	1
 764 0002 0100     		.short	1
 765 0004 00000000 		.word	adc_cb
 766 0008 00000000 		.word	0
 767 000c 00000000 		.word	0
 768 0010 00000040 		.word	1073741824
 769 0014 00000000 		.word	0
 770 0018 38000000 		.word	56
 771 001c 00000000 		.word	0
 772 0020 00000000 		.word	0
 773 0024 01000000 		.word	1
 774              		.text
 775              	.Letext0:
 776              		.file 6 "d:\\eclipse_e-puck2_win32_11_apr_2018\\eclipse_e-puck2\\tools\\gcc-arm-none-eabi-7-2017-q
 777              		.file 7 "d:\\eclipse_e-puck2_win32_11_apr_2018\\eclipse_e-puck2\\tools\\gcc-arm-none-eabi-7-2017-q
 778              		.file 8 "d:\\eclipse_e-puck2_win32_11_apr_2018\\eclipse_e-puck2\\tools\\gcc-arm-none-eabi-7-2017-q
 779              		.file 9 "../e-puck2_main-processor/ChibiOS//os/rt/ports/ARMCMx/compilers/GCC/chtypes.h"
 780              		.file 10 "../e-puck2_main-processor/ChibiOS//os/rt/include/chsystypes.h"
 781              		.file 11 "../e-puck2_main-processor/ChibiOS//os/rt/include/chschd.h"
 782              		.file 12 "../e-puck2_main-processor/ChibiOS//os/ext/CMSIS/include/core_cm4.h"
 783              		.file 13 "../e-puck2_main-processor/ChibiOS//os/ext/CMSIS/ST/system_stm32f4xx.h"
ARM GAS  C:\Users\25521\AppData\Local\Temp\ccF2BKN4.s 			page 15


 784              		.file 14 "../e-puck2_main-processor/ChibiOS//os/ext/CMSIS/ST/stm32f407xx.h"
 785              		.file 15 "../e-puck2_main-processor/ChibiOS//os/rt/ports/ARMCMx/chcore.h"
 786              		.file 16 "../e-puck2_main-processor/ChibiOS//os/rt/ports/ARMCMx/chcore_v7m.h"
 787              		.file 17 "../e-puck2_main-processor/ChibiOS//os/rt/include/chdebug.h"
 788              		.file 18 "../e-puck2_main-processor/ChibiOS//os/rt/include/chtm.h"
 789              		.file 19 "../e-puck2_main-processor/ChibiOS//os/rt/include/chstats.h"
 790              		.file 20 "../e-puck2_main-processor/ChibiOS//os/rt/include/chsem.h"
 791              		.file 21 "../e-puck2_main-processor/ChibiOS//os/rt/include/chmtx.h"
 792              		.file 22 "../e-puck2_main-processor/ChibiOS//os/rt/include/chcond.h"
 793              		.file 23 "../e-puck2_main-processor/ChibiOS//os/rt/include/chevents.h"
 794              		.file 24 "../e-puck2_main-processor/ChibiOS//os/rt/include/chqueues.h"
 795              		.file 25 "../e-puck2_main-processor/ChibiOS//os/hal/ports/STM32/LLD/DMAv2/stm32_dma.h"
 796              		.file 26 "../e-puck2_main-processor/ChibiOS//os/hal/include/hal_ioblock.h"
 797              		.file 27 "../e-puck2_main-processor/ChibiOS//os/hal/ports/STM32/LLD/GPIOv2/pal_lld.h"
 798              		.file 28 "../e-puck2_main-processor/ChibiOS//os/hal/include/adc.h"
 799              		.file 29 "../e-puck2_main-processor/ChibiOS//os/hal/ports/STM32/LLD/ADCv2/adc_lld.h"
 800              		.file 30 "../e-puck2_main-processor/ChibiOS//os/hal/include/can.h"
 801              		.file 31 "../e-puck2_main-processor/ChibiOS//os/hal/ports/STM32/LLD/CANv1/can_lld.h"
 802              		.file 32 "../e-puck2_main-processor/ChibiOS//os/hal/include/dac.h"
 803              		.file 33 "../e-puck2_main-processor/ChibiOS//os/hal/ports/STM32/LLD/DACv1/dac_lld.h"
 804              		.file 34 "../e-puck2_main-processor/ChibiOS//os/hal/include/ext.h"
 805              		.file 35 "../e-puck2_main-processor/ChibiOS//os/hal/ports/STM32/LLD/EXTIv1/ext_lld.h"
 806              		.file 36 "../e-puck2_main-processor/ChibiOS//os/hal/include/gpt.h"
 807              		.file 37 "../e-puck2_main-processor/ChibiOS//os/hal/ports/STM32/LLD/TIMv1/gpt_lld.h"
 808              		.file 38 "../e-puck2_main-processor/ChibiOS//os/hal/ports/STM32/LLD/TIMv1/stm32_tim.h"
 809              		.file 39 "../e-puck2_main-processor/ChibiOS//os/hal/include/i2c.h"
 810              		.file 40 "../e-puck2_main-processor/ChibiOS//os/hal/ports/STM32/LLD/I2Cv1/i2c_lld.h"
 811              		.file 41 "../e-puck2_main-processor/ChibiOS//os/hal/include/i2s.h"
 812              		.file 42 "../e-puck2_main-processor/ChibiOS//os/hal/ports/STM32/LLD/SPIv1/i2s_lld.h"
 813              		.file 43 "../e-puck2_main-processor/ChibiOS//os/hal/include/pwm.h"
 814              		.file 44 "../e-puck2_main-processor/ChibiOS//os/hal/ports/STM32/LLD/TIMv1/pwm_lld.h"
 815              		.file 45 "../e-puck2_main-processor/ChibiOS//os/hal/include/serial.h"
 816              		.file 46 "../e-puck2_main-processor/ChibiOS//os/hal/ports/STM32/LLD/USARTv1/serial_lld.h"
 817              		.file 47 "../e-puck2_main-processor/ChibiOS//os/hal/include/sdc.h"
 818              		.file 48 "../e-puck2_main-processor/ChibiOS//os/hal/ports/STM32/LLD/SDIOv1/sdc_lld.h"
 819              		.file 49 "../e-puck2_main-processor/ChibiOS//os/hal/include/spi.h"
 820              		.file 50 "../e-puck2_main-processor/ChibiOS//os/hal/ports/STM32/LLD/SPIv1/spi_lld.h"
 821              		.file 51 "../e-puck2_main-processor/ChibiOS//os/hal/include/usb.h"
 822              		.file 52 "../e-puck2_main-processor/ChibiOS//os/hal/ports/STM32/LLD/OTGv1/usb_lld.h"
 823              		.file 53 "../e-puck2_main-processor/ChibiOS//os/hal/ports/STM32/LLD/OTGv1/stm32_otg.h"
 824              		.file 54 "d:\\eclipse_e-puck2_win32_11_apr_2018\\eclipse_e-puck2\\tools\\gcc-arm-none-eabi-7-2017-
 825              		.file 55 "d:\\eclipse_e-puck2_win32_11_apr_2018\\eclipse_e-puck2\\tools\\gcc-arm-none-eabi-7-2017-
 826              		.file 56 "d:\\eclipse_e-puck2_win32_11_apr_2018\\eclipse_e-puck2\\tools\\gcc-arm-none-eabi-7-2017-
 827              		.file 57 "../e-puck2_main-processor/src/sensors/battery_level.h"
 828              		.file 58 "../e-puck2_main-processor/src/leds.h"
 829              		.file 59 "../e-puck2_main-processor/ChibiOS_ext/os/hal/include/../ports/STM32/STM32F4xx/dcmi_lld.h
 830              		.file 60 "d:\\eclipse_e-puck2_win32_11_apr_2018\\eclipse_e-puck2\\tools\\gcc-arm-none-eabi-7-2017-
 831              		.file 61 "../e-puck2_main-processor/src/msgbus/messagebus.h"
 832              		.file 62 "d:\\eclipse_e-puck2_win32_11_apr_2018\\eclipse_e-puck2\\tools\\gcc-arm-none-eabi-7-2017-
 833              		.file 63 "../e-puck2_main-processor/src/parameter/parameter.h"
 834              		.file 64 "./main.h"
 835              		.file 65 "../e-puck2_main-processor/ChibiOS//os/rt/include/chthreads.h"