ARM GAS  C:\Users\25521\AppData\Local\Temp\ccUCecMW.s 			page 1


   1              		.cpu cortex-m4
   2              		.eabi_attribute 27, 1
   3              		.eabi_attribute 28, 1
   4              		.eabi_attribute 20, 1
   5              		.eabi_attribute 21, 1
   6              		.eabi_attribute 23, 3
   7              		.eabi_attribute 24, 1
   8              		.eabi_attribute 25, 1
   9              		.eabi_attribute 26, 1
  10              		.eabi_attribute 30, 2
  11              		.eabi_attribute 34, 1
  12              		.eabi_attribute 18, 4
  13              		.file	"button.c"
  14              		.text
  15              	.Ltext0:
  16              		.cfi_sections	.debug_frame
  17              		.section	.text.button_get_state,"ax",%progbits
  18              		.align	1
  19              		.p2align 4,,15
  20              		.global	button_get_state
  21              		.syntax unified
  22              		.thumb
  23              		.thumb_func
  24              		.fpu fpv4-sp-d16
  25              		.type	button_get_state, %function
  26              	button_get_state:
  27              	.LFB267:
  28              		.file 1 "../e-puck2_main-processor/src/button.c"
  29              		.loc 1 9 0
  30              		.cfi_startproc
  31              		@ args = 0, pretend = 0, frame = 8
  32              		@ frame_needed = 0, uses_anonymous_args = 0
  33 0000 00B5     		push	{lr}
  34              		.cfi_def_cfa_offset 4
  35              		.cfi_offset 14, -4
  36 0002 074B     		ldr	r3, .L6
  37              		.loc 1 10 0
  38 0004 0749     		ldr	r1, .L6+4
  39              		.loc 1 9 0
  40 0006 1A68     		ldr	r2, [r3]
  41              		.loc 1 11 0
  42 0008 0878     		ldrb	r0, [r1]	@ zero_extendqisi2
  43              		.loc 1 9 0
  44 000a 83B0     		sub	sp, sp, #12
  45              		.cfi_def_cfa_offset 16
  46              		.loc 1 9 0
  47 000c 0192     		str	r2, [sp, #4]
  48              		.loc 1 11 0
  49 000e 019A     		ldr	r2, [sp, #4]
  50 0010 1B68     		ldr	r3, [r3]
  51 0012 9A42     		cmp	r2, r3
  52 0014 02D1     		bne	.L5
  53 0016 03B0     		add	sp, sp, #12
  54              		.cfi_remember_state
  55              		.cfi_def_cfa_offset 4
  56              		@ sp needed
  57 0018 5DF804FB 		ldr	pc, [sp], #4
ARM GAS  C:\Users\25521\AppData\Local\Temp\ccUCecMW.s 			page 2


  58              	.L5:
  59              		.cfi_restore_state
  60 001c FFF7FEFF 		bl	__stack_chk_fail
  61              	.LVL0:
  62              	.L7:
  63              		.align	2
  64              	.L6:
  65 0020 00000000 		.word	__stack_chk_guard
  66 0024 00000000 		.word	.LANCHOR0
  67              		.cfi_endproc
  68              	.LFE267:
  69              		.size	button_get_state, .-button_get_state
  70              		.section	.text.button_set_state,"ax",%progbits
  71              		.align	1
  72              		.p2align 4,,15
  73              		.global	button_set_state
  74              		.syntax unified
  75              		.thumb
  76              		.thumb_func
  77              		.fpu fpv4-sp-d16
  78              		.type	button_set_state, %function
  79              	button_set_state:
  80              	.LFB268:
  81              		.loc 1 13 0
  82              		.cfi_startproc
  83              		@ args = 0, pretend = 0, frame = 8
  84              		@ frame_needed = 0, uses_anonymous_args = 0
  85              	.LVL1:
  86 0000 00B5     		push	{lr}
  87              		.cfi_def_cfa_offset 4
  88              		.cfi_offset 14, -4
  89 0002 074B     		ldr	r3, .L12
  90              		.loc 1 14 0
  91 0004 0749     		ldr	r1, .L12+4
  92              		.loc 1 13 0
  93 0006 1A68     		ldr	r2, [r3]
  94              		.loc 1 14 0
  95 0008 0870     		strb	r0, [r1]
  96              		.loc 1 13 0
  97 000a 83B0     		sub	sp, sp, #12
  98              		.cfi_def_cfa_offset 16
  99              		.loc 1 13 0
 100 000c 0192     		str	r2, [sp, #4]
 101              		.loc 1 15 0
 102 000e 019A     		ldr	r2, [sp, #4]
 103 0010 1B68     		ldr	r3, [r3]
 104 0012 9A42     		cmp	r2, r3
 105 0014 02D1     		bne	.L11
 106 0016 03B0     		add	sp, sp, #12
 107              		.cfi_remember_state
 108              		.cfi_def_cfa_offset 4
 109              		@ sp needed
 110 0018 5DF804FB 		ldr	pc, [sp], #4
 111              	.L11:
 112              		.cfi_restore_state
 113 001c FFF7FEFF 		bl	__stack_chk_fail
 114              	.LVL2:
ARM GAS  C:\Users\25521\AppData\Local\Temp\ccUCecMW.s 			page 3


 115              	.L13:
 116              		.align	2
 117              	.L12:
 118 0020 00000000 		.word	__stack_chk_guard
 119 0024 00000000 		.word	.LANCHOR0
 120              		.cfi_endproc
 121              	.LFE268:
 122              		.size	button_set_state, .-button_set_state
 123              		.section	.text.button_is_pressed,"ax",%progbits
 124              		.align	1
 125              		.p2align 4,,15
 126              		.global	button_is_pressed
 127              		.syntax unified
 128              		.thumb
 129              		.thumb_func
 130              		.fpu fpv4-sp-d16
 131              		.type	button_is_pressed, %function
 132              	button_is_pressed:
 133              	.LFB269:
 134              		.loc 1 17 0
 135              		.cfi_startproc
 136              		@ args = 0, pretend = 0, frame = 8
 137              		@ frame_needed = 0, uses_anonymous_args = 0
 138 0000 00B5     		push	{lr}
 139              		.cfi_def_cfa_offset 4
 140              		.cfi_offset 14, -4
 141 0002 0A4B     		ldr	r3, .L18
 142              		.loc 1 18 0
 143 0004 0A49     		ldr	r1, .L18+4
 144              		.loc 1 17 0
 145 0006 1A68     		ldr	r2, [r3]
 146              		.loc 1 18 0
 147 0008 0878     		ldrb	r0, [r1]	@ zero_extendqisi2
 148              		.loc 1 17 0
 149 000a 83B0     		sub	sp, sp, #12
 150              		.cfi_def_cfa_offset 16
 151              		.loc 1 19 0
 152 000c A0F10100 		sub	r0, #1
 153              		.loc 1 17 0
 154 0010 0192     		str	r2, [sp, #4]
 155              		.loc 1 19 0
 156 0012 019A     		ldr	r2, [sp, #4]
 157 0014 1B68     		ldr	r3, [r3]
 158 0016 B0FA80F0 		clz	r0, r0
 159 001a 9A42     		cmp	r2, r3
 160 001c 4FEA5010 		lsr	r0, r0, #5
 161 0020 02D1     		bne	.L17
 162 0022 03B0     		add	sp, sp, #12
 163              		.cfi_remember_state
 164              		.cfi_def_cfa_offset 4
 165              		@ sp needed
 166 0024 5DF804FB 		ldr	pc, [sp], #4
 167              	.L17:
 168              		.cfi_restore_state
 169 0028 FFF7FEFF 		bl	__stack_chk_fail
 170              	.LVL3:
 171              	.L19:
ARM GAS  C:\Users\25521\AppData\Local\Temp\ccUCecMW.s 			page 4


 172              		.align	2
 173              	.L18:
 174 002c 00000000 		.word	__stack_chk_guard
 175 0030 00000000 		.word	.LANCHOR0
 176              		.cfi_endproc
 177              	.LFE269:
 178              		.size	button_is_pressed, .-button_is_pressed
 179              		.section	.bss.button_state,"aw",%nobits
 180              		.set	.LANCHOR0,. + 0
 181              		.type	button_state, %object
 182              		.size	button_state, 1
 183              	button_state:
 184 0000 00       		.space	1
 185              		.text
 186              	.Letext0:
 187              		.file 2 "d:\\eclipse_e-puck2_win32_11_apr_2018\\eclipse_e-puck2\\tools\\gcc-arm-none-eabi-7-2017-q
 188              		.file 3 "d:\\eclipse_e-puck2_win32_11_apr_2018\\eclipse_e-puck2\\tools\\gcc-arm-none-eabi-7-2017-q
 189              		.file 4 "d:\\eclipse_e-puck2_win32_11_apr_2018\\eclipse_e-puck2\\tools\\gcc-arm-none-eabi-7-2017-q
 190              		.file 5 "../e-puck2_main-processor/ChibiOS//os/rt/ports/ARMCMx/compilers/GCC/chtypes.h"
 191              		.file 6 "../e-puck2_main-processor/ChibiOS//os/rt/include/chsystypes.h"
 192              		.file 7 "../e-puck2_main-processor/ChibiOS//os/rt/include/chschd.h"
 193              		.file 8 "../e-puck2_main-processor/ChibiOS//os/ext/CMSIS/include/core_cm4.h"
 194              		.file 9 "../e-puck2_main-processor/ChibiOS//os/ext/CMSIS/ST/system_stm32f4xx.h"
 195              		.file 10 "../e-puck2_main-processor/ChibiOS//os/ext/CMSIS/ST/stm32f407xx.h"
 196              		.file 11 "../e-puck2_main-processor/ChibiOS//os/rt/ports/ARMCMx/chcore.h"
 197              		.file 12 "../e-puck2_main-processor/ChibiOS//os/rt/ports/ARMCMx/chcore_v7m.h"
 198              		.file 13 "../e-puck2_main-processor/ChibiOS//os/rt/include/chdebug.h"
 199              		.file 14 "../e-puck2_main-processor/ChibiOS//os/rt/include/chtm.h"
 200              		.file 15 "../e-puck2_main-processor/ChibiOS//os/rt/include/chstats.h"
 201              		.file 16 "../e-puck2_main-processor/ChibiOS//os/rt/include/chsem.h"
 202              		.file 17 "../e-puck2_main-processor/ChibiOS//os/rt/include/chmtx.h"
 203              		.file 18 "../e-puck2_main-processor/ChibiOS//os/rt/include/chregistry.h"
 204              		.file 19 "../e-puck2_main-processor/ChibiOS//os/rt/include/chevents.h"
 205              		.file 20 "../e-puck2_main-processor/ChibiOS//os/rt/include/chqueues.h"
 206              		.file 21 "../e-puck2_main-processor/ChibiOS//os/hal/ports/STM32/LLD/DMAv2/stm32_dma.h"
 207              		.file 22 "../e-puck2_main-processor/ChibiOS//os/hal/include/hal_ioblock.h"
 208              		.file 23 "../e-puck2_main-processor/ChibiOS//os/hal/ports/STM32/LLD/GPIOv2/pal_lld.h"
 209              		.file 24 "../e-puck2_main-processor/ChibiOS//os/hal/include/adc.h"
 210              		.file 25 "../e-puck2_main-processor/ChibiOS//os/hal/ports/STM32/LLD/ADCv2/adc_lld.h"
 211              		.file 26 "../e-puck2_main-processor/ChibiOS//os/hal/include/can.h"
 212              		.file 27 "../e-puck2_main-processor/ChibiOS//os/hal/ports/STM32/LLD/CANv1/can_lld.h"
 213              		.file 28 "../e-puck2_main-processor/ChibiOS//os/hal/include/dac.h"
 214              		.file 29 "../e-puck2_main-processor/ChibiOS//os/hal/ports/STM32/LLD/DACv1/dac_lld.h"
 215              		.file 30 "../e-puck2_main-processor/ChibiOS//os/hal/include/ext.h"
 216              		.file 31 "../e-puck2_main-processor/ChibiOS//os/hal/ports/STM32/LLD/EXTIv1/ext_lld.h"
 217              		.file 32 "../e-puck2_main-processor/ChibiOS//os/hal/include/gpt.h"
 218              		.file 33 "../e-puck2_main-processor/ChibiOS//os/hal/ports/STM32/LLD/TIMv1/gpt_lld.h"
 219              		.file 34 "../e-puck2_main-processor/ChibiOS//os/hal/ports/STM32/LLD/TIMv1/stm32_tim.h"
 220              		.file 35 "../e-puck2_main-processor/ChibiOS//os/hal/include/i2c.h"
 221              		.file 36 "../e-puck2_main-processor/ChibiOS//os/hal/ports/STM32/LLD/I2Cv1/i2c_lld.h"
 222              		.file 37 "../e-puck2_main-processor/ChibiOS//os/hal/include/i2s.h"
 223              		.file 38 "../e-puck2_main-processor/ChibiOS//os/hal/ports/STM32/LLD/SPIv1/i2s_lld.h"
 224              		.file 39 "../e-puck2_main-processor/ChibiOS//os/hal/include/pwm.h"
 225              		.file 40 "../e-puck2_main-processor/ChibiOS//os/hal/ports/STM32/LLD/TIMv1/pwm_lld.h"
 226              		.file 41 "../e-puck2_main-processor/ChibiOS//os/hal/include/serial.h"
 227              		.file 42 "../e-puck2_main-processor/ChibiOS//os/hal/ports/STM32/LLD/USARTv1/serial_lld.h"
 228              		.file 43 "../e-puck2_main-processor/ChibiOS//os/hal/include/sdc.h"
ARM GAS  C:\Users\25521\AppData\Local\Temp\ccUCecMW.s 			page 5


 229              		.file 44 "../e-puck2_main-processor/ChibiOS//os/hal/ports/STM32/LLD/SDIOv1/sdc_lld.h"
 230              		.file 45 "../e-puck2_main-processor/ChibiOS//os/hal/include/spi.h"
 231              		.file 46 "../e-puck2_main-processor/ChibiOS//os/hal/ports/STM32/LLD/SPIv1/spi_lld.h"
 232              		.file 47 "../e-puck2_main-processor/ChibiOS//os/hal/include/usb.h"
 233              		.file 48 "../e-puck2_main-processor/ChibiOS//os/hal/ports/STM32/LLD/OTGv1/usb_lld.h"
 234              		.file 49 "../e-puck2_main-processor/ChibiOS//os/hal/ports/STM32/LLD/OTGv1/stm32_otg.h"