ARM GAS  C:\Users\25521\AppData\Local\Temp\cccrG13X.s 			page 1


   1              		.cpu cortex-m4
   2              		.eabi_attribute 27, 1
   3              		.eabi_attribute 28, 1
   4              		.eabi_attribute 20, 1
   5              		.eabi_attribute 21, 1
   6              		.eabi_attribute 23, 3
   7              		.eabi_attribute 24, 1
   8              		.eabi_attribute 25, 1
   9              		.eabi_attribute 26, 1
  10              		.eabi_attribute 30, 2
  11              		.eabi_attribute 34, 1
  12              		.eabi_attribute 18, 4
  13              		.file	"chprintf.c"
  14              		.text
  15              	.Ltext0:
  16              		.cfi_sections	.debug_frame
  17              		.global	__aeabi_d2f
  18              		.global	__aeabi_f2d
  19              		.global	__aeabi_ui2d
  20              		.global	__aeabi_i2d
  21              		.global	__aeabi_dsub
  22              		.global	__aeabi_dmul
  23              		.global	__aeabi_d2iz
  24              		.section	.text.chvprintf,"ax",%progbits
  25              		.align	1
  26              		.p2align 4,,15
  27              		.global	chvprintf
  28              		.syntax unified
  29              		.thumb
  30              		.thumb_func
  31              		.fpu fpv4-sp-d16
  32              		.type	chvprintf, %function
  33              	chvprintf:
  34              	.LFB271:
  35              		.file 1 "../e-puck2_main-processor/ChibiOS//os/hal/lib/streams/chprintf.c"
  36              		.loc 1 121 0
  37              		.cfi_startproc
  38              		@ args = 0, pretend = 0, frame = 72
  39              		@ frame_needed = 0, uses_anonymous_args = 0
  40              	.LVL0:
  41 0000 2DE9F04F 		push	{r4, r5, r6, r7, r8, r9, r10, fp, lr}
  42              		.cfi_def_cfa_offset 36
  43              		.cfi_offset 4, -36
  44              		.cfi_offset 5, -32
  45              		.cfi_offset 6, -28
  46              		.cfi_offset 7, -24
  47              		.cfi_offset 8, -20
  48              		.cfi_offset 9, -16
  49              		.cfi_offset 10, -12
  50              		.cfi_offset 11, -8
  51              		.cfi_offset 14, -4
  52 0004 2DED028B 		vpush.64	{d8}
  53              		.cfi_def_cfa_offset 44
  54              		.cfi_offset 80, -44
  55              		.cfi_offset 81, -40
  56 0008 864B     		ldr	r3, .L130
  57 000a 93B0     		sub	sp, sp, #76
ARM GAS  C:\Users\25521\AppData\Local\Temp\cccrG13X.s 			page 2


  58              		.cfi_def_cfa_offset 120
  59              		.loc 1 121 0
  60 000c 1B68     		ldr	r3, [r3]
  61 000e 1193     		str	r3, [sp, #68]
  62 0010 0646     		mov	r6, r0
  63 0012 8A46     		mov	r10, r1
  64 0014 9146     		mov	r9, r2
  65              	.LVL1:
  66              		.loc 1 124 0
  67 0016 4FF0000B 		mov	fp, #0
  68              	.LVL2:
  69              	.L2:
  70              		.loc 1 135 0
  71 001a 9AF80010 		ldrb	r1, [r10]	@ zero_extendqisi2
  72 001e 0AF10102 		add	r2, r10, #1
  73              	.LVL3:
  74              		.loc 1 136 0
  75 0022 71B1     		cbz	r1, .L103
  76              	.L116:
  77              		.loc 1 138 0
  78 0024 2529     		cmp	r1, #37
  79 0026 18D0     		beq	.L4
  80              		.loc 1 139 0
  81 0028 3368     		ldr	r3, [r6]
  82              		.loc 1 135 0
  83 002a 9246     		mov	r10, r2
  84              		.loc 1 139 0
  85 002c 9B68     		ldr	r3, [r3, #8]
  86 002e 3046     		mov	r0, r6
  87 0030 9847     		blx	r3
  88              	.LVL4:
  89              		.loc 1 135 0
  90 0032 9AF80010 		ldrb	r1, [r10]	@ zero_extendqisi2
  91              		.loc 1 140 0
  92 0036 0BF1010B 		add	fp, fp, #1
  93              	.LVL5:
  94              		.loc 1 135 0
  95 003a 0AF10102 		add	r2, r10, #1
  96              	.LVL6:
  97              		.loc 1 136 0
  98 003e 0029     		cmp	r1, #0
  99 0040 F0D1     		bne	.L116
 100              	.L103:
 101              		.loc 1 277 0
 102 0042 784B     		ldr	r3, .L130
 103 0044 119A     		ldr	r2, [sp, #68]
 104              	.LVL7:
 105 0046 1B68     		ldr	r3, [r3]
 106 0048 9A42     		cmp	r2, r3
 107 004a 5846     		mov	r0, fp
 108 004c 40F0A982 		bne	.L117
 109              	.LVL8:
 110 0050 13B0     		add	sp, sp, #76
 111              		.cfi_remember_state
 112              		.cfi_def_cfa_offset 44
 113              		@ sp needed
 114 0052 BDEC028B 		vldm	sp!, {d8}
ARM GAS  C:\Users\25521\AppData\Local\Temp\cccrG13X.s 			page 3


 115              		.cfi_restore 80
 116              		.cfi_restore 81
 117              		.cfi_def_cfa_offset 36
 118 0056 BDE8F08F 		pop	{r4, r5, r6, r7, r8, r9, r10, fp, pc}
 119              	.LVL9:
 120              	.L4:
 121              		.cfi_restore_state
 122              		.loc 1 146 0
 123 005a 9AF80110 		ldrb	r1, [r10, #1]	@ zero_extendqisi2
 124              	.LVL10:
 125 005e 2D29     		cmp	r1, #45
 126 0060 03BF     		ittte	eq
 127 0062 9AF80210 		ldrbeq	r1, [r10, #2]	@ zero_extendqisi2
 128              		.loc 1 147 0
 129 0066 0AF10202 		addeq	r2, r10, #2
 130              	.LVL11:
 131              		.loc 1 148 0
 132 006a 0123     		moveq	r3, #1
 133              		.loc 1 145 0
 134 006c 0023     		movne	r3, #0
 135              		.loc 1 151 0
 136 006e 3029     		cmp	r1, #48
 137 0070 08BF     		it	eq
 138 0072 5178     		ldrbeq	r1, [r2, #1]	@ zero_extendqisi2
 139              		.loc 1 145 0
 140 0074 0293     		str	r3, [sp, #8]
 141              	.LVL12:
 142              		.loc 1 152 0
 143 0076 06BF     		itte	eq
 144 0078 0132     		addeq	r2, r2, #1
 145              	.LVL13:
 146              		.loc 1 153 0
 147 007a 3027     		moveq	r7, #48
 148              		.loc 1 150 0
 149 007c 2027     		movne	r7, #32
 150              	.LVL14:
 151 007e 0132     		adds	r2, r2, #1
 152              	.LVL15:
 153              		.loc 1 155 0
 154 0080 0024     		movs	r4, #0
 155 0082 09E0     		b	.L10
 156              	.LVL16:
 157              	.L118:
 158              		.loc 1 161 0
 159 0084 99F80030 		ldrb	r3, [r9]	@ zero_extendqisi2
 160              	.LVL17:
 161 0088 09F10409 		add	r9, r9, #4
 162              	.LVL18:
 163              	.L8:
 164              		.loc 1 164 0
 165 008c 04EB8404 		add	r4, r4, r4, lsl #2
 166              	.LVL19:
 167 0090 12F8011B 		ldrb	r1, [r2], #1	@ zero_extendqisi2
 168 0094 03EB4404 		add	r4, r3, r4, lsl #1
 169              	.LVL20:
 170              	.L10:
 171              		.loc 1 158 0
ARM GAS  C:\Users\25521\AppData\Local\Temp\cccrG13X.s 			page 4


 172 0098 A1F13003 		sub	r3, r1, #48
 173 009c DBB2     		uxtb	r3, r3
 174 009e 092B     		cmp	r3, #9
 175              		.loc 1 157 0
 176 00a0 1046     		mov	r0, r2
 177              	.LVL21:
 178              		.loc 1 158 0
 179 00a2 F3D9     		bls	.L8
 180              		.loc 1 160 0
 181 00a4 2A29     		cmp	r1, #42
 182 00a6 EDD0     		beq	.L118
 183              	.LVL22:
 184              		.loc 1 167 0
 185 00a8 2E29     		cmp	r1, #46
 186              		.loc 1 166 0
 187 00aa 4FF00008 		mov	r8, #0
 188              		.loc 1 167 0
 189 00ae 4CD0     		beq	.L13
 190              	.LVL23:
 191              	.L11:
 192              		.loc 1 181 0
 193 00b0 01F0DF03 		and	r3, r1, #223
 194 00b4 4C2B     		cmp	r3, #76
 195 00b6 00F1010A 		add	r10, r0, #1
 196 00ba 50D0     		beq	.L119
 197              		.loc 1 187 0
 198 00bc A1F14103 		sub	r3, r1, #65
 199              		.loc 1 190 0
 200 00c0 A1F14402 		sub	r2, r1, #68
 201              		.loc 1 187 0
 202 00c4 DBB2     		uxtb	r3, r3
 203              	.LVL24:
 204              		.loc 1 190 0
 205 00c6 342A     		cmp	r2, #52
 206 00c8 00F2D581 		bhi	.L71
 207 00cc DFE812F0 		tbh	[pc, r2, lsl #1]
 208              	.L19:
 209 00d0 2102     		.2byte	(.L18-.L19)/2
 210 00d2 D301     		.2byte	(.L71-.L19)/2
 211 00d4 D301     		.2byte	(.L71-.L19)/2
 212 00d6 D301     		.2byte	(.L71-.L19)/2
 213 00d8 D301     		.2byte	(.L71-.L19)/2
 214 00da 2102     		.2byte	(.L18-.L19)/2
 215 00dc D301     		.2byte	(.L71-.L19)/2
 216 00de D301     		.2byte	(.L71-.L19)/2
 217 00e0 D301     		.2byte	(.L71-.L19)/2
 218 00e2 D301     		.2byte	(.L71-.L19)/2
 219 00e4 D301     		.2byte	(.L71-.L19)/2
 220 00e6 CF01     		.2byte	(.L72-.L19)/2
 221 00e8 D301     		.2byte	(.L71-.L19)/2
 222 00ea D301     		.2byte	(.L71-.L19)/2
 223 00ec D301     		.2byte	(.L71-.L19)/2
 224 00ee D301     		.2byte	(.L71-.L19)/2
 225 00f0 D301     		.2byte	(.L71-.L19)/2
 226 00f2 9901     		.2byte	(.L73-.L19)/2
 227 00f4 D301     		.2byte	(.L71-.L19)/2
 228 00f6 D301     		.2byte	(.L71-.L19)/2
ARM GAS  C:\Users\25521\AppData\Local\Temp\cccrG13X.s 			page 5


 229 00f8 2A02     		.2byte	(.L74-.L19)/2
 230 00fa D301     		.2byte	(.L71-.L19)/2
 231 00fc D301     		.2byte	(.L71-.L19)/2
 232 00fe D301     		.2byte	(.L71-.L19)/2
 233 0100 D301     		.2byte	(.L71-.L19)/2
 234 0102 D301     		.2byte	(.L71-.L19)/2
 235 0104 D301     		.2byte	(.L71-.L19)/2
 236 0106 D301     		.2byte	(.L71-.L19)/2
 237 0108 D301     		.2byte	(.L71-.L19)/2
 238 010a D301     		.2byte	(.L71-.L19)/2
 239 010c D301     		.2byte	(.L71-.L19)/2
 240 010e 5001     		.2byte	(.L75-.L19)/2
 241 0110 2102     		.2byte	(.L18-.L19)/2
 242 0112 D301     		.2byte	(.L71-.L19)/2
 243 0114 AC00     		.2byte	(.L76-.L19)/2
 244 0116 D301     		.2byte	(.L71-.L19)/2
 245 0118 D301     		.2byte	(.L71-.L19)/2
 246 011a 2102     		.2byte	(.L18-.L19)/2
 247 011c D301     		.2byte	(.L71-.L19)/2
 248 011e D301     		.2byte	(.L71-.L19)/2
 249 0120 D301     		.2byte	(.L71-.L19)/2
 250 0122 D301     		.2byte	(.L71-.L19)/2
 251 0124 D301     		.2byte	(.L71-.L19)/2
 252 0126 CF01     		.2byte	(.L72-.L19)/2
 253 0128 D301     		.2byte	(.L71-.L19)/2
 254 012a D301     		.2byte	(.L71-.L19)/2
 255 012c D301     		.2byte	(.L71-.L19)/2
 256 012e 8800     		.2byte	(.L77-.L19)/2
 257 0130 D301     		.2byte	(.L71-.L19)/2
 258 0132 9901     		.2byte	(.L73-.L19)/2
 259 0134 D301     		.2byte	(.L71-.L19)/2
 260 0136 D301     		.2byte	(.L71-.L19)/2
 261 0138 2A02     		.2byte	(.L74-.L19)/2
 262              	.LVL25:
 263              		.p2align 1
 264              	.L120:
 265              		.loc 1 173 0
 266 013a 99F80030 		ldrb	r3, [r9]	@ zero_extendqisi2
 267              	.LVL26:
 268 013e 09F10409 		add	r9, r9, #4
 269              	.LVL27:
 270              	.L12:
 271              		.loc 1 176 0
 272 0142 08EB8808 		add	r8, r8, r8, lsl #2
 273              	.LVL28:
 274              		.loc 1 177 0
 275 0146 03EB4808 		add	r8, r3, r8, lsl #1
 276              	.LVL29:
 277              	.L13:
 278              		.loc 1 169 0
 279 014a 10F8011B 		ldrb	r1, [r0], #1	@ zero_extendqisi2
 280              	.LVL30:
 281              		.loc 1 170 0
 282 014e A1F13003 		sub	r3, r1, #48
 283 0152 DBB2     		uxtb	r3, r3
 284 0154 092B     		cmp	r3, #9
 285 0156 F4D9     		bls	.L12
ARM GAS  C:\Users\25521\AppData\Local\Temp\cccrG13X.s 			page 6


 286              		.loc 1 172 0
 287 0158 2A29     		cmp	r1, #42
 288 015a EED0     		beq	.L120
 289 015c A8E7     		b	.L11
 290              	.LVL31:
 291              	.L119:
 292              		.loc 1 183 0
 293 015e 0378     		ldrb	r3, [r0]	@ zero_extendqisi2
 294 0160 DBB3     		cbz	r3, .L121
 295              	.L15:
 296              	.LVL32:
 297              		.loc 1 190 0
 298 0162 A3F14402 		sub	r2, r3, #68
 299 0166 342A     		cmp	r2, #52
 300 0168 00F28781 		bhi	.L17
 301 016c DFE812F0 		tbh	[pc, r2, lsl #1]
 302              	.L64:
 303 0170 A401     		.2byte	(.L93-.L64)/2
 304 0172 8501     		.2byte	(.L17-.L64)/2
 305 0174 8501     		.2byte	(.L17-.L64)/2
 306 0176 8501     		.2byte	(.L17-.L64)/2
 307 0178 8501     		.2byte	(.L17-.L64)/2
 308 017a A401     		.2byte	(.L93-.L64)/2
 309 017c 8501     		.2byte	(.L17-.L64)/2
 310 017e 8501     		.2byte	(.L17-.L64)/2
 311 0180 8501     		.2byte	(.L17-.L64)/2
 312 0182 8501     		.2byte	(.L17-.L64)/2
 313 0184 8501     		.2byte	(.L17-.L64)/2
 314 0186 8001     		.2byte	(.L20-.L64)/2
 315 0188 8501     		.2byte	(.L17-.L64)/2
 316 018a 8501     		.2byte	(.L17-.L64)/2
 317 018c 8501     		.2byte	(.L17-.L64)/2
 318 018e 8501     		.2byte	(.L17-.L64)/2
 319 0190 8501     		.2byte	(.L17-.L64)/2
 320 0192 4A01     		.2byte	(.L21-.L64)/2
 321 0194 8501     		.2byte	(.L17-.L64)/2
 322 0196 8501     		.2byte	(.L17-.L64)/2
 323 0198 A101     		.2byte	(.L87-.L64)/2
 324 019a 8501     		.2byte	(.L17-.L64)/2
 325 019c 8501     		.2byte	(.L17-.L64)/2
 326 019e 8501     		.2byte	(.L17-.L64)/2
 327 01a0 8501     		.2byte	(.L17-.L64)/2
 328 01a2 8501     		.2byte	(.L17-.L64)/2
 329 01a4 8501     		.2byte	(.L17-.L64)/2
 330 01a6 8501     		.2byte	(.L17-.L64)/2
 331 01a8 8501     		.2byte	(.L17-.L64)/2
 332 01aa 8501     		.2byte	(.L17-.L64)/2
 333 01ac 8501     		.2byte	(.L17-.L64)/2
 334 01ae 0101     		.2byte	(.L23-.L64)/2
 335 01b0 A401     		.2byte	(.L93-.L64)/2
 336 01b2 8501     		.2byte	(.L17-.L64)/2
 337 01b4 5D00     		.2byte	(.L24-.L64)/2
 338 01b6 8501     		.2byte	(.L17-.L64)/2
 339 01b8 8501     		.2byte	(.L17-.L64)/2
 340 01ba A401     		.2byte	(.L93-.L64)/2
 341 01bc 8501     		.2byte	(.L17-.L64)/2
 342 01be 8501     		.2byte	(.L17-.L64)/2
ARM GAS  C:\Users\25521\AppData\Local\Temp\cccrG13X.s 			page 7


 343 01c0 8501     		.2byte	(.L17-.L64)/2
 344 01c2 8501     		.2byte	(.L17-.L64)/2
 345 01c4 8501     		.2byte	(.L17-.L64)/2
 346 01c6 8001     		.2byte	(.L20-.L64)/2
 347 01c8 8501     		.2byte	(.L17-.L64)/2
 348 01ca 8501     		.2byte	(.L17-.L64)/2
 349 01cc 8501     		.2byte	(.L17-.L64)/2
 350 01ce 3900     		.2byte	(.L25-.L64)/2
 351 01d0 8501     		.2byte	(.L17-.L64)/2
 352 01d2 4A01     		.2byte	(.L21-.L64)/2
 353 01d4 8501     		.2byte	(.L17-.L64)/2
 354 01d6 8501     		.2byte	(.L17-.L64)/2
 355 01d8 A101     		.2byte	(.L87-.L64)/2
 356              	.LVL33:
 357              		.p2align 1
 358              	.L121:
 359              		.loc 1 183 0
 360 01da 0B46     		mov	r3, r1
 361 01dc 8246     		mov	r10, r0
 362 01de C0E7     		b	.L15
 363              	.LVL34:
 364              	.L77:
 365              		.loc 1 190 0
 366 01e0 8246     		mov	r10, r0
 367              	.LVL35:
 368              	.L25:
 369              		.loc 1 197 0
 370 01e2 D9F80050 		ldr	r5, [r9]
 371 01e6 09F10409 		add	r9, r9, #4
 372              	.LVL36:
 373 01ea 002D     		cmp	r5, #0
 374 01ec 00F0A881 		beq	.L27
 375              	.LVL37:
 376 01f0 2B78     		ldrb	r3, [r5]	@ zero_extendqisi2
 377 01f2 2946     		mov	r1, r5
 378              		.loc 1 199 0
 379 01f4 B8F1000F 		cmp	r8, #0
 380 01f8 40F0BE81 		bne	.L122
 381              	.LVL38:
 382              		.loc 1 201 0
 383 01fc 002B     		cmp	r3, #0
 384 01fe 00F0CB81 		beq	.L123
 385              	.LVL39:
 386              	.L113:
 387 0202 47F6FE78 		movw	r8, #32766
 388              	.L65:
 389              		.loc 1 201 0 is_stmt 0 discriminator 4
 390 0206 2B46     		mov	r3, r5
 391 0208 02E0     		b	.L31
 392              	.LVL40:
 393              	.L30:
 394              		.loc 1 201 0 discriminator 3
 395 020a B8F10108 		subs	r8, r8, #1
 396              	.LVL41:
 397 020e 03D4     		bmi	.L114
 398              	.LVL42:
 399              	.L31:
ARM GAS  C:\Users\25521\AppData\Local\Temp\cccrG13X.s 			page 8


 400              		.loc 1 201 0 discriminator 4
 401 0210 13F8012F 		ldrb	r2, [r3, #1]!	@ zero_extendqisi2
 402              	.LVL43:
 403 0214 002A     		cmp	r2, #0
 404 0216 F8D1     		bne	.L30
 405              	.L114:
 406 0218 5B1A     		subs	r3, r3, r1
 407              	.LVL44:
 408 021a E41A     		subs	r4, r4, r3
 409              	.LVL45:
 410 021c 013B     		subs	r3, r3, #1
 411 021e 0193     		str	r3, [sp, #4]
 412              		.loc 1 196 0 is_stmt 1
 413 0220 2027     		movs	r7, #32
 414 0222 B1E0     		b	.L26
 415              	.L131:
 416              		.align	2
 417              	.L130:
 418 0224 00000000 		.word	__stack_chk_guard
 419              	.LVL46:
 420              	.L76:
 421              		.loc 1 190 0
 422 0228 8246     		mov	r10, r0
 423              	.LVL47:
 424              	.L24:
 425              		.loc 1 220 0
 426 022a 09F10709 		add	r9, r9, #7
 427              	.LVL48:
 428 022e 29F00709 		bic	r9, r9, #7
 429              	.LVL49:
 430 0232 D9E90001 		ldrd	r0, [r9]
 431 0236 FFF7FEFF 		bl	__aeabi_d2f
 432              	.LVL50:
 433 023a 08EE100A 		vmov	s16, r0
 434              		.loc 1 221 0
 435 023e B5EEC08A 		vcmpe.f32	s16, #0
 436 0242 F1EE10FA 		vmrs	APSR_nzcv, FPSCR
 437              		.loc 1 220 0
 438 0246 09F10809 		add	r9, r9, #8
 439              	.LVL51:
 440              		.loc 1 221 0
 441 024a 00F16F81 		bmi	.L124
 442              		.loc 1 143 0
 443 024e 0BAB     		add	r3, sp, #44
 444              	.LVL52:
 445 0250 0393     		str	r3, [sp, #12]
 446 0252 0193     		str	r3, [sp, #4]
 447              	.LVL53:
 448              	.L38:
 449              		.loc 1 225 0
 450 0254 18EE100A 		vmov	r0, s16
 451 0258 FFF7FEFF 		bl	__aeabi_f2d
 452              	.LVL54:
 453              	.LBB26:
 454              	.LBB27:
 455              		.loc 1 83 0
 456 025c 08F1FF38 		add	r8, r8, #-1
ARM GAS  C:\Users\25521\AppData\Local\Temp\cccrG13X.s 			page 9


 457              	.LVL55:
 458 0260 B8F1080F 		cmp	r8, #8
 459              	.LBE27:
 460              	.LBE26:
 461              		.loc 1 225 0
 462 0264 CDE90401 		strd	r0, [sp, #16]
 463              	.LVL56:
 464              	.LBB40:
 465              	.LBB38:
 466              		.loc 1 83 0
 467 0268 00F27381 		bhi	.L81
 468 026c BE4B     		ldr	r3, .L132+8
 469 026e 53F82850 		ldr	r5, [r3, r8, lsl #2]
 470 0272 2846     		mov	r0, r5
 471              	.LVL57:
 472 0274 FFF7FEFF 		bl	__aeabi_ui2d
 473              	.LVL58:
 474 0278 BC4B     		ldr	r3, .L132+12
 475 027a CDE90601 		strd	r0, [sp, #24]
 476 027e A3FB0535 		umull	r3, r5, r3, r5
 477 0282 EB08     		lsrs	r3, r5, #3
 478 0284 0993     		str	r3, [sp, #36]
 479 0286 1D46     		mov	r5, r3
 480              	.L40:
 481              	.LVL59:
 482              		.loc 1 87 0
 483 0288 FDEEC87A 		vcvt.s32.f32	s15, s16
 484              	.LBB28:
 485              	.LBB29:
 486              		.loc 1 52 0
 487 028c 019B     		ldr	r3, [sp, #4]
 488              		.loc 1 54 0
 489 028e DFF8DCE2 		ldr	lr, .L132+12
 490              	.LBE29:
 491              	.LBE28:
 492              		.loc 1 87 0
 493 0292 CDED087A 		vstr.32	s15, [sp, #32]	@ int
 494              	.LVL60:
 495              	.LBB31:
 496              	.LBB30:
 497              		.loc 1 52 0
 498 0296 03F10B08 		add	r8, r3, #11
 499              	.LVL61:
 500              		.loc 1 45 0
 501 029a 17EE901A 		vmov	r1, s15	@ int
 502              		.loc 1 52 0
 503 029e 4246     		mov	r2, r8
 504              	.LVL62:
 505              	.L41:
 506              		.loc 1 54 0
 507 02a0 AEFB0103 		umull	r0, r3, lr, r1
 508 02a4 DB08     		lsrs	r3, r3, #3
 509 02a6 03EB830C 		add	ip, r3, r3, lsl #2
 510 02aa 1846     		mov	r0, r3
 511 02ac A1EB4C03 		sub	r3, r1, ip, lsl #1
 512              	.LVL63:
 513              		.loc 1 55 0
ARM GAS  C:\Users\25521\AppData\Local\Temp\cccrG13X.s 			page 10


 514 02b0 3033     		adds	r3, r3, #48
 515              	.LVL64:
 516              		.loc 1 58 0
 517 02b2 DBB2     		uxtb	r3, r3
 518              	.LVL65:
 519 02b4 02F8013D 		strb	r3, [r2, #-1]!
 520              	.LVL66:
 521              		.loc 1 60 0
 522 02b8 0146     		mov	r1, r0
 523              	.LVL67:
 524 02ba 0028     		cmp	r0, #0
 525 02bc F0D1     		bne	.L41
 526 02be 0199     		ldr	r1, [sp, #4]
 527              		.loc 1 62 0
 528 02c0 A8EB0208 		sub	r8, r8, r2
 529              	.LVL68:
 530 02c4 0846     		mov	r0, r1
 531              	.LVL69:
 532 02c6 4044     		add	r0, r0, r8
 533 02c8 01E0     		b	.L43
 534              	.LVL70:
 535              	.L125:
 536 02ca 12F8013F 		ldrb	r3, [r2, #1]!	@ zero_extendqisi2
 537              	.LVL71:
 538              	.L43:
 539              		.loc 1 64 0
 540 02ce 01F8013B 		strb	r3, [r1], #1
 541              	.LVL72:
 542              		.loc 1 65 0
 543 02d2 8142     		cmp	r1, r0
 544 02d4 F9D1     		bne	.L125
 545 02d6 019A     		ldr	r2, [sp, #4]
 546              	.LBE30:
 547              	.LBE31:
 548              		.loc 1 90 0
 549 02d8 0898     		ldr	r0, [sp, #32]
 550              		.loc 1 89 0
 551 02da 2E23     		movs	r3, #46
 552 02dc 08F1FF38 		add	r8, r8, #-1
 553              	.LVL73:
 554 02e0 4244     		add	r2, r2, r8
 555 02e2 0B70     		strb	r3, [r1]
 556 02e4 0192     		str	r2, [sp, #4]
 557              	.LVL74:
 558              		.loc 1 90 0
 559 02e6 FFF7FEFF 		bl	__aeabi_i2d
 560              	.LVL75:
 561 02ea 0246     		mov	r2, r0
 562 02ec 0B46     		mov	r3, r1
 563 02ee DDE90401 		ldrd	r0, [sp, #16]
 564 02f2 FFF7FEFF 		bl	__aeabi_dsub
 565              	.LVL76:
 566 02f6 DDE90623 		ldrd	r2, [sp, #24]
 567 02fa FFF7FEFF 		bl	__aeabi_dmul
 568              	.LVL77:
 569 02fe FFF7FEFF 		bl	__aeabi_d2iz
 570              	.LVL78:
ARM GAS  C:\Users\25521\AppData\Local\Temp\cccrG13X.s 			page 11


 571              	.LBB32:
 572              	.LBB33:
 573              		.loc 1 52 0
 574 0302 019B     		ldr	r3, [sp, #4]
 575              		.loc 1 47 0
 576 0304 099A     		ldr	r2, [sp, #36]
 577              		.loc 1 54 0
 578 0306 9949     		ldr	r1, .L132+12
 579              		.loc 1 52 0
 580 0308 03F10D08 		add	r8, r3, #13
 581              	.LBE33:
 582              	.LBE32:
 583              		.loc 1 89 0
 584 030c 0233     		adds	r3, r3, #2
 585              	.LBB36:
 586              	.LBB34:
 587              		.loc 1 47 0
 588 030e 002A     		cmp	r2, #0
 589 0310 08BF     		it	eq
 590 0312 0546     		moveq	r5, r0
 591              	.LBE34:
 592              	.LBE36:
 593              		.loc 1 89 0
 594 0314 0893     		str	r3, [sp, #32]
 595              	.LVL79:
 596              	.LBB37:
 597              	.LBB35:
 598              		.loc 1 52 0
 599 0316 4246     		mov	r2, r8
 600              	.LVL80:
 601              	.L45:
 602              		.loc 1 54 0
 603 0318 A1FB00C3 		umull	ip, r3, r1, r0
 604 031c DB08     		lsrs	r3, r3, #3
 605 031e 03EB830E 		add	lr, r3, r3, lsl #2
 606 0322 9C46     		mov	ip, r3
 607 0324 A0EB4E03 		sub	r3, r0, lr, lsl #1
 608              	.LVL81:
 609              		.loc 1 55 0
 610 0328 3033     		adds	r3, r3, #48
 611              	.LVL82:
 612              		.loc 1 60 0
 613 032a A1FB0505 		umull	r0, r5, r1, r5
 614              	.LVL83:
 615              		.loc 1 58 0
 616 032e DBB2     		uxtb	r3, r3
 617              	.LVL84:
 618              		.loc 1 60 0
 619 0330 ED08     		lsrs	r5, r5, #3
 620              		.loc 1 58 0
 621 0332 02F8013D 		strb	r3, [r2, #-1]!
 622              	.LVL85:
 623              		.loc 1 59 0
 624 0336 6046     		mov	r0, ip
 625              		.loc 1 60 0
 626 0338 EED1     		bne	.L45
 627              	.LVL86:
ARM GAS  C:\Users\25521\AppData\Local\Temp\cccrG13X.s 			page 12


 628              		.loc 1 62 0
 629 033a A8EB0208 		sub	r8, r8, r2
 630              	.LVL87:
 631 033e 0199     		ldr	r1, [sp, #4]
 632 0340 08F10200 		add	r0, r8, #2
 633 0344 0144     		add	r1, r1, r0
 634 0346 0846     		mov	r0, r1
 635 0348 0899     		ldr	r1, [sp, #32]
 636 034a 01E0     		b	.L47
 637              	.LVL88:
 638              	.L46:
 639 034c 12F8013F 		ldrb	r3, [r2, #1]!	@ zero_extendqisi2
 640              	.LVL89:
 641              	.L47:
 642              		.loc 1 64 0
 643 0350 01F8013B 		strb	r3, [r1], #1
 644              	.LVL90:
 645              		.loc 1 65 0
 646 0354 8142     		cmp	r1, r0
 647 0356 F9D1     		bne	.L46
 648 0358 089B     		ldr	r3, [sp, #32]
 649 035a 039D     		ldr	r5, [sp, #12]
 650 035c 4344     		add	r3, r3, r8
 651 035e 9846     		mov	r8, r3
 652 0360 A8EB0508 		sub	r8, r8, r5
 653 0364 08F1FF33 		add	r3, r8, #-1
 654 0368 A4EB0804 		sub	r4, r4, r8
 655              	.LVL91:
 656 036c 0193     		str	r3, [sp, #4]
 657 036e 0BE0     		b	.L26
 658              	.LVL92:
 659              	.L75:
 660              	.LBE35:
 661              	.LBE37:
 662              	.LBE38:
 663              	.LBE40:
 664              		.loc 1 190 0
 665 0370 8246     		mov	r10, r0
 666              	.LVL93:
 667              	.L23:
 668              		.loc 1 193 0
 669 0372 12AD     		add	r5, sp, #72
 670 0374 D9F80030 		ldr	r3, [r9]
 671 0378 05F81C3D 		strb	r3, [r5, #-28]!
 672              		.loc 1 194 0
 673 037c 0023     		movs	r3, #0
 674 037e 013C     		subs	r4, r4, #1
 675              	.LVL94:
 676              		.loc 1 193 0
 677 0380 09F10409 		add	r9, r9, #4
 678              	.LVL95:
 679              		.loc 1 194 0
 680 0384 0193     		str	r3, [sp, #4]
 681              		.loc 1 192 0
 682 0386 2027     		movs	r7, #32
 683              	.LVL96:
 684              	.L26:
ARM GAS  C:\Users\25521\AppData\Local\Temp\cccrG13X.s 			page 13


 685              		.loc 1 251 0
 686 0388 002C     		cmp	r4, #0
 687 038a 6ADB     		blt	.L126
 688              	.LVL97:
 689              	.L52:
 690              		.loc 1 253 0
 691 038c 029B     		ldr	r3, [sp, #8]
 692 038e 002B     		cmp	r3, #0
 693 0390 7BD1     		bne	.L55
 694              		.loc 1 254 0
 695 0392 6342     		negs	r3, r4
 696              	.LVL98:
 697              		.loc 1 255 0
 698 0394 002C     		cmp	r4, #0
 699 0396 77D0     		beq	.L84
 700              		.loc 1 256 0
 701 0398 2978     		ldrb	r1, [r5]	@ zero_extendqisi2
 702 039a 3268     		ldr	r2, [r6]
 703 039c 2D29     		cmp	r1, #45
 704 039e 9268     		ldr	r2, [r2, #8]
 705 03a0 77D0     		beq	.L127
 706              	.L111:
 707 03a2 9846     		mov	r8, r3
 708 03a4 01E0     		b	.L58
 709              	.LVL99:
 710              	.L128:
 711 03a6 3368     		ldr	r3, [r6]
 712 03a8 9A68     		ldr	r2, [r3, #8]
 713              	.LVL100:
 714              	.L58:
 715              		.loc 1 262 0 discriminator 1
 716 03aa 3946     		mov	r1, r7
 717 03ac 3046     		mov	r0, r6
 718 03ae 9047     		blx	r2
 719              	.LVL101:
 720              		.loc 1 264 0 discriminator 1
 721 03b0 18F10108 		adds	r8, r8, #1
 722              	.LVL102:
 723 03b4 F7D1     		bne	.L128
 724              		.loc 1 266 0
 725 03b6 019A     		ldr	r2, [sp, #4]
 726 03b8 002A     		cmp	r2, #0
 727 03ba 4346     		mov	r3, r8
 728 03bc A344     		add	fp, fp, r4
 729              	.LVL103:
 730 03be FFF62CAE 		blt	.L2
 731 03c2 1C46     		mov	r4, r3
 732              	.LVL104:
 733              	.L61:
 734              		.loc 1 254 0
 735 03c4 DDF80480 		ldr	r8, [sp, #4]
 736              	.LVL105:
 737              	.L59:
 738              		.loc 1 267 0
 739 03c8 3368     		ldr	r3, [r6]
 740 03ca 15F8011B 		ldrb	r1, [r5], #1	@ zero_extendqisi2
 741              	.LVL106:
ARM GAS  C:\Users\25521\AppData\Local\Temp\cccrG13X.s 			page 14


 742 03ce 9B68     		ldr	r3, [r3, #8]
 743              		.loc 1 266 0
 744 03d0 08F1FF38 		add	r8, r8, #-1
 745              	.LVL107:
 746              		.loc 1 267 0
 747 03d4 3046     		mov	r0, r6
 748 03d6 9847     		blx	r3
 749              	.LVL108:
 750              		.loc 1 266 0
 751 03d8 B8F1FF3F 		cmp	r8, #-1
 752 03dc F4D1     		bne	.L59
 753 03de 019B     		ldr	r3, [sp, #4]
 754 03e0 0BF1010B 		add	fp, fp, #1
 755 03e4 5B44     		add	r3, r3, fp
 756 03e6 9B46     		mov	fp, r3
 757              	.LVL109:
 758              	.L60:
 759              		.loc 1 271 0
 760 03e8 002C     		cmp	r4, #0
 761 03ea 3FF416AE 		beq	.L2
 762 03ee 2546     		mov	r5, r4
 763              	.LVL110:
 764              	.L62:
 765              		.loc 1 272 0
 766 03f0 3368     		ldr	r3, [r6]
 767 03f2 3946     		mov	r1, r7
 768 03f4 9B68     		ldr	r3, [r3, #8]
 769 03f6 3046     		mov	r0, r6
 770 03f8 9847     		blx	r3
 771              	.LVL111:
 772              		.loc 1 271 0
 773 03fa 013D     		subs	r5, r5, #1
 774              	.LVL112:
 775 03fc F8D1     		bne	.L62
 776 03fe A344     		add	fp, fp, r4
 777 0400 0BE6     		b	.L2
 778              	.LVL113:
 779              	.L73:
 780              		.loc 1 190 0
 781 0402 8246     		mov	r10, r0
 782              	.LVL114:
 783              	.L21:
 784              		.loc 1 235 0
 785 0404 4FF00A0C 		mov	ip, #10
 786              	.LVL115:
 787              	.L22:
 788 0408 59F8042B 		ldr	r2, [r9], #4
 789              	.LVL116:
 790              	.LBB41:
 791              	.LBB42:
 792              	.LBB43:
 793              		.loc 1 52 0
 794 040c 0DF13701 		add	r1, sp, #55
 795              	.LBE43:
 796              	.LBE42:
 797              	.LBE41:
 798 0410 00E0     		b	.L49
ARM GAS  C:\Users\25521\AppData\Local\Temp\cccrG13X.s 			page 15


 799              	.LVL117:
 800              	.L83:
 801              	.LBB46:
 802              	.LBB45:
 803              	.LBB44:
 804              		.loc 1 60 0
 805 0412 0146     		mov	r1, r0
 806              	.LVL118:
 807              	.L49:
 808              		.loc 1 54 0
 809 0414 B2FBFCF5 		udiv	r5, r2, ip
 810 0418 0CFB1522 		mls	r2, ip, r5, r2
 811              	.LVL119:
 812              		.loc 1 55 0
 813 041c 02F13003 		add	r3, r2, #48
 814              	.LVL120:
 815              		.loc 1 56 0
 816 0420 392B     		cmp	r3, #57
 817              		.loc 1 57 0
 818 0422 C8BF     		it	gt
 819 0424 02F13703 		addgt	r3, r2, #55
 820              	.LVL121:
 821              		.loc 1 58 0
 822 0428 DBB2     		uxtb	r3, r3
 823              	.LVL122:
 824 042a 01F8013C 		strb	r3, [r1, #-1]
 825 042e 481E     		subs	r0, r1, #1
 826              	.LVL123:
 827              		.loc 1 59 0
 828 0430 2A46     		mov	r2, r5
 829              	.LVL124:
 830              		.loc 1 60 0
 831 0432 002D     		cmp	r5, #0
 832 0434 EDD1     		bne	.L83
 833              		.loc 1 62 0
 834 0436 0DF13705 		add	r5, sp, #55
 835 043a 0BAA     		add	r2, sp, #44
 836              	.LVL125:
 837 043c A5EB0008 		sub	r8, r5, r0
 838              	.LVL126:
 839 0440 0392     		str	r2, [sp, #12]
 840 0442 4044     		add	r0, r0, r8
 841              	.LVL127:
 842 0444 01E0     		b	.L51
 843              	.LVL128:
 844              	.L50:
 845 0446 11F8013B 		ldrb	r3, [r1], #1	@ zero_extendqisi2
 846              	.LVL129:
 847              	.L51:
 848              		.loc 1 64 0
 849 044a 02F8013B 		strb	r3, [r2], #1
 850              	.LVL130:
 851              		.loc 1 65 0
 852 044e 8142     		cmp	r1, r0
 853 0450 F9D1     		bne	.L50
 854 0452 A4EB0804 		sub	r4, r4, r8
 855              	.LVL131:
ARM GAS  C:\Users\25521\AppData\Local\Temp\cccrG13X.s 			page 16


 856 0456 08F1FF33 		add	r3, r8, #-1
 857              	.LBE44:
 858              	.LBE45:
 859              	.LBE46:
 860              		.loc 1 251 0
 861 045a 002C     		cmp	r4, #0
 862 045c 0193     		str	r3, [sp, #4]
 863              		.loc 1 144 0
 864 045e 039D     		ldr	r5, [sp, #12]
 865              	.LVL132:
 866              		.loc 1 251 0
 867 0460 94DA     		bge	.L52
 868              	.LVL133:
 869              	.L126:
 870              		.loc 1 266 0
 871 0462 019B     		ldr	r3, [sp, #4]
 872 0464 002B     		cmp	r3, #0
 873 0466 FFF6D8AD 		blt	.L2
 874              		.loc 1 252 0
 875 046a 0024     		movs	r4, #0
 876 046c AAE7     		b	.L61
 877              	.LVL134:
 878              	.L72:
 879              		.loc 1 190 0
 880 046e 8246     		mov	r10, r0
 881              	.LVL135:
 882              	.L20:
 883              		.loc 1 236 0
 884 0470 4FF0080C 		mov	ip, #8
 885 0474 C8E7     		b	.L22
 886              	.LVL136:
 887              	.L71:
 888              		.loc 1 190 0
 889 0476 0B46     		mov	r3, r1
 890              	.LVL137:
 891 0478 8246     		mov	r10, r0
 892              	.LVL138:
 893              	.L17:
 894              		.loc 1 247 0
 895 047a 12AD     		add	r5, sp, #72
 896 047c 013C     		subs	r4, r4, #1
 897              	.LVL139:
 898 047e 05F81C3D 		strb	r3, [r5, #-28]!
 899              		.loc 1 248 0
 900 0482 0023     		movs	r3, #0
 901              	.LVL140:
 902 0484 0193     		str	r3, [sp, #4]
 903 0486 7FE7     		b	.L26
 904              	.LVL141:
 905              	.L84:
 906              		.loc 1 254 0
 907 0488 1C46     		mov	r4, r3
 908              	.LVL142:
 909              	.L55:
 910              		.loc 1 266 0
 911 048a 019B     		ldr	r3, [sp, #4]
 912 048c 002B     		cmp	r3, #0
ARM GAS  C:\Users\25521\AppData\Local\Temp\cccrG13X.s 			page 17


 913 048e 99DA     		bge	.L61
 914 0490 AAE7     		b	.L60
 915              	.LVL143:
 916              	.L127:
 917              		.loc 1 256 0 discriminator 1
 918 0492 302F     		cmp	r7, #48
 919 0494 85D1     		bne	.L111
 920              		.loc 1 257 0
 921 0496 3046     		mov	r0, r6
 922 0498 0293     		str	r3, [sp, #8]
 923              	.LVL144:
 924 049a 9047     		blx	r2
 925              	.LVL145:
 926 049c 019B     		ldr	r3, [sp, #4]
 927 049e 3268     		ldr	r2, [r6]
 928 04a0 013B     		subs	r3, r3, #1
 929 04a2 0193     		str	r3, [sp, #4]
 930 04a4 029B     		ldr	r3, [sp, #8]
 931 04a6 9268     		ldr	r2, [r2, #8]
 932 04a8 0BF1010B 		add	fp, fp, #1
 933              	.LVL146:
 934 04ac 0135     		adds	r5, r5, #1
 935              	.LVL147:
 936 04ae 9846     		mov	r8, r3
 937 04b0 7BE7     		b	.L58
 938              	.LVL148:
 939              	.L87:
 940              		.loc 1 190 0
 941 04b2 4FF0100C 		mov	ip, #16
 942 04b6 A7E7     		b	.L22
 943              	.L93:
 944 04b8 09F10402 		add	r2, r9, #4
 945              	.LVL149:
 946              	.L33:
 947              		.loc 1 209 0
 948 04bc D9F80010 		ldr	r1, [r9]
 949 04c0 9146     		mov	r9, r2
 950              	.LVL150:
 951              	.L32:
 952              		.loc 1 212 0
 953 04c2 0029     		cmp	r1, #0
 954 04c4 5FDB     		blt	.L129
 955              		.loc 1 143 0
 956 04c6 0BAB     		add	r3, sp, #44
 957              	.LVL151:
 958 04c8 0393     		str	r3, [sp, #12]
 959 04ca 1D46     		mov	r5, r3
 960              	.LVL152:
 961              	.L34:
 962              	.LBB47:
 963              	.LBB48:
 964              	.LBB49:
 965              		.loc 1 52 0
 966 04cc 05F10B02 		add	r2, r5, #11
 967              	.LVL153:
 968              		.loc 1 54 0
 969 04d0 DFF89880 		ldr	r8, .L132+12
ARM GAS  C:\Users\25521\AppData\Local\Temp\cccrG13X.s 			page 18


 970              	.LVL154:
 971              		.loc 1 52 0
 972 04d4 1046     		mov	r0, r2
 973              	.LVL155:
 974              	.L35:
 975              		.loc 1 54 0
 976 04d6 A8FB01C3 		umull	ip, r3, r8, r1
 977 04da DB08     		lsrs	r3, r3, #3
 978 04dc 03EB830E 		add	lr, r3, r3, lsl #2
 979 04e0 9C46     		mov	ip, r3
 980 04e2 A1EB4E03 		sub	r3, r1, lr, lsl #1
 981              	.LVL156:
 982              		.loc 1 55 0
 983 04e6 3033     		adds	r3, r3, #48
 984              	.LVL157:
 985              		.loc 1 58 0
 986 04e8 DBB2     		uxtb	r3, r3
 987              	.LVL158:
 988              		.loc 1 60 0
 989 04ea 6146     		mov	r1, ip
 990              	.LVL159:
 991              		.loc 1 58 0
 992 04ec 00F8013D 		strb	r3, [r0, #-1]!
 993              	.LVL160:
 994              		.loc 1 60 0
 995 04f0 0029     		cmp	r1, #0
 996 04f2 F0D1     		bne	.L35
 997              	.LVL161:
 998              		.loc 1 62 0
 999 04f4 121A     		subs	r2, r2, r0
 1000              	.LVL162:
 1001 04f6 2A44     		add	r2, r2, r5
 1002 04f8 01E0     		b	.L37
 1003              	.LVL163:
 1004              	.L36:
 1005 04fa 10F8013F 		ldrb	r3, [r0, #1]!	@ zero_extendqisi2
 1006              	.LVL164:
 1007              	.L37:
 1008              		.loc 1 64 0
 1009 04fe 05F8013B 		strb	r3, [r5], #1
 1010              	.LVL165:
 1011              		.loc 1 65 0
 1012 0502 AA42     		cmp	r2, r5
 1013 0504 F9D1     		bne	.L36
 1014 0506 039D     		ldr	r5, [sp, #12]
 1015              	.LVL166:
 1016 0508 521B     		subs	r2, r2, r5
 1017 050a 531E     		subs	r3, r2, #1
 1018 050c A41A     		subs	r4, r4, r2
 1019              	.LVL167:
 1020 050e 0193     		str	r3, [sp, #4]
 1021 0510 3AE7     		b	.L26
 1022              	.LVL168:
 1023              	.L18:
 1024 0512 4A46     		mov	r2, r9
 1025              	.LBE49:
 1026              	.LBE48:
ARM GAS  C:\Users\25521\AppData\Local\Temp\cccrG13X.s 			page 19


 1027              	.LBE47:
 1028              		.loc 1 208 0
 1029 0514 192B     		cmp	r3, #25
 1030 0516 52F8041B 		ldr	r1, [r2], #4
 1031              	.LVL169:
 1032 051a 8246     		mov	r10, r0
 1033              		.loc 1 211 0
 1034 051c 88BF     		it	hi
 1035 051e 9146     		movhi	r9, r2
 1036              	.LVL170:
 1037              		.loc 1 208 0
 1038 0520 CFD8     		bhi	.L32
 1039 0522 CBE7     		b	.L33
 1040              	.LVL171:
 1041              	.L74:
 1042              		.loc 1 190 0
 1043 0524 8246     		mov	r10, r0
 1044 0526 4FF0100C 		mov	ip, #16
 1045 052a 6DE7     		b	.L22
 1046              	.LVL172:
 1047              	.L124:
 1048              		.loc 1 222 0
 1049 052c 2D23     		movs	r3, #45
 1050 052e 8DF82C30 		strb	r3, [sp, #44]
 1051 0532 6B44     		add	r3, sp, r3
 1052 0534 0193     		str	r3, [sp, #4]
 1053 0536 0BAB     		add	r3, sp, #44
 1054              	.LVL173:
 1055              		.loc 1 223 0
 1056 0538 B1EE488A 		vneg.f32	s16, s16
 1057              	.LVL174:
 1058 053c 0393     		str	r3, [sp, #12]
 1059 053e 89E6     		b	.L38
 1060              	.LVL175:
 1061              	.L27:
 1062 0540 0B49     		ldr	r1, .L132+16
 1063              		.loc 1 199 0
 1064 0542 0D46     		mov	r5, r1
 1065 0544 B8F1000F 		cmp	r8, #0
 1066 0548 3FF45BAE 		beq	.L113
 1067              	.LVL176:
 1068              	.L66:
 1069              		.loc 1 201 0
 1070 054c 08F1FF38 		add	r8, r8, #-1
 1071              	.LVL177:
 1072 0550 59E6     		b	.L65
 1073              	.LVL178:
 1074              	.L81:
 1075              	.LBB50:
 1076              	.LBB39:
 1077              		.loc 1 83 0
 1078 0552 9FED037B 		vldr.64	d7, .L132
 1079 0556 074D     		ldr	r5, .L132+20
 1080 0558 0995     		str	r5, [sp, #36]
 1081 055a 8DED067B 		vstr.64	d7, [sp, #24]
 1082 055e 93E6     		b	.L40
 1083              	.L133:
ARM GAS  C:\Users\25521\AppData\Local\Temp\cccrG13X.s 			page 20


 1084              		.align	3
 1085              	.L132:
 1086 0560 00000000 		.word	0
 1087 0564 65CDCD41 		.word	1104006501
 1088 0568 00000000 		.word	.LANCHOR0
 1089 056c CDCCCCCC 		.word	-858993459
 1090 0570 00000000 		.word	.LC0
 1091 0574 00E1F505 		.word	100000000
 1092              	.LVL179:
 1093              	.L122:
 1094              	.LBE39:
 1095              	.LBE50:
 1096              		.loc 1 201 0
 1097 0578 002B     		cmp	r3, #0
 1098 057a E7D1     		bne	.L66
 1099 057c 4FF0FF33 		mov	r3, #-1
 1100 0580 0193     		str	r3, [sp, #4]
 1101              		.loc 1 196 0
 1102 0582 2027     		movs	r7, #32
 1103 0584 00E7     		b	.L26
 1104              	.LVL180:
 1105              	.L129:
 1106              		.loc 1 213 0
 1107 0586 2D23     		movs	r3, #45
 1108 0588 8DF82C30 		strb	r3, [sp, #44]
 1109 058c 0DEB0305 		add	r5, sp, r3
 1110 0590 0BAB     		add	r3, sp, #44
 1111              	.LVL181:
 1112              		.loc 1 214 0
 1113 0592 4942     		negs	r1, r1
 1114              	.LVL182:
 1115 0594 0393     		str	r3, [sp, #12]
 1116 0596 99E7     		b	.L34
 1117              	.LVL183:
 1118              	.L123:
 1119              		.loc 1 201 0
 1120 0598 4FF0FF33 		mov	r3, #-1
 1121 059c 0193     		str	r3, [sp, #4]
 1122              		.loc 1 196 0
 1123 059e 2027     		movs	r7, #32
 1124 05a0 F4E6     		b	.L52
 1125              	.LVL184:
 1126              	.L117:
 1127              		.loc 1 277 0
 1128 05a2 FFF7FEFF 		bl	__stack_chk_fail
 1129              	.LVL185:
 1130              		.cfi_endproc
 1131              	.LFE271:
 1132              		.size	chvprintf, .-chvprintf
 1133              		.section	.text.chsnprintf,"ax",%progbits
 1134              		.align	1
 1135              		.p2align 4,,15
 1136              		.global	chsnprintf
 1137              		.syntax unified
 1138              		.thumb
 1139              		.thumb_func
 1140              		.fpu fpv4-sp-d16
ARM GAS  C:\Users\25521\AppData\Local\Temp\cccrG13X.s 			page 21


 1141              		.type	chsnprintf, %function
 1142              	chsnprintf:
 1143              	.LFB272:
 1144              		.loc 1 307 0
 1145              		.cfi_startproc
 1146              		@ args = 4, pretend = 8, frame = 32
 1147              		@ frame_needed = 0, uses_anonymous_args = 1
 1148              	.LVL186:
 1149 0000 0CB4     		push	{r2, r3}
 1150              		.cfi_def_cfa_offset 8
 1151              		.cfi_offset 2, -8
 1152              		.cfi_offset 3, -4
 1153 0002 F0B5     		push	{r4, r5, r6, r7, lr}
 1154              		.cfi_def_cfa_offset 28
 1155              		.cfi_offset 4, -28
 1156              		.cfi_offset 5, -24
 1157              		.cfi_offset 6, -20
 1158              		.cfi_offset 7, -16
 1159              		.cfi_offset 14, -12
 1160 0004 194D     		ldr	r5, .L140
 1161 0006 89B0     		sub	sp, sp, #36
 1162              		.cfi_def_cfa_offset 64
 1163              		.loc 1 307 0
 1164 0008 2B68     		ldr	r3, [r5]
 1165 000a 0E9F     		ldr	r7, [sp, #56]
 1166 000c 0793     		str	r3, [sp, #28]
 1167 000e 0646     		mov	r6, r0
 1168              		.loc 1 314 0
 1169 0010 0C46     		mov	r4, r1
 1170 0012 D1B1     		cbz	r1, .L135
 1171              	.LVL187:
 1172              		.loc 1 321 0
 1173 0014 4A1E     		subs	r2, r1, #1
 1174              	.LVL188:
 1175 0016 02A8     		add	r0, sp, #8
 1176              	.LVL189:
 1177 0018 0023     		movs	r3, #0
 1178 001a 3146     		mov	r1, r6
 1179              	.LVL190:
 1180 001c FFF7FEFF 		bl	msObjectInit
 1181              	.LVL191:
 1182              		.loc 1 325 0
 1183 0020 0FAB     		add	r3, sp, #60
 1184              		.loc 1 326 0
 1185 0022 1A46     		mov	r2, r3
 1186 0024 02A8     		add	r0, sp, #8
 1187              	.LVL192:
 1188 0026 3946     		mov	r1, r7
 1189              		.loc 1 325 0
 1190 0028 0193     		str	r3, [sp, #4]
 1191              		.loc 1 326 0
 1192 002a FFF7FEFF 		bl	chvprintf
 1193              	.LVL193:
 1194              		.loc 1 330 0
 1195 002e 059B     		ldr	r3, [sp, #20]
 1196 0030 A342     		cmp	r3, r4
 1197 0032 01D2     		bcs	.L134
ARM GAS  C:\Users\25521\AppData\Local\Temp\cccrG13X.s 			page 22


 1198              		.loc 1 331 0
 1199 0034 0022     		movs	r2, #0
 1200 0036 F254     		strb	r2, [r6, r3]
 1201              	.LVL194:
 1202              	.L134:
 1203              		.loc 1 335 0
 1204 0038 079A     		ldr	r2, [sp, #28]
 1205 003a 2B68     		ldr	r3, [r5]
 1206 003c 9A42     		cmp	r2, r3
 1207 003e 12D1     		bne	.L139
 1208 0040 09B0     		add	sp, sp, #36
 1209              		.cfi_remember_state
 1210              		.cfi_def_cfa_offset 28
 1211              		@ sp needed
 1212 0042 BDE8F040 		pop	{r4, r5, r6, r7, lr}
 1213              		.cfi_restore 14
 1214              		.cfi_restore 7
 1215              		.cfi_restore 6
 1216              		.cfi_restore 5
 1217              		.cfi_restore 4
 1218              		.cfi_def_cfa_offset 8
 1219              	.LVL195:
 1220 0046 02B0     		add	sp, sp, #8
 1221              		.cfi_restore 3
 1222              		.cfi_restore 2
 1223              		.cfi_def_cfa_offset 0
 1224 0048 7047     		bx	lr
 1225              	.LVL196:
 1226              	.L135:
 1227              		.cfi_restore_state
 1228              		.loc 1 321 0
 1229 004a 0146     		mov	r1, r0
 1230              	.LVL197:
 1231 004c 2346     		mov	r3, r4
 1232 004e 02A8     		add	r0, sp, #8
 1233              	.LVL198:
 1234 0050 2246     		mov	r2, r4
 1235 0052 FFF7FEFF 		bl	msObjectInit
 1236              	.LVL199:
 1237              		.loc 1 325 0
 1238 0056 0FAB     		add	r3, sp, #60
 1239              		.loc 1 326 0
 1240 0058 02A8     		add	r0, sp, #8
 1241              	.LVL200:
 1242 005a 3946     		mov	r1, r7
 1243 005c 1A46     		mov	r2, r3
 1244              		.loc 1 325 0
 1245 005e 0193     		str	r3, [sp, #4]
 1246              		.loc 1 326 0
 1247 0060 FFF7FEFF 		bl	chvprintf
 1248              	.LVL201:
 1249 0064 E8E7     		b	.L134
 1250              	.LVL202:
 1251              	.L139:
 1252              		.loc 1 335 0
 1253 0066 FFF7FEFF 		bl	__stack_chk_fail
 1254              	.LVL203:
ARM GAS  C:\Users\25521\AppData\Local\Temp\cccrG13X.s 			page 23


 1255              	.L141:
 1256 006a 00BF     		.align	2
 1257              	.L140:
 1258 006c 00000000 		.word	__stack_chk_guard
 1259              		.cfi_endproc
 1260              	.LFE272:
 1261              		.size	chsnprintf, .-chsnprintf
 1262              		.section	.rodata.chvprintf.str1.4,"aMS",%progbits,1
 1263              		.align	2
 1264              	.LC0:
 1265 0000 286E756C 		.ascii	"(null)\000"
 1265      6C2900
 1266              		.section	.rodata.pow10,"a",%progbits
 1267              		.align	2
 1268              		.set	.LANCHOR0,. + 0
 1269              		.type	pow10, %object
 1270              		.size	pow10, 36
 1271              	pow10:
 1272 0000 0A000000 		.word	10
 1273 0004 64000000 		.word	100
 1274 0008 E8030000 		.word	1000
 1275 000c 10270000 		.word	10000
 1276 0010 A0860100 		.word	100000
 1277 0014 40420F00 		.word	1000000
 1278 0018 80969800 		.word	10000000
 1279 001c 00E1F505 		.word	100000000
 1280 0020 00CA9A3B 		.word	1000000000
 1281              		.text
 1282              	.Letext0:
 1283              		.file 2 "d:\\eclipse_e-puck2_win32_11_apr_2018\\eclipse_e-puck2\\tools\\gcc-arm-none-eabi-7-2017-q
 1284              		.file 3 "d:\\eclipse_e-puck2_win32_11_apr_2018\\eclipse_e-puck2\\tools\\gcc-arm-none-eabi-7-2017-q
 1285              		.file 4 "d:\\eclipse_e-puck2_win32_11_apr_2018\\eclipse_e-puck2\\tools\\gcc-arm-none-eabi-7-2017-q
 1286              		.file 5 "../e-puck2_main-processor/ChibiOS//os/rt/ports/ARMCMx/compilers/GCC/chtypes.h"
 1287              		.file 6 "../e-puck2_main-processor/ChibiOS//os/rt/include/chsystypes.h"
 1288              		.file 7 "../e-puck2_main-processor/ChibiOS//os/rt/include/chschd.h"
 1289              		.file 8 "../e-puck2_main-processor/ChibiOS//os/ext/CMSIS/include/core_cm4.h"
 1290              		.file 9 "../e-puck2_main-processor/ChibiOS//os/ext/CMSIS/ST/system_stm32f4xx.h"
 1291              		.file 10 "../e-puck2_main-processor/ChibiOS//os/ext/CMSIS/ST/stm32f407xx.h"
 1292              		.file 11 "../e-puck2_main-processor/ChibiOS//os/rt/ports/ARMCMx/chcore.h"
 1293              		.file 12 "../e-puck2_main-processor/ChibiOS//os/rt/ports/ARMCMx/chcore_v7m.h"
 1294              		.file 13 "../e-puck2_main-processor/ChibiOS//os/rt/include/chdebug.h"
 1295              		.file 14 "../e-puck2_main-processor/ChibiOS//os/rt/include/chtm.h"
 1296              		.file 15 "../e-puck2_main-processor/ChibiOS//os/rt/include/chstats.h"
 1297              		.file 16 "../e-puck2_main-processor/ChibiOS//os/rt/include/chsem.h"
 1298              		.file 17 "../e-puck2_main-processor/ChibiOS//os/rt/include/chmtx.h"
 1299              		.file 18 "../e-puck2_main-processor/ChibiOS//os/rt/include/chregistry.h"
 1300              		.file 19 "../e-puck2_main-processor/ChibiOS//os/rt/include/chevents.h"
 1301              		.file 20 "../e-puck2_main-processor/ChibiOS//os/rt/include/chqueues.h"
 1302              		.file 21 "../e-puck2_main-processor/ChibiOS//os/rt/include/chstreams.h"
 1303              		.file 22 "../e-puck2_main-processor/ChibiOS//os/hal/ports/STM32/LLD/DMAv2/stm32_dma.h"
 1304              		.file 23 "../e-puck2_main-processor/ChibiOS//os/hal/include/hal_ioblock.h"
 1305              		.file 24 "../e-puck2_main-processor/ChibiOS//os/hal/ports/STM32/LLD/GPIOv2/pal_lld.h"
 1306              		.file 25 "../e-puck2_main-processor/ChibiOS//os/hal/include/adc.h"
 1307              		.file 26 "../e-puck2_main-processor/ChibiOS//os/hal/ports/STM32/LLD/ADCv2/adc_lld.h"
 1308              		.file 27 "../e-puck2_main-processor/ChibiOS//os/hal/include/can.h"
 1309              		.file 28 "../e-puck2_main-processor/ChibiOS//os/hal/ports/STM32/LLD/CANv1/can_lld.h"
 1310              		.file 29 "../e-puck2_main-processor/ChibiOS//os/hal/include/dac.h"
ARM GAS  C:\Users\25521\AppData\Local\Temp\cccrG13X.s 			page 24


 1311              		.file 30 "../e-puck2_main-processor/ChibiOS//os/hal/ports/STM32/LLD/DACv1/dac_lld.h"
 1312              		.file 31 "../e-puck2_main-processor/ChibiOS//os/hal/include/ext.h"
 1313              		.file 32 "../e-puck2_main-processor/ChibiOS//os/hal/ports/STM32/LLD/EXTIv1/ext_lld.h"
 1314              		.file 33 "../e-puck2_main-processor/ChibiOS//os/hal/include/gpt.h"
 1315              		.file 34 "../e-puck2_main-processor/ChibiOS//os/hal/ports/STM32/LLD/TIMv1/gpt_lld.h"
 1316              		.file 35 "../e-puck2_main-processor/ChibiOS//os/hal/ports/STM32/LLD/TIMv1/stm32_tim.h"
 1317              		.file 36 "../e-puck2_main-processor/ChibiOS//os/hal/include/i2c.h"
 1318              		.file 37 "../e-puck2_main-processor/ChibiOS//os/hal/ports/STM32/LLD/I2Cv1/i2c_lld.h"
 1319              		.file 38 "../e-puck2_main-processor/ChibiOS//os/hal/include/i2s.h"
 1320              		.file 39 "../e-puck2_main-processor/ChibiOS//os/hal/ports/STM32/LLD/SPIv1/i2s_lld.h"
 1321              		.file 40 "../e-puck2_main-processor/ChibiOS//os/hal/include/pwm.h"
 1322              		.file 41 "../e-puck2_main-processor/ChibiOS//os/hal/ports/STM32/LLD/TIMv1/pwm_lld.h"
 1323              		.file 42 "../e-puck2_main-processor/ChibiOS//os/hal/include/serial.h"
 1324              		.file 43 "../e-puck2_main-processor/ChibiOS//os/hal/ports/STM32/LLD/USARTv1/serial_lld.h"
 1325              		.file 44 "../e-puck2_main-processor/ChibiOS//os/hal/include/sdc.h"
 1326              		.file 45 "../e-puck2_main-processor/ChibiOS//os/hal/ports/STM32/LLD/SDIOv1/sdc_lld.h"
 1327              		.file 46 "../e-puck2_main-processor/ChibiOS//os/hal/include/spi.h"
 1328              		.file 47 "../e-puck2_main-processor/ChibiOS//os/hal/ports/STM32/LLD/SPIv1/spi_lld.h"
 1329              		.file 48 "../e-puck2_main-processor/ChibiOS//os/hal/include/usb.h"
 1330              		.file 49 "../e-puck2_main-processor/ChibiOS//os/hal/ports/STM32/LLD/OTGv1/usb_lld.h"
 1331              		.file 50 "../e-puck2_main-processor/ChibiOS//os/hal/ports/STM32/LLD/OTGv1/stm32_otg.h"
 1332              		.file 51 "d:\\eclipse_e-puck2_win32_11_apr_2018\\eclipse_e-puck2\\tools\\gcc-arm-none-eabi-7-2017-
 1333              		.file 52 "<built-in>"
 1334              		.file 53 "../e-puck2_main-processor/ChibiOS//os/hal/lib/streams/memstreams.h"