ARM GAS  C:\Users\25521\AppData\Local\Temp\ccDjrTUL.s 			page 1


   1              		.cpu cortex-m4
   2              		.eabi_attribute 27, 1
   3              		.eabi_attribute 28, 1
   4              		.eabi_attribute 20, 1
   5              		.eabi_attribute 21, 1
   6              		.eabi_attribute 23, 3
   7              		.eabi_attribute 24, 1
   8              		.eabi_attribute 25, 1
   9              		.eabi_attribute 26, 1
  10              		.eabi_attribute 30, 2
  11              		.eabi_attribute 34, 1
  12              		.eabi_attribute 18, 4
  13              		.file	"dcmi_camera.c"
  14              		.text
  15              	.Ltext0:
  16              		.cfi_sections	.debug_frame
  17              		.section	.text.dmaTransferEndCb,"ax",%progbits
  18              		.align	1
  19              		.p2align 4,,15
  20              		.global	dmaTransferEndCb
  21              		.syntax unified
  22              		.thumb
  23              		.thumb_func
  24              		.fpu fpv4-sp-d16
  25              		.type	dmaTransferEndCb, %function
  26              	dmaTransferEndCb:
  27              	.LFB268:
  28              		.file 1 "../e-puck2_main-processor/src/camera/dcmi_camera.c"
  29              		.loc 1 47 0
  30              		.cfi_startproc
  31              		@ args = 0, pretend = 0, frame = 8
  32              		@ frame_needed = 0, uses_anonymous_args = 0
  33              	.LVL0:
  34 0000 00B5     		push	{lr}
  35              		.cfi_def_cfa_offset 4
  36              		.cfi_offset 14, -4
  37 0002 084B     		ldr	r3, .L6
  38              		.loc 1 51 0
  39 0004 0849     		ldr	r1, .L6+4
  40              		.loc 1 47 0
  41 0006 1A68     		ldr	r2, [r3]
  42 0008 83B0     		sub	sp, sp, #12
  43              		.cfi_def_cfa_offset 16
  44              		.loc 1 51 0
  45 000a 0020     		movs	r0, #0
  46              	.LVL1:
  47              		.loc 1 47 0
  48 000c 0192     		str	r2, [sp, #4]
  49              		.loc 1 52 0
  50 000e 019A     		ldr	r2, [sp, #4]
  51 0010 1B68     		ldr	r3, [r3]
  52              		.loc 1 51 0
  53 0012 0870     		strb	r0, [r1]
  54              		.loc 1 52 0
  55 0014 9A42     		cmp	r2, r3
  56 0016 02D1     		bne	.L5
  57 0018 03B0     		add	sp, sp, #12
ARM GAS  C:\Users\25521\AppData\Local\Temp\ccDjrTUL.s 			page 2


  58              		.cfi_remember_state
  59              		.cfi_def_cfa_offset 4
  60              		@ sp needed
  61 001a 5DF804FB 		ldr	pc, [sp], #4
  62              	.L5:
  63              		.cfi_restore_state
  64 001e FFF7FEFF 		bl	__stack_chk_fail
  65              	.LVL2:
  66              	.L7:
  67 0022 00BF     		.align	2
  68              	.L6:
  69 0024 00000000 		.word	__stack_chk_guard
  70 0028 00000000 		.word	.LANCHOR0
  71              		.cfi_endproc
  72              	.LFE268:
  73              		.size	dmaTransferEndCb, .-dmaTransferEndCb
  74              		.section	.text.frameEndCb,"ax",%progbits
  75              		.align	1
  76              		.p2align 4,,15
  77              		.global	frameEndCb
  78              		.syntax unified
  79              		.thumb
  80              		.thumb_func
  81              		.fpu fpv4-sp-d16
  82              		.type	frameEndCb, %function
  83              	frameEndCb:
  84              	.LFB267:
  85              		.loc 1 38 0
  86              		.cfi_startproc
  87              		@ args = 0, pretend = 0, frame = 8
  88              		@ frame_needed = 0, uses_anonymous_args = 0
  89              	.LVL3:
  90 0000 10B5     		push	{r4, lr}
  91              		.cfi_def_cfa_offset 8
  92              		.cfi_offset 4, -8
  93              		.cfi_offset 14, -4
  94 0002 104C     		ldr	r4, .L12
  95 0004 82B0     		sub	sp, sp, #8
  96              		.cfi_def_cfa_offset 16
  97              		.loc 1 38 0
  98 0006 2368     		ldr	r3, [r4]
  99 0008 0193     		str	r3, [sp, #4]
 100              	.LVL4:
 101              	.LBB56:
 102              	.LBB57:
 103              	.LBB58:
 104              	.LBB59:
 105              	.LBB60:
 106              	.LBB61:
 107              		.file 2 "../e-puck2_main-processor/ChibiOS//os/ext/CMSIS/include/core_cmFunc.h"
 108              		.loc 2 548 0
 109 000a 2023     		movs	r3, #32
 110              		.syntax unified
 111              	@ 548 "../e-puck2_main-processor/ChibiOS//os/ext/CMSIS/include/core_cmFunc.h" 1
 112 000c 83F31188 		MSR basepri, r3
 113              	@ 0 "" 2
 114              	.LVL5:
ARM GAS  C:\Users\25521\AppData\Local\Temp\ccDjrTUL.s 			page 3


 115              		.thumb
 116              		.syntax unified
 117              	.LBE61:
 118              	.LBE60:
 119              	.LBE59:
 120              	.LBE58:
 121              		.file 3 "../e-puck2_main-processor/ChibiOS//os/rt/include/chsys.h"
 122              		.loc 3 389 0
 123 0010 FFF7FEFF 		bl	_stats_start_measure_crit_isr
 124              	.LVL6:
 125              		.loc 3 390 0
 126 0014 FFF7FEFF 		bl	_dbg_check_lock_from_isr
 127              	.LVL7:
 128              	.LBE57:
 129              	.LBE56:
 130              		.loc 1 41 0
 131 0018 0B4B     		ldr	r3, .L12+4
 132              		.loc 1 42 0
 133 001a 0C48     		ldr	r0, .L12+8
 134              		.loc 1 41 0
 135 001c 0122     		movs	r2, #1
 136 001e 1A70     		strb	r2, [r3]
 137              		.loc 1 42 0
 138 0020 FFF7FEFF 		bl	chCondBroadcastI
 139              	.LVL8:
 140              	.LBB62:
 141              	.LBB63:
 142              		.loc 3 408 0
 143 0024 FFF7FEFF 		bl	_dbg_check_unlock_from_isr
 144              	.LVL9:
 145              		.loc 3 409 0
 146 0028 FFF7FEFF 		bl	_stats_stop_measure_crit_isr
 147              	.LVL10:
 148              	.LBB64:
 149              	.LBB65:
 150              	.LBB66:
 151              	.LBB67:
 152              		.loc 2 548 0
 153 002c 0023     		movs	r3, #0
 154              		.syntax unified
 155              	@ 548 "../e-puck2_main-processor/ChibiOS//os/ext/CMSIS/include/core_cmFunc.h" 1
 156 002e 83F31188 		MSR basepri, r3
 157              	@ 0 "" 2
 158              	.LVL11:
 159              		.thumb
 160              		.syntax unified
 161              	.LBE67:
 162              	.LBE66:
 163              	.LBE65:
 164              	.LBE64:
 165              	.LBE63:
 166              	.LBE62:
 167              		.loc 1 44 0
 168 0032 019A     		ldr	r2, [sp, #4]
 169 0034 2368     		ldr	r3, [r4]
 170 0036 9A42     		cmp	r2, r3
 171 0038 01D1     		bne	.L11
ARM GAS  C:\Users\25521\AppData\Local\Temp\ccDjrTUL.s 			page 4


 172 003a 02B0     		add	sp, sp, #8
 173              		.cfi_remember_state
 174              		.cfi_def_cfa_offset 8
 175              		@ sp needed
 176 003c 10BD     		pop	{r4, pc}
 177              	.L11:
 178              		.cfi_restore_state
 179 003e FFF7FEFF 		bl	__stack_chk_fail
 180              	.LVL12:
 181              	.L13:
 182 0042 00BF     		.align	2
 183              	.L12:
 184 0044 00000000 		.word	__stack_chk_guard
 185 0048 00000000 		.word	.LANCHOR1
 186 004c 00000000 		.word	.LANCHOR2
 187              		.cfi_endproc
 188              	.LFE267:
 189              		.size	frameEndCb, .-frameEndCb
 190              		.section	.text.dcmiErrorCb,"ax",%progbits
 191              		.align	1
 192              		.p2align 4,,15
 193              		.global	dcmiErrorCb
 194              		.syntax unified
 195              		.thumb
 196              		.thumb_func
 197              		.fpu fpv4-sp-d16
 198              		.type	dcmiErrorCb, %function
 199              	dcmiErrorCb:
 200              	.LFB270:
 201              		.loc 1 113 0
 202              		.cfi_startproc
 203              		@ args = 0, pretend = 0, frame = 8
 204              		@ frame_needed = 0, uses_anonymous_args = 0
 205              	.LVL13:
 206 0000 10B5     		push	{r4, lr}
 207              		.cfi_def_cfa_offset 8
 208              		.cfi_offset 4, -8
 209              		.cfi_offset 14, -4
 210 0002 0F4C     		ldr	r4, .L18
 211              		.loc 1 115 0
 212 0004 0F4B     		ldr	r3, .L18+4
 213              		.loc 1 113 0
 214 0006 2268     		ldr	r2, [r4]
 215              		.loc 1 115 0
 216 0008 1970     		strb	r1, [r3]
 217              	.LVL14:
 218              		.loc 1 113 0
 219 000a 82B0     		sub	sp, sp, #8
 220              		.cfi_def_cfa_offset 16
 221              	.LBB68:
 222              	.LBB69:
 223              	.LBB70:
 224              	.LBB71:
 225              	.LBB72:
 226              	.LBB73:
 227              		.loc 2 548 0
 228 000c 2023     		movs	r3, #32
ARM GAS  C:\Users\25521\AppData\Local\Temp\ccDjrTUL.s 			page 5


 229              	.LBE73:
 230              	.LBE72:
 231              	.LBE71:
 232              	.LBE70:
 233              	.LBE69:
 234              	.LBE68:
 235              		.loc 1 113 0
 236 000e 0192     		str	r2, [sp, #4]
 237              	.LBB79:
 238              	.LBB78:
 239              	.LBB77:
 240              	.LBB76:
 241              	.LBB75:
 242              	.LBB74:
 243              		.loc 2 548 0
 244              		.syntax unified
 245              	@ 548 "../e-puck2_main-processor/ChibiOS//os/ext/CMSIS/include/core_cmFunc.h" 1
 246 0010 83F31188 		MSR basepri, r3
 247              	@ 0 "" 2
 248              	.LVL15:
 249              		.thumb
 250              		.syntax unified
 251              	.LBE74:
 252              	.LBE75:
 253              	.LBE76:
 254              	.LBE77:
 255              		.loc 3 389 0
 256 0014 FFF7FEFF 		bl	_stats_start_measure_crit_isr
 257              	.LVL16:
 258              		.loc 3 390 0
 259 0018 FFF7FEFF 		bl	_dbg_check_lock_from_isr
 260              	.LVL17:
 261              	.LBE78:
 262              	.LBE79:
 263              		.loc 1 117 0
 264 001c 0A48     		ldr	r0, .L18+8
 265 001e FFF7FEFF 		bl	chCondBroadcastI
 266              	.LVL18:
 267              	.LBB80:
 268              	.LBB81:
 269              		.loc 3 408 0
 270 0022 FFF7FEFF 		bl	_dbg_check_unlock_from_isr
 271              	.LVL19:
 272              		.loc 3 409 0
 273 0026 FFF7FEFF 		bl	_stats_stop_measure_crit_isr
 274              	.LVL20:
 275              	.LBB82:
 276              	.LBB83:
 277              	.LBB84:
 278              	.LBB85:
 279              		.loc 2 548 0
 280 002a 0023     		movs	r3, #0
 281              		.syntax unified
 282              	@ 548 "../e-puck2_main-processor/ChibiOS//os/ext/CMSIS/include/core_cmFunc.h" 1
 283 002c 83F31188 		MSR basepri, r3
 284              	@ 0 "" 2
 285              	.LVL21:
ARM GAS  C:\Users\25521\AppData\Local\Temp\ccDjrTUL.s 			page 6


 286              		.thumb
 287              		.syntax unified
 288              	.LBE85:
 289              	.LBE84:
 290              	.LBE83:
 291              	.LBE82:
 292              	.LBE81:
 293              	.LBE80:
 294              		.loc 1 119 0
 295 0030 019A     		ldr	r2, [sp, #4]
 296 0032 2368     		ldr	r3, [r4]
 297 0034 9A42     		cmp	r2, r3
 298 0036 01D1     		bne	.L17
 299 0038 02B0     		add	sp, sp, #8
 300              		.cfi_remember_state
 301              		.cfi_def_cfa_offset 8
 302              		@ sp needed
 303 003a 10BD     		pop	{r4, pc}
 304              	.L17:
 305              		.cfi_restore_state
 306 003c FFF7FEFF 		bl	__stack_chk_fail
 307              	.LVL22:
 308              	.L19:
 309              		.align	2
 310              	.L18:
 311 0040 00000000 		.word	__stack_chk_guard
 312 0044 00000000 		.word	.LANCHOR3
 313 0048 00000000 		.word	.LANCHOR2
 314              		.cfi_endproc
 315              	.LFE270:
 316              		.size	dcmiErrorCb, .-dcmiErrorCb
 317              		.section	.text.dmaHalfTransferEndCb,"ax",%progbits
 318              		.align	1
 319              		.p2align 4,,15
 320              		.global	dmaHalfTransferEndCb
 321              		.syntax unified
 322              		.thumb
 323              		.thumb_func
 324              		.fpu fpv4-sp-d16
 325              		.type	dmaHalfTransferEndCb, %function
 326              	dmaHalfTransferEndCb:
 327              	.LFB269:
 328              		.loc 1 54 0
 329              		.cfi_startproc
 330              		@ args = 0, pretend = 0, frame = 8
 331              		@ frame_needed = 0, uses_anonymous_args = 0
 332              	.LVL23:
 333 0000 00B5     		push	{lr}
 334              		.cfi_def_cfa_offset 4
 335              		.cfi_offset 14, -4
 336              		.loc 1 61 0
 337 0002 1F4A     		ldr	r2, .L36
 338              		.loc 1 54 0
 339 0004 1F4B     		ldr	r3, .L36+4
 340              		.loc 1 61 0
 341 0006 1278     		ldrb	r2, [r2]	@ zero_extendqisi2
 342              		.loc 1 54 0
ARM GAS  C:\Users\25521\AppData\Local\Temp\ccDjrTUL.s 			page 7


 343 0008 1868     		ldr	r0, [r3]
 344              	.LVL24:
 345              		.loc 1 57 0
 346 000a 1F49     		ldr	r1, .L36+8
 347              		.loc 1 54 0
 348 000c 83B0     		sub	sp, sp, #12
 349              		.cfi_def_cfa_offset 16
 350              		.loc 1 54 0
 351 000e 0190     		str	r0, [sp, #4]
 352              		.loc 1 57 0
 353 0010 0120     		movs	r0, #1
 354              		.loc 1 61 0
 355 0012 8242     		cmp	r2, r0
 356              		.loc 1 57 0
 357 0014 0870     		strb	r0, [r1]
 358              		.loc 1 61 0
 359 0016 06D0     		beq	.L31
 360              	.L20:
 361              		.loc 1 111 0
 362 0018 019A     		ldr	r2, [sp, #4]
 363 001a 1B68     		ldr	r3, [r3]
 364 001c 9A42     		cmp	r2, r3
 365 001e 2CD1     		bne	.L32
 366 0020 03B0     		add	sp, sp, #12
 367              		.cfi_remember_state
 368              		.cfi_def_cfa_offset 4
 369              		@ sp needed
 370 0022 5DF804FB 		ldr	pc, [sp], #4
 371              	.L31:
 372              		.cfi_restore_state
 373              		.loc 1 62 0
 374 0026 1949     		ldr	r1, .L36+12
 375 0028 194A     		ldr	r2, .L36+16
 376 002a 0978     		ldrb	r1, [r1]	@ zero_extendqisi2
 377 002c D268     		ldr	r2, [r2, #12]
 378 002e 8142     		cmp	r1, r0
 379 0030 1268     		ldr	r2, [r2]
 380 0032 11D0     		beq	.L33
 381              		.loc 1 74 0
 382 0034 1748     		ldr	r0, .L36+20
 383 0036 1849     		ldr	r1, .L36+24
 384 0038 0078     		ldrb	r0, [r0]	@ zero_extendqisi2
 385 003a 0968     		ldr	r1, [r1]
 386 003c 0128     		cmp	r0, #1
 387              		.loc 1 75 0
 388 003e 1068     		ldr	r0, [r2]
 389              		.loc 1 74 0
 390 0040 06D0     		beq	.L34
 391              	.LVL25:
 392              	.LBB88:
 393              	.LBB89:
 394              		.loc 1 88 0
 395 0042 0003     		lsls	r0, r0, #12
 396 0044 0ED5     		bpl	.L26
 397              		.loc 1 89 0
 398 0046 1069     		ldr	r0, [r2, #16]
 399 0048 8842     		cmp	r0, r1
ARM GAS  C:\Users\25521\AppData\Local\Temp\ccDjrTUL.s 			page 8


 400 004a 12D0     		beq	.L35
 401              	.LVL26:
 402              	.L27:
 403              		.loc 1 96 0
 404 004c D160     		str	r1, [r2, #12]
 405 004e E3E7     		b	.L20
 406              	.L34:
 407              	.LBE89:
 408              	.LBE88:
 409              		.loc 1 75 0
 410 0050 0003     		lsls	r0, r0, #12
 411 0052 FBD4     		bmi	.L27
 412              	.L28:
 413              	.LBB92:
 414              	.LBB90:
 415              		.loc 1 106 0
 416 0054 1161     		str	r1, [r2, #16]
 417              	.LBE90:
 418              	.LBE92:
 419              		.loc 1 111 0
 420 0056 DFE7     		b	.L20
 421              	.L33:
 422              		.loc 1 63 0
 423 0058 1068     		ldr	r0, [r2]
 424 005a 1049     		ldr	r1, .L36+28
 425 005c 0003     		lsls	r0, r0, #12
 426 005e 0968     		ldr	r1, [r1]
 427 0060 F8D5     		bpl	.L28
 428 0062 F3E7     		b	.L27
 429              	.LVL27:
 430              	.L26:
 431              	.LBB93:
 432              	.LBB91:
 433              		.loc 1 99 0
 434 0064 D068     		ldr	r0, [r2, #12]
 435 0066 8842     		cmp	r0, r1
 436 0068 F4D1     		bne	.L28
 437              		.loc 1 102 0
 438 006a 0C49     		ldr	r1, .L36+28
 439 006c 0968     		ldr	r1, [r1]
 440 006e 1161     		str	r1, [r2, #16]
 441 0070 D2E7     		b	.L20
 442              	.L35:
 443              		.loc 1 92 0
 444 0072 0A49     		ldr	r1, .L36+28
 445 0074 0968     		ldr	r1, [r1]
 446 0076 D160     		str	r1, [r2, #12]
 447 0078 CEE7     		b	.L20
 448              	.LVL28:
 449              	.L32:
 450              	.LBE91:
 451              	.LBE93:
 452              		.loc 1 111 0
 453 007a FFF7FEFF 		bl	__stack_chk_fail
 454              	.LVL29:
 455              	.L37:
 456 007e 00BF     		.align	2
ARM GAS  C:\Users\25521\AppData\Local\Temp\ccDjrTUL.s 			page 9


 457              	.L36:
 458 0080 00000000 		.word	.LANCHOR4
 459 0084 00000000 		.word	__stack_chk_guard
 460 0088 00000000 		.word	.LANCHOR0
 461 008c 00000000 		.word	.LANCHOR5
 462 0090 00000000 		.word	DCMID
 463 0094 00000000 		.word	.LANCHOR8
 464 0098 00000000 		.word	.LANCHOR7
 465 009c 00000000 		.word	.LANCHOR6
 466              		.cfi_endproc
 467              	.LFE269:
 468              		.size	dmaHalfTransferEndCb, .-dmaHalfTransferEndCb
 469              		.section	.text.dcmi_start_one_shot,"ax",%progbits
 470              		.align	1
 471              		.p2align 4,,15
 472              		.global	dcmi_start_one_shot
 473              		.syntax unified
 474              		.thumb
 475              		.thumb_func
 476              		.fpu fpv4-sp-d16
 477              		.type	dcmi_start_one_shot, %function
 478              	dcmi_start_one_shot:
 479              	.LFB271:
 480              		.loc 1 128 0
 481              		.cfi_startproc
 482              		@ args = 0, pretend = 0, frame = 8
 483              		@ frame_needed = 0, uses_anonymous_args = 0
 484              	.LVL30:
 485 0000 10B5     		push	{r4, lr}
 486              		.cfi_def_cfa_offset 8
 487              		.cfi_offset 4, -8
 488              		.cfi_offset 14, -4
 489 0002 094B     		ldr	r3, .L43
 490              		.loc 1 129 0
 491 0004 0949     		ldr	r1, .L43+4
 492              		.loc 1 128 0
 493 0006 1A68     		ldr	r2, [r3]
 494 0008 82B0     		sub	sp, sp, #8
 495              		.cfi_def_cfa_offset 16
 496              		.loc 1 129 0
 497 000a 0024     		movs	r4, #0
 498              		.loc 1 128 0
 499 000c 0192     		str	r2, [sp, #4]
 500              		.loc 1 130 0
 501 000e 019A     		ldr	r2, [sp, #4]
 502 0010 1B68     		ldr	r3, [r3]
 503              		.loc 1 129 0
 504 0012 0C70     		strb	r4, [r1]
 505              		.loc 1 130 0
 506 0014 9A42     		cmp	r2, r3
 507 0016 04D1     		bne	.L42
 508              		.loc 1 131 0
 509 0018 02B0     		add	sp, sp, #8
 510              		.cfi_remember_state
 511              		.cfi_def_cfa_offset 8
 512              		@ sp needed
 513 001a BDE81040 		pop	{r4, lr}
ARM GAS  C:\Users\25521\AppData\Local\Temp\ccDjrTUL.s 			page 10


 514              		.cfi_restore 14
 515              		.cfi_restore 4
 516              		.cfi_def_cfa_offset 0
 517              		.loc 1 130 0
 518 001e FFF7FEBF 		b	dcmiStartOneShot
 519              	.LVL31:
 520              	.L42:
 521              		.cfi_restore_state
 522 0022 FFF7FEFF 		bl	__stack_chk_fail
 523              	.LVL32:
 524              	.L44:
 525 0026 00BF     		.align	2
 526              	.L43:
 527 0028 00000000 		.word	__stack_chk_guard
 528 002c 00000000 		.word	.LANCHOR1
 529              		.cfi_endproc
 530              	.LFE271:
 531              		.size	dcmi_start_one_shot, .-dcmi_start_one_shot
 532              		.section	.text.dcmi_start_stream,"ax",%progbits
 533              		.align	1
 534              		.p2align 4,,15
 535              		.global	dcmi_start_stream
 536              		.syntax unified
 537              		.thumb
 538              		.thumb_func
 539              		.fpu fpv4-sp-d16
 540              		.type	dcmi_start_stream, %function
 541              	dcmi_start_stream:
 542              	.LFB272:
 543              		.loc 1 140 0
 544              		.cfi_startproc
 545              		@ args = 0, pretend = 0, frame = 8
 546              		@ frame_needed = 0, uses_anonymous_args = 0
 547              	.LVL33:
 548 0000 10B5     		push	{r4, lr}
 549              		.cfi_def_cfa_offset 8
 550              		.cfi_offset 4, -8
 551              		.cfi_offset 14, -4
 552 0002 094B     		ldr	r3, .L50
 553              		.loc 1 141 0
 554 0004 0949     		ldr	r1, .L50+4
 555              		.loc 1 140 0
 556 0006 1A68     		ldr	r2, [r3]
 557 0008 82B0     		sub	sp, sp, #8
 558              		.cfi_def_cfa_offset 16
 559              		.loc 1 141 0
 560 000a 0024     		movs	r4, #0
 561              		.loc 1 140 0
 562 000c 0192     		str	r2, [sp, #4]
 563              		.loc 1 142 0
 564 000e 019A     		ldr	r2, [sp, #4]
 565 0010 1B68     		ldr	r3, [r3]
 566              		.loc 1 141 0
 567 0012 0C70     		strb	r4, [r1]
 568              		.loc 1 142 0
 569 0014 9A42     		cmp	r2, r3
 570 0016 04D1     		bne	.L49
ARM GAS  C:\Users\25521\AppData\Local\Temp\ccDjrTUL.s 			page 11


 571              		.loc 1 143 0
 572 0018 02B0     		add	sp, sp, #8
 573              		.cfi_remember_state
 574              		.cfi_def_cfa_offset 8
 575              		@ sp needed
 576 001a BDE81040 		pop	{r4, lr}
 577              		.cfi_restore 14
 578              		.cfi_restore 4
 579              		.cfi_def_cfa_offset 0
 580              		.loc 1 142 0
 581 001e FFF7FEBF 		b	dcmiStartStream
 582              	.LVL34:
 583              	.L49:
 584              		.cfi_restore_state
 585 0022 FFF7FEFF 		bl	__stack_chk_fail
 586              	.LVL35:
 587              	.L51:
 588 0026 00BF     		.align	2
 589              	.L50:
 590 0028 00000000 		.word	__stack_chk_guard
 591 002c 00000000 		.word	.LANCHOR1
 592              		.cfi_endproc
 593              	.LFE272:
 594              		.size	dcmi_start_stream, .-dcmi_start_stream
 595              		.section	.text.dcmi_stop_stream,"ax",%progbits
 596              		.align	1
 597              		.p2align 4,,15
 598              		.global	dcmi_stop_stream
 599              		.syntax unified
 600              		.thumb
 601              		.thumb_func
 602              		.fpu fpv4-sp-d16
 603              		.type	dcmi_stop_stream, %function
 604              	dcmi_stop_stream:
 605              	.LFB273:
 606              		.loc 1 156 0
 607              		.cfi_startproc
 608              		@ args = 0, pretend = 0, frame = 8
 609              		@ frame_needed = 0, uses_anonymous_args = 0
 610              	.LVL36:
 611 0000 00B5     		push	{lr}
 612              		.cfi_def_cfa_offset 4
 613              		.cfi_offset 14, -4
 614 0002 074B     		ldr	r3, .L57
 615 0004 83B0     		sub	sp, sp, #12
 616              		.cfi_def_cfa_offset 16
 617              		.loc 1 156 0
 618 0006 1A68     		ldr	r2, [r3]
 619 0008 0192     		str	r2, [sp, #4]
 620              		.loc 1 157 0
 621 000a 019A     		ldr	r2, [sp, #4]
 622 000c 1B68     		ldr	r3, [r3]
 623 000e 9A42     		cmp	r2, r3
 624 0010 04D1     		bne	.L56
 625              		.loc 1 158 0
 626 0012 03B0     		add	sp, sp, #12
 627              		.cfi_remember_state
ARM GAS  C:\Users\25521\AppData\Local\Temp\ccDjrTUL.s 			page 12


 628              		.cfi_def_cfa_offset 4
 629              		@ sp needed
 630 0014 5DF804EB 		ldr	lr, [sp], #4
 631              		.cfi_restore 14
 632              		.cfi_def_cfa_offset 0
 633              		.loc 1 157 0
 634 0018 FFF7FEBF 		b	dcmiStopStream
 635              	.LVL37:
 636              	.L56:
 637              		.cfi_restore_state
 638 001c FFF7FEFF 		bl	__stack_chk_fail
 639              	.LVL38:
 640              	.L58:
 641              		.align	2
 642              	.L57:
 643 0020 00000000 		.word	__stack_chk_guard
 644              		.cfi_endproc
 645              	.LFE273:
 646              		.size	dcmi_stop_stream, .-dcmi_stop_stream
 647              		.section	.text.dcmi_start,"ax",%progbits
 648              		.align	1
 649              		.p2align 4,,15
 650              		.global	dcmi_start
 651              		.syntax unified
 652              		.thumb
 653              		.thumb_func
 654              		.fpu fpv4-sp-d16
 655              		.type	dcmi_start, %function
 656              	dcmi_start:
 657              	.LFB274:
 658              		.loc 1 165 0
 659              		.cfi_startproc
 660              		@ args = 0, pretend = 0, frame = 8
 661              		@ frame_needed = 0, uses_anonymous_args = 0
 662 0000 30B5     		push	{r4, r5, lr}
 663              		.cfi_def_cfa_offset 12
 664              		.cfi_offset 4, -12
 665              		.cfi_offset 5, -8
 666              		.cfi_offset 14, -4
 667 0002 0B4C     		ldr	r4, .L63
 668              		.loc 1 176 0
 669 0004 0B4D     		ldr	r5, .L63+4
 670              		.loc 1 165 0
 671 0006 2368     		ldr	r3, [r4]
 672 0008 83B0     		sub	sp, sp, #12
 673              		.cfi_def_cfa_offset 24
 674              		.loc 1 165 0
 675 000a 0193     		str	r3, [sp, #4]
 676              		.loc 1 166 0
 677 000c FFF7FEFF 		bl	dcmiInit
 678              	.LVL39:
 679              		.loc 1 176 0
 680 0010 094B     		ldr	r3, .L63+8
 681              		.loc 1 180 0
 682 0012 0199     		ldr	r1, [sp, #4]
 683 0014 2268     		ldr	r2, [r4]
 684              		.loc 1 177 0
ARM GAS  C:\Users\25521\AppData\Local\Temp\ccDjrTUL.s 			page 13


 685 0016 0948     		ldr	r0, .L63+12
 686              		.loc 1 176 0
 687 0018 2B60     		str	r3, [r5]
 688              		.loc 1 180 0
 689 001a 9142     		cmp	r1, r2
 690              		.loc 1 177 0
 691 001c 03F59643 		add	r3, r3, #19200
 692 0020 0360     		str	r3, [r0]
 693              		.loc 1 180 0
 694 0022 02D1     		bne	.L62
 695 0024 0020     		movs	r0, #0
 696 0026 03B0     		add	sp, sp, #12
 697              		.cfi_remember_state
 698              		.cfi_def_cfa_offset 12
 699              		@ sp needed
 700 0028 30BD     		pop	{r4, r5, pc}
 701              	.L62:
 702              		.cfi_restore_state
 703 002a FFF7FEFF 		bl	__stack_chk_fail
 704              	.LVL40:
 705              	.L64:
 706 002e 00BF     		.align	2
 707              	.L63:
 708 0030 00000000 		.word	__stack_chk_guard
 709 0034 00000000 		.word	.LANCHOR7
 710 0038 00000000 		.word	image_buff
 711 003c 00000000 		.word	.LANCHOR6
 712              		.cfi_endproc
 713              	.LFE274:
 714              		.size	dcmi_start, .-dcmi_start
 715              		.section	.text.dcmi_prepare,"ax",%progbits
 716              		.align	1
 717              		.p2align 4,,15
 718              		.global	dcmi_prepare
 719              		.syntax unified
 720              		.thumb
 721              		.thumb_func
 722              		.fpu fpv4-sp-d16
 723              		.type	dcmi_prepare, %function
 724              	dcmi_prepare:
 725              	.LFB275:
 726              		.loc 1 182 0
 727              		.cfi_startproc
 728              		@ args = 0, pretend = 0, frame = 8
 729              		@ frame_needed = 0, uses_anonymous_args = 0
 730 0000 30B5     		push	{r4, r5, lr}
 731              		.cfi_def_cfa_offset 12
 732              		.cfi_offset 4, -12
 733              		.cfi_offset 5, -8
 734              		.cfi_offset 14, -4
 735              		.loc 1 183 0
 736 0002 1B4D     		ldr	r5, .L76
 737              		.loc 1 182 0
 738 0004 1B4C     		ldr	r4, .L76+4
 739              		.loc 1 183 0
 740 0006 2B78     		ldrb	r3, [r5]	@ zero_extendqisi2
 741              		.loc 1 182 0
ARM GAS  C:\Users\25521\AppData\Local\Temp\ccDjrTUL.s 			page 14


 742 0008 2268     		ldr	r2, [r4]
 743 000a 85B0     		sub	sp, sp, #20
 744              		.cfi_def_cfa_offset 32
 745              		.loc 1 183 0
 746 000c 012B     		cmp	r3, #1
 747              		.loc 1 182 0
 748 000e 0392     		str	r2, [sp, #12]
 749              		.loc 1 183 0
 750 0010 25D0     		beq	.L74
 751              	.L66:
 752              		.loc 1 187 0
 753 0012 FFF7FEFF 		bl	cam_get_mem_required
 754              	.LVL41:
 755              		.loc 1 188 0
 756 0016 184B     		ldr	r3, .L76+8
 757 0018 1B78     		ldrb	r3, [r3]	@ zero_extendqisi2
 758              		.loc 1 187 0
 759 001a 0246     		mov	r2, r0
 760              	.LVL42:
 761              		.loc 1 188 0
 762 001c 53B9     		cbnz	r3, .L67
 763              		.loc 1 189 0
 764 001e B0F5164F 		cmp	r0, #38400
 765 0022 20D8     		bhi	.L72
 766              		.loc 1 193 0
 767 0024 1549     		ldr	r1, .L76+12
 768 0026 0093     		str	r3, [sp]
 769 0028 0B68     		ldr	r3, [r1]
 770 002a 1548     		ldr	r0, .L76+16
 771              	.LVL43:
 772 002c 1549     		ldr	r1, .L76+20
 773 002e FFF7FEFF 		bl	dcmiPrepare
 774              	.LVL44:
 775 0032 0BE0     		b	.L69
 776              	.LVL45:
 777              	.L67:
 778              		.loc 1 195 0
 779 0034 B0F5964F 		cmp	r0, #19200
 780 0038 15D8     		bhi	.L72
 781              		.loc 1 199 0
 782 003a 1349     		ldr	r1, .L76+24
 783 003c 0F4B     		ldr	r3, .L76+12
 784 003e 0968     		ldr	r1, [r1]
 785 0040 1B68     		ldr	r3, [r3]
 786 0042 0F48     		ldr	r0, .L76+16
 787              	.LVL46:
 788 0044 0091     		str	r1, [sp]
 789 0046 0F49     		ldr	r1, .L76+20
 790 0048 FFF7FEFF 		bl	dcmiPrepare
 791              	.LVL47:
 792              	.L69:
 793              		.loc 1 202 0
 794 004c 0123     		movs	r3, #1
 795 004e 2B70     		strb	r3, [r5]
 796              		.loc 1 204 0
 797 0050 0020     		movs	r0, #0
 798              	.L68:
ARM GAS  C:\Users\25521\AppData\Local\Temp\ccDjrTUL.s 			page 15


 799              		.loc 1 205 0
 800 0052 039A     		ldr	r2, [sp, #12]
 801 0054 2368     		ldr	r3, [r4]
 802 0056 9A42     		cmp	r2, r3
 803 0058 08D1     		bne	.L75
 804 005a 05B0     		add	sp, sp, #20
 805              		.cfi_remember_state
 806              		.cfi_def_cfa_offset 12
 807              		@ sp needed
 808 005c 30BD     		pop	{r4, r5, pc}
 809              	.L74:
 810              		.cfi_restore_state
 811              		.loc 1 184 0
 812 005e 0848     		ldr	r0, .L76+16
 813 0060 FFF7FEFF 		bl	dcmiUnprepare
 814              	.LVL48:
 815 0064 D5E7     		b	.L66
 816              	.LVL49:
 817              	.L72:
 818              		.loc 1 190 0
 819 0066 4FF0FF30 		mov	r0, #-1
 820              	.LVL50:
 821 006a F2E7     		b	.L68
 822              	.LVL51:
 823              	.L75:
 824              		.loc 1 205 0
 825 006c FFF7FEFF 		bl	__stack_chk_fail
 826              	.LVL52:
 827              	.L77:
 828              		.align	2
 829              	.L76:
 830 0070 00000000 		.word	.LANCHOR9
 831 0074 00000000 		.word	__stack_chk_guard
 832 0078 00000000 		.word	.LANCHOR4
 833 007c 00000000 		.word	.LANCHOR7
 834 0080 00000000 		.word	DCMID
 835 0084 00000000 		.word	.LANCHOR10
 836 0088 00000000 		.word	.LANCHOR6
 837              		.cfi_endproc
 838              	.LFE275:
 839              		.size	dcmi_prepare, .-dcmi_prepare
 840              		.section	.text.dcmi_unprepare,"ax",%progbits
 841              		.align	1
 842              		.p2align 4,,15
 843              		.global	dcmi_unprepare
 844              		.syntax unified
 845              		.thumb
 846              		.thumb_func
 847              		.fpu fpv4-sp-d16
 848              		.type	dcmi_unprepare, %function
 849              	dcmi_unprepare:
 850              	.LFB276:
 851              		.loc 1 207 0
 852              		.cfi_startproc
 853              		@ args = 0, pretend = 0, frame = 8
 854              		@ frame_needed = 0, uses_anonymous_args = 0
 855 0000 30B5     		push	{r4, r5, lr}
ARM GAS  C:\Users\25521\AppData\Local\Temp\ccDjrTUL.s 			page 16


 856              		.cfi_def_cfa_offset 12
 857              		.cfi_offset 4, -12
 858              		.cfi_offset 5, -8
 859              		.cfi_offset 14, -4
 860              		.loc 1 208 0
 861 0002 0B4C     		ldr	r4, .L84
 862              		.loc 1 207 0
 863 0004 0B4D     		ldr	r5, .L84+4
 864              		.loc 1 208 0
 865 0006 2378     		ldrb	r3, [r4]	@ zero_extendqisi2
 866              		.loc 1 207 0
 867 0008 2A68     		ldr	r2, [r5]
 868 000a 83B0     		sub	sp, sp, #12
 869              		.cfi_def_cfa_offset 24
 870              		.loc 1 208 0
 871 000c 012B     		cmp	r3, #1
 872              		.loc 1 207 0
 873 000e 0192     		str	r2, [sp, #4]
 874              		.loc 1 208 0
 875 0010 07D0     		beq	.L82
 876              	.L79:
 877              		.loc 1 212 0
 878 0012 019A     		ldr	r2, [sp, #4]
 879 0014 2B68     		ldr	r3, [r5]
 880              		.loc 1 211 0
 881 0016 0021     		movs	r1, #0
 882              		.loc 1 212 0
 883 0018 9A42     		cmp	r2, r3
 884              		.loc 1 211 0
 885 001a 2170     		strb	r1, [r4]
 886              		.loc 1 212 0
 887 001c 05D1     		bne	.L83
 888 001e 03B0     		add	sp, sp, #12
 889              		.cfi_remember_state
 890              		.cfi_def_cfa_offset 12
 891              		@ sp needed
 892 0020 30BD     		pop	{r4, r5, pc}
 893              	.L82:
 894              		.cfi_restore_state
 895              		.loc 1 209 0
 896 0022 0548     		ldr	r0, .L84+8
 897 0024 FFF7FEFF 		bl	dcmiUnprepare
 898              	.LVL53:
 899 0028 F3E7     		b	.L79
 900              	.L83:
 901              		.loc 1 212 0
 902 002a FFF7FEFF 		bl	__stack_chk_fail
 903              	.LVL54:
 904              	.L85:
 905 002e 00BF     		.align	2
 906              	.L84:
 907 0030 00000000 		.word	.LANCHOR9
 908 0034 00000000 		.word	__stack_chk_guard
 909 0038 00000000 		.word	DCMID
 910              		.cfi_endproc
 911              	.LFE276:
 912              		.size	dcmi_unprepare, .-dcmi_unprepare
ARM GAS  C:\Users\25521\AppData\Local\Temp\ccDjrTUL.s 			page 17


 913              		.section	.text.image_is_ready,"ax",%progbits
 914              		.align	1
 915              		.p2align 4,,15
 916              		.global	image_is_ready
 917              		.syntax unified
 918              		.thumb
 919              		.thumb_func
 920              		.fpu fpv4-sp-d16
 921              		.type	image_is_ready, %function
 922              	image_is_ready:
 923              	.LFB277:
 924              		.loc 1 214 0
 925              		.cfi_startproc
 926              		@ args = 0, pretend = 0, frame = 8
 927              		@ frame_needed = 0, uses_anonymous_args = 0
 928 0000 00B5     		push	{lr}
 929              		.cfi_def_cfa_offset 4
 930              		.cfi_offset 14, -4
 931 0002 074B     		ldr	r3, .L90
 932              		.loc 1 215 0
 933 0004 0749     		ldr	r1, .L90+4
 934              		.loc 1 214 0
 935 0006 1A68     		ldr	r2, [r3]
 936              		.loc 1 216 0
 937 0008 0878     		ldrb	r0, [r1]	@ zero_extendqisi2
 938              		.loc 1 214 0
 939 000a 83B0     		sub	sp, sp, #12
 940              		.cfi_def_cfa_offset 16
 941              		.loc 1 214 0
 942 000c 0192     		str	r2, [sp, #4]
 943              		.loc 1 216 0
 944 000e 019A     		ldr	r2, [sp, #4]
 945 0010 1B68     		ldr	r3, [r3]
 946 0012 9A42     		cmp	r2, r3
 947 0014 02D1     		bne	.L89
 948 0016 03B0     		add	sp, sp, #12
 949              		.cfi_remember_state
 950              		.cfi_def_cfa_offset 4
 951              		@ sp needed
 952 0018 5DF804FB 		ldr	pc, [sp], #4
 953              	.L89:
 954              		.cfi_restore_state
 955 001c FFF7FEFF 		bl	__stack_chk_fail
 956              	.LVL55:
 957              	.L91:
 958              		.align	2
 959              	.L90:
 960 0020 00000000 		.word	__stack_chk_guard
 961 0024 00000000 		.word	.LANCHOR1
 962              		.cfi_endproc
 963              	.LFE277:
 964              		.size	image_is_ready, .-image_is_ready
 965              		.section	.text.wait_image_ready,"ax",%progbits
 966              		.align	1
 967              		.p2align 4,,15
 968              		.global	wait_image_ready
 969              		.syntax unified
ARM GAS  C:\Users\25521\AppData\Local\Temp\ccDjrTUL.s 			page 18


 970              		.thumb
 971              		.thumb_func
 972              		.fpu fpv4-sp-d16
 973              		.type	wait_image_ready, %function
 974              	wait_image_ready:
 975              	.LFB278:
 976              		.loc 1 218 0
 977              		.cfi_startproc
 978              		@ args = 0, pretend = 0, frame = 8
 979              		@ frame_needed = 0, uses_anonymous_args = 0
 980 0000 10B5     		push	{r4, lr}
 981              		.cfi_def_cfa_offset 8
 982              		.cfi_offset 4, -8
 983              		.cfi_offset 14, -4
 984 0002 0F4C     		ldr	r4, .L99
 985              		.loc 1 220 0
 986 0004 0F48     		ldr	r0, .L99+4
 987              		.loc 1 218 0
 988 0006 2368     		ldr	r3, [r4]
 989 0008 82B0     		sub	sp, sp, #8
 990              		.cfi_def_cfa_offset 16
 991              		.loc 1 218 0
 992 000a 0193     		str	r3, [sp, #4]
 993              		.loc 1 220 0
 994 000c FFF7FEFF 		bl	chMtxLock
 995              	.LVL56:
 996              		.loc 1 221 0
 997 0010 0D48     		ldr	r0, .L99+8
 998 0012 FFF7FEFF 		bl	chCondWait
 999              	.LVL57:
 1000              		.loc 1 222 0
 1001 0016 0D4B     		ldr	r3, .L99+12
 1002              		.loc 1 223 0
 1003 0018 0A48     		ldr	r0, .L99+4
 1004              		.loc 1 222 0
 1005 001a 1B78     		ldrb	r3, [r3]	@ zero_extendqisi2
 1006 001c 43B1     		cbz	r3, .L97
 1007              		.loc 1 226 0
 1008 001e FFF7FEFF 		bl	chMtxUnlock
 1009              	.LVL58:
 1010              		.loc 1 227 0
 1011 0022 0020     		movs	r0, #0
 1012              	.L94:
 1013              		.loc 1 230 0
 1014 0024 019A     		ldr	r2, [sp, #4]
 1015 0026 2368     		ldr	r3, [r4]
 1016 0028 9A42     		cmp	r2, r3
 1017 002a 06D1     		bne	.L98
 1018 002c 02B0     		add	sp, sp, #8
 1019              		.cfi_remember_state
 1020              		.cfi_def_cfa_offset 8
 1021              		@ sp needed
 1022 002e 10BD     		pop	{r4, pc}
 1023              	.L97:
 1024              		.cfi_restore_state
 1025              		.loc 1 223 0
 1026 0030 FFF7FEFF 		bl	chMtxUnlock
ARM GAS  C:\Users\25521\AppData\Local\Temp\ccDjrTUL.s 			page 19


 1027              	.LVL59:
 1028              		.loc 1 224 0
 1029 0034 4FF0FF30 		mov	r0, #-1
 1030 0038 F4E7     		b	.L94
 1031              	.L98:
 1032              		.loc 1 230 0
 1033 003a FFF7FEFF 		bl	__stack_chk_fail
 1034              	.LVL60:
 1035              	.L100:
 1036 003e 00BF     		.align	2
 1037              	.L99:
 1038 0040 00000000 		.word	__stack_chk_guard
 1039 0044 00000000 		.word	.LANCHOR11
 1040 0048 00000000 		.word	.LANCHOR2
 1041 004c 00000000 		.word	.LANCHOR1
 1042              		.cfi_endproc
 1043              	.LFE278:
 1044              		.size	wait_image_ready, .-wait_image_ready
 1045              		.section	.text.dcmi_double_buffering_enabled,"ax",%progbits
 1046              		.align	1
 1047              		.p2align 4,,15
 1048              		.global	dcmi_double_buffering_enabled
 1049              		.syntax unified
 1050              		.thumb
 1051              		.thumb_func
 1052              		.fpu fpv4-sp-d16
 1053              		.type	dcmi_double_buffering_enabled, %function
 1054              	dcmi_double_buffering_enabled:
 1055              	.LFB279:
 1056              		.loc 1 232 0
 1057              		.cfi_startproc
 1058              		@ args = 0, pretend = 0, frame = 8
 1059              		@ frame_needed = 0, uses_anonymous_args = 0
 1060 0000 00B5     		push	{lr}
 1061              		.cfi_def_cfa_offset 4
 1062              		.cfi_offset 14, -4
 1063 0002 074B     		ldr	r3, .L105
 1064              		.loc 1 233 0
 1065 0004 0749     		ldr	r1, .L105+4
 1066              		.loc 1 232 0
 1067 0006 1A68     		ldr	r2, [r3]
 1068              		.loc 1 234 0
 1069 0008 0878     		ldrb	r0, [r1]	@ zero_extendqisi2
 1070              		.loc 1 232 0
 1071 000a 83B0     		sub	sp, sp, #12
 1072              		.cfi_def_cfa_offset 16
 1073              		.loc 1 232 0
 1074 000c 0192     		str	r2, [sp, #4]
 1075              		.loc 1 234 0
 1076 000e 019A     		ldr	r2, [sp, #4]
 1077 0010 1B68     		ldr	r3, [r3]
 1078 0012 9A42     		cmp	r2, r3
 1079 0014 02D1     		bne	.L104
 1080 0016 03B0     		add	sp, sp, #12
 1081              		.cfi_remember_state
 1082              		.cfi_def_cfa_offset 4
 1083              		@ sp needed
ARM GAS  C:\Users\25521\AppData\Local\Temp\ccDjrTUL.s 			page 20


 1084 0018 5DF804FB 		ldr	pc, [sp], #4
 1085              	.L104:
 1086              		.cfi_restore_state
 1087 001c FFF7FEFF 		bl	__stack_chk_fail
 1088              	.LVL61:
 1089              	.L106:
 1090              		.align	2
 1091              	.L105:
 1092 0020 00000000 		.word	__stack_chk_guard
 1093 0024 00000000 		.word	.LANCHOR4
 1094              		.cfi_endproc
 1095              	.LFE279:
 1096              		.size	dcmi_double_buffering_enabled, .-dcmi_double_buffering_enabled
 1097              		.section	.text.dcmi_enable_double_buffering,"ax",%progbits
 1098              		.align	1
 1099              		.p2align 4,,15
 1100              		.global	dcmi_enable_double_buffering
 1101              		.syntax unified
 1102              		.thumb
 1103              		.thumb_func
 1104              		.fpu fpv4-sp-d16
 1105              		.type	dcmi_enable_double_buffering, %function
 1106              	dcmi_enable_double_buffering:
 1107              	.LFB280:
 1108              		.loc 1 236 0
 1109              		.cfi_startproc
 1110              		@ args = 0, pretend = 0, frame = 8
 1111              		@ frame_needed = 0, uses_anonymous_args = 0
 1112 0000 00B5     		push	{lr}
 1113              		.cfi_def_cfa_offset 4
 1114              		.cfi_offset 14, -4
 1115 0002 084B     		ldr	r3, .L111
 1116              		.loc 1 237 0
 1117 0004 0849     		ldr	r1, .L111+4
 1118              		.loc 1 236 0
 1119 0006 1A68     		ldr	r2, [r3]
 1120 0008 83B0     		sub	sp, sp, #12
 1121              		.cfi_def_cfa_offset 16
 1122              		.loc 1 237 0
 1123 000a 0120     		movs	r0, #1
 1124              		.loc 1 236 0
 1125 000c 0192     		str	r2, [sp, #4]
 1126              		.loc 1 260 0
 1127 000e 019A     		ldr	r2, [sp, #4]
 1128 0010 1B68     		ldr	r3, [r3]
 1129              		.loc 1 237 0
 1130 0012 0870     		strb	r0, [r1]
 1131              		.loc 1 260 0
 1132 0014 9A42     		cmp	r2, r3
 1133 0016 03D1     		bne	.L110
 1134 0018 0020     		movs	r0, #0
 1135 001a 03B0     		add	sp, sp, #12
 1136              		.cfi_remember_state
 1137              		.cfi_def_cfa_offset 4
 1138              		@ sp needed
 1139 001c 5DF804FB 		ldr	pc, [sp], #4
 1140              	.L110:
ARM GAS  C:\Users\25521\AppData\Local\Temp\ccDjrTUL.s 			page 21


 1141              		.cfi_restore_state
 1142 0020 FFF7FEFF 		bl	__stack_chk_fail
 1143              	.LVL62:
 1144              	.L112:
 1145              		.align	2
 1146              	.L111:
 1147 0024 00000000 		.word	__stack_chk_guard
 1148 0028 00000000 		.word	.LANCHOR4
 1149              		.cfi_endproc
 1150              	.LFE280:
 1151              		.size	dcmi_enable_double_buffering, .-dcmi_enable_double_buffering
 1152              		.section	.text.dcmi_disable_double_buffering,"ax",%progbits
 1153              		.align	1
 1154              		.p2align 4,,15
 1155              		.global	dcmi_disable_double_buffering
 1156              		.syntax unified
 1157              		.thumb
 1158              		.thumb_func
 1159              		.fpu fpv4-sp-d16
 1160              		.type	dcmi_disable_double_buffering, %function
 1161              	dcmi_disable_double_buffering:
 1162              	.LFB281:
 1163              		.loc 1 262 0
 1164              		.cfi_startproc
 1165              		@ args = 0, pretend = 0, frame = 8
 1166              		@ frame_needed = 0, uses_anonymous_args = 0
 1167 0000 00B5     		push	{lr}
 1168              		.cfi_def_cfa_offset 4
 1169              		.cfi_offset 14, -4
 1170 0002 084B     		ldr	r3, .L117
 1171              		.loc 1 263 0
 1172 0004 0849     		ldr	r1, .L117+4
 1173              		.loc 1 262 0
 1174 0006 1A68     		ldr	r2, [r3]
 1175 0008 83B0     		sub	sp, sp, #12
 1176              		.cfi_def_cfa_offset 16
 1177              		.loc 1 263 0
 1178 000a 0020     		movs	r0, #0
 1179              		.loc 1 262 0
 1180 000c 0192     		str	r2, [sp, #4]
 1181              		.loc 1 281 0
 1182 000e 019A     		ldr	r2, [sp, #4]
 1183 0010 1B68     		ldr	r3, [r3]
 1184              		.loc 1 263 0
 1185 0012 0870     		strb	r0, [r1]
 1186              		.loc 1 281 0
 1187 0014 9A42     		cmp	r2, r3
 1188 0016 02D1     		bne	.L116
 1189 0018 03B0     		add	sp, sp, #12
 1190              		.cfi_remember_state
 1191              		.cfi_def_cfa_offset 4
 1192              		@ sp needed
 1193 001a 5DF804FB 		ldr	pc, [sp], #4
 1194              	.L116:
 1195              		.cfi_restore_state
 1196 001e FFF7FEFF 		bl	__stack_chk_fail
 1197              	.LVL63:
ARM GAS  C:\Users\25521\AppData\Local\Temp\ccDjrTUL.s 			page 22


 1198              	.L118:
 1199 0022 00BF     		.align	2
 1200              	.L117:
 1201 0024 00000000 		.word	__stack_chk_guard
 1202 0028 00000000 		.word	.LANCHOR4
 1203              		.cfi_endproc
 1204              	.LFE281:
 1205              		.size	dcmi_disable_double_buffering, .-dcmi_disable_double_buffering
 1206              		.section	.text.dcmi_set_capture_mode,"ax",%progbits
 1207              		.align	1
 1208              		.p2align 4,,15
 1209              		.global	dcmi_set_capture_mode
 1210              		.syntax unified
 1211              		.thumb
 1212              		.thumb_func
 1213              		.fpu fpv4-sp-d16
 1214              		.type	dcmi_set_capture_mode, %function
 1215              	dcmi_set_capture_mode:
 1216              	.LFB282:
 1217              		.loc 1 283 0
 1218              		.cfi_startproc
 1219              		@ args = 0, pretend = 0, frame = 8
 1220              		@ frame_needed = 0, uses_anonymous_args = 0
 1221              	.LVL64:
 1222 0000 00B5     		push	{lr}
 1223              		.cfi_def_cfa_offset 4
 1224              		.cfi_offset 14, -4
 1225 0002 074B     		ldr	r3, .L123
 1226              		.loc 1 284 0
 1227 0004 0749     		ldr	r1, .L123+4
 1228              		.loc 1 283 0
 1229 0006 1A68     		ldr	r2, [r3]
 1230              		.loc 1 284 0
 1231 0008 0870     		strb	r0, [r1]
 1232              		.loc 1 283 0
 1233 000a 83B0     		sub	sp, sp, #12
 1234              		.cfi_def_cfa_offset 16
 1235              		.loc 1 283 0
 1236 000c 0192     		str	r2, [sp, #4]
 1237              		.loc 1 285 0
 1238 000e 019A     		ldr	r2, [sp, #4]
 1239 0010 1B68     		ldr	r3, [r3]
 1240 0012 9A42     		cmp	r2, r3
 1241 0014 02D1     		bne	.L122
 1242 0016 03B0     		add	sp, sp, #12
 1243              		.cfi_remember_state
 1244              		.cfi_def_cfa_offset 4
 1245              		@ sp needed
 1246 0018 5DF804FB 		ldr	pc, [sp], #4
 1247              	.L122:
 1248              		.cfi_restore_state
 1249 001c FFF7FEFF 		bl	__stack_chk_fail
 1250              	.LVL65:
 1251              	.L124:
 1252              		.align	2
 1253              	.L123:
 1254 0020 00000000 		.word	__stack_chk_guard
ARM GAS  C:\Users\25521\AppData\Local\Temp\ccDjrTUL.s 			page 23


 1255 0024 00000000 		.word	.LANCHOR12
 1256              		.cfi_endproc
 1257              	.LFE282:
 1258              		.size	dcmi_set_capture_mode, .-dcmi_set_capture_mode
 1259              		.section	.text.dcmi_get_last_image_ptr,"ax",%progbits
 1260              		.align	1
 1261              		.p2align 4,,15
 1262              		.global	dcmi_get_last_image_ptr
 1263              		.syntax unified
 1264              		.thumb
 1265              		.thumb_func
 1266              		.fpu fpv4-sp-d16
 1267              		.type	dcmi_get_last_image_ptr, %function
 1268              	dcmi_get_last_image_ptr:
 1269              	.LFB283:
 1270              		.loc 1 287 0
 1271              		.cfi_startproc
 1272              		@ args = 0, pretend = 0, frame = 8
 1273              		@ frame_needed = 0, uses_anonymous_args = 0
 1274 0000 70B5     		push	{r4, r5, r6, lr}
 1275              		.cfi_def_cfa_offset 16
 1276              		.cfi_offset 4, -16
 1277              		.cfi_offset 5, -12
 1278              		.cfi_offset 6, -8
 1279              		.cfi_offset 14, -4
 1280              		.loc 1 288 0
 1281 0002 294B     		ldr	r3, .L147
 1282              		.loc 1 287 0
 1283 0004 294C     		ldr	r4, .L147+4
 1284              		.loc 1 288 0
 1285 0006 1878     		ldrb	r0, [r3]	@ zero_extendqisi2
 1286 0008 294D     		ldr	r5, .L147+8
 1287              		.loc 1 287 0
 1288 000a 2368     		ldr	r3, [r4]
 1289 000c 82B0     		sub	sp, sp, #8
 1290              		.cfi_def_cfa_offset 24
 1291              		.loc 1 287 0
 1292 000e 0193     		str	r3, [sp, #4]
 1293 0010 2B78     		ldrb	r3, [r5]	@ zero_extendqisi2
 1294              		.loc 1 288 0
 1295 0012 58B9     		cbnz	r0, .L126
 1296              		.loc 1 289 0
 1297 0014 012B     		cmp	r3, #1
 1298 0016 03D0     		beq	.L125
 1299              		.loc 1 293 0
 1300 0018 264A     		ldr	r2, .L147+12
 1301              		.loc 1 292 0
 1302 001a 0123     		movs	r3, #1
 1303              		.loc 1 293 0
 1304 001c 1068     		ldr	r0, [r2]
 1305              		.loc 1 292 0
 1306 001e 2B70     		strb	r3, [r5]
 1307              	.L125:
 1308              		.loc 1 342 0
 1309 0020 019A     		ldr	r2, [sp, #4]
 1310 0022 2368     		ldr	r3, [r4]
 1311 0024 9A42     		cmp	r2, r3
ARM GAS  C:\Users\25521\AppData\Local\Temp\ccDjrTUL.s 			page 24


 1312 0026 3DD1     		bne	.L146
 1313 0028 02B0     		add	sp, sp, #8
 1314              		.cfi_remember_state
 1315              		.cfi_def_cfa_offset 16
 1316              		@ sp needed
 1317 002a 70BD     		pop	{r4, r5, r6, pc}
 1318              	.L126:
 1319              		.cfi_restore_state
 1320              		.loc 1 296 0
 1321 002c 012B     		cmp	r3, #1
 1322 002e 37D0     		beq	.L142
 1323              		.loc 1 296 0 is_stmt 0 discriminator 1
 1324 0030 214E     		ldr	r6, .L147+16
 1325 0032 3378     		ldrb	r3, [r6]	@ zero_extendqisi2
 1326 0034 012B     		cmp	r3, #1
 1327 0036 33D0     		beq	.L142
 1328              		.loc 1 300 0 is_stmt 1
 1329 0038 204B     		ldr	r3, .L147+20
 1330 003a 1B78     		ldrb	r3, [r3]	@ zero_extendqisi2
 1331 003c FBB9     		cbnz	r3, .L128
 1332              		.loc 1 303 0
 1333 003e 204B     		ldr	r3, .L147+24
 1334 0040 1C4A     		ldr	r2, .L147+12
 1335 0042 DB68     		ldr	r3, [r3, #12]
 1336 0044 1168     		ldr	r1, [r2]
 1337 0046 1B68     		ldr	r3, [r3]
 1338 0048 1A68     		ldr	r2, [r3]
 1339 004a 1003     		lsls	r0, r2, #12
 1340 004c 07D5     		bpl	.L129
 1341              		.loc 1 304 0
 1342 004e DA68     		ldr	r2, [r3, #12]
 1343 0050 8A42     		cmp	r2, r1
 1344              		.loc 1 305 0
 1345 0052 4FF00102 		mov	r2, #1
 1346              		.loc 1 304 0
 1347 0056 21D0     		beq	.L144
 1348              	.L135:
 1349              		.loc 1 328 0
 1350 0058 3270     		strb	r2, [r6]
 1351              	.L136:
 1352              		.loc 1 330 0
 1353 005a D868     		ldr	r0, [r3, #12]
 1354 005c E0E7     		b	.L125
 1355              	.L129:
 1356              		.loc 1 311 0
 1357 005e 1A69     		ldr	r2, [r3, #16]
 1358 0060 8A42     		cmp	r2, r1
 1359              		.loc 1 312 0
 1360 0062 4FF00102 		mov	r2, #1
 1361              		.loc 1 311 0
 1362 0066 08D0     		beq	.L145
 1363              	.L137:
 1364              		.loc 1 336 0
 1365 0068 3270     		strb	r2, [r6]
 1366              	.L138:
 1367              		.loc 1 338 0
 1368 006a 1869     		ldr	r0, [r3, #16]
ARM GAS  C:\Users\25521\AppData\Local\Temp\ccDjrTUL.s 			page 25


 1369 006c D8E7     		b	.L125
 1370              	.L134:
 1371              		.loc 1 333 0
 1372 006e 1A69     		ldr	r2, [r3, #16]
 1373 0070 0968     		ldr	r1, [r1]
 1374 0072 9142     		cmp	r1, r2
 1375              		.loc 1 334 0
 1376 0074 4FF00102 		mov	r2, #1
 1377              		.loc 1 333 0
 1378 0078 F6D1     		bne	.L137
 1379              	.L145:
 1380              		.loc 1 334 0
 1381 007a 2A70     		strb	r2, [r5]
 1382 007c F5E7     		b	.L138
 1383              	.L128:
 1384              		.loc 1 323 0
 1385 007e FFF7FEFF 		bl	wait_image_ready
 1386              	.LVL66:
 1387              		.loc 1 324 0
 1388 0082 0F4B     		ldr	r3, .L147+24
 1389              		.loc 1 325 0
 1390 0084 0B49     		ldr	r1, .L147+12
 1391              		.loc 1 324 0
 1392 0086 DB68     		ldr	r3, [r3, #12]
 1393 0088 1B68     		ldr	r3, [r3]
 1394 008a 1A68     		ldr	r2, [r3]
 1395 008c 1203     		lsls	r2, r2, #12
 1396 008e EED5     		bpl	.L134
 1397              		.loc 1 325 0
 1398 0090 DA68     		ldr	r2, [r3, #12]
 1399 0092 0968     		ldr	r1, [r1]
 1400 0094 9142     		cmp	r1, r2
 1401              		.loc 1 326 0
 1402 0096 4FF00102 		mov	r2, #1
 1403              		.loc 1 325 0
 1404 009a DDD1     		bne	.L135
 1405              	.L144:
 1406              		.loc 1 326 0
 1407 009c 2A70     		strb	r2, [r5]
 1408 009e DCE7     		b	.L136
 1409              	.L142:
 1410              		.loc 1 290 0
 1411 00a0 0020     		movs	r0, #0
 1412 00a2 BDE7     		b	.L125
 1413              	.L146:
 1414              		.loc 1 342 0
 1415 00a4 FFF7FEFF 		bl	__stack_chk_fail
 1416              	.LVL67:
 1417              	.L148:
 1418              		.align	2
 1419              	.L147:
 1420 00a8 00000000 		.word	.LANCHOR4
 1421 00ac 00000000 		.word	__stack_chk_guard
 1422 00b0 00000000 		.word	.LANCHOR5
 1423 00b4 00000000 		.word	.LANCHOR7
 1424 00b8 00000000 		.word	.LANCHOR8
 1425 00bc 00000000 		.word	.LANCHOR0
ARM GAS  C:\Users\25521\AppData\Local\Temp\ccDjrTUL.s 			page 26


 1426 00c0 00000000 		.word	DCMID
 1427              		.cfi_endproc
 1428              	.LFE283:
 1429              		.size	dcmi_get_last_image_ptr, .-dcmi_get_last_image_ptr
 1430              		.section	.text.dcmi_release_last_image_ptr,"ax",%progbits
 1431              		.align	1
 1432              		.p2align 4,,15
 1433              		.global	dcmi_release_last_image_ptr
 1434              		.syntax unified
 1435              		.thumb
 1436              		.thumb_func
 1437              		.fpu fpv4-sp-d16
 1438              		.type	dcmi_release_last_image_ptr, %function
 1439              	dcmi_release_last_image_ptr:
 1440              	.LFB284:
 1441              		.loc 1 344 0
 1442              		.cfi_startproc
 1443              		@ args = 0, pretend = 0, frame = 8
 1444              		@ frame_needed = 0, uses_anonymous_args = 0
 1445 0000 10B5     		push	{r4, lr}
 1446              		.cfi_def_cfa_offset 8
 1447              		.cfi_offset 4, -8
 1448              		.cfi_offset 14, -4
 1449 0002 084B     		ldr	r3, .L153
 1450              		.loc 1 345 0
 1451 0004 084C     		ldr	r4, .L153+4
 1452              		.loc 1 344 0
 1453 0006 1A68     		ldr	r2, [r3]
 1454              		.loc 1 346 0
 1455 0008 0848     		ldr	r0, .L153+8
 1456              		.loc 1 344 0
 1457 000a 82B0     		sub	sp, sp, #8
 1458              		.cfi_def_cfa_offset 16
 1459              		.loc 1 344 0
 1460 000c 0192     		str	r2, [sp, #4]
 1461              		.loc 1 347 0
 1462 000e 0199     		ldr	r1, [sp, #4]
 1463 0010 1A68     		ldr	r2, [r3]
 1464              		.loc 1 345 0
 1465 0012 0023     		movs	r3, #0
 1466              		.loc 1 347 0
 1467 0014 9142     		cmp	r1, r2
 1468              		.loc 1 345 0
 1469 0016 2370     		strb	r3, [r4]
 1470              		.loc 1 346 0
 1471 0018 0370     		strb	r3, [r0]
 1472              		.loc 1 347 0
 1473 001a 01D1     		bne	.L152
 1474 001c 02B0     		add	sp, sp, #8
 1475              		.cfi_remember_state
 1476              		.cfi_def_cfa_offset 8
 1477              		@ sp needed
 1478 001e 10BD     		pop	{r4, pc}
 1479              	.L152:
 1480              		.cfi_restore_state
 1481 0020 FFF7FEFF 		bl	__stack_chk_fail
 1482              	.LVL68:
ARM GAS  C:\Users\25521\AppData\Local\Temp\ccDjrTUL.s 			page 27


 1483              	.L154:
 1484              		.align	2
 1485              	.L153:
 1486 0024 00000000 		.word	__stack_chk_guard
 1487 0028 00000000 		.word	.LANCHOR5
 1488 002c 00000000 		.word	.LANCHOR8
 1489              		.cfi_endproc
 1490              	.LFE284:
 1491              		.size	dcmi_release_last_image_ptr, .-dcmi_release_last_image_ptr
 1492              		.section	.text.dcmi_get_first_buffer_ptr,"ax",%progbits
 1493              		.align	1
 1494              		.p2align 4,,15
 1495              		.global	dcmi_get_first_buffer_ptr
 1496              		.syntax unified
 1497              		.thumb
 1498              		.thumb_func
 1499              		.fpu fpv4-sp-d16
 1500              		.type	dcmi_get_first_buffer_ptr, %function
 1501              	dcmi_get_first_buffer_ptr:
 1502              	.LFB285:
 1503              		.loc 1 349 0
 1504              		.cfi_startproc
 1505              		@ args = 0, pretend = 0, frame = 8
 1506              		@ frame_needed = 0, uses_anonymous_args = 0
 1507 0000 00B5     		push	{lr}
 1508              		.cfi_def_cfa_offset 4
 1509              		.cfi_offset 14, -4
 1510 0002 074B     		ldr	r3, .L159
 1511              		.loc 1 350 0
 1512 0004 0749     		ldr	r1, .L159+4
 1513              		.loc 1 349 0
 1514 0006 1A68     		ldr	r2, [r3]
 1515              		.loc 1 351 0
 1516 0008 0868     		ldr	r0, [r1]
 1517              		.loc 1 349 0
 1518 000a 83B0     		sub	sp, sp, #12
 1519              		.cfi_def_cfa_offset 16
 1520              		.loc 1 349 0
 1521 000c 0192     		str	r2, [sp, #4]
 1522              		.loc 1 351 0
 1523 000e 019A     		ldr	r2, [sp, #4]
 1524 0010 1B68     		ldr	r3, [r3]
 1525 0012 9A42     		cmp	r2, r3
 1526 0014 02D1     		bne	.L158
 1527 0016 03B0     		add	sp, sp, #12
 1528              		.cfi_remember_state
 1529              		.cfi_def_cfa_offset 4
 1530              		@ sp needed
 1531 0018 5DF804FB 		ldr	pc, [sp], #4
 1532              	.L158:
 1533              		.cfi_restore_state
 1534 001c FFF7FEFF 		bl	__stack_chk_fail
 1535              	.LVL69:
 1536              	.L160:
 1537              		.align	2
 1538              	.L159:
 1539 0020 00000000 		.word	__stack_chk_guard
ARM GAS  C:\Users\25521\AppData\Local\Temp\ccDjrTUL.s 			page 28


 1540 0024 00000000 		.word	.LANCHOR7
 1541              		.cfi_endproc
 1542              	.LFE285:
 1543              		.size	dcmi_get_first_buffer_ptr, .-dcmi_get_first_buffer_ptr
 1544              		.section	.text.dcmi_get_second_buffer_ptr,"ax",%progbits
 1545              		.align	1
 1546              		.p2align 4,,15
 1547              		.global	dcmi_get_second_buffer_ptr
 1548              		.syntax unified
 1549              		.thumb
 1550              		.thumb_func
 1551              		.fpu fpv4-sp-d16
 1552              		.type	dcmi_get_second_buffer_ptr, %function
 1553              	dcmi_get_second_buffer_ptr:
 1554              	.LFB286:
 1555              		.loc 1 353 0
 1556              		.cfi_startproc
 1557              		@ args = 0, pretend = 0, frame = 8
 1558              		@ frame_needed = 0, uses_anonymous_args = 0
 1559 0000 00B5     		push	{lr}
 1560              		.cfi_def_cfa_offset 4
 1561              		.cfi_offset 14, -4
 1562 0002 074B     		ldr	r3, .L165
 1563              		.loc 1 354 0
 1564 0004 0749     		ldr	r1, .L165+4
 1565              		.loc 1 353 0
 1566 0006 1A68     		ldr	r2, [r3]
 1567              		.loc 1 355 0
 1568 0008 0868     		ldr	r0, [r1]
 1569              		.loc 1 353 0
 1570 000a 83B0     		sub	sp, sp, #12
 1571              		.cfi_def_cfa_offset 16
 1572              		.loc 1 353 0
 1573 000c 0192     		str	r2, [sp, #4]
 1574              		.loc 1 355 0
 1575 000e 019A     		ldr	r2, [sp, #4]
 1576 0010 1B68     		ldr	r3, [r3]
 1577 0012 9A42     		cmp	r2, r3
 1578 0014 02D1     		bne	.L164
 1579 0016 03B0     		add	sp, sp, #12
 1580              		.cfi_remember_state
 1581              		.cfi_def_cfa_offset 4
 1582              		@ sp needed
 1583 0018 5DF804FB 		ldr	pc, [sp], #4
 1584              	.L164:
 1585              		.cfi_restore_state
 1586 001c FFF7FEFF 		bl	__stack_chk_fail
 1587              	.LVL70:
 1588              	.L166:
 1589              		.align	2
 1590              	.L165:
 1591 0020 00000000 		.word	__stack_chk_guard
 1592 0024 00000000 		.word	.LANCHOR6
 1593              		.cfi_endproc
 1594              	.LFE286:
 1595              		.size	dcmi_get_second_buffer_ptr, .-dcmi_get_second_buffer_ptr
 1596              		.section	.text.dcmi_capture_start,"ax",%progbits
ARM GAS  C:\Users\25521\AppData\Local\Temp\ccDjrTUL.s 			page 29


 1597              		.align	1
 1598              		.p2align 4,,15
 1599              		.global	dcmi_capture_start
 1600              		.syntax unified
 1601              		.thumb
 1602              		.thumb_func
 1603              		.fpu fpv4-sp-d16
 1604              		.type	dcmi_capture_start, %function
 1605              	dcmi_capture_start:
 1606              	.LFB287:
 1607              		.loc 1 357 0
 1608              		.cfi_startproc
 1609              		@ args = 0, pretend = 0, frame = 8
 1610              		@ frame_needed = 0, uses_anonymous_args = 0
 1611 0000 10B5     		push	{r4, lr}
 1612              		.cfi_def_cfa_offset 8
 1613              		.cfi_offset 4, -8
 1614              		.cfi_offset 14, -4
 1615              		.loc 1 358 0
 1616 0002 174A     		ldr	r2, .L177
 1617              		.loc 1 357 0
 1618 0004 174B     		ldr	r3, .L177+4
 1619              		.loc 1 358 0
 1620 0006 1278     		ldrb	r2, [r2]	@ zero_extendqisi2
 1621              		.loc 1 357 0
 1622 0008 1968     		ldr	r1, [r3]
 1623 000a 82B0     		sub	sp, sp, #8
 1624              		.cfi_def_cfa_offset 16
 1625              		.loc 1 357 0
 1626 000c 0191     		str	r1, [sp, #4]
 1627              		.loc 1 358 0
 1628 000e F2B1     		cbz	r2, .L167
 1629              		.loc 1 365 0
 1630 0010 154A     		ldr	r2, .L177+8
 1631              		.loc 1 363 0
 1632 0012 1648     		ldr	r0, .L177+12
 1633              		.loc 1 362 0
 1634 0014 164C     		ldr	r4, .L177+16
 1635              		.loc 1 365 0
 1636 0016 1178     		ldrb	r1, [r2]	@ zero_extendqisi2
 1637              		.loc 1 362 0
 1638 0018 0022     		movs	r2, #0
 1639              		.loc 1 363 0
 1640 001a 0270     		strb	r2, [r0]
 1641              		.loc 1 362 0
 1642 001c 2270     		strb	r2, [r4]
 1643              	.LBB94:
 1644              	.LBB95:
 1645              		.loc 1 129 0
 1646 001e 1548     		ldr	r0, .L177+20
 1647              	.LBE95:
 1648              	.LBE94:
 1649              		.loc 1 365 0
 1650 0020 51B1     		cbz	r1, .L176
 1651              	.LVL71:
 1652              	.LBB98:
 1653              	.LBB99:
ARM GAS  C:\Users\25521\AppData\Local\Temp\ccDjrTUL.s 			page 30


 1654              		.loc 1 142 0
 1655 0022 0199     		ldr	r1, [sp, #4]
 1656 0024 1B68     		ldr	r3, [r3]
 1657              		.loc 1 141 0
 1658 0026 0270     		strb	r2, [r0]
 1659              		.loc 1 142 0
 1660 0028 9942     		cmp	r1, r3
 1661 002a 16D1     		bne	.L175
 1662 002c 1248     		ldr	r0, .L177+24
 1663              	.LBE99:
 1664              	.LBE98:
 1665              		.loc 1 370 0
 1666 002e 02B0     		add	sp, sp, #8
 1667              		.cfi_remember_state
 1668              		.cfi_def_cfa_offset 8
 1669              		@ sp needed
 1670 0030 BDE81040 		pop	{r4, lr}
 1671              		.cfi_restore 14
 1672              		.cfi_restore 4
 1673              		.cfi_def_cfa_offset 0
 1674              	.LBB101:
 1675              	.LBB100:
 1676              		.loc 1 142 0
 1677 0034 FFF7FEBF 		b	dcmiStartStream
 1678              	.LVL72:
 1679              	.L176:
 1680              		.cfi_restore_state
 1681              	.LBE100:
 1682              	.LBE101:
 1683              	.LBB102:
 1684              	.LBB96:
 1685              		.loc 1 130 0
 1686 0038 019A     		ldr	r2, [sp, #4]
 1687 003a 1B68     		ldr	r3, [r3]
 1688              		.loc 1 129 0
 1689 003c 0170     		strb	r1, [r0]
 1690              		.loc 1 130 0
 1691 003e 9A42     		cmp	r2, r3
 1692 0040 0BD1     		bne	.L175
 1693 0042 0D48     		ldr	r0, .L177+24
 1694              	.LBE96:
 1695              	.LBE102:
 1696              		.loc 1 370 0
 1697 0044 02B0     		add	sp, sp, #8
 1698              		.cfi_remember_state
 1699              		.cfi_def_cfa_offset 8
 1700              		@ sp needed
 1701 0046 BDE81040 		pop	{r4, lr}
 1702              		.cfi_restore 14
 1703              		.cfi_restore 4
 1704              		.cfi_def_cfa_offset 0
 1705              	.LBB103:
 1706              	.LBB97:
 1707              		.loc 1 130 0
 1708 004a FFF7FEBF 		b	dcmiStartOneShot
 1709              	.LVL73:
 1710              	.L167:
ARM GAS  C:\Users\25521\AppData\Local\Temp\ccDjrTUL.s 			page 31


 1711              		.cfi_restore_state
 1712              	.LBE97:
 1713              	.LBE103:
 1714              		.loc 1 370 0
 1715 004e 019A     		ldr	r2, [sp, #4]
 1716 0050 1B68     		ldr	r3, [r3]
 1717 0052 9A42     		cmp	r2, r3
 1718 0054 01D1     		bne	.L175
 1719 0056 02B0     		add	sp, sp, #8
 1720              		.cfi_remember_state
 1721              		.cfi_def_cfa_offset 8
 1722              		@ sp needed
 1723 0058 10BD     		pop	{r4, pc}
 1724              	.L175:
 1725              		.cfi_restore_state
 1726 005a FFF7FEFF 		bl	__stack_chk_fail
 1727              	.LVL74:
 1728              	.L178:
 1729 005e 00BF     		.align	2
 1730              	.L177:
 1731 0060 00000000 		.word	.LANCHOR9
 1732 0064 00000000 		.word	__stack_chk_guard
 1733 0068 00000000 		.word	.LANCHOR12
 1734 006c 00000000 		.word	.LANCHOR8
 1735 0070 00000000 		.word	.LANCHOR5
 1736 0074 00000000 		.word	.LANCHOR1
 1737 0078 00000000 		.word	DCMID
 1738              		.cfi_endproc
 1739              	.LFE287:
 1740              		.size	dcmi_capture_start, .-dcmi_capture_start
 1741              		.section	.text.dcmi_capture_stop,"ax",%progbits
 1742              		.align	1
 1743              		.p2align 4,,15
 1744              		.global	dcmi_capture_stop
 1745              		.syntax unified
 1746              		.thumb
 1747              		.thumb_func
 1748              		.fpu fpv4-sp-d16
 1749              		.type	dcmi_capture_stop, %function
 1750              	dcmi_capture_stop:
 1751              	.LFB288:
 1752              		.loc 1 372 0
 1753              		.cfi_startproc
 1754              		@ args = 0, pretend = 0, frame = 8
 1755              		@ frame_needed = 0, uses_anonymous_args = 0
 1756 0000 00B5     		push	{lr}
 1757              		.cfi_def_cfa_offset 4
 1758              		.cfi_offset 14, -4
 1759              		.loc 1 373 0
 1760 0002 104A     		ldr	r2, .L188
 1761              		.loc 1 372 0
 1762 0004 104B     		ldr	r3, .L188+4
 1763              		.loc 1 373 0
 1764 0006 1278     		ldrb	r2, [r2]	@ zero_extendqisi2
 1765              		.loc 1 372 0
 1766 0008 1968     		ldr	r1, [r3]
 1767 000a 83B0     		sub	sp, sp, #12
ARM GAS  C:\Users\25521\AppData\Local\Temp\ccDjrTUL.s 			page 32


 1768              		.cfi_def_cfa_offset 16
 1769              		.loc 1 372 0
 1770 000c 0191     		str	r1, [sp, #4]
 1771              		.loc 1 373 0
 1772 000e 9AB1     		cbz	r2, .L183
 1773              		.loc 1 377 0
 1774 0010 0E4A     		ldr	r2, .L188+8
 1775 0012 1078     		ldrb	r0, [r2]	@ zero_extendqisi2
 1776 0014 30B9     		cbnz	r0, .L187
 1777              	.L179:
 1778              		.loc 1 382 0
 1779 0016 019A     		ldr	r2, [sp, #4]
 1780 0018 1B68     		ldr	r3, [r3]
 1781 001a 9A42     		cmp	r2, r3
 1782 001c 0FD1     		bne	.L186
 1783 001e 03B0     		add	sp, sp, #12
 1784              		.cfi_remember_state
 1785              		.cfi_def_cfa_offset 4
 1786              		@ sp needed
 1787 0020 5DF804FB 		ldr	pc, [sp], #4
 1788              	.L187:
 1789              		.cfi_restore_state
 1790              	.LVL75:
 1791              	.LBB104:
 1792              	.LBB105:
 1793              		.loc 1 157 0
 1794 0024 019A     		ldr	r2, [sp, #4]
 1795 0026 1B68     		ldr	r3, [r3]
 1796 0028 9A42     		cmp	r2, r3
 1797 002a 08D1     		bne	.L186
 1798 002c 0848     		ldr	r0, .L188+12
 1799              	.LBE105:
 1800              	.LBE104:
 1801              		.loc 1 382 0
 1802 002e 03B0     		add	sp, sp, #12
 1803              		.cfi_remember_state
 1804              		.cfi_def_cfa_offset 4
 1805              		@ sp needed
 1806 0030 5DF804EB 		ldr	lr, [sp], #4
 1807              		.cfi_restore 14
 1808              		.cfi_def_cfa_offset 0
 1809              	.LBB107:
 1810              	.LBB106:
 1811              		.loc 1 157 0
 1812 0034 FFF7FEBF 		b	dcmiStopStream
 1813              	.LVL76:
 1814              	.L183:
 1815              		.cfi_restore_state
 1816              	.LBE106:
 1817              	.LBE107:
 1818              		.loc 1 374 0
 1819 0038 6FF00200 		mvn	r0, #2
 1820 003c EBE7     		b	.L179
 1821              	.L186:
 1822              		.loc 1 382 0
 1823 003e FFF7FEFF 		bl	__stack_chk_fail
 1824              	.LVL77:
ARM GAS  C:\Users\25521\AppData\Local\Temp\ccDjrTUL.s 			page 33


 1825              	.L189:
 1826 0042 00BF     		.align	2
 1827              	.L188:
 1828 0044 00000000 		.word	.LANCHOR9
 1829 0048 00000000 		.word	__stack_chk_guard
 1830 004c 00000000 		.word	.LANCHOR12
 1831 0050 00000000 		.word	DCMID
 1832              		.cfi_endproc
 1833              	.LFE288:
 1834              		.size	dcmi_capture_stop, .-dcmi_capture_stop
 1835              		.section	.text.dcmi_get_error,"ax",%progbits
 1836              		.align	1
 1837              		.p2align 4,,15
 1838              		.global	dcmi_get_error
 1839              		.syntax unified
 1840              		.thumb
 1841              		.thumb_func
 1842              		.fpu fpv4-sp-d16
 1843              		.type	dcmi_get_error, %function
 1844              	dcmi_get_error:
 1845              	.LFB289:
 1846              		.loc 1 384 0
 1847              		.cfi_startproc
 1848              		@ args = 0, pretend = 0, frame = 8
 1849              		@ frame_needed = 0, uses_anonymous_args = 0
 1850 0000 00B5     		push	{lr}
 1851              		.cfi_def_cfa_offset 4
 1852              		.cfi_offset 14, -4
 1853 0002 074B     		ldr	r3, .L194
 1854              		.loc 1 385 0
 1855 0004 0749     		ldr	r1, .L194+4
 1856              		.loc 1 384 0
 1857 0006 1A68     		ldr	r2, [r3]
 1858              		.loc 1 386 0
 1859 0008 0878     		ldrb	r0, [r1]	@ zero_extendqisi2
 1860              		.loc 1 384 0
 1861 000a 83B0     		sub	sp, sp, #12
 1862              		.cfi_def_cfa_offset 16
 1863              		.loc 1 384 0
 1864 000c 0192     		str	r2, [sp, #4]
 1865              		.loc 1 386 0
 1866 000e 019A     		ldr	r2, [sp, #4]
 1867 0010 1B68     		ldr	r3, [r3]
 1868 0012 9A42     		cmp	r2, r3
 1869 0014 02D1     		bne	.L193
 1870 0016 03B0     		add	sp, sp, #12
 1871              		.cfi_remember_state
 1872              		.cfi_def_cfa_offset 4
 1873              		@ sp needed
 1874 0018 5DF804FB 		ldr	pc, [sp], #4
 1875              	.L193:
 1876              		.cfi_restore_state
 1877 001c FFF7FEFF 		bl	__stack_chk_fail
 1878              	.LVL78:
 1879              	.L195:
 1880              		.align	2
 1881              	.L194:
ARM GAS  C:\Users\25521\AppData\Local\Temp\ccDjrTUL.s 			page 34


 1882 0020 00000000 		.word	__stack_chk_guard
 1883 0024 00000000 		.word	.LANCHOR3
 1884              		.cfi_endproc
 1885              	.LFE289:
 1886              		.size	dcmi_get_error, .-dcmi_get_error
 1887              		.section	.text.dcmi_release,"ax",%progbits
 1888              		.align	1
 1889              		.p2align 4,,15
 1890              		.global	dcmi_release
 1891              		.syntax unified
 1892              		.thumb
 1893              		.thumb_func
 1894              		.fpu fpv4-sp-d16
 1895              		.type	dcmi_release, %function
 1896              	dcmi_release:
 1897              	.LFB290:
 1898              		.loc 1 388 0
 1899              		.cfi_startproc
 1900              		@ args = 0, pretend = 0, frame = 8
 1901              		@ frame_needed = 0, uses_anonymous_args = 0
 1902 0000 10B5     		push	{r4, lr}
 1903              		.cfi_def_cfa_offset 8
 1904              		.cfi_offset 4, -8
 1905              		.cfi_offset 14, -4
 1906              		.loc 1 389 0
 1907 0002 0F4A     		ldr	r2, .L203
 1908              		.loc 1 388 0
 1909 0004 0F4B     		ldr	r3, .L203+4
 1910              		.loc 1 389 0
 1911 0006 1178     		ldrb	r1, [r2]	@ zero_extendqisi2
 1912              		.loc 1 388 0
 1913 0008 1868     		ldr	r0, [r3]
 1914 000a 82B0     		sub	sp, sp, #8
 1915              		.cfi_def_cfa_offset 16
 1916              		.loc 1 389 0
 1917 000c 0129     		cmp	r1, #1
 1918              		.loc 1 388 0
 1919 000e 0190     		str	r0, [sp, #4]
 1920              		.loc 1 389 0
 1921 0010 05D0     		beq	.L202
 1922              		.loc 1 394 0
 1923 0012 019A     		ldr	r2, [sp, #4]
 1924 0014 1B68     		ldr	r3, [r3]
 1925 0016 9A42     		cmp	r2, r3
 1926 0018 0FD1     		bne	.L201
 1927 001a 02B0     		add	sp, sp, #8
 1928              		.cfi_remember_state
 1929              		.cfi_def_cfa_offset 8
 1930              		@ sp needed
 1931 001c 10BD     		pop	{r4, pc}
 1932              	.L202:
 1933              		.cfi_restore_state
 1934              	.LBB110:
 1935              	.LBB111:
 1936              		.loc 1 392 0
 1937 001e 0198     		ldr	r0, [sp, #4]
 1938 0020 1968     		ldr	r1, [r3]
ARM GAS  C:\Users\25521\AppData\Local\Temp\ccDjrTUL.s 			page 35


 1939              		.loc 1 390 0
 1940 0022 094C     		ldr	r4, .L203+8
 1941 0024 0023     		movs	r3, #0
 1942              		.loc 1 392 0
 1943 0026 8842     		cmp	r0, r1
 1944              		.loc 1 390 0
 1945 0028 2370     		strb	r3, [r4]
 1946              		.loc 1 391 0
 1947 002a 1370     		strb	r3, [r2]
 1948              		.loc 1 392 0
 1949 002c 05D1     		bne	.L201
 1950 002e 0748     		ldr	r0, .L203+12
 1951              	.LBE111:
 1952              	.LBE110:
 1953              		.loc 1 394 0
 1954 0030 02B0     		add	sp, sp, #8
 1955              		.cfi_remember_state
 1956              		.cfi_def_cfa_offset 8
 1957              		@ sp needed
 1958 0032 BDE81040 		pop	{r4, lr}
 1959              		.cfi_restore 14
 1960              		.cfi_restore 4
 1961              		.cfi_def_cfa_offset 0
 1962              	.LBB113:
 1963              	.LBB112:
 1964              		.loc 1 392 0
 1965 0036 FFF7FEBF 		b	dcmiRelease
 1966              	.LVL79:
 1967              	.L201:
 1968              		.cfi_restore_state
 1969              	.LBE112:
 1970              	.LBE113:
 1971              		.loc 1 394 0
 1972 003a FFF7FEFF 		bl	__stack_chk_fail
 1973              	.LVL80:
 1974              	.L204:
 1975 003e 00BF     		.align	2
 1976              	.L203:
 1977 0040 00000000 		.word	.LANCHOR9
 1978 0044 00000000 		.word	__stack_chk_guard
 1979 0048 00000000 		.word	.LANCHOR3
 1980 004c 00000000 		.word	DCMID
 1981              		.cfi_endproc
 1982              	.LFE290:
 1983              		.size	dcmi_release, .-dcmi_release
 1984              		.section	.text.dcmi_restart,"ax",%progbits
 1985              		.align	1
 1986              		.p2align 4,,15
 1987              		.global	dcmi_restart
 1988              		.syntax unified
 1989              		.thumb
 1990              		.thumb_func
 1991              		.fpu fpv4-sp-d16
 1992              		.type	dcmi_restart, %function
 1993              	dcmi_restart:
 1994              	.LFB291:
 1995              		.loc 1 396 0
ARM GAS  C:\Users\25521\AppData\Local\Temp\ccDjrTUL.s 			page 36


 1996              		.cfi_startproc
 1997              		@ args = 0, pretend = 0, frame = 8
 1998              		@ frame_needed = 0, uses_anonymous_args = 0
 1999 0000 10B5     		push	{r4, lr}
 2000              		.cfi_def_cfa_offset 8
 2001              		.cfi_offset 4, -8
 2002              		.cfi_offset 14, -4
 2003              	.LBB118:
 2004              	.LBB119:
 2005              		.loc 1 389 0
 2006 0002 0D4B     		ldr	r3, .L212
 2007              	.LBE119:
 2008              	.LBE118:
 2009              		.loc 1 396 0
 2010 0004 0D4C     		ldr	r4, .L212+4
 2011              	.LBB126:
 2012              	.LBB122:
 2013              		.loc 1 389 0
 2014 0006 1A78     		ldrb	r2, [r3]	@ zero_extendqisi2
 2015              	.LBE122:
 2016              	.LBE126:
 2017              		.loc 1 396 0
 2018 0008 2168     		ldr	r1, [r4]
 2019 000a 82B0     		sub	sp, sp, #8
 2020              		.cfi_def_cfa_offset 16
 2021              	.LBB127:
 2022              	.LBB123:
 2023              		.loc 1 389 0
 2024 000c 012A     		cmp	r2, #1
 2025              	.LBE123:
 2026              	.LBE127:
 2027              		.loc 1 396 0
 2028 000e 0191     		str	r1, [sp, #4]
 2029              	.LBB128:
 2030              	.LBB124:
 2031              		.loc 1 389 0
 2032 0010 08D0     		beq	.L210
 2033              	.L206:
 2034              	.LBE124:
 2035              	.LBE128:
 2036              		.loc 1 398 0
 2037 0012 019A     		ldr	r2, [sp, #4]
 2038 0014 2368     		ldr	r3, [r4]
 2039 0016 9A42     		cmp	r2, r3
 2040 0018 0CD1     		bne	.L211
 2041              		.loc 1 399 0
 2042 001a 02B0     		add	sp, sp, #8
 2043              		.cfi_remember_state
 2044              		.cfi_def_cfa_offset 8
 2045              		@ sp needed
 2046 001c BDE81040 		pop	{r4, lr}
 2047              		.cfi_restore 14
 2048              		.cfi_restore 4
 2049              		.cfi_def_cfa_offset 0
 2050              		.loc 1 398 0
 2051 0020 FFF7FEBF 		b	dcmi_prepare
 2052              	.LVL81:
ARM GAS  C:\Users\25521\AppData\Local\Temp\ccDjrTUL.s 			page 37


 2053              	.L210:
 2054              		.cfi_restore_state
 2055              	.LBB129:
 2056              	.LBB125:
 2057              	.LBB120:
 2058              	.LBB121:
 2059              		.loc 1 390 0
 2060 0024 0649     		ldr	r1, .L212+8
 2061              		.loc 1 392 0
 2062 0026 0748     		ldr	r0, .L212+12
 2063              		.loc 1 390 0
 2064 0028 0022     		movs	r2, #0
 2065 002a 0A70     		strb	r2, [r1]
 2066              		.loc 1 391 0
 2067 002c 1A70     		strb	r2, [r3]
 2068              		.loc 1 392 0
 2069 002e FFF7FEFF 		bl	dcmiRelease
 2070              	.LVL82:
 2071 0032 EEE7     		b	.L206
 2072              	.L211:
 2073              	.LBE121:
 2074              	.LBE120:
 2075              	.LBE125:
 2076              	.LBE129:
 2077              		.loc 1 398 0
 2078 0034 FFF7FEFF 		bl	__stack_chk_fail
 2079              	.LVL83:
 2080              	.L213:
 2081              		.align	2
 2082              	.L212:
 2083 0038 00000000 		.word	.LANCHOR9
 2084 003c 00000000 		.word	__stack_chk_guard
 2085 0040 00000000 		.word	.LANCHOR3
 2086 0044 00000000 		.word	DCMID
 2087              		.cfi_endproc
 2088              	.LFE291:
 2089              		.size	dcmi_restart, .-dcmi_restart
 2090              		.section	.text.dcmi_reset_error,"ax",%progbits
 2091              		.align	1
 2092              		.p2align 4,,15
 2093              		.global	dcmi_reset_error
 2094              		.syntax unified
 2095              		.thumb
 2096              		.thumb_func
 2097              		.fpu fpv4-sp-d16
 2098              		.type	dcmi_reset_error, %function
 2099              	dcmi_reset_error:
 2100              	.LFB292:
 2101              		.loc 1 401 0
 2102              		.cfi_startproc
 2103              		@ args = 0, pretend = 0, frame = 8
 2104              		@ frame_needed = 0, uses_anonymous_args = 0
 2105 0000 00B5     		push	{lr}
 2106              		.cfi_def_cfa_offset 4
 2107              		.cfi_offset 14, -4
 2108 0002 084B     		ldr	r3, .L218
 2109              		.loc 1 402 0
ARM GAS  C:\Users\25521\AppData\Local\Temp\ccDjrTUL.s 			page 38


 2110 0004 0849     		ldr	r1, .L218+4
 2111              		.loc 1 401 0
 2112 0006 1A68     		ldr	r2, [r3]
 2113 0008 83B0     		sub	sp, sp, #12
 2114              		.cfi_def_cfa_offset 16
 2115              		.loc 1 402 0
 2116 000a 0020     		movs	r0, #0
 2117              		.loc 1 401 0
 2118 000c 0192     		str	r2, [sp, #4]
 2119              		.loc 1 403 0
 2120 000e 019A     		ldr	r2, [sp, #4]
 2121 0010 1B68     		ldr	r3, [r3]
 2122              		.loc 1 402 0
 2123 0012 0870     		strb	r0, [r1]
 2124              		.loc 1 403 0
 2125 0014 9A42     		cmp	r2, r3
 2126 0016 02D1     		bne	.L217
 2127 0018 03B0     		add	sp, sp, #12
 2128              		.cfi_remember_state
 2129              		.cfi_def_cfa_offset 4
 2130              		@ sp needed
 2131 001a 5DF804FB 		ldr	pc, [sp], #4
 2132              	.L217:
 2133              		.cfi_restore_state
 2134 001e FFF7FEFF 		bl	__stack_chk_fail
 2135              	.LVL84:
 2136              	.L219:
 2137 0022 00BF     		.align	2
 2138              	.L218:
 2139 0024 00000000 		.word	__stack_chk_guard
 2140 0028 00000000 		.word	.LANCHOR3
 2141              		.cfi_endproc
 2142              	.LFE292:
 2143              		.size	dcmi_reset_error, .-dcmi_reset_error
 2144              		.global	dcmicfg
 2145              		.section	.bss.buff0_busy,"aw",%nobits
 2146              		.set	.LANCHOR5,. + 0
 2147              		.type	buff0_busy, %object
 2148              		.size	buff0_busy, 1
 2149              	buff0_busy:
 2150 0000 00       		.space	1
 2151              		.section	.bss.buff1_busy,"aw",%nobits
 2152              		.set	.LANCHOR8,. + 0
 2153              		.type	buff1_busy, %object
 2154              		.size	buff1_busy, 1
 2155              	buff1_busy:
 2156 0000 00       		.space	1
 2157              		.section	.bss.capture_mode,"aw",%nobits
 2158              		.set	.LANCHOR12,. + 0
 2159              		.type	capture_mode, %object
 2160              		.size	capture_mode, 1
 2161              	capture_mode:
 2162 0000 00       		.space	1
 2163              		.section	.bss.dcmiError,"aw",%nobits
 2164              		.set	.LANCHOR3,. + 0
 2165              		.type	dcmiError, %object
 2166              		.size	dcmiError, 1
ARM GAS  C:\Users\25521\AppData\Local\Temp\ccDjrTUL.s 			page 39


 2167              	dcmiError:
 2168 0000 00       		.space	1
 2169              		.section	.bss.dcmi_prepared,"aw",%nobits
 2170              		.set	.LANCHOR9,. + 0
 2171              		.type	dcmi_prepared, %object
 2172              		.size	dcmi_prepared, 1
 2173              	dcmi_prepared:
 2174 0000 00       		.space	1
 2175              		.section	.bss.double_buffering,"aw",%nobits
 2176              		.set	.LANCHOR4,. + 0
 2177              		.type	double_buffering, %object
 2178              		.size	double_buffering, 1
 2179              	double_buffering:
 2180 0000 00       		.space	1
 2181              		.section	.bss.half_transfer_complete,"aw",%nobits
 2182              		.set	.LANCHOR0,. + 0
 2183              		.type	half_transfer_complete, %object
 2184              		.size	half_transfer_complete, 1
 2185              	half_transfer_complete:
 2186 0000 00       		.space	1
 2187              		.section	.bss.image_buff,"aw",%nobits
 2188              		.align	2
 2189              		.type	image_buff, %object
 2190              		.size	image_buff, 38400
 2191              	image_buff:
 2192 0000 00000000 		.space	38400
 2192      00000000 
 2192      00000000 
 2192      00000000 
 2192      00000000 
 2193              		.section	.bss.image_buff0,"aw",%nobits
 2194              		.align	2
 2195              		.set	.LANCHOR7,. + 0
 2196              		.type	image_buff0, %object
 2197              		.size	image_buff0, 4
 2198              	image_buff0:
 2199 0000 00000000 		.space	4
 2200              		.section	.bss.image_buff1,"aw",%nobits
 2201              		.align	2
 2202              		.set	.LANCHOR6,. + 0
 2203              		.type	image_buff1, %object
 2204              		.size	image_buff1, 4
 2205              	image_buff1:
 2206 0000 00000000 		.space	4
 2207              		.section	.bss.image_ready,"aw",%nobits
 2208              		.set	.LANCHOR1,. + 0
 2209              		.type	image_ready, %object
 2210              		.size	image_ready, 1
 2211              	image_ready:
 2212 0000 00       		.space	1
 2213              		.section	.data.dcmi_condvar,"aw",%progbits
 2214              		.align	2
 2215              		.set	.LANCHOR2,. + 0
 2216              		.type	dcmi_condvar, %object
 2217              		.size	dcmi_condvar, 8
 2218              	dcmi_condvar:
 2219 0000 00000000 		.word	dcmi_condvar
ARM GAS  C:\Users\25521\AppData\Local\Temp\ccDjrTUL.s 			page 40


 2220 0004 00000000 		.word	dcmi_condvar
 2221              		.section	.data.dcmi_lock,"aw",%progbits
 2222              		.align	2
 2223              		.set	.LANCHOR11,. + 0
 2224              		.type	dcmi_lock, %object
 2225              		.size	dcmi_lock, 20
 2226              	dcmi_lock:
 2227 0000 00000000 		.word	dcmi_lock
 2228 0004 00000000 		.word	dcmi_lock
 2229 0008 00000000 		.word	0
 2230 000c 00000000 		.word	0
 2231 0010 00000000 		.word	0
 2232              		.section	.rodata.dcmicfg,"a",%progbits
 2233              		.align	2
 2234              		.set	.LANCHOR10,. + 0
 2235              		.type	dcmicfg, %object
 2236              		.size	dcmicfg, 20
 2237              	dcmicfg:
 2238 0000 00000000 		.word	frameEndCb
 2239 0004 00000000 		.word	dmaTransferEndCb
 2240 0008 00000000 		.word	dmaHalfTransferEndCb
 2241 000c 00000000 		.word	dcmiErrorCb
 2242 0010 20000000 		.word	32
 2243              		.text
 2244              	.Letext0:
 2245              		.file 4 "d:\\eclipse_e-puck2_win32_11_apr_2018\\eclipse_e-puck2\\tools\\gcc-arm-none-eabi-7-2017-q
 2246              		.file 5 "d:\\eclipse_e-puck2_win32_11_apr_2018\\eclipse_e-puck2\\tools\\gcc-arm-none-eabi-7-2017-q
 2247              		.file 6 "d:\\eclipse_e-puck2_win32_11_apr_2018\\eclipse_e-puck2\\tools\\gcc-arm-none-eabi-7-2017-q
 2248              		.file 7 "../e-puck2_main-processor/ChibiOS//os/rt/ports/ARMCMx/compilers/GCC/chtypes.h"
 2249              		.file 8 "../e-puck2_main-processor/ChibiOS//os/rt/include/chsystypes.h"
 2250              		.file 9 "../e-puck2_main-processor/ChibiOS//os/rt/include/chschd.h"
 2251              		.file 10 "../e-puck2_main-processor/ChibiOS//os/ext/CMSIS/include/core_cm4.h"
 2252              		.file 11 "../e-puck2_main-processor/ChibiOS//os/ext/CMSIS/ST/system_stm32f4xx.h"
 2253              		.file 12 "../e-puck2_main-processor/ChibiOS//os/ext/CMSIS/ST/stm32f407xx.h"
 2254              		.file 13 "../e-puck2_main-processor/ChibiOS//os/rt/ports/ARMCMx/chcore.h"
 2255              		.file 14 "../e-puck2_main-processor/ChibiOS//os/rt/ports/ARMCMx/chcore_v7m.h"
 2256              		.file 15 "../e-puck2_main-processor/ChibiOS//os/rt/include/chdebug.h"
 2257              		.file 16 "../e-puck2_main-processor/ChibiOS//os/rt/include/chtm.h"
 2258              		.file 17 "../e-puck2_main-processor/ChibiOS//os/rt/include/chstats.h"
 2259              		.file 18 "../e-puck2_main-processor/ChibiOS//os/rt/include/chsem.h"
 2260              		.file 19 "../e-puck2_main-processor/ChibiOS//os/rt/include/chmtx.h"
 2261              		.file 20 "../e-puck2_main-processor/ChibiOS//os/rt/include/chregistry.h"
 2262              		.file 21 "../e-puck2_main-processor/ChibiOS//os/rt/include/chcond.h"
 2263              		.file 22 "../e-puck2_main-processor/ChibiOS//os/rt/include/chevents.h"
 2264              		.file 23 "../e-puck2_main-processor/ChibiOS//os/rt/include/chqueues.h"
 2265              		.file 24 "../e-puck2_main-processor/ChibiOS//os/hal/ports/STM32/LLD/DMAv2/stm32_dma.h"
 2266              		.file 25 "../e-puck2_main-processor/ChibiOS//os/hal/include/hal_ioblock.h"
 2267              		.file 26 "../e-puck2_main-processor/ChibiOS//os/hal/ports/STM32/LLD/GPIOv2/pal_lld.h"
 2268              		.file 27 "../e-puck2_main-processor/ChibiOS//os/hal/include/adc.h"
 2269              		.file 28 "../e-puck2_main-processor/ChibiOS//os/hal/ports/STM32/LLD/ADCv2/adc_lld.h"
 2270              		.file 29 "../e-puck2_main-processor/ChibiOS//os/hal/include/can.h"
 2271              		.file 30 "../e-puck2_main-processor/ChibiOS//os/hal/ports/STM32/LLD/CANv1/can_lld.h"
 2272              		.file 31 "../e-puck2_main-processor/ChibiOS//os/hal/include/dac.h"
 2273              		.file 32 "../e-puck2_main-processor/ChibiOS//os/hal/ports/STM32/LLD/DACv1/dac_lld.h"
 2274              		.file 33 "../e-puck2_main-processor/ChibiOS//os/hal/include/ext.h"
 2275              		.file 34 "../e-puck2_main-processor/ChibiOS//os/hal/ports/STM32/LLD/EXTIv1/ext_lld.h"
 2276              		.file 35 "../e-puck2_main-processor/ChibiOS//os/hal/include/gpt.h"
ARM GAS  C:\Users\25521\AppData\Local\Temp\ccDjrTUL.s 			page 41


 2277              		.file 36 "../e-puck2_main-processor/ChibiOS//os/hal/ports/STM32/LLD/TIMv1/gpt_lld.h"
 2278              		.file 37 "../e-puck2_main-processor/ChibiOS//os/hal/ports/STM32/LLD/TIMv1/stm32_tim.h"
 2279              		.file 38 "../e-puck2_main-processor/ChibiOS//os/hal/include/i2c.h"
 2280              		.file 39 "../e-puck2_main-processor/ChibiOS//os/hal/ports/STM32/LLD/I2Cv1/i2c_lld.h"
 2281              		.file 40 "../e-puck2_main-processor/ChibiOS//os/hal/include/i2s.h"
 2282              		.file 41 "../e-puck2_main-processor/ChibiOS//os/hal/ports/STM32/LLD/SPIv1/i2s_lld.h"
 2283              		.file 42 "../e-puck2_main-processor/ChibiOS//os/hal/include/pwm.h"
 2284              		.file 43 "../e-puck2_main-processor/ChibiOS//os/hal/ports/STM32/LLD/TIMv1/pwm_lld.h"
 2285              		.file 44 "../e-puck2_main-processor/ChibiOS//os/hal/include/serial.h"
 2286              		.file 45 "../e-puck2_main-processor/ChibiOS//os/hal/ports/STM32/LLD/USARTv1/serial_lld.h"
 2287              		.file 46 "../e-puck2_main-processor/ChibiOS//os/hal/include/sdc.h"
 2288              		.file 47 "../e-puck2_main-processor/ChibiOS//os/hal/ports/STM32/LLD/SDIOv1/sdc_lld.h"
 2289              		.file 48 "../e-puck2_main-processor/ChibiOS//os/hal/include/spi.h"
 2290              		.file 49 "../e-puck2_main-processor/ChibiOS//os/hal/ports/STM32/LLD/SPIv1/spi_lld.h"
 2291              		.file 50 "../e-puck2_main-processor/ChibiOS//os/hal/include/usb.h"
 2292              		.file 51 "../e-puck2_main-processor/ChibiOS//os/hal/ports/STM32/LLD/OTGv1/usb_lld.h"
 2293              		.file 52 "../e-puck2_main-processor/ChibiOS//os/hal/ports/STM32/LLD/OTGv1/stm32_otg.h"
 2294              		.file 53 "d:\\eclipse_e-puck2_win32_11_apr_2018\\eclipse_e-puck2\\tools\\gcc-arm-none-eabi-7-2017-
 2295              		.file 54 "d:\\eclipse_e-puck2_win32_11_apr_2018\\eclipse_e-puck2\\tools\\gcc-arm-none-eabi-7-2017-
 2296              		.file 55 "d:\\eclipse_e-puck2_win32_11_apr_2018\\eclipse_e-puck2\\tools\\gcc-arm-none-eabi-7-2017-
 2297              		.file 56 "d:\\eclipse_e-puck2_win32_11_apr_2018\\eclipse_e-puck2\\tools\\gcc-arm-none-eabi-7-2017-
 2298              		.file 57 "../e-puck2_main-processor/ChibiOS_ext/os/hal/include/../ports/STM32/STM32F4xx/dcmi_lld.h
 2299              		.file 58 "../e-puck2_main-processor/src/camera/dcmi_camera.h"
 2300              		.file 59 "../e-puck2_main-processor/ChibiOS_ext/os/hal/include/dcmi.h"
 2301              		.file 60 "../e-puck2_main-processor/src/camera/camera.h"