ARM GAS  C:\Users\25521\AppData\Local\Temp\ccBUL90x.s 			page 1


   1              		.cpu cortex-m4
   2              		.eabi_attribute 27, 1
   3              		.eabi_attribute 28, 1
   4              		.eabi_attribute 20, 1
   5              		.eabi_attribute 21, 1
   6              		.eabi_attribute 23, 3
   7              		.eabi_attribute 24, 1
   8              		.eabi_attribute 25, 1
   9              		.eabi_attribute 26, 1
  10              		.eabi_attribute 30, 2
  11              		.eabi_attribute 34, 1
  12              		.eabi_attribute 18, 4
  13              		.file	"e_micro.c"
  14              		.text
  15              	.Ltext0:
  16              		.cfi_sections	.debug_frame
  17              		.section	.text.chprintf.constprop.0,"ax",%progbits
  18              		.align	1
  19              		.p2align 4,,15
  20              		.syntax unified
  21              		.thumb
  22              		.thumb_func
  23              		.fpu fpv4-sp-d16
  24              		.type	chprintf.constprop.0, %function
  25              	chprintf.constprop.0:
  26              	.LFB273:
  27              		.file 1 "../e-puck2_main-processor/ChibiOS//os/hal/lib/streams/chprintf.h"
  28              		.loc 1 69 0
  29              		.cfi_startproc
  30              		@ args = 4, pretend = 12, frame = 8
  31              		@ frame_needed = 0, uses_anonymous_args = 1
  32              	.LVL0:
  33 0000 0EB4     		push	{r1, r2, r3}
  34              		.cfi_def_cfa_offset 12
  35              		.cfi_offset 1, -12
  36              		.cfi_offset 2, -8
  37              		.cfi_offset 3, -4
  38 0002 10B5     		push	{r4, lr}
  39              		.cfi_def_cfa_offset 20
  40              		.cfi_offset 4, -20
  41              		.cfi_offset 14, -16
  42 0004 83B0     		sub	sp, sp, #12
  43              		.cfi_def_cfa_offset 32
  44              		.loc 1 69 0
  45 0006 05AA     		add	r2, sp, #20
  46 0008 094C     		ldr	r4, .L6
  47 000a 52F8041B 		ldr	r1, [r2], #4
  48 000e 2368     		ldr	r3, [r4]
  49              		.loc 1 74 0
  50 0010 0848     		ldr	r0, .L6+4
  51              	.LVL1:
  52              		.loc 1 73 0
  53 0012 0092     		str	r2, [sp]
  54              		.loc 1 69 0
  55 0014 0193     		str	r3, [sp, #4]
  56              	.LVL2:
  57              		.loc 1 74 0
ARM GAS  C:\Users\25521\AppData\Local\Temp\ccBUL90x.s 			page 2


  58 0016 FFF7FEFF 		bl	chvprintf
  59              	.LVL3:
  60              		.loc 1 78 0
  61 001a 019A     		ldr	r2, [sp, #4]
  62 001c 2368     		ldr	r3, [r4]
  63 001e 9A42     		cmp	r2, r3
  64 0020 04D1     		bne	.L5
  65 0022 03B0     		add	sp, sp, #12
  66              		.cfi_remember_state
  67              		.cfi_def_cfa_offset 20
  68              		@ sp needed
  69 0024 BDE81040 		pop	{r4, lr}
  70              		.cfi_restore 14
  71              		.cfi_restore 4
  72              		.cfi_def_cfa_offset 12
  73 0028 03B0     		add	sp, sp, #12
  74              		.cfi_restore 3
  75              		.cfi_restore 2
  76              		.cfi_restore 1
  77              		.cfi_def_cfa_offset 0
  78 002a 7047     		bx	lr
  79              	.L5:
  80              		.cfi_restore_state
  81 002c FFF7FEFF 		bl	__stack_chk_fail
  82              	.LVL4:
  83              	.L7:
  84              		.align	2
  85              	.L6:
  86 0030 00000000 		.word	__stack_chk_guard
  87 0034 00000000 		.word	SDU1
  88              		.cfi_endproc
  89              	.LFE273:
  90              		.size	chprintf.constprop.0, .-chprintf.constprop.0
  91              		.section	.text.e_get_micro,"ax",%progbits
  92              		.align	1
  93              		.p2align 4,,15
  94              		.global	e_get_micro
  95              		.syntax unified
  96              		.thumb
  97              		.thumb_func
  98              		.fpu fpv4-sp-d16
  99              		.type	e_get_micro, %function
 100              	e_get_micro:
 101              	.LFB268:
 102              		.file 2 "../e-puck2_main-processor/src/epuck1x/a_d/advance_ad_scan/e_micro.c"
 103              		.loc 2 14 0
 104              		.cfi_startproc
 105              		@ args = 0, pretend = 0, frame = 8
 106              		@ frame_needed = 0, uses_anonymous_args = 0
 107              	.LVL5:
 108 0000 10B5     		push	{r4, lr}
 109              		.cfi_def_cfa_offset 8
 110              		.cfi_offset 4, -8
 111              		.cfi_offset 14, -4
 112 0002 084C     		ldr	r4, .L12
 113 0004 82B0     		sub	sp, sp, #8
 114              		.cfi_def_cfa_offset 16
ARM GAS  C:\Users\25521\AppData\Local\Temp\ccBUL90x.s 			page 3


 115              		.loc 2 14 0
 116 0006 2368     		ldr	r3, [r4]
 117 0008 0193     		str	r3, [sp, #4]
 118              		.loc 2 15 0
 119 000a C0B2     		uxtb	r0, r0
 120              	.LVL6:
 121 000c FFF7FEFF 		bl	mic_get_last
 122              	.LVL7:
 123              		.loc 2 17 0
 124 0010 019A     		ldr	r2, [sp, #4]
 125 0012 2368     		ldr	r3, [r4]
 126 0014 9A42     		cmp	r2, r3
 127 0016 40F30F10 		sbfx	r0, r0, #4, #16
 128              	.LVL8:
 129 001a 01D1     		bne	.L11
 130 001c 02B0     		add	sp, sp, #8
 131              		.cfi_remember_state
 132              		.cfi_def_cfa_offset 8
 133              		@ sp needed
 134 001e 10BD     		pop	{r4, pc}
 135              	.L11:
 136              		.cfi_restore_state
 137 0020 FFF7FEFF 		bl	__stack_chk_fail
 138              	.LVL9:
 139              	.L13:
 140              		.align	2
 141              	.L12:
 142 0024 00000000 		.word	__stack_chk_guard
 143              		.cfi_endproc
 144              	.LFE268:
 145              		.size	e_get_micro, .-e_get_micro
 146              		.section	.text.e_get_micro_average,"ax",%progbits
 147              		.align	1
 148              		.p2align 4,,15
 149              		.global	e_get_micro_average
 150              		.syntax unified
 151              		.thumb
 152              		.thumb_func
 153              		.fpu fpv4-sp-d16
 154              		.type	e_get_micro_average, %function
 155              	e_get_micro_average:
 156              	.LFB269:
 157              		.loc 2 20 0
 158              		.cfi_startproc
 159              		@ args = 0, pretend = 0, frame = 8
 160              		@ frame_needed = 0, uses_anonymous_args = 0
 161              	.LVL10:
 162 0000 70B5     		push	{r4, r5, r6, lr}
 163              		.cfi_def_cfa_offset 16
 164              		.cfi_offset 4, -16
 165              		.cfi_offset 5, -12
 166              		.cfi_offset 6, -8
 167              		.cfi_offset 14, -4
 168 0002 134C     		ldr	r4, .L23
 169 0004 82B0     		sub	sp, sp, #8
 170              		.cfi_def_cfa_offset 24
 171              		.loc 2 20 0
ARM GAS  C:\Users\25521\AppData\Local\Temp\ccBUL90x.s 			page 4


 172 0006 0546     		mov	r5, r0
 173 0008 2368     		ldr	r3, [r4]
 174 000a 0193     		str	r3, [sp, #4]
 175 000c 0E46     		mov	r6, r1
 176              		.loc 2 21 0
 177 000e FFF7FEFF 		bl	mic_get_buffer_ptr
 178              	.LVL11:
 179              		.loc 2 25 0
 180 0012 022D     		cmp	r5, #2
 181 0014 12D8     		bhi	.L19
 182              		.loc 2 25 0 is_stmt 0 discriminator 1
 183 0016 731E     		subs	r3, r6, #1
 184 0018 9F2B     		cmp	r3, #159
 185 001a 0FD8     		bhi	.L19
 186              	.LVL12:
 187              		.loc 2 27 0 is_stmt 1
 188 001c C6F1A003 		rsb	r3, r6, #160
 189 0020 9BB2     		uxth	r3, r3
 190              	.LVL13:
 191              		.loc 2 22 0
 192 0022 0022     		movs	r2, #0
 193              	.LVL14:
 194              	.L16:
 195              		.loc 2 29 0 discriminator 3
 196 0024 05EB8301 		add	r1, r5, r3, lsl #2
 197              		.loc 2 27 0 discriminator 3
 198 0028 0133     		adds	r3, r3, #1
 199              	.LVL15:
 200              		.loc 2 29 0 discriminator 3
 201 002a 30F91110 		ldrsh	r1, [r0, r1, lsl #1]
 202              		.loc 2 27 0 discriminator 3
 203 002e 9BB2     		uxth	r3, r3
 204 0030 A02B     		cmp	r3, #160
 205              		.loc 2 29 0 discriminator 3
 206 0032 0A44     		add	r2, r2, r1
 207              	.LVL16:
 208              		.loc 2 27 0 discriminator 3
 209 0034 F6D1     		bne	.L16
 210 0036 B2FBF6F0 		udiv	r0, r2, r6
 211              	.LVL17:
 212 003a 00E0     		b	.L14
 213              	.LVL18:
 214              	.L19:
 215 003c 0020     		movs	r0, #0
 216              	.LVL19:
 217              	.L14:
 218              		.loc 2 33 0
 219 003e 019A     		ldr	r2, [sp, #4]
 220 0040 2368     		ldr	r3, [r4]
 221 0042 9A42     		cmp	r2, r3
 222 0044 01D1     		bne	.L22
 223 0046 02B0     		add	sp, sp, #8
 224              		.cfi_remember_state
 225              		.cfi_def_cfa_offset 16
 226              		@ sp needed
 227 0048 70BD     		pop	{r4, r5, r6, pc}
 228              	.LVL20:
ARM GAS  C:\Users\25521\AppData\Local\Temp\ccBUL90x.s 			page 5


 229              	.L22:
 230              		.cfi_restore_state
 231 004a FFF7FEFF 		bl	__stack_chk_fail
 232              	.LVL21:
 233              	.L24:
 234 004e 00BF     		.align	2
 235              	.L23:
 236 0050 00000000 		.word	__stack_chk_guard
 237              		.cfi_endproc
 238              	.LFE269:
 239              		.size	e_get_micro_average, .-e_get_micro_average
 240              		.section	.text.e_get_micro_volume,"ax",%progbits
 241              		.align	1
 242              		.p2align 4,,15
 243              		.global	e_get_micro_volume
 244              		.syntax unified
 245              		.thumb
 246              		.thumb_func
 247              		.fpu fpv4-sp-d16
 248              		.type	e_get_micro_volume, %function
 249              	e_get_micro_volume:
 250              	.LFB270:
 251              		.loc 2 36 0
 252              		.cfi_startproc
 253              		@ args = 0, pretend = 0, frame = 8
 254              		@ frame_needed = 0, uses_anonymous_args = 0
 255              	.LVL22:
 256 0000 10B5     		push	{r4, lr}
 257              		.cfi_def_cfa_offset 8
 258              		.cfi_offset 4, -8
 259              		.cfi_offset 14, -4
 260 0002 084C     		ldr	r4, .L29
 261 0004 82B0     		sub	sp, sp, #8
 262              		.cfi_def_cfa_offset 16
 263              		.loc 2 36 0
 264 0006 2368     		ldr	r3, [r4]
 265 0008 0193     		str	r3, [sp, #4]
 266              		.loc 2 37 0
 267 000a C0B2     		uxtb	r0, r0
 268              	.LVL23:
 269 000c FFF7FEFF 		bl	mic_get_volume
 270              	.LVL24:
 271              		.loc 2 39 0
 272 0010 019A     		ldr	r2, [sp, #4]
 273 0012 2368     		ldr	r3, [r4]
 274 0014 9A42     		cmp	r2, r3
 275 0016 02D1     		bne	.L28
 276 0018 0011     		asrs	r0, r0, #4
 277              	.LVL25:
 278 001a 02B0     		add	sp, sp, #8
 279              		.cfi_remember_state
 280              		.cfi_def_cfa_offset 8
 281              		@ sp needed
 282 001c 10BD     		pop	{r4, pc}
 283              	.LVL26:
 284              	.L28:
 285              		.cfi_restore_state
ARM GAS  C:\Users\25521\AppData\Local\Temp\ccBUL90x.s 			page 6


 286 001e FFF7FEFF 		bl	__stack_chk_fail
 287              	.LVL27:
 288              	.L30:
 289 0022 00BF     		.align	2
 290              	.L29:
 291 0024 00000000 		.word	__stack_chk_guard
 292              		.cfi_endproc
 293              	.LFE270:
 294              		.size	e_get_micro_volume, .-e_get_micro_volume
 295              		.section	.text.e_get_micro_last_values,"ax",%progbits
 296              		.align	1
 297              		.p2align 4,,15
 298              		.global	e_get_micro_last_values
 299              		.syntax unified
 300              		.thumb
 301              		.thumb_func
 302              		.fpu fpv4-sp-d16
 303              		.type	e_get_micro_last_values, %function
 304              	e_get_micro_last_values:
 305              	.LFB271:
 306              		.loc 2 42 0
 307              		.cfi_startproc
 308              		@ args = 0, pretend = 0, frame = 8
 309              		@ frame_needed = 0, uses_anonymous_args = 0
 310              	.LVL28:
 311 0000 F0B5     		push	{r4, r5, r6, r7, lr}
 312              		.cfi_def_cfa_offset 20
 313              		.cfi_offset 4, -20
 314              		.cfi_offset 5, -16
 315              		.cfi_offset 6, -12
 316              		.cfi_offset 7, -8
 317              		.cfi_offset 14, -4
 318 0002 104E     		ldr	r6, .L38
 319 0004 83B0     		sub	sp, sp, #12
 320              		.cfi_def_cfa_offset 32
 321              		.loc 2 42 0
 322 0006 3368     		ldr	r3, [r6]
 323 0008 0193     		str	r3, [sp, #4]
 324 000a 1546     		mov	r5, r2
 325 000c 0746     		mov	r7, r0
 326 000e 0C46     		mov	r4, r1
 327              		.loc 2 44 0
 328 0010 FFF7FEFF 		bl	mic_get_buffer_ptr
 329              	.LVL29:
 330              		.loc 2 48 0
 331 0014 6B1E     		subs	r3, r5, #1
 332 0016 9F2B     		cmp	r3, #159
 333 0018 0CD8     		bhi	.L31
 334 001a 7B00     		lsls	r3, r7, #1
 335 001c A3EBC502 		sub	r2, r3, r5, lsl #3
 336 0020 0244     		add	r2, r2, r0
 337 0022 A11E     		subs	r1, r4, #2
 338 0024 1844     		add	r0, r0, r3
 339              	.LVL30:
 340              	.L33:
 341              		.loc 2 50 0 discriminator 3
 342 0026 B0F9F834 		ldrsh	r3, [r0, #1272]
ARM GAS  C:\Users\25521\AppData\Local\Temp\ccBUL90x.s 			page 7


 343 002a 21F8023F 		strh	r3, [r1, #2]!	@ movhi
 344 002e 0838     		subs	r0, r0, #8
 345              		.loc 2 48 0 discriminator 3
 346 0030 9042     		cmp	r0, r2
 347 0032 F8D1     		bne	.L33
 348              	.L31:
 349              		.loc 2 53 0
 350 0034 019A     		ldr	r2, [sp, #4]
 351 0036 3368     		ldr	r3, [r6]
 352 0038 9A42     		cmp	r2, r3
 353 003a 01D1     		bne	.L37
 354 003c 03B0     		add	sp, sp, #12
 355              		.cfi_remember_state
 356              		.cfi_def_cfa_offset 20
 357              		@ sp needed
 358 003e F0BD     		pop	{r4, r5, r6, r7, pc}
 359              	.LVL31:
 360              	.L37:
 361              		.cfi_restore_state
 362 0040 FFF7FEFF 		bl	__stack_chk_fail
 363              	.LVL32:
 364              	.L39:
 365              		.align	2
 366              	.L38:
 367 0044 00000000 		.word	__stack_chk_guard
 368              		.cfi_endproc
 369              	.LFE271:
 370              		.size	e_get_micro_last_values, .-e_get_micro_last_values
 371              		.section	.text.e_test_micro,"ax",%progbits
 372              		.align	1
 373              		.p2align 4,,15
 374              		.global	e_test_micro
 375              		.syntax unified
 376              		.thumb
 377              		.thumb_func
 378              		.fpu fpv4-sp-d16
 379              		.type	e_test_micro, %function
 380              	e_test_micro:
 381              	.LFB272:
 382              		.loc 2 55 0
 383              		.cfi_startproc
 384              		@ args = 0, pretend = 0, frame = 16
 385              		@ frame_needed = 0, uses_anonymous_args = 0
 386 0000 2DE9F043 		push	{r4, r5, r6, r7, r8, r9, lr}
 387              		.cfi_def_cfa_offset 28
 388              		.cfi_offset 4, -28
 389              		.cfi_offset 5, -24
 390              		.cfi_offset 6, -20
 391              		.cfi_offset 7, -16
 392              		.cfi_offset 8, -12
 393              		.cfi_offset 9, -8
 394              		.cfi_offset 14, -4
 395 0004 DFF8AC81 		ldr	r8, .L52+44
 396              		.loc 2 75 0
 397 0008 DFF89091 		ldr	r9, .L52+20
 398              		.loc 2 55 0
 399 000c D8F80030 		ldr	r3, [r8]
ARM GAS  C:\Users\25521\AppData\Local\Temp\ccBUL90x.s 			page 8


 400 0010 85B0     		sub	sp, sp, #20
 401              		.cfi_def_cfa_offset 48
 402              		.loc 2 57 0
 403 0012 0024     		movs	r4, #0
 404              		.loc 2 55 0
 405 0014 0393     		str	r3, [sp, #12]
 406              	.LVL33:
 407              		.loc 2 57 0
 408 0016 ADF80840 		strh	r4, [sp, #8]	@ movhi
 409 001a 0194     		str	r4, [sp, #4]
 410              		.loc 2 58 0
 411 001c FFF7FEFF 		bl	mic_get_buffer_ptr
 412              	.LVL34:
 413              		.loc 2 59 0
 414 0020 0A21     		movs	r1, #10
 415              		.loc 2 60 0
 416 0022 0B22     		movs	r2, #11
 417              		.loc 2 61 0
 418 0024 0C23     		movs	r3, #12
 419              		.loc 2 59 0
 420 0026 A0F8FE14 		strh	r1, [r0, #1278]	@ movhi
 421              		.loc 2 60 0
 422 002a A0F8FC24 		strh	r2, [r0, #1276]	@ movhi
 423              		.loc 2 61 0
 424 002e A0F8FA34 		strh	r3, [r0, #1274]	@ movhi
 425              		.loc 2 62 0
 426 0032 0D21     		movs	r1, #13
 427              		.loc 2 63 0
 428 0034 0E22     		movs	r2, #14
 429              		.loc 2 64 0
 430 0036 0F23     		movs	r3, #15
 431              		.loc 2 62 0
 432 0038 A0F8F814 		strh	r1, [r0, #1272]	@ movhi
 433              		.loc 2 63 0
 434 003c A0F8F624 		strh	r2, [r0, #1270]	@ movhi
 435              		.loc 2 64 0
 436 0040 A0F8F434 		strh	r3, [r0, #1268]	@ movhi
 437              		.loc 2 65 0
 438 0044 1021     		movs	r1, #16
 439              		.loc 2 66 0
 440 0046 1122     		movs	r2, #17
 441              		.loc 2 67 0
 442 0048 1223     		movs	r3, #18
 443              		.loc 2 65 0
 444 004a A0F8F214 		strh	r1, [r0, #1266]	@ movhi
 445              		.loc 2 66 0
 446 004e A0F8F024 		strh	r2, [r0, #1264]	@ movhi
 447              		.loc 2 67 0
 448 0052 A0F8EE34 		strh	r3, [r0, #1262]	@ movhi
 449              		.loc 2 69 0
 450 0056 1422     		movs	r2, #20
 451              		.loc 2 70 0
 452 0058 1523     		movs	r3, #21
 453              		.loc 2 68 0
 454 005a 1321     		movs	r1, #19
 455 005c A0F8EC14 		strh	r1, [r0, #1260]	@ movhi
 456              		.loc 2 69 0
ARM GAS  C:\Users\25521\AppData\Local\Temp\ccBUL90x.s 			page 9


 457 0060 A0F8EA24 		strh	r2, [r0, #1258]	@ movhi
 458              		.loc 2 70 0
 459 0064 A0F8E834 		strh	r3, [r0, #1256]	@ movhi
 460              		.loc 2 72 0
 461 0068 4748     		ldr	r0, .L52
 462              	.LVL35:
 463 006a 4849     		ldr	r1, .L52+4
 464              		.loc 2 75 0
 465 006c 0746     		mov	r7, r0
 466              		.loc 2 72 0
 467 006e FFF7FEFF 		bl	chprintf.constprop.0
 468              	.LVL36:
 469              		.loc 2 73 0
 470 0072 2046     		mov	r0, r4
 471 0074 01A9     		add	r1, sp, #4
 472 0076 0322     		movs	r2, #3
 473 0078 FFF7FEFF 		bl	e_get_micro_last_values
 474              	.LVL37:
 475 007c 01AE     		add	r6, sp, #4
 476 007e 3546     		mov	r5, r6
 477 0080 0DF10A04 		add	r4, sp, #10
 478              	.LVL38:
 479              	.L41:
 480              		.loc 2 75 0 discriminator 3
 481 0084 35F9022B 		ldrsh	r2, [r5], #2
 482 0088 4946     		mov	r1, r9
 483 008a 3846     		mov	r0, r7
 484 008c FFF7FEFF 		bl	chprintf.constprop.0
 485              	.LVL39:
 486              		.loc 2 74 0 discriminator 3
 487 0090 A542     		cmp	r5, r4
 488 0092 F7D1     		bne	.L41
 489              		.loc 2 77 0
 490 0094 3E49     		ldr	r1, .L52+8
 491 0096 3C48     		ldr	r0, .L52
 492              		.loc 2 82 0
 493 0098 DFF80091 		ldr	r9, .L52+20
 494 009c 3A4F     		ldr	r7, .L52
 495              		.loc 2 77 0
 496 009e FFF7FEFF 		bl	chprintf.constprop.0
 497              	.LVL40:
 498              		.loc 2 79 0
 499 00a2 3C49     		ldr	r1, .L52+12
 500 00a4 3848     		ldr	r0, .L52
 501 00a6 FFF7FEFF 		bl	chprintf.constprop.0
 502              	.LVL41:
 503              		.loc 2 80 0
 504 00aa 0322     		movs	r2, #3
 505 00ac 01A9     		add	r1, sp, #4
 506 00ae 0120     		movs	r0, #1
 507 00b0 FFF7FEFF 		bl	e_get_micro_last_values
 508              	.LVL42:
 509 00b4 01AC     		add	r4, sp, #4
 510              	.LVL43:
 511              	.L42:
 512              		.loc 2 82 0 discriminator 3
 513 00b6 34F9022B 		ldrsh	r2, [r4], #2
ARM GAS  C:\Users\25521\AppData\Local\Temp\ccBUL90x.s 			page 10


 514 00ba 4946     		mov	r1, r9
 515 00bc 3846     		mov	r0, r7
 516 00be FFF7FEFF 		bl	chprintf.constprop.0
 517              	.LVL44:
 518              		.loc 2 81 0 discriminator 3
 519 00c2 AC42     		cmp	r4, r5
 520 00c4 F7D1     		bne	.L42
 521              		.loc 2 84 0
 522 00c6 3249     		ldr	r1, .L52+8
 523 00c8 2F48     		ldr	r0, .L52
 524              		.loc 2 89 0
 525 00ca DFF8D090 		ldr	r9, .L52+20
 526 00ce 2E4F     		ldr	r7, .L52
 527              		.loc 2 84 0
 528 00d0 FFF7FEFF 		bl	chprintf.constprop.0
 529              	.LVL45:
 530              		.loc 2 86 0
 531 00d4 3049     		ldr	r1, .L52+16
 532 00d6 2C48     		ldr	r0, .L52
 533 00d8 FFF7FEFF 		bl	chprintf.constprop.0
 534              	.LVL46:
 535              		.loc 2 87 0
 536 00dc 0322     		movs	r2, #3
 537 00de 01A9     		add	r1, sp, #4
 538 00e0 0220     		movs	r0, #2
 539 00e2 FFF7FEFF 		bl	e_get_micro_last_values
 540              	.LVL47:
 541 00e6 01AD     		add	r5, sp, #4
 542              	.LVL48:
 543              	.L43:
 544              		.loc 2 89 0 discriminator 3
 545 00e8 35F9022B 		ldrsh	r2, [r5], #2
 546 00ec 4946     		mov	r1, r9
 547 00ee 3846     		mov	r0, r7
 548 00f0 FFF7FEFF 		bl	chprintf.constprop.0
 549              	.LVL49:
 550              		.loc 2 88 0 discriminator 3
 551 00f4 A542     		cmp	r5, r4
 552 00f6 F7D1     		bne	.L43
 553              		.loc 2 91 0
 554 00f8 2549     		ldr	r1, .L52+8
 555 00fa 2348     		ldr	r0, .L52
 556              		.loc 2 96 0
 557 00fc 274F     		ldr	r7, .L52+20
 558 00fe 224D     		ldr	r5, .L52
 559              		.loc 2 91 0
 560 0100 FFF7FEFF 		bl	chprintf.constprop.0
 561              	.LVL50:
 562              		.loc 2 93 0
 563 0104 2649     		ldr	r1, .L52+24
 564 0106 2048     		ldr	r0, .L52
 565 0108 FFF7FEFF 		bl	chprintf.constprop.0
 566              	.LVL51:
 567              		.loc 2 94 0
 568 010c 0322     		movs	r2, #3
 569 010e 01A9     		add	r1, sp, #4
 570 0110 1046     		mov	r0, r2
ARM GAS  C:\Users\25521\AppData\Local\Temp\ccBUL90x.s 			page 11


 571 0112 FFF7FEFF 		bl	e_get_micro_last_values
 572              	.LVL52:
 573              	.L44:
 574              		.loc 2 96 0 discriminator 3
 575 0116 36F9022B 		ldrsh	r2, [r6], #2
 576 011a 3946     		mov	r1, r7
 577 011c 2846     		mov	r0, r5
 578 011e FFF7FEFF 		bl	chprintf.constprop.0
 579              	.LVL53:
 580              		.loc 2 95 0 discriminator 3
 581 0122 A642     		cmp	r6, r4
 582 0124 F7D1     		bne	.L44
 583              		.loc 2 98 0
 584 0126 1A49     		ldr	r1, .L52+8
 585 0128 1748     		ldr	r0, .L52
 586 012a FFF7FEFF 		bl	chprintf.constprop.0
 587              	.LVL54:
 588              		.loc 2 100 0
 589 012e 0321     		movs	r1, #3
 590 0130 0020     		movs	r0, #0
 591 0132 FFF7FEFF 		bl	e_get_micro_average
 592              	.LVL55:
 593 0136 1B49     		ldr	r1, .L52+28
 594 0138 0246     		mov	r2, r0
 595 013a 1348     		ldr	r0, .L52
 596 013c FFF7FEFF 		bl	chprintf.constprop.0
 597              	.LVL56:
 598              		.loc 2 101 0
 599 0140 0321     		movs	r1, #3
 600 0142 0120     		movs	r0, #1
 601 0144 FFF7FEFF 		bl	e_get_micro_average
 602              	.LVL57:
 603 0148 1749     		ldr	r1, .L52+32
 604 014a 0246     		mov	r2, r0
 605 014c 0E48     		ldr	r0, .L52
 606 014e FFF7FEFF 		bl	chprintf.constprop.0
 607              	.LVL58:
 608              		.loc 2 102 0
 609 0152 0321     		movs	r1, #3
 610 0154 0220     		movs	r0, #2
 611 0156 FFF7FEFF 		bl	e_get_micro_average
 612              	.LVL59:
 613 015a 1449     		ldr	r1, .L52+36
 614 015c 0246     		mov	r2, r0
 615 015e 0A48     		ldr	r0, .L52
 616 0160 FFF7FEFF 		bl	chprintf.constprop.0
 617              	.LVL60:
 618              	.LBB4:
 619              	.LBB5:
 620              		.loc 2 21 0
 621 0164 FFF7FEFF 		bl	mic_get_buffer_ptr
 622              	.LVL61:
 623              	.LBE5:
 624              	.LBE4:
 625              		.loc 2 103 0
 626 0168 0022     		movs	r2, #0
 627 016a 1149     		ldr	r1, .L52+40
ARM GAS  C:\Users\25521\AppData\Local\Temp\ccBUL90x.s 			page 12


 628 016c 0648     		ldr	r0, .L52
 629 016e FFF7FEFF 		bl	chprintf.constprop.0
 630              	.LVL62:
 631              		.loc 2 104 0
 632 0172 039A     		ldr	r2, [sp, #12]
 633 0174 D8F80030 		ldr	r3, [r8]
 634 0178 9A42     		cmp	r2, r3
 635 017a 02D1     		bne	.L51
 636 017c 05B0     		add	sp, sp, #20
 637              		.cfi_remember_state
 638              		.cfi_def_cfa_offset 28
 639              		@ sp needed
 640 017e BDE8F083 		pop	{r4, r5, r6, r7, r8, r9, pc}
 641              	.L51:
 642              		.cfi_restore_state
 643 0182 FFF7FEFF 		bl	__stack_chk_fail
 644              	.LVL63:
 645              	.L53:
 646 0186 00BF     		.align	2
 647              	.L52:
 648 0188 00000000 		.word	SDU1
 649 018c 00000000 		.word	.LC0
 650 0190 1C000000 		.word	.LC2
 651 0194 20000000 		.word	.LC3
 652 0198 34000000 		.word	.LC4
 653 019c 14000000 		.word	.LC1
 654 01a0 48000000 		.word	.LC5
 655 01a4 5C000000 		.word	.LC6
 656 01a8 6C000000 		.word	.LC7
 657 01ac 7C000000 		.word	.LC8
 658 01b0 8C000000 		.word	.LC9
 659 01b4 00000000 		.word	__stack_chk_guard
 660              		.cfi_endproc
 661              	.LFE272:
 662              		.size	e_test_micro, .-e_test_micro
 663              		.section	.rodata.e_test_micro.str1.4,"aMS",%progbits,1
 664              		.align	2
 665              	.LC0:
 666 0000 6D696330 		.ascii	"mic0 last values: \000"
 666      206C6173 
 666      74207661 
 666      6C756573 
 666      3A2000
 667 0013 00       		.space	1
 668              	.LC1:
 669 0014 25642C20 		.ascii	"%d, \000"
 669      00
 670 0019 000000   		.space	3
 671              	.LC2:
 672 001c 0D0A00   		.ascii	"\015\012\000"
 673 001f 00       		.space	1
 674              	.LC3:
 675 0020 6D696331 		.ascii	"mic1 last values: \000"
 675      206C6173 
 675      74207661 
 675      6C756573 
 675      3A2000
ARM GAS  C:\Users\25521\AppData\Local\Temp\ccBUL90x.s 			page 13


 676 0033 00       		.space	1
 677              	.LC4:
 678 0034 6D696332 		.ascii	"mic2 last values: \000"
 678      206C6173 
 678      74207661 
 678      6C756573 
 678      3A2000
 679 0047 00       		.space	1
 680              	.LC5:
 681 0048 6D696333 		.ascii	"mic3 last values: \000"
 681      206C6173 
 681      74207661 
 681      6C756573 
 681      3A2000
 682 005b 00       		.space	1
 683              	.LC6:
 684 005c 6D696330 		.ascii	"mic0 avg = %d\015\012\000"
 684      20617667 
 684      203D2025 
 684      640D0A00 
 685              	.LC7:
 686 006c 6D696331 		.ascii	"mic1 avg = %d\015\012\000"
 686      20617667 
 686      203D2025 
 686      640D0A00 
 687              	.LC8:
 688 007c 6D696332 		.ascii	"mic2 avg = %d\015\012\000"
 688      20617667 
 688      203D2025 
 688      640D0A00 
 689              	.LC9:
 690 008c 6D696333 		.ascii	"mic3 avg = %d\015\012\000"
 690      20617667 
 690      203D2025 
 690      640D0A00 
 691              		.text
 692              	.Letext0:
 693              		.file 3 "d:\\eclipse_e-puck2_win32_11_apr_2018\\eclipse_e-puck2\\tools\\gcc-arm-none-eabi-7-2017-q
 694              		.file 4 "d:\\eclipse_e-puck2_win32_11_apr_2018\\eclipse_e-puck2\\tools\\gcc-arm-none-eabi-7-2017-q
 695              		.file 5 "d:\\eclipse_e-puck2_win32_11_apr_2018\\eclipse_e-puck2\\tools\\gcc-arm-none-eabi-7-2017-q
 696              		.file 6 "../e-puck2_main-processor/ChibiOS//os/rt/ports/ARMCMx/compilers/GCC/chtypes.h"
 697              		.file 7 "../e-puck2_main-processor/ChibiOS//os/rt/include/chsystypes.h"
 698              		.file 8 "../e-puck2_main-processor/ChibiOS//os/rt/include/chschd.h"
 699              		.file 9 "../e-puck2_main-processor/ChibiOS//os/ext/CMSIS/include/core_cm4.h"
 700              		.file 10 "../e-puck2_main-processor/ChibiOS//os/ext/CMSIS/ST/system_stm32f4xx.h"
 701              		.file 11 "../e-puck2_main-processor/ChibiOS//os/ext/CMSIS/ST/stm32f407xx.h"
 702              		.file 12 "../e-puck2_main-processor/ChibiOS//os/rt/ports/ARMCMx/chcore.h"
 703              		.file 13 "../e-puck2_main-processor/ChibiOS//os/rt/ports/ARMCMx/chcore_v7m.h"
 704              		.file 14 "../e-puck2_main-processor/ChibiOS//os/rt/include/chdebug.h"
 705              		.file 15 "../e-puck2_main-processor/ChibiOS//os/rt/include/chtm.h"
 706              		.file 16 "../e-puck2_main-processor/ChibiOS//os/rt/include/chstats.h"
 707              		.file 17 "../e-puck2_main-processor/ChibiOS//os/rt/include/chsem.h"
 708              		.file 18 "../e-puck2_main-processor/ChibiOS//os/rt/include/chmtx.h"
 709              		.file 19 "../e-puck2_main-processor/ChibiOS//os/rt/include/chregistry.h"
 710              		.file 20 "../e-puck2_main-processor/ChibiOS//os/rt/include/chevents.h"
 711              		.file 21 "../e-puck2_main-processor/ChibiOS//os/rt/include/chqueues.h"
 712              		.file 22 "../e-puck2_main-processor/ChibiOS//os/rt/include/chstreams.h"
ARM GAS  C:\Users\25521\AppData\Local\Temp\ccBUL90x.s 			page 14


 713              		.file 23 "../e-puck2_main-processor/ChibiOS//os/hal/ports/STM32/LLD/DMAv2/stm32_dma.h"
 714              		.file 24 "../e-puck2_main-processor/ChibiOS//os/hal/include/hal_ioblock.h"
 715              		.file 25 "../e-puck2_main-processor/ChibiOS//os/hal/ports/STM32/LLD/GPIOv2/pal_lld.h"
 716              		.file 26 "../e-puck2_main-processor/ChibiOS//os/hal/include/adc.h"
 717              		.file 27 "../e-puck2_main-processor/ChibiOS//os/hal/ports/STM32/LLD/ADCv2/adc_lld.h"
 718              		.file 28 "../e-puck2_main-processor/ChibiOS//os/hal/include/can.h"
 719              		.file 29 "../e-puck2_main-processor/ChibiOS//os/hal/ports/STM32/LLD/CANv1/can_lld.h"
 720              		.file 30 "../e-puck2_main-processor/ChibiOS//os/hal/include/dac.h"
 721              		.file 31 "../e-puck2_main-processor/ChibiOS//os/hal/ports/STM32/LLD/DACv1/dac_lld.h"
 722              		.file 32 "../e-puck2_main-processor/ChibiOS//os/hal/include/ext.h"
 723              		.file 33 "../e-puck2_main-processor/ChibiOS//os/hal/ports/STM32/LLD/EXTIv1/ext_lld.h"
 724              		.file 34 "../e-puck2_main-processor/ChibiOS//os/hal/include/gpt.h"
 725              		.file 35 "../e-puck2_main-processor/ChibiOS//os/hal/ports/STM32/LLD/TIMv1/gpt_lld.h"
 726              		.file 36 "../e-puck2_main-processor/ChibiOS//os/hal/ports/STM32/LLD/TIMv1/stm32_tim.h"
 727              		.file 37 "../e-puck2_main-processor/ChibiOS//os/hal/include/i2c.h"
 728              		.file 38 "../e-puck2_main-processor/ChibiOS//os/hal/ports/STM32/LLD/I2Cv1/i2c_lld.h"
 729              		.file 39 "../e-puck2_main-processor/ChibiOS//os/hal/include/i2s.h"
 730              		.file 40 "../e-puck2_main-processor/ChibiOS//os/hal/ports/STM32/LLD/SPIv1/i2s_lld.h"
 731              		.file 41 "../e-puck2_main-processor/ChibiOS//os/hal/include/pwm.h"
 732              		.file 42 "../e-puck2_main-processor/ChibiOS//os/hal/ports/STM32/LLD/TIMv1/pwm_lld.h"
 733              		.file 43 "../e-puck2_main-processor/ChibiOS//os/hal/include/serial.h"
 734              		.file 44 "../e-puck2_main-processor/ChibiOS//os/hal/ports/STM32/LLD/USARTv1/serial_lld.h"
 735              		.file 45 "../e-puck2_main-processor/ChibiOS//os/hal/include/sdc.h"
 736              		.file 46 "../e-puck2_main-processor/ChibiOS//os/hal/ports/STM32/LLD/SDIOv1/sdc_lld.h"
 737              		.file 47 "../e-puck2_main-processor/ChibiOS//os/hal/include/spi.h"
 738              		.file 48 "../e-puck2_main-processor/ChibiOS//os/hal/ports/STM32/LLD/SPIv1/spi_lld.h"
 739              		.file 49 "../e-puck2_main-processor/ChibiOS//os/hal/include/usb.h"
 740              		.file 50 "../e-puck2_main-processor/ChibiOS//os/hal/ports/STM32/LLD/OTGv1/usb_lld.h"
 741              		.file 51 "../e-puck2_main-processor/ChibiOS//os/hal/ports/STM32/LLD/OTGv1/stm32_otg.h"
 742              		.file 52 "../e-puck2_main-processor/ChibiOS//os/hal/include/serial_usb.h"
 743              		.file 53 "../e-puck2_main-processor/src/epuck1x/../usbcfg.h"
 744              		.file 54 "d:\\eclipse_e-puck2_win32_11_apr_2018\\eclipse_e-puck2\\tools\\gcc-arm-none-eabi-7-2017-
 745              		.file 55 "<built-in>"
 746              		.file 56 "../e-puck2_main-processor/src/epuck1x/../audio/microphone.h"