ARM GAS  C:\Users\25521\AppData\Local\Temp\ccOflMRO.s 			page 1


   1              		.cpu cortex-m4
   2              		.eabi_attribute 27, 1
   3              		.eabi_attribute 28, 1
   4              		.eabi_attribute 20, 1
   5              		.eabi_attribute 21, 1
   6              		.eabi_attribute 23, 3
   7              		.eabi_attribute 24, 1
   8              		.eabi_attribute 25, 1
   9              		.eabi_attribute 26, 1
  10              		.eabi_attribute 30, 2
  11              		.eabi_attribute 34, 1
  12              		.eabi_attribute 18, 4
  13              		.file	"e_remote_control.c"
  14              		.text
  15              	.Ltext0:
  16              		.cfi_sections	.debug_frame
  17              		.section	.text.e_init_remote_control,"ax",%progbits
  18              		.align	1
  19              		.p2align 4,,15
  20              		.global	e_init_remote_control
  21              		.syntax unified
  22              		.thumb
  23              		.thumb_func
  24              		.fpu fpv4-sp-d16
  25              		.type	e_init_remote_control, %function
  26              	e_init_remote_control:
  27              	.LFB267:
  28              		.file 1 "../e-puck2_main-processor/src/epuck1x/motor_led/advance_one_timer/e_remote_control.c"
  29              		.loc 1 60 0
  30              		.cfi_startproc
  31              		@ args = 0, pretend = 0, frame = 8
  32              		@ frame_needed = 0, uses_anonymous_args = 0
  33 0000 00B5     		push	{lr}
  34              		.cfi_def_cfa_offset 4
  35              		.cfi_offset 14, -4
  36 0002 064B     		ldr	r3, .L6
  37 0004 83B0     		sub	sp, sp, #12
  38              		.cfi_def_cfa_offset 16
  39              		.loc 1 60 0
  40 0006 1A68     		ldr	r2, [r3]
  41 0008 0192     		str	r2, [sp, #4]
  42              		.loc 1 62 0
  43 000a 019A     		ldr	r2, [sp, #4]
  44 000c 1B68     		ldr	r3, [r3]
  45 000e 9A42     		cmp	r2, r3
  46 0010 02D1     		bne	.L5
  47 0012 03B0     		add	sp, sp, #12
  48              		.cfi_remember_state
  49              		.cfi_def_cfa_offset 4
  50              		@ sp needed
  51 0014 5DF804FB 		ldr	pc, [sp], #4
  52              	.L5:
  53              		.cfi_restore_state
  54 0018 FFF7FEFF 		bl	__stack_chk_fail
  55              	.LVL0:
  56              	.L7:
  57              		.align	2
ARM GAS  C:\Users\25521\AppData\Local\Temp\ccOflMRO.s 			page 2


  58              	.L6:
  59 001c 00000000 		.word	__stack_chk_guard
  60              		.cfi_endproc
  61              	.LFE267:
  62              		.size	e_init_remote_control, .-e_init_remote_control
  63              		.section	.text.e_get_check,"ax",%progbits
  64              		.align	1
  65              		.p2align 4,,15
  66              		.global	e_get_check
  67              		.syntax unified
  68              		.thumb
  69              		.thumb_func
  70              		.fpu fpv4-sp-d16
  71              		.type	e_get_check, %function
  72              	e_get_check:
  73              	.LFB268:
  74              		.loc 1 69 0
  75              		.cfi_startproc
  76              		@ args = 0, pretend = 0, frame = 8
  77              		@ frame_needed = 0, uses_anonymous_args = 0
  78 0000 00B5     		push	{lr}
  79              		.cfi_def_cfa_offset 4
  80              		.cfi_offset 14, -4
  81 0002 074B     		ldr	r3, .L13
  82 0004 83B0     		sub	sp, sp, #12
  83              		.cfi_def_cfa_offset 16
  84              		.loc 1 69 0
  85 0006 1A68     		ldr	r2, [r3]
  86 0008 0192     		str	r2, [sp, #4]
  87              		.loc 1 70 0
  88 000a 019A     		ldr	r2, [sp, #4]
  89 000c 1B68     		ldr	r3, [r3]
  90 000e 9A42     		cmp	r2, r3
  91 0010 04D1     		bne	.L12
  92              		.loc 1 71 0
  93 0012 03B0     		add	sp, sp, #12
  94              		.cfi_remember_state
  95              		.cfi_def_cfa_offset 4
  96              		@ sp needed
  97 0014 5DF804EB 		ldr	lr, [sp], #4
  98              		.cfi_restore 14
  99              		.cfi_def_cfa_offset 0
 100              		.loc 1 70 0
 101 0018 FFF7FEBF 		b	ir_remote_get_toggle
 102              	.LVL1:
 103              	.L12:
 104              		.cfi_restore_state
 105 001c FFF7FEFF 		bl	__stack_chk_fail
 106              	.LVL2:
 107              	.L14:
 108              		.align	2
 109              	.L13:
 110 0020 00000000 		.word	__stack_chk_guard
 111              		.cfi_endproc
 112              	.LFE268:
 113              		.size	e_get_check, .-e_get_check
 114              		.section	.text.e_get_address,"ax",%progbits
ARM GAS  C:\Users\25521\AppData\Local\Temp\ccOflMRO.s 			page 3


 115              		.align	1
 116              		.p2align 4,,15
 117              		.global	e_get_address
 118              		.syntax unified
 119              		.thumb
 120              		.thumb_func
 121              		.fpu fpv4-sp-d16
 122              		.type	e_get_address, %function
 123              	e_get_address:
 124              	.LFB269:
 125              		.loc 1 76 0
 126              		.cfi_startproc
 127              		@ args = 0, pretend = 0, frame = 8
 128              		@ frame_needed = 0, uses_anonymous_args = 0
 129 0000 00B5     		push	{lr}
 130              		.cfi_def_cfa_offset 4
 131              		.cfi_offset 14, -4
 132 0002 074B     		ldr	r3, .L20
 133 0004 83B0     		sub	sp, sp, #12
 134              		.cfi_def_cfa_offset 16
 135              		.loc 1 76 0
 136 0006 1A68     		ldr	r2, [r3]
 137 0008 0192     		str	r2, [sp, #4]
 138              		.loc 1 77 0
 139 000a 019A     		ldr	r2, [sp, #4]
 140 000c 1B68     		ldr	r3, [r3]
 141 000e 9A42     		cmp	r2, r3
 142 0010 04D1     		bne	.L19
 143              		.loc 1 78 0
 144 0012 03B0     		add	sp, sp, #12
 145              		.cfi_remember_state
 146              		.cfi_def_cfa_offset 4
 147              		@ sp needed
 148 0014 5DF804EB 		ldr	lr, [sp], #4
 149              		.cfi_restore 14
 150              		.cfi_def_cfa_offset 0
 151              		.loc 1 77 0
 152 0018 FFF7FEBF 		b	ir_remote_get_address
 153              	.LVL3:
 154              	.L19:
 155              		.cfi_restore_state
 156 001c FFF7FEFF 		bl	__stack_chk_fail
 157              	.LVL4:
 158              	.L21:
 159              		.align	2
 160              	.L20:
 161 0020 00000000 		.word	__stack_chk_guard
 162              		.cfi_endproc
 163              	.LFE269:
 164              		.size	e_get_address, .-e_get_address
 165              		.section	.text.e_get_data,"ax",%progbits
 166              		.align	1
 167              		.p2align 4,,15
 168              		.global	e_get_data
 169              		.syntax unified
 170              		.thumb
 171              		.thumb_func
ARM GAS  C:\Users\25521\AppData\Local\Temp\ccOflMRO.s 			page 4


 172              		.fpu fpv4-sp-d16
 173              		.type	e_get_data, %function
 174              	e_get_data:
 175              	.LFB270:
 176              		.loc 1 83 0
 177              		.cfi_startproc
 178              		@ args = 0, pretend = 0, frame = 8
 179              		@ frame_needed = 0, uses_anonymous_args = 0
 180 0000 00B5     		push	{lr}
 181              		.cfi_def_cfa_offset 4
 182              		.cfi_offset 14, -4
 183 0002 074B     		ldr	r3, .L27
 184 0004 83B0     		sub	sp, sp, #12
 185              		.cfi_def_cfa_offset 16
 186              		.loc 1 83 0
 187 0006 1A68     		ldr	r2, [r3]
 188 0008 0192     		str	r2, [sp, #4]
 189              		.loc 1 84 0
 190 000a 019A     		ldr	r2, [sp, #4]
 191 000c 1B68     		ldr	r3, [r3]
 192 000e 9A42     		cmp	r2, r3
 193 0010 04D1     		bne	.L26
 194              		.loc 1 85 0
 195 0012 03B0     		add	sp, sp, #12
 196              		.cfi_remember_state
 197              		.cfi_def_cfa_offset 4
 198              		@ sp needed
 199 0014 5DF804EB 		ldr	lr, [sp], #4
 200              		.cfi_restore 14
 201              		.cfi_def_cfa_offset 0
 202              		.loc 1 84 0
 203 0018 FFF7FEBF 		b	ir_remote_get_data
 204              	.LVL5:
 205              	.L26:
 206              		.cfi_restore_state
 207 001c FFF7FEFF 		bl	__stack_chk_fail
 208              	.LVL6:
 209              	.L28:
 210              		.align	2
 211              	.L27:
 212 0020 00000000 		.word	__stack_chk_guard
 213              		.cfi_endproc
 214              	.LFE270:
 215              		.size	e_get_data, .-e_get_data
 216              		.text
 217              	.Letext0:
 218              		.file 2 "d:\\eclipse_e-puck2_win32_11_apr_2018\\eclipse_e-puck2\\tools\\gcc-arm-none-eabi-7-2017-q
 219              		.file 3 "d:\\eclipse_e-puck2_win32_11_apr_2018\\eclipse_e-puck2\\tools\\gcc-arm-none-eabi-7-2017-q
 220              		.file 4 "d:\\eclipse_e-puck2_win32_11_apr_2018\\eclipse_e-puck2\\tools\\gcc-arm-none-eabi-7-2017-q
 221              		.file 5 "../e-puck2_main-processor/ChibiOS//os/rt/ports/ARMCMx/compilers/GCC/chtypes.h"
 222              		.file 6 "../e-puck2_main-processor/ChibiOS//os/rt/include/chsystypes.h"
 223              		.file 7 "../e-puck2_main-processor/ChibiOS//os/rt/include/chschd.h"
 224              		.file 8 "../e-puck2_main-processor/ChibiOS//os/ext/CMSIS/include/core_cm4.h"
 225              		.file 9 "../e-puck2_main-processor/ChibiOS//os/ext/CMSIS/ST/system_stm32f4xx.h"
 226              		.file 10 "../e-puck2_main-processor/ChibiOS//os/ext/CMSIS/ST/stm32f407xx.h"
 227              		.file 11 "../e-puck2_main-processor/ChibiOS//os/rt/ports/ARMCMx/chcore.h"
 228              		.file 12 "../e-puck2_main-processor/ChibiOS//os/rt/ports/ARMCMx/chcore_v7m.h"
ARM GAS  C:\Users\25521\AppData\Local\Temp\ccOflMRO.s 			page 5


 229              		.file 13 "../e-puck2_main-processor/ChibiOS//os/rt/include/chdebug.h"
 230              		.file 14 "../e-puck2_main-processor/ChibiOS//os/rt/include/chtm.h"
 231              		.file 15 "../e-puck2_main-processor/ChibiOS//os/rt/include/chstats.h"
 232              		.file 16 "../e-puck2_main-processor/ChibiOS//os/rt/include/chsem.h"
 233              		.file 17 "../e-puck2_main-processor/ChibiOS//os/rt/include/chmtx.h"
 234              		.file 18 "../e-puck2_main-processor/ChibiOS//os/rt/include/chregistry.h"
 235              		.file 19 "../e-puck2_main-processor/ChibiOS//os/rt/include/chevents.h"
 236              		.file 20 "../e-puck2_main-processor/ChibiOS//os/rt/include/chqueues.h"
 237              		.file 21 "../e-puck2_main-processor/ChibiOS//os/hal/ports/STM32/LLD/DMAv2/stm32_dma.h"
 238              		.file 22 "../e-puck2_main-processor/ChibiOS//os/hal/include/hal_ioblock.h"
 239              		.file 23 "../e-puck2_main-processor/ChibiOS//os/hal/ports/STM32/LLD/GPIOv2/pal_lld.h"
 240              		.file 24 "../e-puck2_main-processor/ChibiOS//os/hal/include/adc.h"
 241              		.file 25 "../e-puck2_main-processor/ChibiOS//os/hal/ports/STM32/LLD/ADCv2/adc_lld.h"
 242              		.file 26 "../e-puck2_main-processor/ChibiOS//os/hal/include/can.h"
 243              		.file 27 "../e-puck2_main-processor/ChibiOS//os/hal/ports/STM32/LLD/CANv1/can_lld.h"
 244              		.file 28 "../e-puck2_main-processor/ChibiOS//os/hal/include/dac.h"
 245              		.file 29 "../e-puck2_main-processor/ChibiOS//os/hal/ports/STM32/LLD/DACv1/dac_lld.h"
 246              		.file 30 "../e-puck2_main-processor/ChibiOS//os/hal/include/ext.h"
 247              		.file 31 "../e-puck2_main-processor/ChibiOS//os/hal/ports/STM32/LLD/EXTIv1/ext_lld.h"
 248              		.file 32 "../e-puck2_main-processor/ChibiOS//os/hal/include/gpt.h"
 249              		.file 33 "../e-puck2_main-processor/ChibiOS//os/hal/ports/STM32/LLD/TIMv1/gpt_lld.h"
 250              		.file 34 "../e-puck2_main-processor/ChibiOS//os/hal/ports/STM32/LLD/TIMv1/stm32_tim.h"
 251              		.file 35 "../e-puck2_main-processor/ChibiOS//os/hal/include/i2c.h"
 252              		.file 36 "../e-puck2_main-processor/ChibiOS//os/hal/ports/STM32/LLD/I2Cv1/i2c_lld.h"
 253              		.file 37 "../e-puck2_main-processor/ChibiOS//os/hal/include/i2s.h"
 254              		.file 38 "../e-puck2_main-processor/ChibiOS//os/hal/ports/STM32/LLD/SPIv1/i2s_lld.h"
 255              		.file 39 "../e-puck2_main-processor/ChibiOS//os/hal/include/pwm.h"
 256              		.file 40 "../e-puck2_main-processor/ChibiOS//os/hal/ports/STM32/LLD/TIMv1/pwm_lld.h"
 257              		.file 41 "../e-puck2_main-processor/ChibiOS//os/hal/include/serial.h"
 258              		.file 42 "../e-puck2_main-processor/ChibiOS//os/hal/ports/STM32/LLD/USARTv1/serial_lld.h"
 259              		.file 43 "../e-puck2_main-processor/ChibiOS//os/hal/include/sdc.h"
 260              		.file 44 "../e-puck2_main-processor/ChibiOS//os/hal/ports/STM32/LLD/SDIOv1/sdc_lld.h"
 261              		.file 45 "../e-puck2_main-processor/ChibiOS//os/hal/include/spi.h"
 262              		.file 46 "../e-puck2_main-processor/ChibiOS//os/hal/ports/STM32/LLD/SPIv1/spi_lld.h"
 263              		.file 47 "../e-puck2_main-processor/ChibiOS//os/hal/include/usb.h"
 264              		.file 48 "../e-puck2_main-processor/ChibiOS//os/hal/ports/STM32/LLD/OTGv1/usb_lld.h"
 265              		.file 49 "../e-puck2_main-processor/ChibiOS//os/hal/ports/STM32/LLD/OTGv1/stm32_otg.h"
 266              		.file 50 "../e-puck2_main-processor/src/epuck1x/../ir_remote.h"