ARM GAS  C:\Users\25521\AppData\Local\Temp\cc3OfFBh.s 			page 1


   1              		.cpu cortex-m4
   2              		.eabi_attribute 27, 1
   3              		.eabi_attribute 28, 1
   4              		.eabi_attribute 20, 1
   5              		.eabi_attribute 21, 1
   6              		.eabi_attribute 23, 3
   7              		.eabi_attribute 24, 1
   8              		.eabi_attribute 25, 1
   9              		.eabi_attribute 26, 1
  10              		.eabi_attribute 30, 2
  11              		.eabi_attribute 34, 1
  12              		.eabi_attribute 18, 4
  13              		.file	"hal_lld.c"
  14              		.text
  15              	.Ltext0:
  16              		.cfi_sections	.debug_frame
  17              		.section	.text.hal_lld_init,"ax",%progbits
  18              		.align	1
  19              		.p2align 4,,15
  20              		.global	hal_lld_init
  21              		.syntax unified
  22              		.thumb
  23              		.thumb_func
  24              		.fpu fpv4-sp-d16
  25              		.type	hal_lld_init, %function
  26              	hal_lld_init:
  27              	.LFB268:
  28              		.file 1 "../e-puck2_main-processor/ChibiOS//os/hal/ports/STM32/STM32F4xx/hal_lld.c"
  29              		.loc 1 114 0
  30              		.cfi_startproc
  31              		@ args = 0, pretend = 0, frame = 8
  32              		@ frame_needed = 0, uses_anonymous_args = 0
  33 0000 30B5     		push	{r4, r5, lr}
  34              		.cfi_def_cfa_offset 12
  35              		.cfi_offset 4, -12
  36              		.cfi_offset 5, -8
  37              		.cfi_offset 14, -4
  38 0002 1C4C     		ldr	r4, .L11
  39              		.loc 1 118 0
  40 0004 1C4B     		ldr	r3, .L11+4
  41              		.loc 1 114 0
  42 0006 2268     		ldr	r2, [r4]
  43              	.LBB4:
  44              	.LBB5:
  45              		.loc 1 57 0
  46 0008 1C4D     		ldr	r5, .L11+8
  47              	.LBE5:
  48              	.LBE4:
  49              		.loc 1 114 0
  50 000a 83B0     		sub	sp, sp, #12
  51              		.cfi_def_cfa_offset 24
  52              		.loc 1 118 0
  53 000c 4FF0FF31 		mov	r1, #-1
  54              		.loc 1 114 0
  55 0010 0192     		str	r2, [sp, #4]
  56              		.loc 1 118 0
  57 0012 0022     		movs	r2, #0
ARM GAS  C:\Users\25521\AppData\Local\Temp\cc3OfFBh.s 			page 2


  58 0014 1869     		ldr	r0, [r3, #16]
  59 0016 1961     		str	r1, [r3, #16]
  60 0018 1A61     		str	r2, [r3, #16]
  61              		.loc 1 119 0
  62 001a 5869     		ldr	r0, [r3, #20]
  63 001c 5961     		str	r1, [r3, #20]
  64 001e 5A61     		str	r2, [r3, #20]
  65              		.loc 1 120 0
  66 0020 186A     		ldr	r0, [r3, #32]
  67 0022 60F08050 		orn	r0, r0, #268435456
  68 0026 1862     		str	r0, [r3, #32]
  69 0028 1A62     		str	r2, [r3, #32]
  70              		.loc 1 121 0
  71 002a 586A     		ldr	r0, [r3, #36]
  72 002c 5962     		str	r1, [r3, #36]
  73 002e 5A62     		str	r2, [r3, #36]
  74              		.loc 1 124 0
  75 0030 196C     		ldr	r1, [r3, #64]
  76 0032 41F08051 		orr	r1, r1, #268435456
  77 0036 1964     		str	r1, [r3, #64]
  78              	.LBB7:
  79              	.LBB6:
  80              		.loc 1 57 0
  81 0038 2968     		ldr	r1, [r5]
  82 003a 41F48071 		orr	r1, r1, #256
  83 003e 2960     		str	r1, [r5]
  84              		.loc 1 60 0
  85 0040 196F     		ldr	r1, [r3, #112]
  86 0042 01F44071 		and	r1, r1, #768
  87 0046 B1F5007F 		cmp	r1, #512
  88 004a 03D0     		beq	.L2
  89              		.loc 1 62 0
  90 004c 4FF48031 		mov	r1, #65536
  91 0050 1967     		str	r1, [r3, #112]
  92              		.loc 1 63 0
  93 0052 1A67     		str	r2, [r3, #112]
  94              	.L2:
  95              		.loc 1 97 0
  96 0054 094A     		ldr	r2, .L11+8
  97 0056 5368     		ldr	r3, [r2, #4]
  98 0058 23F40073 		bic	r3, r3, #512
  99 005c 5360     		str	r3, [r2, #4]
 100              	.LBE6:
 101              	.LBE7:
 102              		.loc 1 130 0
 103 005e 019A     		ldr	r2, [sp, #4]
 104 0060 2368     		ldr	r3, [r4]
 105 0062 9A42     		cmp	r2, r3
 106 0064 04D1     		bne	.L10
 107              		.loc 1 137 0
 108 0066 03B0     		add	sp, sp, #12
 109              		.cfi_remember_state
 110              		.cfi_def_cfa_offset 12
 111              		@ sp needed
 112 0068 BDE83040 		pop	{r4, r5, lr}
 113              		.cfi_restore 14
 114              		.cfi_restore 5
ARM GAS  C:\Users\25521\AppData\Local\Temp\cc3OfFBh.s 			page 3


 115              		.cfi_restore 4
 116              		.cfi_def_cfa_offset 0
 117              		.loc 1 130 0
 118 006c FFF7FEBF 		b	dmaInit
 119              	.LVL0:
 120              	.L10:
 121              		.cfi_restore_state
 122 0070 FFF7FEFF 		bl	__stack_chk_fail
 123              	.LVL1:
 124              	.L12:
 125              		.align	2
 126              	.L11:
 127 0074 00000000 		.word	__stack_chk_guard
 128 0078 00380240 		.word	1073887232
 129 007c 00700040 		.word	1073770496
 130              		.cfi_endproc
 131              	.LFE268:
 132              		.size	hal_lld_init, .-hal_lld_init
 133              		.section	.text.stm32_clock_init,"ax",%progbits
 134              		.align	1
 135              		.p2align 4,,15
 136              		.global	stm32_clock_init
 137              		.syntax unified
 138              		.thumb
 139              		.thumb_func
 140              		.fpu fpv4-sp-d16
 141              		.type	stm32_clock_init, %function
 142              	stm32_clock_init:
 143              	.LFB269:
 144              		.loc 1 146 0
 145              		.cfi_startproc
 146              		@ args = 0, pretend = 0, frame = 8
 147              		@ frame_needed = 0, uses_anonymous_args = 0
 148 0000 10B5     		push	{r4, lr}
 149              		.cfi_def_cfa_offset 8
 150              		.cfi_offset 4, -8
 151              		.cfi_offset 14, -4
 152 0002 3649     		ldr	r1, .L39
 153              		.loc 1 150 0
 154 0004 364B     		ldr	r3, .L39+4
 155              		.loc 1 146 0
 156 0006 0868     		ldr	r0, [r1]
 157              		.loc 1 154 0
 158 0008 364A     		ldr	r2, .L39+8
 159              		.loc 1 146 0
 160 000a 82B0     		sub	sp, sp, #8
 161              		.cfi_def_cfa_offset 16
 162              		.loc 1 150 0
 163 000c 4FF08054 		mov	r4, #268435456
 164              		.loc 1 146 0
 165 0010 0190     		str	r0, [sp, #4]
 166              		.loc 1 154 0
 167 0012 4FF44040 		mov	r0, #49152
 168              		.loc 1 150 0
 169 0016 1C64     		str	r4, [r3, #64]
 170              		.loc 1 154 0
 171 0018 1060     		str	r0, [r2]
ARM GAS  C:\Users\25521\AppData\Local\Temp\cc3OfFBh.s 			page 4


 172              		.loc 1 161 0
 173 001a 1A68     		ldr	r2, [r3]
 174 001c 42F00102 		orr	r2, r2, #1
 175 0020 1A60     		str	r2, [r3]
 176              	.L14:
 177              		.loc 1 162 0 discriminator 1
 178 0022 1A68     		ldr	r2, [r3]
 179 0024 9007     		lsls	r0, r2, #30
 180 0026 FCD5     		bpl	.L14
 181              		.loc 1 168 0
 182 0028 9868     		ldr	r0, [r3, #8]
 183              		.loc 1 170 0
 184 002a 2D4A     		ldr	r2, .L39+4
 185              		.loc 1 168 0
 186 002c 20F00300 		bic	r0, r0, #3
 187 0030 9860     		str	r0, [r3, #8]
 188              		.loc 1 169 0
 189 0032 9868     		ldr	r0, [r3, #8]
 190 0034 9860     		str	r0, [r3, #8]
 191              	.L15:
 192              		.loc 1 170 0 discriminator 1
 193 0036 9368     		ldr	r3, [r2, #8]
 194 0038 13F00C03 		ands	r3, r3, #12
 195 003c FBD1     		bne	.L15
 196              		.loc 1 174 0
 197 003e 1468     		ldr	r4, [r2]
 198              		.loc 1 186 0
 199 0040 2748     		ldr	r0, .L39+4
 200              		.loc 1 174 0
 201 0042 04F0F904 		and	r4, r4, #249
 202 0046 1460     		str	r4, [r2]
 203              		.loc 1 175 0
 204 0048 9360     		str	r3, [r2, #8]
 205              		.loc 1 181 0
 206 004a 1368     		ldr	r3, [r2]
 207 004c 43F4A023 		orr	r3, r3, #327680
 208 0050 1360     		str	r3, [r2]
 209              	.L16:
 210              		.loc 1 186 0 discriminator 1
 211 0052 0368     		ldr	r3, [r0]
 212 0054 9A03     		lsls	r2, r3, #14
 213 0056 FCD5     		bpl	.L16
 214              		.loc 1 192 0
 215 0058 436F     		ldr	r3, [r0, #116]
 216              		.loc 1 193 0
 217 005a 214A     		ldr	r2, .L39+4
 218              		.loc 1 192 0
 219 005c 43F00103 		orr	r3, r3, #1
 220 0060 4367     		str	r3, [r0, #116]
 221              	.L17:
 222              		.loc 1 193 0 discriminator 1
 223 0062 536F     		ldr	r3, [r2, #116]
 224 0064 9B07     		lsls	r3, r3, #30
 225 0066 FCD5     		bpl	.L17
 226              		.loc 1 199 0
 227 0068 1F4B     		ldr	r3, .L39+12
 228 006a 5360     		str	r3, [r2, #4]
ARM GAS  C:\Users\25521\AppData\Local\Temp\cc3OfFBh.s 			page 5


 229              		.loc 1 201 0
 230 006c 1368     		ldr	r3, [r2]
 231              		.loc 1 205 0
 232 006e 1D48     		ldr	r0, .L39+8
 233              		.loc 1 201 0
 234 0070 43F08073 		orr	r3, r3, #16777216
 235 0074 1360     		str	r3, [r2]
 236              	.L18:
 237              		.loc 1 205 0 discriminator 1
 238 0076 4368     		ldr	r3, [r0, #4]
 239 0078 5C04     		lsls	r4, r3, #17
 240 007a FCD5     		bpl	.L18
 241              		.loc 1 221 0
 242 007c 184A     		ldr	r2, .L39+4
 243              	.L19:
 244              		.loc 1 221 0 is_stmt 0 discriminator 1
 245 007e 1368     		ldr	r3, [r2]
 246 0080 9801     		lsls	r0, r3, #6
 247 0082 FCD5     		bpl	.L19
 248              		.loc 1 227 0 is_stmt 1
 249 0084 194B     		ldr	r3, .L39+16
 250 0086 C2F88430 		str	r3, [r2, #132]
 251              		.loc 1 228 0
 252 008a 1368     		ldr	r3, [r2]
 253              		.loc 1 231 0
 254 008c 1448     		ldr	r0, .L39+4
 255              		.loc 1 228 0
 256 008e 43F08063 		orr	r3, r3, #67108864
 257 0092 1360     		str	r3, [r2]
 258              	.L20:
 259              		.loc 1 231 0 discriminator 1
 260 0094 0368     		ldr	r3, [r0]
 261 0096 1B01     		lsls	r3, r3, #4
 262 0098 FCD5     		bpl	.L20
 263              		.loc 1 260 0
 264 009a 154B     		ldr	r3, .L39+20
 265              		.loc 1 247 0
 266 009c 154A     		ldr	r2, .L39+24
 267 009e 8260     		str	r2, [r0, #8]
 268              		.loc 1 260 0
 269 00a0 40F20572 		movw	r2, #1797
 270 00a4 1A60     		str	r2, [r3]
 271              		.loc 1 266 0
 272 00a6 8368     		ldr	r3, [r0, #8]
 273              		.loc 1 267 0
 274 00a8 0D4A     		ldr	r2, .L39+4
 275              		.loc 1 266 0
 276 00aa 43F00203 		orr	r3, r3, #2
 277 00ae 8360     		str	r3, [r0, #8]
 278              	.L21:
 279              		.loc 1 267 0 discriminator 1
 280 00b0 9368     		ldr	r3, [r2, #8]
 281 00b2 03F00C03 		and	r3, r3, #12
 282 00b6 082B     		cmp	r3, #8
 283 00b8 FAD1     		bne	.L21
 284              		.loc 1 274 0
 285 00ba 536C     		ldr	r3, [r2, #68]
ARM GAS  C:\Users\25521\AppData\Local\Temp\cc3OfFBh.s 			page 6


 286 00bc 43F48043 		orr	r3, r3, #16384
 287 00c0 5364     		str	r3, [r2, #68]
 288 00c2 536E     		ldr	r3, [r2, #100]
 289 00c4 43F48043 		orr	r3, r3, #16384
 290 00c8 5366     		str	r3, [r2, #100]
 291              		.loc 1 275 0
 292 00ca 019A     		ldr	r2, [sp, #4]
 293 00cc 0B68     		ldr	r3, [r1]
 294 00ce 9A42     		cmp	r2, r3
 295 00d0 01D1     		bne	.L38
 296 00d2 02B0     		add	sp, sp, #8
 297              		.cfi_remember_state
 298              		.cfi_def_cfa_offset 8
 299              		@ sp needed
 300 00d4 10BD     		pop	{r4, pc}
 301              	.L38:
 302              		.cfi_restore_state
 303 00d6 FFF7FEFF 		bl	__stack_chk_fail
 304              	.LVL2:
 305              	.L40:
 306 00da 00BF     		.align	2
 307              	.L39:
 308 00dc 00000000 		.word	__stack_chk_guard
 309 00e0 00380240 		.word	1073887232
 310 00e4 00700040 		.word	1073770496
 311 00e8 18544007 		.word	121656344
 312 00ec 00300060 		.word	1610625024
 313 00f0 003C0240 		.word	1073888256
 314 00f4 00940838 		.word	940086272
 315              		.cfi_endproc
 316              	.LFE269:
 317              		.size	stm32_clock_init, .-stm32_clock_init
 318              		.global	SystemCoreClock
 319              		.section	.data.SystemCoreClock,"aw",%progbits
 320              		.align	2
 321              		.type	SystemCoreClock, %object
 322              		.size	SystemCoreClock, 4
 323              	SystemCoreClock:
 324 0000 007A030A 		.word	168000000
 325              		.text
 326              	.Letext0:
 327              		.file 2 "d:\\eclipse_e-puck2_win32_11_apr_2018\\eclipse_e-puck2\\tools\\gcc-arm-none-eabi-7-2017-q
 328              		.file 3 "d:\\eclipse_e-puck2_win32_11_apr_2018\\eclipse_e-puck2\\tools\\gcc-arm-none-eabi-7-2017-q
 329              		.file 4 "d:\\eclipse_e-puck2_win32_11_apr_2018\\eclipse_e-puck2\\tools\\gcc-arm-none-eabi-7-2017-q
 330              		.file 5 "../e-puck2_main-processor/ChibiOS//os/rt/ports/ARMCMx/compilers/GCC/chtypes.h"
 331              		.file 6 "../e-puck2_main-processor/ChibiOS//os/rt/include/chsystypes.h"
 332              		.file 7 "../e-puck2_main-processor/ChibiOS//os/rt/include/chschd.h"
 333              		.file 8 "../e-puck2_main-processor/ChibiOS//os/ext/CMSIS/include/core_cm4.h"
 334              		.file 9 "../e-puck2_main-processor/ChibiOS//os/ext/CMSIS/ST/system_stm32f4xx.h"
 335              		.file 10 "../e-puck2_main-processor/ChibiOS//os/ext/CMSIS/ST/stm32f407xx.h"
 336              		.file 11 "../e-puck2_main-processor/ChibiOS//os/rt/ports/ARMCMx/chcore.h"
 337              		.file 12 "../e-puck2_main-processor/ChibiOS//os/rt/ports/ARMCMx/chcore_v7m.h"
 338              		.file 13 "../e-puck2_main-processor/ChibiOS//os/rt/include/chdebug.h"
 339              		.file 14 "../e-puck2_main-processor/ChibiOS//os/rt/include/chtm.h"
 340              		.file 15 "../e-puck2_main-processor/ChibiOS//os/rt/include/chstats.h"
 341              		.file 16 "../e-puck2_main-processor/ChibiOS//os/rt/include/chsem.h"
 342              		.file 17 "../e-puck2_main-processor/ChibiOS//os/rt/include/chmtx.h"
ARM GAS  C:\Users\25521\AppData\Local\Temp\cc3OfFBh.s 			page 7


 343              		.file 18 "../e-puck2_main-processor/ChibiOS//os/rt/include/chregistry.h"
 344              		.file 19 "../e-puck2_main-processor/ChibiOS//os/rt/include/chevents.h"
 345              		.file 20 "../e-puck2_main-processor/ChibiOS//os/rt/include/chqueues.h"
 346              		.file 21 "../e-puck2_main-processor/ChibiOS//os/hal/ports/STM32/LLD/DMAv2/stm32_dma.h"
 347              		.file 22 "../e-puck2_main-processor/ChibiOS//os/hal/include/hal_ioblock.h"
 348              		.file 23 "../e-puck2_main-processor/ChibiOS//os/hal/ports/STM32/LLD/GPIOv2/pal_lld.h"
 349              		.file 24 "../e-puck2_main-processor/ChibiOS//os/hal/include/adc.h"
 350              		.file 25 "../e-puck2_main-processor/ChibiOS//os/hal/ports/STM32/LLD/ADCv2/adc_lld.h"
 351              		.file 26 "../e-puck2_main-processor/ChibiOS//os/hal/include/can.h"
 352              		.file 27 "../e-puck2_main-processor/ChibiOS//os/hal/ports/STM32/LLD/CANv1/can_lld.h"
 353              		.file 28 "../e-puck2_main-processor/ChibiOS//os/hal/include/dac.h"
 354              		.file 29 "../e-puck2_main-processor/ChibiOS//os/hal/ports/STM32/LLD/DACv1/dac_lld.h"
 355              		.file 30 "../e-puck2_main-processor/ChibiOS//os/hal/include/ext.h"
 356              		.file 31 "../e-puck2_main-processor/ChibiOS//os/hal/ports/STM32/LLD/EXTIv1/ext_lld.h"
 357              		.file 32 "../e-puck2_main-processor/ChibiOS//os/hal/include/gpt.h"
 358              		.file 33 "../e-puck2_main-processor/ChibiOS//os/hal/ports/STM32/LLD/TIMv1/gpt_lld.h"
 359              		.file 34 "../e-puck2_main-processor/ChibiOS//os/hal/ports/STM32/LLD/TIMv1/stm32_tim.h"
 360              		.file 35 "../e-puck2_main-processor/ChibiOS//os/hal/include/i2c.h"
 361              		.file 36 "../e-puck2_main-processor/ChibiOS//os/hal/ports/STM32/LLD/I2Cv1/i2c_lld.h"
 362              		.file 37 "../e-puck2_main-processor/ChibiOS//os/hal/include/i2s.h"
 363              		.file 38 "../e-puck2_main-processor/ChibiOS//os/hal/ports/STM32/LLD/SPIv1/i2s_lld.h"
 364              		.file 39 "../e-puck2_main-processor/ChibiOS//os/hal/include/pwm.h"
 365              		.file 40 "../e-puck2_main-processor/ChibiOS//os/hal/ports/STM32/LLD/TIMv1/pwm_lld.h"
 366              		.file 41 "../e-puck2_main-processor/ChibiOS//os/hal/include/serial.h"
 367              		.file 42 "../e-puck2_main-processor/ChibiOS//os/hal/ports/STM32/LLD/USARTv1/serial_lld.h"
 368              		.file 43 "../e-puck2_main-processor/ChibiOS//os/hal/include/sdc.h"
 369              		.file 44 "../e-puck2_main-processor/ChibiOS//os/hal/ports/STM32/LLD/SDIOv1/sdc_lld.h"
 370              		.file 45 "../e-puck2_main-processor/ChibiOS//os/hal/include/spi.h"
 371              		.file 46 "../e-puck2_main-processor/ChibiOS//os/hal/ports/STM32/LLD/SPIv1/spi_lld.h"
 372              		.file 47 "../e-puck2_main-processor/ChibiOS//os/hal/include/usb.h"
 373              		.file 48 "../e-puck2_main-processor/ChibiOS//os/hal/ports/STM32/LLD/OTGv1/usb_lld.h"
 374              		.file 49 "../e-puck2_main-processor/ChibiOS//os/hal/ports/STM32/LLD/OTGv1/stm32_otg.h"