ARM GAS  C:\Users\25521\AppData\Local\Temp\ccKlTGzS.s 			page 1


   1              		.cpu cortex-m4
   2              		.eabi_attribute 27, 1
   3              		.eabi_attribute 28, 1
   4              		.eabi_attribute 20, 1
   5              		.eabi_attribute 21, 1
   6              		.eabi_attribute 23, 3
   7              		.eabi_attribute 24, 1
   8              		.eabi_attribute 25, 1
   9              		.eabi_attribute 26, 1
  10              		.eabi_attribute 30, 2
  11              		.eabi_attribute 34, 1
  12              		.eabi_attribute 18, 4
  13              		.file	"motors.c"
  14              		.text
  15              	.Ltext0:
  16              		.cfi_sections	.debug_frame
  17              		.section	.text.right_motor_update,"ax",%progbits
  18              		.align	1
  19              		.p2align 4,,15
  20              		.syntax unified
  21              		.thumb
  22              		.thumb_func
  23              		.fpu fpv4-sp-d16
  24              		.type	right_motor_update, %function
  25              	right_motor_update:
  26              	.LFB267:
  27              		.file 1 "../e-puck2_main-processor/src/motors.c"
  28              		.loc 1 52 0
  29              		.cfi_startproc
  30              		@ args = 0, pretend = 0, frame = 8
  31              		@ frame_needed = 0, uses_anonymous_args = 0
  32              	.LVL0:
  33 0000 00B5     		push	{lr}
  34              		.cfi_def_cfa_offset 4
  35              		.cfi_offset 14, -4
  36 0002 1F4B     		ldr	r3, .L17
  37              		.loc 1 54 0
  38 0004 0278     		ldrb	r2, [r0]	@ zero_extendqisi2
  39              		.loc 1 52 0
  40 0006 1968     		ldr	r1, [r3]
  41 0008 83B0     		sub	sp, sp, #12
  42              		.cfi_def_cfa_offset 16
  43              		.loc 1 52 0
  44 000a 0191     		str	r1, [sp, #4]
  45              		.loc 1 54 0
  46 000c E2B1     		cbz	r2, .L2
  47              		.loc 1 54 0 is_stmt 0 discriminator 1
  48 000e 1D4A     		ldr	r2, .L17+4
  49 0010 4FF40051 		mov	r1, #8192
  50 0014 1183     		strh	r1, [r2, #24]	@ movhi
  51              		.loc 1 55 0 is_stmt 1 discriminator 1
  52 0016 4278     		ldrb	r2, [r0, #1]	@ zero_extendqisi2
  53 0018 EAB1     		cbz	r2, .L4
  54              	.L15:
  55 001a 1A4A     		ldr	r2, .L17+4
  56 001c 4FF48051 		mov	r1, #4096
  57 0020 1183     		strh	r1, [r2, #24]	@ movhi
ARM GAS  C:\Users\25521\AppData\Local\Temp\ccKlTGzS.s 			page 2


  58              		.loc 1 56 0 discriminator 1
  59 0022 8278     		ldrb	r2, [r0, #2]	@ zero_extendqisi2
  60 0024 F2B1     		cbz	r2, .L6
  61              	.L16:
  62 0026 174A     		ldr	r2, .L17+4
  63 0028 4FF48041 		mov	r1, #16384
  64 002c 1183     		strh	r1, [r2, #24]	@ movhi
  65              		.loc 1 57 0 discriminator 1
  66 002e C278     		ldrb	r2, [r0, #3]	@ zero_extendqisi2
  67 0030 FAB9     		cbnz	r2, .L13
  68              	.L8:
  69              		.loc 1 57 0 is_stmt 0 discriminator 2
  70 0032 144A     		ldr	r2, .L17+4
  71 0034 4FF40041 		mov	r1, #32768
  72 0038 5183     		strh	r1, [r2, #26]	@ movhi
  73              	.L1:
  74              		.loc 1 58 0 is_stmt 1
  75 003a 019A     		ldr	r2, [sp, #4]
  76 003c 1B68     		ldr	r3, [r3]
  77 003e 9A42     		cmp	r2, r3
  78 0040 1CD1     		bne	.L14
  79 0042 03B0     		add	sp, sp, #12
  80              		.cfi_remember_state
  81              		.cfi_def_cfa_offset 4
  82              		@ sp needed
  83 0044 5DF804FB 		ldr	pc, [sp], #4
  84              	.L2:
  85              		.cfi_restore_state
  86              		.loc 1 54 0 discriminator 2
  87 0048 0E4A     		ldr	r2, .L17+4
  88 004a 4FF40051 		mov	r1, #8192
  89 004e 5183     		strh	r1, [r2, #26]	@ movhi
  90              		.loc 1 55 0 discriminator 2
  91 0050 4278     		ldrb	r2, [r0, #1]	@ zero_extendqisi2
  92 0052 002A     		cmp	r2, #0
  93 0054 E1D1     		bne	.L15
  94              	.L4:
  95 0056 0B4A     		ldr	r2, .L17+4
  96 0058 4FF48051 		mov	r1, #4096
  97 005c 5183     		strh	r1, [r2, #26]	@ movhi
  98              		.loc 1 56 0 discriminator 2
  99 005e 8278     		ldrb	r2, [r0, #2]	@ zero_extendqisi2
 100 0060 002A     		cmp	r2, #0
 101 0062 E0D1     		bne	.L16
 102              	.L6:
 103 0064 074A     		ldr	r2, .L17+4
 104 0066 4FF48041 		mov	r1, #16384
 105 006a 5183     		strh	r1, [r2, #26]	@ movhi
 106              		.loc 1 57 0 discriminator 2
 107 006c C278     		ldrb	r2, [r0, #3]	@ zero_extendqisi2
 108 006e 002A     		cmp	r2, #0
 109 0070 DFD0     		beq	.L8
 110              	.L13:
 111              		.loc 1 57 0 is_stmt 0 discriminator 1
 112 0072 044A     		ldr	r2, .L17+4
 113 0074 4FF40041 		mov	r1, #32768
 114 0078 1183     		strh	r1, [r2, #24]	@ movhi
ARM GAS  C:\Users\25521\AppData\Local\Temp\ccKlTGzS.s 			page 3


 115 007a DEE7     		b	.L1
 116              	.L14:
 117              		.loc 1 58 0 is_stmt 1
 118 007c FFF7FEFF 		bl	__stack_chk_fail
 119              	.LVL1:
 120              	.L18:
 121              		.align	2
 122              	.L17:
 123 0080 00000000 		.word	__stack_chk_guard
 124 0084 00100240 		.word	1073876992
 125              		.cfi_endproc
 126              	.LFE267:
 127              		.size	right_motor_update, .-right_motor_update
 128              		.section	.text.left_motor_update,"ax",%progbits
 129              		.align	1
 130              		.p2align 4,,15
 131              		.syntax unified
 132              		.thumb
 133              		.thumb_func
 134              		.fpu fpv4-sp-d16
 135              		.type	left_motor_update, %function
 136              	left_motor_update:
 137              	.LFB268:
 138              		.loc 1 67 0
 139              		.cfi_startproc
 140              		@ args = 0, pretend = 0, frame = 8
 141              		@ frame_needed = 0, uses_anonymous_args = 0
 142              	.LVL2:
 143 0000 00B5     		push	{lr}
 144              		.cfi_def_cfa_offset 4
 145              		.cfi_offset 14, -4
 146 0002 1F4B     		ldr	r3, .L34
 147              		.loc 1 69 0
 148 0004 0278     		ldrb	r2, [r0]	@ zero_extendqisi2
 149              		.loc 1 67 0
 150 0006 1968     		ldr	r1, [r3]
 151 0008 83B0     		sub	sp, sp, #12
 152              		.cfi_def_cfa_offset 16
 153              		.loc 1 67 0
 154 000a 0191     		str	r1, [sp, #4]
 155              		.loc 1 69 0
 156 000c E2B1     		cbz	r2, .L20
 157              		.loc 1 69 0 is_stmt 0 discriminator 1
 158 000e 1D4A     		ldr	r2, .L34+4
 159 0010 4FF40071 		mov	r1, #512
 160 0014 1183     		strh	r1, [r2, #24]	@ movhi
 161              		.loc 1 70 0 is_stmt 1 discriminator 1
 162 0016 4278     		ldrb	r2, [r0, #1]	@ zero_extendqisi2
 163 0018 EAB1     		cbz	r2, .L22
 164              	.L32:
 165 001a 1A4A     		ldr	r2, .L34+4
 166 001c 4FF48071 		mov	r1, #256
 167 0020 1183     		strh	r1, [r2, #24]	@ movhi
 168              		.loc 1 71 0 discriminator 1
 169 0022 8278     		ldrb	r2, [r0, #2]	@ zero_extendqisi2
 170 0024 F2B1     		cbz	r2, .L24
 171              	.L33:
ARM GAS  C:\Users\25521\AppData\Local\Temp\ccKlTGzS.s 			page 4


 172 0026 174A     		ldr	r2, .L34+4
 173 0028 4FF40061 		mov	r1, #2048
 174 002c 1183     		strh	r1, [r2, #24]	@ movhi
 175              		.loc 1 72 0 discriminator 1
 176 002e C278     		ldrb	r2, [r0, #3]	@ zero_extendqisi2
 177 0030 FAB9     		cbnz	r2, .L30
 178              	.L26:
 179              		.loc 1 72 0 is_stmt 0 discriminator 2
 180 0032 144A     		ldr	r2, .L34+4
 181 0034 4FF48061 		mov	r1, #1024
 182 0038 5183     		strh	r1, [r2, #26]	@ movhi
 183              	.L19:
 184              		.loc 1 73 0 is_stmt 1
 185 003a 019A     		ldr	r2, [sp, #4]
 186 003c 1B68     		ldr	r3, [r3]
 187 003e 9A42     		cmp	r2, r3
 188 0040 1CD1     		bne	.L31
 189 0042 03B0     		add	sp, sp, #12
 190              		.cfi_remember_state
 191              		.cfi_def_cfa_offset 4
 192              		@ sp needed
 193 0044 5DF804FB 		ldr	pc, [sp], #4
 194              	.L20:
 195              		.cfi_restore_state
 196              		.loc 1 69 0 discriminator 2
 197 0048 0E4A     		ldr	r2, .L34+4
 198 004a 4FF40071 		mov	r1, #512
 199 004e 5183     		strh	r1, [r2, #26]	@ movhi
 200              		.loc 1 70 0 discriminator 2
 201 0050 4278     		ldrb	r2, [r0, #1]	@ zero_extendqisi2
 202 0052 002A     		cmp	r2, #0
 203 0054 E1D1     		bne	.L32
 204              	.L22:
 205 0056 0B4A     		ldr	r2, .L34+4
 206 0058 4FF48071 		mov	r1, #256
 207 005c 5183     		strh	r1, [r2, #26]	@ movhi
 208              		.loc 1 71 0 discriminator 2
 209 005e 8278     		ldrb	r2, [r0, #2]	@ zero_extendqisi2
 210 0060 002A     		cmp	r2, #0
 211 0062 E0D1     		bne	.L33
 212              	.L24:
 213 0064 074A     		ldr	r2, .L34+4
 214 0066 4FF40061 		mov	r1, #2048
 215 006a 5183     		strh	r1, [r2, #26]	@ movhi
 216              		.loc 1 72 0 discriminator 2
 217 006c C278     		ldrb	r2, [r0, #3]	@ zero_extendqisi2
 218 006e 002A     		cmp	r2, #0
 219 0070 DFD0     		beq	.L26
 220              	.L30:
 221              		.loc 1 72 0 is_stmt 0 discriminator 1
 222 0072 044A     		ldr	r2, .L34+4
 223 0074 4FF48061 		mov	r1, #1024
 224 0078 1183     		strh	r1, [r2, #24]	@ movhi
 225 007a DEE7     		b	.L19
 226              	.L31:
 227              		.loc 1 73 0 is_stmt 1
 228 007c FFF7FEFF 		bl	__stack_chk_fail
ARM GAS  C:\Users\25521\AppData\Local\Temp\ccKlTGzS.s 			page 5


 229              	.LVL3:
 230              	.L35:
 231              		.align	2
 232              	.L34:
 233 0080 00000000 		.word	__stack_chk_guard
 234 0084 00100240 		.word	1073876992
 235              		.cfi_endproc
 236              	.LFE268:
 237              		.size	left_motor_update, .-left_motor_update
 238              		.section	.text.right_motor_pwm_ch1_cb,"ax",%progbits
 239              		.align	1
 240              		.p2align 4,,15
 241              		.syntax unified
 242              		.thumb
 243              		.thumb_func
 244              		.fpu fpv4-sp-d16
 245              		.type	right_motor_pwm_ch1_cb, %function
 246              	right_motor_pwm_ch1_cb:
 247              	.LFB271:
 248              		.loc 1 132 0
 249              		.cfi_startproc
 250              		@ args = 0, pretend = 0, frame = 8
 251              		@ frame_needed = 0, uses_anonymous_args = 0
 252              	.LVL4:
 253 0000 30B5     		push	{r4, r5, lr}
 254              		.cfi_def_cfa_offset 12
 255              		.cfi_offset 4, -12
 256              		.cfi_offset 5, -8
 257              		.cfi_offset 14, -4
 258 0002 0C4A     		ldr	r2, .L40
 259              		.loc 1 134 0
 260 0004 0C4B     		ldr	r3, .L40+4
 261              		.loc 1 132 0
 262 0006 1168     		ldr	r1, [r2]
 263 0008 83B0     		sub	sp, sp, #12
 264              		.cfi_def_cfa_offset 24
 265              		.loc 1 134 0
 266 000a 4FF40055 		mov	r5, #8192
 267              		.loc 1 132 0
 268 000e 0191     		str	r1, [sp, #4]
 269              		.loc 1 135 0
 270 0010 4FF48054 		mov	r4, #4096
 271              		.loc 1 137 0
 272 0014 4FF40041 		mov	r1, #32768
 273              		.loc 1 136 0
 274 0018 4FF48040 		mov	r0, #16384
 275              	.LVL5:
 276              		.loc 1 134 0
 277 001c 5D83     		strh	r5, [r3, #26]	@ movhi
 278              		.loc 1 135 0
 279 001e 5C83     		strh	r4, [r3, #26]	@ movhi
 280              		.loc 1 136 0
 281 0020 5883     		strh	r0, [r3, #26]	@ movhi
 282              		.loc 1 137 0
 283 0022 5983     		strh	r1, [r3, #26]	@ movhi
 284              		.loc 1 138 0
 285 0024 0199     		ldr	r1, [sp, #4]
ARM GAS  C:\Users\25521\AppData\Local\Temp\ccKlTGzS.s 			page 6


 286 0026 1368     		ldr	r3, [r2]
 287 0028 9942     		cmp	r1, r3
 288 002a 01D1     		bne	.L39
 289 002c 03B0     		add	sp, sp, #12
 290              		.cfi_remember_state
 291              		.cfi_def_cfa_offset 12
 292              		@ sp needed
 293 002e 30BD     		pop	{r4, r5, pc}
 294              	.L39:
 295              		.cfi_restore_state
 296 0030 FFF7FEFF 		bl	__stack_chk_fail
 297              	.LVL6:
 298              	.L41:
 299              		.align	2
 300              	.L40:
 301 0034 00000000 		.word	__stack_chk_guard
 302 0038 00100240 		.word	1073876992
 303              		.cfi_endproc
 304              	.LFE271:
 305              		.size	right_motor_pwm_ch1_cb, .-right_motor_pwm_ch1_cb
 306              		.section	.text.left_motor_pwm_ch1_cb,"ax",%progbits
 307              		.align	1
 308              		.p2align 4,,15
 309              		.syntax unified
 310              		.thumb
 311              		.thumb_func
 312              		.fpu fpv4-sp-d16
 313              		.type	left_motor_pwm_ch1_cb, %function
 314              	left_motor_pwm_ch1_cb:
 315              	.LFB272:
 316              		.loc 1 147 0
 317              		.cfi_startproc
 318              		@ args = 0, pretend = 0, frame = 8
 319              		@ frame_needed = 0, uses_anonymous_args = 0
 320              	.LVL7:
 321 0000 30B5     		push	{r4, r5, lr}
 322              		.cfi_def_cfa_offset 12
 323              		.cfi_offset 4, -12
 324              		.cfi_offset 5, -8
 325              		.cfi_offset 14, -4
 326 0002 0C4A     		ldr	r2, .L46
 327              		.loc 1 149 0
 328 0004 0C4B     		ldr	r3, .L46+4
 329              		.loc 1 147 0
 330 0006 1168     		ldr	r1, [r2]
 331 0008 83B0     		sub	sp, sp, #12
 332              		.cfi_def_cfa_offset 24
 333              		.loc 1 149 0
 334 000a 4FF40075 		mov	r5, #512
 335              		.loc 1 147 0
 336 000e 0191     		str	r1, [sp, #4]
 337              		.loc 1 150 0
 338 0010 4FF48074 		mov	r4, #256
 339              		.loc 1 152 0
 340 0014 4FF48061 		mov	r1, #1024
 341              		.loc 1 151 0
 342 0018 4FF40060 		mov	r0, #2048
ARM GAS  C:\Users\25521\AppData\Local\Temp\ccKlTGzS.s 			page 7


 343              	.LVL8:
 344              		.loc 1 149 0
 345 001c 5D83     		strh	r5, [r3, #26]	@ movhi
 346              		.loc 1 150 0
 347 001e 5C83     		strh	r4, [r3, #26]	@ movhi
 348              		.loc 1 151 0
 349 0020 5883     		strh	r0, [r3, #26]	@ movhi
 350              		.loc 1 152 0
 351 0022 5983     		strh	r1, [r3, #26]	@ movhi
 352              		.loc 1 153 0
 353 0024 0199     		ldr	r1, [sp, #4]
 354 0026 1368     		ldr	r3, [r2]
 355 0028 9942     		cmp	r1, r3
 356 002a 01D1     		bne	.L45
 357 002c 03B0     		add	sp, sp, #12
 358              		.cfi_remember_state
 359              		.cfi_def_cfa_offset 12
 360              		@ sp needed
 361 002e 30BD     		pop	{r4, r5, pc}
 362              	.L45:
 363              		.cfi_restore_state
 364 0030 FFF7FEFF 		bl	__stack_chk_fail
 365              	.LVL9:
 366              	.L47:
 367              		.align	2
 368              	.L46:
 369 0034 00000000 		.word	__stack_chk_guard
 370 0038 00100240 		.word	1073876992
 371              		.cfi_endproc
 372              	.LFE272:
 373              		.size	left_motor_pwm_ch1_cb, .-left_motor_pwm_ch1_cb
 374              		.section	.text.right_motor_enable_power_save,"ax",%progbits
 375              		.align	1
 376              		.p2align 4,,15
 377              		.global	right_motor_enable_power_save
 378              		.syntax unified
 379              		.thumb
 380              		.thumb_func
 381              		.fpu fpv4-sp-d16
 382              		.type	right_motor_enable_power_save, %function
 383              	right_motor_enable_power_save:
 384              	.LFB273:
 385              		.loc 1 158 0
 386              		.cfi_startproc
 387              		@ args = 0, pretend = 0, frame = 8
 388              		@ frame_needed = 0, uses_anonymous_args = 0
 389 0000 10B5     		push	{r4, lr}
 390              		.cfi_def_cfa_offset 8
 391              		.cfi_offset 4, -8
 392              		.cfi_offset 14, -4
 393 0002 0B4C     		ldr	r4, .L53
 394              		.loc 1 160 0
 395 0004 0B48     		ldr	r0, .L53+4
 396              		.loc 1 158 0
 397 0006 2368     		ldr	r3, [r4]
 398 0008 82B0     		sub	sp, sp, #8
 399              		.cfi_def_cfa_offset 16
ARM GAS  C:\Users\25521\AppData\Local\Temp\ccKlTGzS.s 			page 8


 400              		.loc 1 160 0
 401 000a 9922     		movs	r2, #153
 402 000c 0021     		movs	r1, #0
 403              		.loc 1 158 0
 404 000e 0193     		str	r3, [sp, #4]
 405              		.loc 1 160 0
 406 0010 FFF7FEFF 		bl	pwmEnableChannel
 407              	.LVL10:
 408              		.loc 1 162 0
 409 0014 019A     		ldr	r2, [sp, #4]
 410 0016 2368     		ldr	r3, [r4]
 411 0018 9A42     		cmp	r2, r3
 412 001a 06D1     		bne	.L52
 413 001c 0548     		ldr	r0, .L53+4
 414 001e 0021     		movs	r1, #0
 415              		.loc 1 163 0
 416 0020 02B0     		add	sp, sp, #8
 417              		.cfi_remember_state
 418              		.cfi_def_cfa_offset 8
 419              		@ sp needed
 420 0022 BDE81040 		pop	{r4, lr}
 421              		.cfi_restore 14
 422              		.cfi_restore 4
 423              		.cfi_def_cfa_offset 0
 424              		.loc 1 162 0
 425 0026 FFF7FEBF 		b	pwmEnableChannelNotification
 426              	.LVL11:
 427              	.L52:
 428              		.cfi_restore_state
 429 002a FFF7FEFF 		bl	__stack_chk_fail
 430              	.LVL12:
 431              	.L54:
 432 002e 00BF     		.align	2
 433              	.L53:
 434 0030 00000000 		.word	__stack_chk_guard
 435 0034 00000000 		.word	PWMD3
 436              		.cfi_endproc
 437              	.LFE273:
 438              		.size	right_motor_enable_power_save, .-right_motor_enable_power_save
 439              		.section	.text.left_motor_enable_power_save,"ax",%progbits
 440              		.align	1
 441              		.p2align 4,,15
 442              		.global	left_motor_enable_power_save
 443              		.syntax unified
 444              		.thumb
 445              		.thumb_func
 446              		.fpu fpv4-sp-d16
 447              		.type	left_motor_enable_power_save, %function
 448              	left_motor_enable_power_save:
 449              	.LFB274:
 450              		.loc 1 168 0
 451              		.cfi_startproc
 452              		@ args = 0, pretend = 0, frame = 8
 453              		@ frame_needed = 0, uses_anonymous_args = 0
 454 0000 10B5     		push	{r4, lr}
 455              		.cfi_def_cfa_offset 8
 456              		.cfi_offset 4, -8
ARM GAS  C:\Users\25521\AppData\Local\Temp\ccKlTGzS.s 			page 9


 457              		.cfi_offset 14, -4
 458 0002 0B4C     		ldr	r4, .L60
 459              		.loc 1 170 0
 460 0004 0B48     		ldr	r0, .L60+4
 461              		.loc 1 168 0
 462 0006 2368     		ldr	r3, [r4]
 463 0008 82B0     		sub	sp, sp, #8
 464              		.cfi_def_cfa_offset 16
 465              		.loc 1 170 0
 466 000a 9922     		movs	r2, #153
 467 000c 0021     		movs	r1, #0
 468              		.loc 1 168 0
 469 000e 0193     		str	r3, [sp, #4]
 470              		.loc 1 170 0
 471 0010 FFF7FEFF 		bl	pwmEnableChannel
 472              	.LVL13:
 473              		.loc 1 172 0
 474 0014 019A     		ldr	r2, [sp, #4]
 475 0016 2368     		ldr	r3, [r4]
 476 0018 9A42     		cmp	r2, r3
 477 001a 06D1     		bne	.L59
 478 001c 0548     		ldr	r0, .L60+4
 479 001e 0021     		movs	r1, #0
 480              		.loc 1 173 0
 481 0020 02B0     		add	sp, sp, #8
 482              		.cfi_remember_state
 483              		.cfi_def_cfa_offset 8
 484              		@ sp needed
 485 0022 BDE81040 		pop	{r4, lr}
 486              		.cfi_restore 14
 487              		.cfi_restore 4
 488              		.cfi_def_cfa_offset 0
 489              		.loc 1 172 0
 490 0026 FFF7FEBF 		b	pwmEnableChannelNotification
 491              	.LVL14:
 492              	.L59:
 493              		.cfi_restore_state
 494 002a FFF7FEFF 		bl	__stack_chk_fail
 495              	.LVL15:
 496              	.L61:
 497 002e 00BF     		.align	2
 498              	.L60:
 499 0030 00000000 		.word	__stack_chk_guard
 500 0034 00000000 		.word	PWMD4
 501              		.cfi_endproc
 502              	.LFE274:
 503              		.size	left_motor_enable_power_save, .-left_motor_enable_power_save
 504              		.section	.text.right_motor_disable_power_save,"ax",%progbits
 505              		.align	1
 506              		.p2align 4,,15
 507              		.global	right_motor_disable_power_save
 508              		.syntax unified
 509              		.thumb
 510              		.thumb_func
 511              		.fpu fpv4-sp-d16
 512              		.type	right_motor_disable_power_save, %function
 513              	right_motor_disable_power_save:
ARM GAS  C:\Users\25521\AppData\Local\Temp\ccKlTGzS.s 			page 10


 514              	.LFB275:
 515              		.loc 1 178 0
 516              		.cfi_startproc
 517              		@ args = 0, pretend = 0, frame = 8
 518              		@ frame_needed = 0, uses_anonymous_args = 0
 519 0000 00B5     		push	{lr}
 520              		.cfi_def_cfa_offset 4
 521              		.cfi_offset 14, -4
 522 0002 084B     		ldr	r3, .L67
 523 0004 83B0     		sub	sp, sp, #12
 524              		.cfi_def_cfa_offset 16
 525              		.loc 1 178 0
 526 0006 1A68     		ldr	r2, [r3]
 527 0008 0192     		str	r2, [sp, #4]
 528              		.loc 1 179 0
 529 000a 019A     		ldr	r2, [sp, #4]
 530 000c 1B68     		ldr	r3, [r3]
 531 000e 9A42     		cmp	r2, r3
 532 0010 06D1     		bne	.L66
 533 0012 0548     		ldr	r0, .L67+4
 534 0014 0021     		movs	r1, #0
 535              		.loc 1 180 0
 536 0016 03B0     		add	sp, sp, #12
 537              		.cfi_remember_state
 538              		.cfi_def_cfa_offset 4
 539              		@ sp needed
 540 0018 5DF804EB 		ldr	lr, [sp], #4
 541              		.cfi_restore 14
 542              		.cfi_def_cfa_offset 0
 543              		.loc 1 179 0
 544 001c FFF7FEBF 		b	pwmDisableChannel
 545              	.LVL16:
 546              	.L66:
 547              		.cfi_restore_state
 548 0020 FFF7FEFF 		bl	__stack_chk_fail
 549              	.LVL17:
 550              	.L68:
 551              		.align	2
 552              	.L67:
 553 0024 00000000 		.word	__stack_chk_guard
 554 0028 00000000 		.word	PWMD3
 555              		.cfi_endproc
 556              	.LFE275:
 557              		.size	right_motor_disable_power_save, .-right_motor_disable_power_save
 558              		.section	.text.left_motor_disable_power_save,"ax",%progbits
 559              		.align	1
 560              		.p2align 4,,15
 561              		.global	left_motor_disable_power_save
 562              		.syntax unified
 563              		.thumb
 564              		.thumb_func
 565              		.fpu fpv4-sp-d16
 566              		.type	left_motor_disable_power_save, %function
 567              	left_motor_disable_power_save:
 568              	.LFB276:
 569              		.loc 1 185 0
 570              		.cfi_startproc
ARM GAS  C:\Users\25521\AppData\Local\Temp\ccKlTGzS.s 			page 11


 571              		@ args = 0, pretend = 0, frame = 8
 572              		@ frame_needed = 0, uses_anonymous_args = 0
 573 0000 00B5     		push	{lr}
 574              		.cfi_def_cfa_offset 4
 575              		.cfi_offset 14, -4
 576 0002 084B     		ldr	r3, .L74
 577 0004 83B0     		sub	sp, sp, #12
 578              		.cfi_def_cfa_offset 16
 579              		.loc 1 185 0
 580 0006 1A68     		ldr	r2, [r3]
 581 0008 0192     		str	r2, [sp, #4]
 582              		.loc 1 186 0
 583 000a 019A     		ldr	r2, [sp, #4]
 584 000c 1B68     		ldr	r3, [r3]
 585 000e 9A42     		cmp	r2, r3
 586 0010 06D1     		bne	.L73
 587 0012 0548     		ldr	r0, .L74+4
 588 0014 0021     		movs	r1, #0
 589              		.loc 1 187 0
 590 0016 03B0     		add	sp, sp, #12
 591              		.cfi_remember_state
 592              		.cfi_def_cfa_offset 4
 593              		@ sp needed
 594 0018 5DF804EB 		ldr	lr, [sp], #4
 595              		.cfi_restore 14
 596              		.cfi_def_cfa_offset 0
 597              		.loc 1 186 0
 598 001c FFF7FEBF 		b	pwmDisableChannel
 599              	.LVL18:
 600              	.L73:
 601              		.cfi_restore_state
 602 0020 FFF7FEFF 		bl	__stack_chk_fail
 603              	.LVL19:
 604              	.L75:
 605              		.align	2
 606              	.L74:
 607 0024 00000000 		.word	__stack_chk_guard
 608 0028 00000000 		.word	PWMD4
 609              		.cfi_endproc
 610              	.LFE276:
 611              		.size	left_motor_disable_power_save, .-left_motor_disable_power_save
 612              		.section	.text.right_motor_timer_callback,"ax",%progbits
 613              		.align	1
 614              		.p2align 4,,15
 615              		.syntax unified
 616              		.thumb
 617              		.thumb_func
 618              		.fpu fpv4-sp-d16
 619              		.type	right_motor_timer_callback, %function
 620              	right_motor_timer_callback:
 621              	.LFB269:
 622              		.loc 1 82 0
 623              		.cfi_startproc
 624              		@ args = 0, pretend = 0, frame = 8
 625              		@ frame_needed = 0, uses_anonymous_args = 0
 626              	.LVL20:
 627 0000 70B5     		push	{r4, r5, r6, lr}
ARM GAS  C:\Users\25521\AppData\Local\Temp\ccKlTGzS.s 			page 12


 628              		.cfi_def_cfa_offset 16
 629              		.cfi_offset 4, -16
 630              		.cfi_offset 5, -12
 631              		.cfi_offset 6, -8
 632              		.cfi_offset 14, -4
 633              		.loc 1 85 0
 634 0002 1A4C     		ldr	r4, .L85
 635              		.loc 1 82 0
 636 0004 1A4E     		ldr	r6, .L85+4
 637              		.loc 1 85 0
 638 0006 2378     		ldrb	r3, [r4]	@ zero_extendqisi2
 639              		.loc 1 82 0
 640 0008 3268     		ldr	r2, [r6]
 641 000a 82B0     		sub	sp, sp, #8
 642              		.cfi_def_cfa_offset 24
 643              		.loc 1 85 0
 644 000c 022B     		cmp	r3, #2
 645              		.loc 1 82 0
 646 000e 0192     		str	r2, [sp, #4]
 647 0010 A268     		ldr	r2, [r4, #8]
 648              		.loc 1 85 0
 649 0012 11D1     		bne	.L77
 650              		.loc 1 86 0
 651 0014 6578     		ldrb	r5, [r4, #1]	@ zero_extendqisi2
 652              		.loc 1 87 0
 653 0016 1748     		ldr	r0, .L85+8
 654              	.LVL21:
 655              		.loc 1 86 0
 656 0018 0135     		adds	r5, r5, #1
 657 001a 05F00705 		and	r5, r5, #7
 658              	.LVL22:
 659              		.loc 1 87 0
 660 001e 00EB8500 		add	r0, r0, r5, lsl #2
 661 0022 9047     		blx	r2
 662              	.LVL23:
 663              		.loc 1 88 0
 664 0024 6368     		ldr	r3, [r4, #4]
 665              		.loc 1 89 0
 666 0026 6570     		strb	r5, [r4, #1]
 667              		.loc 1 88 0
 668 0028 013B     		subs	r3, r3, #1
 669 002a 6360     		str	r3, [r4, #4]
 670              	.LVL24:
 671              	.L76:
 672              		.loc 1 98 0
 673 002c 019A     		ldr	r2, [sp, #4]
 674 002e 3368     		ldr	r3, [r6]
 675 0030 9A42     		cmp	r2, r3
 676 0032 19D1     		bne	.L83
 677 0034 02B0     		add	sp, sp, #8
 678              		.cfi_remember_state
 679              		.cfi_def_cfa_offset 16
 680              		@ sp needed
 681 0036 70BD     		pop	{r4, r5, r6, pc}
 682              	.LVL25:
 683              	.L77:
 684              		.cfi_restore_state
ARM GAS  C:\Users\25521\AppData\Local\Temp\ccKlTGzS.s 			page 13


 685              		.loc 1 90 0
 686 0038 012B     		cmp	r3, #1
 687 003a 08D0     		beq	.L84
 688              		.loc 1 96 0
 689 003c 0199     		ldr	r1, [sp, #4]
 690 003e 3368     		ldr	r3, [r6]
 691 0040 9942     		cmp	r1, r3
 692 0042 11D1     		bne	.L83
 693 0044 0C48     		ldr	r0, .L85+12
 694              	.LVL26:
 695              		.loc 1 98 0
 696 0046 02B0     		add	sp, sp, #8
 697              		.cfi_remember_state
 698              		.cfi_def_cfa_offset 16
 699              		@ sp needed
 700 0048 BDE87040 		pop	{r4, r5, r6, lr}
 701              		.cfi_restore 14
 702              		.cfi_restore 6
 703              		.cfi_restore 5
 704              		.cfi_restore 4
 705              		.cfi_def_cfa_offset 0
 706              		.loc 1 96 0
 707 004c 1047     		bx	r2	@ indirect register sibling call
 708              	.LVL27:
 709              	.L84:
 710              		.cfi_restore_state
 711              	.LBB4:
 712              	.LBB5:
 713              		.loc 1 91 0
 714 004e 6578     		ldrb	r5, [r4, #1]	@ zero_extendqisi2
 715              		.loc 1 92 0
 716 0050 0848     		ldr	r0, .L85+8
 717              	.LVL28:
 718              		.loc 1 91 0
 719 0052 013D     		subs	r5, r5, #1
 720 0054 05F00705 		and	r5, r5, #7
 721              	.LVL29:
 722              		.loc 1 92 0
 723 0058 00EB8500 		add	r0, r0, r5, lsl #2
 724 005c 9047     		blx	r2
 725              	.LVL30:
 726              		.loc 1 93 0
 727 005e 6368     		ldr	r3, [r4, #4]
 728              		.loc 1 94 0
 729 0060 6570     		strb	r5, [r4, #1]
 730              		.loc 1 93 0
 731 0062 0133     		adds	r3, r3, #1
 732 0064 6360     		str	r3, [r4, #4]
 733 0066 E1E7     		b	.L76
 734              	.LVL31:
 735              	.L83:
 736              	.LBE5:
 737              	.LBE4:
 738              		.loc 1 98 0
 739 0068 FFF7FEFF 		bl	__stack_chk_fail
 740              	.LVL32:
 741              	.L86:
ARM GAS  C:\Users\25521\AppData\Local\Temp\ccKlTGzS.s 			page 14


 742              		.align	2
 743              	.L85:
 744 006c 00000000 		.word	.LANCHOR0
 745 0070 00000000 		.word	__stack_chk_guard
 746 0074 00000000 		.word	.LANCHOR1
 747 0078 00000000 		.word	.LANCHOR2
 748              		.cfi_endproc
 749              	.LFE269:
 750              		.size	right_motor_timer_callback, .-right_motor_timer_callback
 751              		.section	.text.left_motor_timer_callback,"ax",%progbits
 752              		.align	1
 753              		.p2align 4,,15
 754              		.syntax unified
 755              		.thumb
 756              		.thumb_func
 757              		.fpu fpv4-sp-d16
 758              		.type	left_motor_timer_callback, %function
 759              	left_motor_timer_callback:
 760              	.LFB270:
 761              		.loc 1 107 0
 762              		.cfi_startproc
 763              		@ args = 0, pretend = 0, frame = 8
 764              		@ frame_needed = 0, uses_anonymous_args = 0
 765              	.LVL33:
 766 0000 70B5     		push	{r4, r5, r6, lr}
 767              		.cfi_def_cfa_offset 16
 768              		.cfi_offset 4, -16
 769              		.cfi_offset 5, -12
 770              		.cfi_offset 6, -8
 771              		.cfi_offset 14, -4
 772              		.loc 1 110 0
 773 0002 1A4C     		ldr	r4, .L96
 774              		.loc 1 107 0
 775 0004 1A4E     		ldr	r6, .L96+4
 776              		.loc 1 110 0
 777 0006 2378     		ldrb	r3, [r4]	@ zero_extendqisi2
 778              		.loc 1 107 0
 779 0008 3268     		ldr	r2, [r6]
 780 000a 82B0     		sub	sp, sp, #8
 781              		.cfi_def_cfa_offset 24
 782              		.loc 1 110 0
 783 000c 012B     		cmp	r3, #1
 784              		.loc 1 107 0
 785 000e 0192     		str	r2, [sp, #4]
 786 0010 A268     		ldr	r2, [r4, #8]
 787              		.loc 1 110 0
 788 0012 11D1     		bne	.L88
 789              		.loc 1 111 0
 790 0014 6578     		ldrb	r5, [r4, #1]	@ zero_extendqisi2
 791              		.loc 1 112 0
 792 0016 1748     		ldr	r0, .L96+8
 793              	.LVL34:
 794              		.loc 1 111 0
 795 0018 0135     		adds	r5, r5, #1
 796 001a 05F00705 		and	r5, r5, #7
 797              	.LVL35:
 798              		.loc 1 112 0
ARM GAS  C:\Users\25521\AppData\Local\Temp\ccKlTGzS.s 			page 15


 799 001e 00EB8500 		add	r0, r0, r5, lsl #2
 800 0022 9047     		blx	r2
 801              	.LVL36:
 802              		.loc 1 113 0
 803 0024 6368     		ldr	r3, [r4, #4]
 804              		.loc 1 114 0
 805 0026 6570     		strb	r5, [r4, #1]
 806              		.loc 1 113 0
 807 0028 0133     		adds	r3, r3, #1
 808 002a 6360     		str	r3, [r4, #4]
 809              	.LVL37:
 810              	.L87:
 811              		.loc 1 123 0
 812 002c 019A     		ldr	r2, [sp, #4]
 813 002e 3368     		ldr	r3, [r6]
 814 0030 9A42     		cmp	r2, r3
 815 0032 19D1     		bne	.L94
 816 0034 02B0     		add	sp, sp, #8
 817              		.cfi_remember_state
 818              		.cfi_def_cfa_offset 16
 819              		@ sp needed
 820 0036 70BD     		pop	{r4, r5, r6, pc}
 821              	.LVL38:
 822              	.L88:
 823              		.cfi_restore_state
 824              		.loc 1 115 0
 825 0038 022B     		cmp	r3, #2
 826 003a 08D0     		beq	.L95
 827              		.loc 1 121 0
 828 003c 0199     		ldr	r1, [sp, #4]
 829 003e 3368     		ldr	r3, [r6]
 830 0040 9942     		cmp	r1, r3
 831 0042 11D1     		bne	.L94
 832 0044 0C48     		ldr	r0, .L96+12
 833              	.LVL39:
 834              		.loc 1 123 0
 835 0046 02B0     		add	sp, sp, #8
 836              		.cfi_remember_state
 837              		.cfi_def_cfa_offset 16
 838              		@ sp needed
 839 0048 BDE87040 		pop	{r4, r5, r6, lr}
 840              		.cfi_restore 14
 841              		.cfi_restore 6
 842              		.cfi_restore 5
 843              		.cfi_restore 4
 844              		.cfi_def_cfa_offset 0
 845              		.loc 1 121 0
 846 004c 1047     		bx	r2	@ indirect register sibling call
 847              	.LVL40:
 848              	.L95:
 849              		.cfi_restore_state
 850              	.LBB8:
 851              	.LBB9:
 852              		.loc 1 116 0
 853 004e 6578     		ldrb	r5, [r4, #1]	@ zero_extendqisi2
 854              		.loc 1 117 0
 855 0050 0848     		ldr	r0, .L96+8
ARM GAS  C:\Users\25521\AppData\Local\Temp\ccKlTGzS.s 			page 16


 856              	.LVL41:
 857              		.loc 1 116 0
 858 0052 013D     		subs	r5, r5, #1
 859 0054 05F00705 		and	r5, r5, #7
 860              	.LVL42:
 861              		.loc 1 117 0
 862 0058 00EB8500 		add	r0, r0, r5, lsl #2
 863 005c 9047     		blx	r2
 864              	.LVL43:
 865              		.loc 1 118 0
 866 005e 6368     		ldr	r3, [r4, #4]
 867              		.loc 1 119 0
 868 0060 6570     		strb	r5, [r4, #1]
 869              		.loc 1 118 0
 870 0062 013B     		subs	r3, r3, #1
 871 0064 6360     		str	r3, [r4, #4]
 872 0066 E1E7     		b	.L87
 873              	.LVL44:
 874              	.L94:
 875              	.LBE9:
 876              	.LBE8:
 877              		.loc 1 123 0
 878 0068 FFF7FEFF 		bl	__stack_chk_fail
 879              	.LVL45:
 880              	.L97:
 881              		.align	2
 882              	.L96:
 883 006c 00000000 		.word	.LANCHOR3
 884 0070 00000000 		.word	__stack_chk_guard
 885 0074 00000000 		.word	.LANCHOR1
 886 0078 00000000 		.word	.LANCHOR2
 887              		.cfi_endproc
 888              	.LFE270:
 889              		.size	left_motor_timer_callback, .-left_motor_timer_callback
 890              		.section	.text.left_motor_get_pos,"ax",%progbits
 891              		.align	1
 892              		.p2align 4,,15
 893              		.global	left_motor_get_pos
 894              		.syntax unified
 895              		.thumb
 896              		.thumb_func
 897              		.fpu fpv4-sp-d16
 898              		.type	left_motor_get_pos, %function
 899              	left_motor_get_pos:
 900              	.LFB279:
 901              		.loc 1 210 0
 902              		.cfi_startproc
 903              		@ args = 0, pretend = 0, frame = 8
 904              		@ frame_needed = 0, uses_anonymous_args = 0
 905 0000 00B5     		push	{lr}
 906              		.cfi_def_cfa_offset 4
 907              		.cfi_offset 14, -4
 908 0002 094B     		ldr	r3, .L102
 909              		.loc 1 211 0
 910 0004 094A     		ldr	r2, .L102+4
 911              		.loc 1 210 0
 912 0006 1968     		ldr	r1, [r3]
ARM GAS  C:\Users\25521\AppData\Local\Temp\ccKlTGzS.s 			page 17


 913              		.loc 1 211 0
 914 0008 5068     		ldr	r0, [r2, #4]
 915              		.loc 1 210 0
 916 000a 83B0     		sub	sp, sp, #12
 917              		.cfi_def_cfa_offset 16
 918              		.loc 1 211 0
 919 000c 00EBD070 		add	r0, r0, r0, lsr #31
 920              		.loc 1 210 0
 921 0010 0191     		str	r1, [sp, #4]
 922              		.loc 1 212 0
 923 0012 019A     		ldr	r2, [sp, #4]
 924 0014 1B68     		ldr	r3, [r3]
 925 0016 9A42     		cmp	r2, r3
 926 0018 03D1     		bne	.L101
 927 001a 4010     		asrs	r0, r0, #1
 928 001c 03B0     		add	sp, sp, #12
 929              		.cfi_remember_state
 930              		.cfi_def_cfa_offset 4
 931              		@ sp needed
 932 001e 5DF804FB 		ldr	pc, [sp], #4
 933              	.L101:
 934              		.cfi_restore_state
 935 0022 FFF7FEFF 		bl	__stack_chk_fail
 936              	.LVL46:
 937              	.L103:
 938 0026 00BF     		.align	2
 939              	.L102:
 940 0028 00000000 		.word	__stack_chk_guard
 941 002c 00000000 		.word	.LANCHOR3
 942              		.cfi_endproc
 943              	.LFE279:
 944              		.size	left_motor_get_pos, .-left_motor_get_pos
 945              		.section	.text.right_motor_get_pos,"ax",%progbits
 946              		.align	1
 947              		.p2align 4,,15
 948              		.global	right_motor_get_pos
 949              		.syntax unified
 950              		.thumb
 951              		.thumb_func
 952              		.fpu fpv4-sp-d16
 953              		.type	right_motor_get_pos, %function
 954              	right_motor_get_pos:
 955              	.LFB280:
 956              		.loc 1 214 0
 957              		.cfi_startproc
 958              		@ args = 0, pretend = 0, frame = 8
 959              		@ frame_needed = 0, uses_anonymous_args = 0
 960 0000 00B5     		push	{lr}
 961              		.cfi_def_cfa_offset 4
 962              		.cfi_offset 14, -4
 963 0002 094B     		ldr	r3, .L108
 964              		.loc 1 215 0
 965 0004 094A     		ldr	r2, .L108+4
 966              		.loc 1 214 0
 967 0006 1968     		ldr	r1, [r3]
 968              		.loc 1 215 0
 969 0008 5068     		ldr	r0, [r2, #4]
ARM GAS  C:\Users\25521\AppData\Local\Temp\ccKlTGzS.s 			page 18


 970              		.loc 1 214 0
 971 000a 83B0     		sub	sp, sp, #12
 972              		.cfi_def_cfa_offset 16
 973              		.loc 1 215 0
 974 000c 00EBD070 		add	r0, r0, r0, lsr #31
 975              		.loc 1 214 0
 976 0010 0191     		str	r1, [sp, #4]
 977              		.loc 1 216 0
 978 0012 019A     		ldr	r2, [sp, #4]
 979 0014 1B68     		ldr	r3, [r3]
 980 0016 9A42     		cmp	r2, r3
 981 0018 03D1     		bne	.L107
 982 001a 4010     		asrs	r0, r0, #1
 983 001c 03B0     		add	sp, sp, #12
 984              		.cfi_remember_state
 985              		.cfi_def_cfa_offset 4
 986              		@ sp needed
 987 001e 5DF804FB 		ldr	pc, [sp], #4
 988              	.L107:
 989              		.cfi_restore_state
 990 0022 FFF7FEFF 		bl	__stack_chk_fail
 991              	.LVL47:
 992              	.L109:
 993 0026 00BF     		.align	2
 994              	.L108:
 995 0028 00000000 		.word	__stack_chk_guard
 996 002c 00000000 		.word	.LANCHOR0
 997              		.cfi_endproc
 998              	.LFE280:
 999              		.size	right_motor_get_pos, .-right_motor_get_pos
 1000              		.section	.text.left_motor_set_pos,"ax",%progbits
 1001              		.align	1
 1002              		.p2align 4,,15
 1003              		.global	left_motor_set_pos
 1004              		.syntax unified
 1005              		.thumb
 1006              		.thumb_func
 1007              		.fpu fpv4-sp-d16
 1008              		.type	left_motor_set_pos, %function
 1009              	left_motor_set_pos:
 1010              	.LFB281:
 1011              		.loc 1 218 0
 1012              		.cfi_startproc
 1013              		@ args = 0, pretend = 0, frame = 8
 1014              		@ frame_needed = 0, uses_anonymous_args = 0
 1015              	.LVL48:
 1016 0000 00B5     		push	{lr}
 1017              		.cfi_def_cfa_offset 4
 1018              		.cfi_offset 14, -4
 1019 0002 084B     		ldr	r3, .L114
 1020              		.loc 1 219 0
 1021 0004 0849     		ldr	r1, .L114+4
 1022              		.loc 1 218 0
 1023 0006 1A68     		ldr	r2, [r3]
 1024 0008 83B0     		sub	sp, sp, #12
 1025              		.cfi_def_cfa_offset 16
 1026              		.loc 1 219 0
ARM GAS  C:\Users\25521\AppData\Local\Temp\ccKlTGzS.s 			page 19


 1027 000a 4000     		lsls	r0, r0, #1
 1028              	.LVL49:
 1029              		.loc 1 218 0
 1030 000c 0192     		str	r2, [sp, #4]
 1031              		.loc 1 220 0
 1032 000e 019A     		ldr	r2, [sp, #4]
 1033 0010 1B68     		ldr	r3, [r3]
 1034              		.loc 1 219 0
 1035 0012 4860     		str	r0, [r1, #4]
 1036              		.loc 1 220 0
 1037 0014 9A42     		cmp	r2, r3
 1038 0016 02D1     		bne	.L113
 1039 0018 03B0     		add	sp, sp, #12
 1040              		.cfi_remember_state
 1041              		.cfi_def_cfa_offset 4
 1042              		@ sp needed
 1043 001a 5DF804FB 		ldr	pc, [sp], #4
 1044              	.L113:
 1045              		.cfi_restore_state
 1046 001e FFF7FEFF 		bl	__stack_chk_fail
 1047              	.LVL50:
 1048              	.L115:
 1049 0022 00BF     		.align	2
 1050              	.L114:
 1051 0024 00000000 		.word	__stack_chk_guard
 1052 0028 00000000 		.word	.LANCHOR3
 1053              		.cfi_endproc
 1054              	.LFE281:
 1055              		.size	left_motor_set_pos, .-left_motor_set_pos
 1056              		.section	.text.right_motor_set_pos,"ax",%progbits
 1057              		.align	1
 1058              		.p2align 4,,15
 1059              		.global	right_motor_set_pos
 1060              		.syntax unified
 1061              		.thumb
 1062              		.thumb_func
 1063              		.fpu fpv4-sp-d16
 1064              		.type	right_motor_set_pos, %function
 1065              	right_motor_set_pos:
 1066              	.LFB282:
 1067              		.loc 1 222 0
 1068              		.cfi_startproc
 1069              		@ args = 0, pretend = 0, frame = 8
 1070              		@ frame_needed = 0, uses_anonymous_args = 0
 1071              	.LVL51:
 1072 0000 00B5     		push	{lr}
 1073              		.cfi_def_cfa_offset 4
 1074              		.cfi_offset 14, -4
 1075 0002 084B     		ldr	r3, .L120
 1076              		.loc 1 223 0
 1077 0004 0849     		ldr	r1, .L120+4
 1078              		.loc 1 222 0
 1079 0006 1A68     		ldr	r2, [r3]
 1080 0008 83B0     		sub	sp, sp, #12
 1081              		.cfi_def_cfa_offset 16
 1082              		.loc 1 223 0
 1083 000a 4000     		lsls	r0, r0, #1
ARM GAS  C:\Users\25521\AppData\Local\Temp\ccKlTGzS.s 			page 20


 1084              	.LVL52:
 1085              		.loc 1 222 0
 1086 000c 0192     		str	r2, [sp, #4]
 1087              		.loc 1 224 0
 1088 000e 019A     		ldr	r2, [sp, #4]
 1089 0010 1B68     		ldr	r3, [r3]
 1090              		.loc 1 223 0
 1091 0012 4860     		str	r0, [r1, #4]
 1092              		.loc 1 224 0
 1093 0014 9A42     		cmp	r2, r3
 1094 0016 02D1     		bne	.L119
 1095 0018 03B0     		add	sp, sp, #12
 1096              		.cfi_remember_state
 1097              		.cfi_def_cfa_offset 4
 1098              		@ sp needed
 1099 001a 5DF804FB 		ldr	pc, [sp], #4
 1100              	.L119:
 1101              		.cfi_restore_state
 1102 001e FFF7FEFF 		bl	__stack_chk_fail
 1103              	.LVL53:
 1104              	.L121:
 1105 0022 00BF     		.align	2
 1106              	.L120:
 1107 0024 00000000 		.word	__stack_chk_guard
 1108 0028 00000000 		.word	.LANCHOR0
 1109              		.cfi_endproc
 1110              	.LFE282:
 1111              		.size	right_motor_set_pos, .-right_motor_set_pos
 1112              		.section	.text.motors_init,"ax",%progbits
 1113              		.align	1
 1114              		.p2align 4,,15
 1115              		.global	motors_init
 1116              		.syntax unified
 1117              		.thumb
 1118              		.thumb_func
 1119              		.fpu fpv4-sp-d16
 1120              		.type	motors_init, %function
 1121              	motors_init:
 1122              	.LFB283:
 1123              		.loc 1 227 0
 1124              		.cfi_startproc
 1125              		@ args = 0, pretend = 0, frame = 8
 1126              		@ frame_needed = 0, uses_anonymous_args = 0
 1127 0000 70B5     		push	{r4, r5, r6, lr}
 1128              		.cfi_def_cfa_offset 16
 1129              		.cfi_offset 4, -16
 1130              		.cfi_offset 5, -12
 1131              		.cfi_offset 6, -8
 1132              		.cfi_offset 14, -4
 1133 0002 1D4E     		ldr	r6, .L127
 1134              		.loc 1 229 0
 1135 0004 1D4A     		ldr	r2, .L127+4
 1136              		.loc 1 237 0
 1137 0006 1E4B     		ldr	r3, .L127+8
 1138              		.loc 1 227 0
 1139 0008 3068     		ldr	r0, [r6]
 1140              		.loc 1 232 0
ARM GAS  C:\Users\25521\AppData\Local\Temp\ccKlTGzS.s 			page 21


 1141 000a 1E49     		ldr	r1, .L127+12
 1142              		.loc 1 233 0
 1143 000c 1E4C     		ldr	r4, .L127+16
 1144              		.loc 1 232 0
 1145 000e 9160     		str	r1, [r2, #8]
 1146              		.loc 1 227 0
 1147 0010 82B0     		sub	sp, sp, #8
 1148              		.cfi_def_cfa_offset 24
 1149              		.loc 1 229 0
 1150 0012 0021     		movs	r1, #0
 1151              		.loc 1 233 0
 1152 0014 D460     		str	r4, [r2, #12]
 1153              		.loc 1 227 0
 1154 0016 0190     		str	r0, [sp, #4]
 1155              		.loc 1 235 0
 1156 0018 1C4C     		ldr	r4, .L127+20
 1157              		.loc 1 234 0
 1158 001a 1D48     		ldr	r0, .L127+24
 1159              		.loc 1 240 0
 1160 001c 1D4D     		ldr	r5, .L127+28
 1161 001e 9D60     		str	r5, [r3, #8]
 1162              		.loc 1 229 0
 1163 0020 1170     		strb	r1, [r2]
 1164              		.loc 1 230 0
 1165 0022 5170     		strb	r1, [r2, #1]
 1166              		.loc 1 231 0
 1167 0024 5160     		str	r1, [r2, #4]
 1168              		.loc 1 234 0
 1169 0026 1061     		str	r0, [r2, #16]
 1170              		.loc 1 235 0
 1171 0028 5461     		str	r4, [r2, #20]
 1172              		.loc 1 241 0
 1173 002a 1B48     		ldr	r0, .L127+32
 1174              		.loc 1 242 0
 1175 002c 1B4A     		ldr	r2, .L127+36
 1176              		.loc 1 243 0
 1177 002e 1C4D     		ldr	r5, .L127+40
 1178              		.loc 1 241 0
 1179 0030 D860     		str	r0, [r3, #12]
 1180              		.loc 1 246 0
 1181 0032 1C48     		ldr	r0, .L127+44
 1182              		.loc 1 237 0
 1183 0034 1970     		strb	r1, [r3]
 1184              		.loc 1 238 0
 1185 0036 5970     		strb	r1, [r3, #1]
 1186              		.loc 1 239 0
 1187 0038 5960     		str	r1, [r3, #4]
 1188              		.loc 1 243 0
 1189 003a C3E90425 		strd	r2, r5, [r3, #16]
 1190              		.loc 1 246 0
 1191 003e FFF7FEFF 		bl	right_motor_update
 1192              	.LVL54:
 1193              		.loc 1 247 0
 1194 0042 1848     		ldr	r0, .L127+44
 1195 0044 FFF7FEFF 		bl	left_motor_update
 1196              	.LVL55:
 1197              		.loc 1 263 0
ARM GAS  C:\Users\25521\AppData\Local\Temp\ccKlTGzS.s 			page 22


 1198 0048 1749     		ldr	r1, .L127+48
 1199 004a 2046     		mov	r0, r4
 1200 004c FFF7FEFF 		bl	pwmStart
 1201              	.LVL56:
 1202              		.loc 1 264 0
 1203 0050 2046     		mov	r0, r4
 1204 0052 FFF7FEFF 		bl	pwmEnablePeriodicNotification
 1205              	.LVL57:
 1206              		.loc 1 279 0
 1207 0056 2846     		mov	r0, r5
 1208 0058 1449     		ldr	r1, .L127+52
 1209 005a FFF7FEFF 		bl	pwmStart
 1210              	.LVL58:
 1211              		.loc 1 280 0
 1212 005e 019A     		ldr	r2, [sp, #4]
 1213 0060 3368     		ldr	r3, [r6]
 1214 0062 9A42     		cmp	r2, r3
 1215 0064 05D1     		bne	.L126
 1216 0066 2846     		mov	r0, r5
 1217              		.loc 1 282 0
 1218 0068 02B0     		add	sp, sp, #8
 1219              		.cfi_remember_state
 1220              		.cfi_def_cfa_offset 16
 1221              		@ sp needed
 1222 006a BDE87040 		pop	{r4, r5, r6, lr}
 1223              		.cfi_restore 14
 1224              		.cfi_restore 6
 1225              		.cfi_restore 5
 1226              		.cfi_restore 4
 1227              		.cfi_def_cfa_offset 0
 1228              		.loc 1 280 0
 1229 006e FFF7FEBF 		b	pwmEnablePeriodicNotification
 1230              	.LVL59:
 1231              	.L126:
 1232              		.cfi_restore_state
 1233 0072 FFF7FEFF 		bl	__stack_chk_fail
 1234              	.LVL60:
 1235              	.L128:
 1236 0076 00BF     		.align	2
 1237              	.L127:
 1238 0078 00000000 		.word	__stack_chk_guard
 1239 007c 00000000 		.word	.LANCHOR0
 1240 0080 00000000 		.word	.LANCHOR3
 1241 0084 00000000 		.word	right_motor_update
 1242 0088 00000000 		.word	right_motor_enable_power_save
 1243 008c 00000000 		.word	PWMD3
 1244 0090 00000000 		.word	right_motor_disable_power_save
 1245 0094 00000000 		.word	left_motor_update
 1246 0098 00000000 		.word	left_motor_enable_power_save
 1247 009c 00000000 		.word	left_motor_disable_power_save
 1248 00a0 00000000 		.word	PWMD4
 1249 00a4 00000000 		.word	.LANCHOR2
 1250 00a8 00000000 		.word	.LANCHOR4
 1251 00ac 00000000 		.word	.LANCHOR5
 1252              		.cfi_endproc
 1253              	.LFE283:
 1254              		.size	motors_init, .-motors_init
ARM GAS  C:\Users\25521\AppData\Local\Temp\ccKlTGzS.s 			page 23


 1255              		.section	.text.left_motor_get_desired_speed,"ax",%progbits
 1256              		.align	1
 1257              		.p2align 4,,15
 1258              		.global	left_motor_get_desired_speed
 1259              		.syntax unified
 1260              		.thumb
 1261              		.thumb_func
 1262              		.fpu fpv4-sp-d16
 1263              		.type	left_motor_get_desired_speed, %function
 1264              	left_motor_get_desired_speed:
 1265              	.LFB284:
 1266              		.loc 1 284 0
 1267              		.cfi_startproc
 1268              		@ args = 0, pretend = 0, frame = 8
 1269              		@ frame_needed = 0, uses_anonymous_args = 0
 1270 0000 00B5     		push	{lr}
 1271              		.cfi_def_cfa_offset 4
 1272              		.cfi_offset 14, -4
 1273 0002 074B     		ldr	r3, .L133
 1274              		.loc 1 285 0
 1275 0004 0749     		ldr	r1, .L133+4
 1276              		.loc 1 284 0
 1277 0006 1A68     		ldr	r2, [r3]
 1278              		.loc 1 286 0
 1279 0008 8869     		ldr	r0, [r1, #24]
 1280              		.loc 1 284 0
 1281 000a 83B0     		sub	sp, sp, #12
 1282              		.cfi_def_cfa_offset 16
 1283              		.loc 1 284 0
 1284 000c 0192     		str	r2, [sp, #4]
 1285              		.loc 1 286 0
 1286 000e 019A     		ldr	r2, [sp, #4]
 1287 0010 1B68     		ldr	r3, [r3]
 1288 0012 9A42     		cmp	r2, r3
 1289 0014 02D1     		bne	.L132
 1290 0016 03B0     		add	sp, sp, #12
 1291              		.cfi_remember_state
 1292              		.cfi_def_cfa_offset 4
 1293              		@ sp needed
 1294 0018 5DF804FB 		ldr	pc, [sp], #4
 1295              	.L132:
 1296              		.cfi_restore_state
 1297 001c FFF7FEFF 		bl	__stack_chk_fail
 1298              	.LVL61:
 1299              	.L134:
 1300              		.align	2
 1301              	.L133:
 1302 0020 00000000 		.word	__stack_chk_guard
 1303 0024 00000000 		.word	.LANCHOR3
 1304              		.cfi_endproc
 1305              	.LFE284:
 1306              		.size	left_motor_get_desired_speed, .-left_motor_get_desired_speed
 1307              		.section	.text.right_motor_get_desired_speed,"ax",%progbits
 1308              		.align	1
 1309              		.p2align 4,,15
 1310              		.global	right_motor_get_desired_speed
 1311              		.syntax unified
ARM GAS  C:\Users\25521\AppData\Local\Temp\ccKlTGzS.s 			page 24


 1312              		.thumb
 1313              		.thumb_func
 1314              		.fpu fpv4-sp-d16
 1315              		.type	right_motor_get_desired_speed, %function
 1316              	right_motor_get_desired_speed:
 1317              	.LFB285:
 1318              		.loc 1 288 0
 1319              		.cfi_startproc
 1320              		@ args = 0, pretend = 0, frame = 8
 1321              		@ frame_needed = 0, uses_anonymous_args = 0
 1322 0000 00B5     		push	{lr}
 1323              		.cfi_def_cfa_offset 4
 1324              		.cfi_offset 14, -4
 1325 0002 074B     		ldr	r3, .L139
 1326              		.loc 1 289 0
 1327 0004 0749     		ldr	r1, .L139+4
 1328              		.loc 1 288 0
 1329 0006 1A68     		ldr	r2, [r3]
 1330              		.loc 1 290 0
 1331 0008 8869     		ldr	r0, [r1, #24]
 1332              		.loc 1 288 0
 1333 000a 83B0     		sub	sp, sp, #12
 1334              		.cfi_def_cfa_offset 16
 1335              		.loc 1 288 0
 1336 000c 0192     		str	r2, [sp, #4]
 1337              		.loc 1 290 0
 1338 000e 019A     		ldr	r2, [sp, #4]
 1339 0010 1B68     		ldr	r3, [r3]
 1340 0012 9A42     		cmp	r2, r3
 1341 0014 02D1     		bne	.L138
 1342 0016 03B0     		add	sp, sp, #12
 1343              		.cfi_remember_state
 1344              		.cfi_def_cfa_offset 4
 1345              		@ sp needed
 1346 0018 5DF804FB 		ldr	pc, [sp], #4
 1347              	.L138:
 1348              		.cfi_restore_state
 1349 001c FFF7FEFF 		bl	__stack_chk_fail
 1350              	.LVL62:
 1351              	.L140:
 1352              		.align	2
 1353              	.L139:
 1354 0020 00000000 		.word	__stack_chk_guard
 1355 0024 00000000 		.word	.LANCHOR0
 1356              		.cfi_endproc
 1357              	.LFE285:
 1358              		.size	right_motor_get_desired_speed, .-right_motor_get_desired_speed
 1359              		.section	.text.motor_set_speed,"ax",%progbits
 1360              		.align	1
 1361              		.p2align 4,,15
 1362              		.global	motor_set_speed
 1363              		.syntax unified
 1364              		.thumb
 1365              		.thumb_func
 1366              		.fpu fpv4-sp-d16
 1367              		.type	motor_set_speed, %function
 1368              	motor_set_speed:
ARM GAS  C:\Users\25521\AppData\Local\Temp\ccKlTGzS.s 			page 25


 1369              	.LFB286:
 1370              		.loc 1 299 0
 1371              		.cfi_startproc
 1372              		@ args = 0, pretend = 0, frame = 16
 1373              		@ frame_needed = 0, uses_anonymous_args = 0
 1374              	.LVL63:
 1375 0000 30B5     		push	{r4, r5, lr}
 1376              		.cfi_def_cfa_offset 12
 1377              		.cfi_offset 4, -12
 1378              		.cfi_offset 5, -8
 1379              		.cfi_offset 14, -4
 1380 0002 204D     		ldr	r5, .L153
 1381 0004 85B0     		sub	sp, sp, #20
 1382              		.cfi_def_cfa_offset 32
 1383              		.loc 1 299 0
 1384 0006 2B68     		ldr	r3, [r5]
 1385 0008 0393     		str	r3, [sp, #12]
 1386              		.loc 1 301 0
 1387 000a 40F24C43 		movw	r3, #1100
 1388 000e 9942     		cmp	r1, r3
 1389              		.loc 1 299 0
 1390 0010 0446     		mov	r4, r0
 1391              		.loc 1 301 0
 1392 0012 28DC     		bgt	.L142
 1393              		.loc 1 303 0
 1394 0014 A3F69803 		subw	r3, r3, #2200
 1395 0018 9942     		cmp	r1, r3
 1396 001a 12DB     		blt	.L143
 1397              		.loc 1 309 0
 1398 001c 4B00     		lsls	r3, r1, #1
 1399              	.LVL64:
 1400              		.loc 1 312 0
 1401 001e 002B     		cmp	r3, #0
 1402              		.loc 1 306 0
 1403 0020 8161     		str	r1, [r0, #24]
 1404              		.loc 1 312 0
 1405 0022 2BD1     		bne	.L144
 1406              		.loc 1 313 0
 1407 0024 0370     		strb	r3, [r0]
 1408              	.LVL65:
 1409              		.loc 1 316 0
 1410 0026 0369     		ldr	r3, [r0, #16]
 1411              	.LVL66:
 1412 0028 9847     		blx	r3
 1413              	.LVL67:
 1414 002a 4FF47A71 		mov	r1, #1000
 1415              	.LVL68:
 1416              	.L145:
 1417              		.loc 1 334 0
 1418 002e 039A     		ldr	r2, [sp, #12]
 1419 0030 2B68     		ldr	r3, [r5]
 1420 0032 9A42     		cmp	r2, r3
 1421 0034 20D1     		bne	.L152
 1422 0036 6069     		ldr	r0, [r4, #20]
 1423              		.loc 1 335 0
 1424 0038 05B0     		add	sp, sp, #20
 1425              		.cfi_remember_state
ARM GAS  C:\Users\25521\AppData\Local\Temp\ccKlTGzS.s 			page 26


 1426              		.cfi_def_cfa_offset 12
 1427              		@ sp needed
 1428 003a BDE83040 		pop	{r4, r5, lr}
 1429              		.cfi_restore 14
 1430              		.cfi_restore 5
 1431              		.cfi_restore 4
 1432              		.cfi_def_cfa_offset 0
 1433              	.LVL69:
 1434              		.loc 1 334 0
 1435 003e FFF7FEBF 		b	pwmChangePeriod
 1436              	.LVL70:
 1437              	.L143:
 1438              		.cfi_restore_state
 1439              		.loc 1 306 0
 1440 0042 8361     		str	r3, [r0, #24]
 1441              	.LVL71:
 1442 0044 104B     		ldr	r3, .L153+4
 1443              	.LVL72:
 1444              	.L146:
 1445              		.loc 1 321 0
 1446 0046 0222     		movs	r2, #2
 1447              		.loc 1 322 0
 1448 0048 5B42     		negs	r3, r3
 1449              	.LVL73:
 1450              		.loc 1 321 0
 1451 004a 2270     		strb	r2, [r4]
 1452              	.L147:
 1453              	.LVL74:
 1454              		.loc 1 326 0
 1455 004c 40F28922 		movw	r2, #649
 1456 0050 9342     		cmp	r3, r2
 1457              		.loc 1 324 0
 1458 0052 0E49     		ldr	r1, .L153+8
 1459 0054 91FBF3F1 		sdiv	r1, r1, r3
 1460 0058 89B2     		uxth	r1, r1
 1461              		.loc 1 326 0
 1462 005a 08DC     		bgt	.L148
 1463 005c 0191     		str	r1, [sp, #4]
 1464              		.loc 1 327 0
 1465 005e E368     		ldr	r3, [r4, #12]
 1466              	.LVL75:
 1467 0060 9847     		blx	r3
 1468              	.LVL76:
 1469 0062 0199     		ldr	r1, [sp, #4]
 1470 0064 E3E7     		b	.L145
 1471              	.LVL77:
 1472              	.L142:
 1473              		.loc 1 319 0
 1474 0066 0122     		movs	r2, #1
 1475              		.loc 1 306 0
 1476 0068 8361     		str	r3, [r0, #24]
 1477              	.LVL78:
 1478              		.loc 1 319 0
 1479 006a 0270     		strb	r2, [r0]
 1480              	.LVL79:
 1481 006c 2D21     		movs	r1, #45
 1482              	.LVL80:
ARM GAS  C:\Users\25521\AppData\Local\Temp\ccKlTGzS.s 			page 27


 1483              	.L148:
 1484 006e 0191     		str	r1, [sp, #4]
 1485              		.loc 1 329 0
 1486 0070 2369     		ldr	r3, [r4, #16]
 1487 0072 9847     		blx	r3
 1488              	.LVL81:
 1489 0074 0199     		ldr	r1, [sp, #4]
 1490 0076 DAE7     		b	.L145
 1491              	.L152:
 1492              		.loc 1 334 0
 1493 0078 FFF7FEFF 		bl	__stack_chk_fail
 1494              	.LVL82:
 1495              	.L144:
 1496              		.loc 1 318 0
 1497 007c E3DD     		ble	.L146
 1498              		.loc 1 319 0
 1499 007e 0122     		movs	r2, #1
 1500 0080 0270     		strb	r2, [r0]
 1501 0082 E3E7     		b	.L147
 1502              	.L154:
 1503              		.align	2
 1504              	.L153:
 1505 0084 00000000 		.word	__stack_chk_guard
 1506 0088 68F7FFFF 		.word	-2200
 1507 008c A0860100 		.word	100000
 1508              		.cfi_endproc
 1509              	.LFE286:
 1510              		.size	motor_set_speed, .-motor_set_speed
 1511              		.section	.text.left_motor_set_speed,"ax",%progbits
 1512              		.align	1
 1513              		.p2align 4,,15
 1514              		.global	left_motor_set_speed
 1515              		.syntax unified
 1516              		.thumb
 1517              		.thumb_func
 1518              		.fpu fpv4-sp-d16
 1519              		.type	left_motor_set_speed, %function
 1520              	left_motor_set_speed:
 1521              	.LFB277:
 1522              		.loc 1 194 0
 1523              		.cfi_startproc
 1524              		@ args = 0, pretend = 0, frame = 8
 1525              		@ frame_needed = 0, uses_anonymous_args = 0
 1526              	.LVL83:
 1527 0000 30B5     		push	{r4, r5, lr}
 1528              		.cfi_def_cfa_offset 12
 1529              		.cfi_offset 4, -12
 1530              		.cfi_offset 5, -8
 1531              		.cfi_offset 14, -4
 1532 0002 0E4C     		ldr	r4, .L163
 1533 0004 83B0     		sub	sp, sp, #12
 1534              		.cfi_def_cfa_offset 24
 1535              		.loc 1 194 0
 1536 0006 2368     		ldr	r3, [r4]
 1537 0008 0193     		str	r3, [sp, #4]
 1538 000a 0546     		mov	r5, r0
 1539              		.loc 1 195 0
ARM GAS  C:\Users\25521\AppData\Local\Temp\ccKlTGzS.s 			page 28


 1540 000c FFF7FEFF 		bl	obstacle_avoidance_enabled
 1541              	.LVL84:
 1542              		.loc 1 196 0
 1543 0010 019A     		ldr	r2, [sp, #4]
 1544 0012 2368     		ldr	r3, [r4]
 1545              		.loc 1 195 0
 1546 0014 40B9     		cbnz	r0, .L162
 1547              		.loc 1 198 0
 1548 0016 9A42     		cmp	r2, r3
 1549 0018 0ED1     		bne	.L161
 1550 001a 0948     		ldr	r0, .L163+4
 1551 001c 2946     		mov	r1, r5
 1552              		.loc 1 200 0
 1553 001e 03B0     		add	sp, sp, #12
 1554              		.cfi_remember_state
 1555              		.cfi_def_cfa_offset 12
 1556              		@ sp needed
 1557 0020 BDE83040 		pop	{r4, r5, lr}
 1558              		.cfi_restore 14
 1559              		.cfi_restore 5
 1560              		.cfi_restore 4
 1561              		.cfi_def_cfa_offset 0
 1562              	.LVL85:
 1563              		.loc 1 198 0
 1564 0024 FFF7FEBF 		b	motor_set_speed
 1565              	.LVL86:
 1566              	.L162:
 1567              		.cfi_restore_state
 1568              		.loc 1 196 0
 1569 0028 9A42     		cmp	r2, r3
 1570 002a 05D1     		bne	.L161
 1571 002c 2846     		mov	r0, r5
 1572              		.loc 1 200 0
 1573 002e 03B0     		add	sp, sp, #12
 1574              		.cfi_remember_state
 1575              		.cfi_def_cfa_offset 12
 1576              		@ sp needed
 1577 0030 BDE83040 		pop	{r4, r5, lr}
 1578              		.cfi_restore 14
 1579              		.cfi_restore 5
 1580              		.cfi_restore 4
 1581              		.cfi_def_cfa_offset 0
 1582              	.LVL87:
 1583              		.loc 1 196 0
 1584 0034 FFF7FEBF 		b	obstacle_avoidance_set_speed_left
 1585              	.LVL88:
 1586              	.L161:
 1587              		.cfi_restore_state
 1588              		.loc 1 198 0
 1589 0038 FFF7FEFF 		bl	__stack_chk_fail
 1590              	.LVL89:
 1591              	.L164:
 1592              		.align	2
 1593              	.L163:
 1594 003c 00000000 		.word	__stack_chk_guard
 1595 0040 00000000 		.word	.LANCHOR3
 1596              		.cfi_endproc
ARM GAS  C:\Users\25521\AppData\Local\Temp\ccKlTGzS.s 			page 29


 1597              	.LFE277:
 1598              		.size	left_motor_set_speed, .-left_motor_set_speed
 1599              		.section	.text.right_motor_set_speed,"ax",%progbits
 1600              		.align	1
 1601              		.p2align 4,,15
 1602              		.global	right_motor_set_speed
 1603              		.syntax unified
 1604              		.thumb
 1605              		.thumb_func
 1606              		.fpu fpv4-sp-d16
 1607              		.type	right_motor_set_speed, %function
 1608              	right_motor_set_speed:
 1609              	.LFB278:
 1610              		.loc 1 202 0
 1611              		.cfi_startproc
 1612              		@ args = 0, pretend = 0, frame = 8
 1613              		@ frame_needed = 0, uses_anonymous_args = 0
 1614              	.LVL90:
 1615 0000 30B5     		push	{r4, r5, lr}
 1616              		.cfi_def_cfa_offset 12
 1617              		.cfi_offset 4, -12
 1618              		.cfi_offset 5, -8
 1619              		.cfi_offset 14, -4
 1620 0002 0E4C     		ldr	r4, .L173
 1621 0004 83B0     		sub	sp, sp, #12
 1622              		.cfi_def_cfa_offset 24
 1623              		.loc 1 202 0
 1624 0006 2368     		ldr	r3, [r4]
 1625 0008 0193     		str	r3, [sp, #4]
 1626 000a 0546     		mov	r5, r0
 1627              		.loc 1 203 0
 1628 000c FFF7FEFF 		bl	obstacle_avoidance_enabled
 1629              	.LVL91:
 1630              		.loc 1 204 0
 1631 0010 019A     		ldr	r2, [sp, #4]
 1632 0012 2368     		ldr	r3, [r4]
 1633              		.loc 1 203 0
 1634 0014 40B9     		cbnz	r0, .L172
 1635              		.loc 1 206 0
 1636 0016 9A42     		cmp	r2, r3
 1637 0018 0ED1     		bne	.L171
 1638 001a 0948     		ldr	r0, .L173+4
 1639 001c 2946     		mov	r1, r5
 1640              		.loc 1 208 0
 1641 001e 03B0     		add	sp, sp, #12
 1642              		.cfi_remember_state
 1643              		.cfi_def_cfa_offset 12
 1644              		@ sp needed
 1645 0020 BDE83040 		pop	{r4, r5, lr}
 1646              		.cfi_restore 14
 1647              		.cfi_restore 5
 1648              		.cfi_restore 4
 1649              		.cfi_def_cfa_offset 0
 1650              	.LVL92:
 1651              		.loc 1 206 0
 1652 0024 FFF7FEBF 		b	motor_set_speed
 1653              	.LVL93:
ARM GAS  C:\Users\25521\AppData\Local\Temp\ccKlTGzS.s 			page 30


 1654              	.L172:
 1655              		.cfi_restore_state
 1656              		.loc 1 204 0
 1657 0028 9A42     		cmp	r2, r3
 1658 002a 05D1     		bne	.L171
 1659 002c 2846     		mov	r0, r5
 1660              		.loc 1 208 0
 1661 002e 03B0     		add	sp, sp, #12
 1662              		.cfi_remember_state
 1663              		.cfi_def_cfa_offset 12
 1664              		@ sp needed
 1665 0030 BDE83040 		pop	{r4, r5, lr}
 1666              		.cfi_restore 14
 1667              		.cfi_restore 5
 1668              		.cfi_restore 4
 1669              		.cfi_def_cfa_offset 0
 1670              	.LVL94:
 1671              		.loc 1 204 0
 1672 0034 FFF7FEBF 		b	obstacle_avoidance_set_speed_right
 1673              	.LVL95:
 1674              	.L171:
 1675              		.cfi_restore_state
 1676              		.loc 1 206 0
 1677 0038 FFF7FEFF 		bl	__stack_chk_fail
 1678              	.LVL96:
 1679              	.L174:
 1680              		.align	2
 1681              	.L173:
 1682 003c 00000000 		.word	__stack_chk_guard
 1683 0040 00000000 		.word	.LANCHOR0
 1684              		.cfi_endproc
 1685              	.LFE278:
 1686              		.size	right_motor_set_speed, .-right_motor_set_speed
 1687              		.global	left_motor
 1688              		.global	right_motor
 1689              		.section	.bss.left_motor,"aw",%nobits
 1690              		.align	2
 1691              		.set	.LANCHOR3,. + 0
 1692              		.type	left_motor, %object
 1693              		.size	left_motor, 28
 1694              	left_motor:
 1695 0000 00000000 		.space	28
 1695      00000000 
 1695      00000000 
 1695      00000000 
 1695      00000000 
 1696              		.section	.bss.right_motor,"aw",%nobits
 1697              		.align	2
 1698              		.set	.LANCHOR0,. + 0
 1699              		.type	right_motor, %object
 1700              		.size	right_motor, 28
 1701              	right_motor:
 1702 0000 00000000 		.space	28
 1702      00000000 
 1702      00000000 
 1702      00000000 
 1702      00000000 
ARM GAS  C:\Users\25521\AppData\Local\Temp\ccKlTGzS.s 			page 31


 1703              		.section	.rodata.pwmcfg_left_motor.10055,"a",%progbits
 1704              		.align	2
 1705              		.set	.LANCHOR5,. + 0
 1706              		.type	pwmcfg_left_motor.10055, %object
 1707              		.size	pwmcfg_left_motor.10055, 52
 1708              	pwmcfg_left_motor.10055:
 1709 0000 A0860100 		.word	100000
 1710 0004 FFFF0000 		.word	65535
 1711 0008 00000000 		.word	left_motor_timer_callback
 1712 000c 01000000 		.word	1
 1713 0010 00000000 		.word	left_motor_pwm_ch1_cb
 1714 0014 00000000 		.word	0
 1715 0018 00000000 		.word	0
 1716 001c 00000000 		.word	0
 1717 0020 00000000 		.word	0
 1718 0024 00000000 		.word	0
 1719 0028 00000000 		.word	0
 1720 002c 00000000 		.word	0
 1721 0030 00000000 		.space	4
 1722              		.section	.rodata.pwmcfg_right_motor.10054,"a",%progbits
 1723              		.align	2
 1724              		.set	.LANCHOR4,. + 0
 1725              		.type	pwmcfg_right_motor.10054, %object
 1726              		.size	pwmcfg_right_motor.10054, 52
 1727              	pwmcfg_right_motor.10054:
 1728 0000 A0860100 		.word	100000
 1729 0004 FFFF0000 		.word	65535
 1730 0008 00000000 		.word	right_motor_timer_callback
 1731 000c 01000000 		.word	1
 1732 0010 00000000 		.word	right_motor_pwm_ch1_cb
 1733 0014 00000000 		.word	0
 1734 0018 00000000 		.word	0
 1735 001c 00000000 		.word	0
 1736 0020 00000000 		.word	0
 1737 0024 00000000 		.word	0
 1738 0028 00000000 		.word	0
 1739 002c 00000000 		.word	0
 1740 0030 00000000 		.space	4
 1741              		.section	.rodata.step_halt,"a",%progbits
 1742              		.align	2
 1743              		.set	.LANCHOR2,. + 0
 1744              		.type	step_halt, %object
 1745              		.size	step_halt, 4
 1746              	step_halt:
 1747 0000 00000000 		.space	4
 1748              		.section	.rodata.step_table,"a",%progbits
 1749              		.align	2
 1750              		.set	.LANCHOR1,. + 0
 1751              		.type	step_table, %object
 1752              		.size	step_table, 32
 1753              	step_table:
 1754 0000 01       		.byte	1
 1755 0001 00       		.byte	0
 1756 0002 01       		.byte	1
 1757 0003 00       		.byte	0
 1758 0004 00       		.byte	0
 1759 0005 00       		.byte	0
ARM GAS  C:\Users\25521\AppData\Local\Temp\ccKlTGzS.s 			page 32


 1760 0006 01       		.byte	1
 1761 0007 00       		.byte	0
 1762 0008 00       		.byte	0
 1763 0009 01       		.byte	1
 1764 000a 01       		.byte	1
 1765 000b 00       		.byte	0
 1766 000c 00       		.byte	0
 1767 000d 01       		.byte	1
 1768 000e 00       		.byte	0
 1769 000f 00       		.byte	0
 1770 0010 00       		.byte	0
 1771 0011 01       		.byte	1
 1772 0012 00       		.byte	0
 1773 0013 01       		.byte	1
 1774 0014 00       		.byte	0
 1775 0015 00       		.byte	0
 1776 0016 00       		.byte	0
 1777 0017 01       		.byte	1
 1778 0018 01       		.byte	1
 1779 0019 00       		.byte	0
 1780 001a 00       		.byte	0
 1781 001b 01       		.byte	1
 1782 001c 01       		.byte	1
 1783 001d 00       		.byte	0
 1784 001e 00       		.byte	0
 1785 001f 00       		.byte	0
 1786              		.text
 1787              	.Letext0:
 1788              		.file 2 "d:\\eclipse_e-puck2_win32_11_apr_2018\\eclipse_e-puck2\\tools\\gcc-arm-none-eabi-7-2017-q
 1789              		.file 3 "d:\\eclipse_e-puck2_win32_11_apr_2018\\eclipse_e-puck2\\tools\\gcc-arm-none-eabi-7-2017-q
 1790              		.file 4 "d:\\eclipse_e-puck2_win32_11_apr_2018\\eclipse_e-puck2\\tools\\gcc-arm-none-eabi-7-2017-q
 1791              		.file 5 "../e-puck2_main-processor/ChibiOS//os/rt/ports/ARMCMx/compilers/GCC/chtypes.h"
 1792              		.file 6 "../e-puck2_main-processor/ChibiOS//os/rt/include/chsystypes.h"
 1793              		.file 7 "../e-puck2_main-processor/ChibiOS//os/rt/include/chschd.h"
 1794              		.file 8 "../e-puck2_main-processor/ChibiOS//os/ext/CMSIS/include/core_cm4.h"
 1795              		.file 9 "../e-puck2_main-processor/ChibiOS//os/ext/CMSIS/ST/system_stm32f4xx.h"
 1796              		.file 10 "../e-puck2_main-processor/ChibiOS//os/ext/CMSIS/ST/stm32f407xx.h"
 1797              		.file 11 "../e-puck2_main-processor/ChibiOS//os/rt/ports/ARMCMx/chcore.h"
 1798              		.file 12 "../e-puck2_main-processor/ChibiOS//os/rt/ports/ARMCMx/chcore_v7m.h"
 1799              		.file 13 "../e-puck2_main-processor/ChibiOS//os/rt/include/chdebug.h"
 1800              		.file 14 "../e-puck2_main-processor/ChibiOS//os/rt/include/chtm.h"
 1801              		.file 15 "../e-puck2_main-processor/ChibiOS//os/rt/include/chstats.h"
 1802              		.file 16 "../e-puck2_main-processor/ChibiOS//os/rt/include/chsem.h"
 1803              		.file 17 "../e-puck2_main-processor/ChibiOS//os/rt/include/chmtx.h"
 1804              		.file 18 "../e-puck2_main-processor/ChibiOS//os/rt/include/chregistry.h"
 1805              		.file 19 "../e-puck2_main-processor/ChibiOS//os/rt/include/chevents.h"
 1806              		.file 20 "../e-puck2_main-processor/ChibiOS//os/rt/include/chqueues.h"
 1807              		.file 21 "../e-puck2_main-processor/ChibiOS//os/hal/ports/STM32/LLD/DMAv2/stm32_dma.h"
 1808              		.file 22 "../e-puck2_main-processor/ChibiOS//os/hal/include/hal_ioblock.h"
 1809              		.file 23 "../e-puck2_main-processor/ChibiOS//os/hal/ports/STM32/LLD/GPIOv2/pal_lld.h"
 1810              		.file 24 "../e-puck2_main-processor/ChibiOS//os/hal/include/adc.h"
 1811              		.file 25 "../e-puck2_main-processor/ChibiOS//os/hal/ports/STM32/LLD/ADCv2/adc_lld.h"
 1812              		.file 26 "../e-puck2_main-processor/ChibiOS//os/hal/include/can.h"
 1813              		.file 27 "../e-puck2_main-processor/ChibiOS//os/hal/ports/STM32/LLD/CANv1/can_lld.h"
 1814              		.file 28 "../e-puck2_main-processor/ChibiOS//os/hal/include/dac.h"
 1815              		.file 29 "../e-puck2_main-processor/ChibiOS//os/hal/ports/STM32/LLD/DACv1/dac_lld.h"
 1816              		.file 30 "../e-puck2_main-processor/ChibiOS//os/hal/include/ext.h"
ARM GAS  C:\Users\25521\AppData\Local\Temp\ccKlTGzS.s 			page 33


 1817              		.file 31 "../e-puck2_main-processor/ChibiOS//os/hal/ports/STM32/LLD/EXTIv1/ext_lld.h"
 1818              		.file 32 "../e-puck2_main-processor/ChibiOS//os/hal/include/gpt.h"
 1819              		.file 33 "../e-puck2_main-processor/ChibiOS//os/hal/ports/STM32/LLD/TIMv1/gpt_lld.h"
 1820              		.file 34 "../e-puck2_main-processor/ChibiOS//os/hal/ports/STM32/LLD/TIMv1/stm32_tim.h"
 1821              		.file 35 "../e-puck2_main-processor/ChibiOS//os/hal/include/i2c.h"
 1822              		.file 36 "../e-puck2_main-processor/ChibiOS//os/hal/ports/STM32/LLD/I2Cv1/i2c_lld.h"
 1823              		.file 37 "../e-puck2_main-processor/ChibiOS//os/hal/include/i2s.h"
 1824              		.file 38 "../e-puck2_main-processor/ChibiOS//os/hal/ports/STM32/LLD/SPIv1/i2s_lld.h"
 1825              		.file 39 "../e-puck2_main-processor/ChibiOS//os/hal/include/pwm.h"
 1826              		.file 40 "../e-puck2_main-processor/ChibiOS//os/hal/ports/STM32/LLD/TIMv1/pwm_lld.h"
 1827              		.file 41 "../e-puck2_main-processor/ChibiOS//os/hal/include/serial.h"
 1828              		.file 42 "../e-puck2_main-processor/ChibiOS//os/hal/ports/STM32/LLD/USARTv1/serial_lld.h"
 1829              		.file 43 "../e-puck2_main-processor/ChibiOS//os/hal/include/sdc.h"
 1830              		.file 44 "../e-puck2_main-processor/ChibiOS//os/hal/ports/STM32/LLD/SDIOv1/sdc_lld.h"
 1831              		.file 45 "../e-puck2_main-processor/ChibiOS//os/hal/include/spi.h"
 1832              		.file 46 "../e-puck2_main-processor/ChibiOS//os/hal/ports/STM32/LLD/SPIv1/spi_lld.h"
 1833              		.file 47 "../e-puck2_main-processor/ChibiOS//os/hal/include/usb.h"
 1834              		.file 48 "../e-puck2_main-processor/ChibiOS//os/hal/ports/STM32/LLD/OTGv1/usb_lld.h"
 1835              		.file 49 "../e-puck2_main-processor/ChibiOS//os/hal/ports/STM32/LLD/OTGv1/stm32_otg.h"
 1836              		.file 50 "../e-puck2_main-processor/src/motors.h"
 1837              		.file 51 "../e-puck2_main-processor/src/behaviors.h"