ARM GAS  C:\Users\25521\AppData\Local\Temp\cchuIINc.s 			page 1


   1              		.cpu cortex-m4
   2              		.eabi_attribute 27, 1
   3              		.eabi_attribute 28, 1
   4              		.eabi_attribute 20, 1
   5              		.eabi_attribute 21, 1
   6              		.eabi_attribute 23, 3
   7              		.eabi_attribute 24, 1
   8              		.eabi_attribute 25, 1
   9              		.eabi_attribute 26, 1
  10              		.eabi_attribute 30, 2
  11              		.eabi_attribute 34, 1
  12              		.eabi_attribute 18, 4
  13              		.file	"parameter_msgpack.c"
  14              		.text
  15              	.Ltext0:
  16              		.cfi_sections	.debug_frame
  17              		.section	.text.err_ignore_cb,"ax",%progbits
  18              		.align	1
  19              		.p2align 4,,15
  20              		.syntax unified
  21              		.thumb
  22              		.thumb_func
  23              		.fpu fpv4-sp-d16
  24              		.type	err_ignore_cb, %function
  25              	err_ignore_cb:
  26              	.LFB13:
  27              		.file 1 "../e-puck2_main-processor/src/parameter/parameter_msgpack.c"
  28              		.loc 1 379 0
  29              		.cfi_startproc
  30              		@ args = 0, pretend = 0, frame = 8
  31              		@ frame_needed = 0, uses_anonymous_args = 0
  32              	.LVL0:
  33 0000 00B5     		push	{lr}
  34              		.cfi_def_cfa_offset 4
  35              		.cfi_offset 14, -4
  36 0002 064B     		ldr	r3, .L6
  37 0004 83B0     		sub	sp, sp, #12
  38              		.cfi_def_cfa_offset 16
  39              		.loc 1 379 0
  40 0006 1A68     		ldr	r2, [r3]
  41              	.LVL1:
  42 0008 0192     		str	r2, [sp, #4]
  43              		.loc 1 383 0
  44 000a 019A     		ldr	r2, [sp, #4]
  45 000c 1B68     		ldr	r3, [r3]
  46 000e 9A42     		cmp	r2, r3
  47 0010 02D1     		bne	.L5
  48 0012 03B0     		add	sp, sp, #12
  49              		.cfi_remember_state
  50              		.cfi_def_cfa_offset 4
  51              		@ sp needed
  52 0014 5DF804FB 		ldr	pc, [sp], #4
  53              	.L5:
  54              		.cfi_restore_state
  55 0018 FFF7FEFF 		bl	__stack_chk_fail
  56              	.LVL2:
  57              	.L7:
ARM GAS  C:\Users\25521\AppData\Local\Temp\cchuIINc.s 			page 2


  58              		.align	2
  59              	.L6:
  60 001c 00000000 		.word	__stack_chk_guard
  61              		.cfi_endproc
  62              	.LFE13:
  63              		.size	err_ignore_cb, .-err_ignore_cb
  64              		.section	.text.discard_msgpack_element.isra.0,"ax",%progbits
  65              		.align	1
  66              		.p2align 4,,15
  67              		.syntax unified
  68              		.thumb
  69              		.thumb_func
  70              		.fpu fpv4-sp-d16
  71              		.type	discard_msgpack_element.isra.0, %function
  72              	discard_msgpack_element.isra.0:
  73              	.LFB19:
  74              		.loc 1 7 0
  75              		.cfi_startproc
  76              		@ args = 0, pretend = 0, frame = 8
  77              		@ frame_needed = 0, uses_anonymous_args = 0
  78              	.LVL3:
  79 0000 30B5     		push	{r4, r5, lr}
  80              		.cfi_def_cfa_offset 12
  81              		.cfi_offset 4, -12
  82              		.cfi_offset 5, -8
  83              		.cfi_offset 14, -4
  84 0002 154C     		ldr	r4, .L16
  85 0004 83B0     		sub	sp, sp, #12
  86              		.cfi_def_cfa_offset 24
  87              		.loc 1 7 0
  88 0006 2568     		ldr	r5, [r4]
  89 0008 0195     		str	r5, [sp, #4]
  90              	.LVL4:
  91 000a 0D46     		mov	r5, r1
  92              		.loc 1 14 0
  93 000c 2228     		cmp	r0, #34
  94 000e 1AD8     		bhi	.L9
  95 0010 DFE800F0 		tbb	[pc, r0]
  96              	.LVL5:
  97              	.L11:
  98 0014 12       		.byte	(.L13-.L11)/2
  99 0015 19       		.byte	(.L9-.L11)/2
 100 0016 19       		.byte	(.L9-.L11)/2
 101 0017 19       		.byte	(.L9-.L11)/2
 102 0018 12       		.byte	(.L13-.L11)/2
 103 0019 12       		.byte	(.L13-.L11)/2
 104 001a 19       		.byte	(.L9-.L11)/2
 105 001b 19       		.byte	(.L9-.L11)/2
 106 001c 19       		.byte	(.L9-.L11)/2
 107 001d 19       		.byte	(.L9-.L11)/2
 108 001e 19       		.byte	(.L9-.L11)/2
 109 001f 19       		.byte	(.L9-.L11)/2
 110 0020 12       		.byte	(.L13-.L11)/2
 111 0021 12       		.byte	(.L13-.L11)/2
 112 0022 12       		.byte	(.L13-.L11)/2
 113 0023 12       		.byte	(.L13-.L11)/2
 114 0024 12       		.byte	(.L13-.L11)/2
ARM GAS  C:\Users\25521\AppData\Local\Temp\cchuIINc.s 			page 3


 115 0025 12       		.byte	(.L13-.L11)/2
 116 0026 12       		.byte	(.L13-.L11)/2
 117 0027 12       		.byte	(.L13-.L11)/2
 118 0028 12       		.byte	(.L13-.L11)/2
 119 0029 12       		.byte	(.L13-.L11)/2
 120 002a 19       		.byte	(.L9-.L11)/2
 121 002b 19       		.byte	(.L9-.L11)/2
 122 002c 19       		.byte	(.L9-.L11)/2
 123 002d 19       		.byte	(.L9-.L11)/2
 124 002e 19       		.byte	(.L9-.L11)/2
 125 002f 19       		.byte	(.L9-.L11)/2
 126 0030 19       		.byte	(.L9-.L11)/2
 127 0031 19       		.byte	(.L9-.L11)/2
 128 0032 19       		.byte	(.L9-.L11)/2
 129 0033 19       		.byte	(.L9-.L11)/2
 130 0034 19       		.byte	(.L9-.L11)/2
 131 0035 19       		.byte	(.L9-.L11)/2
 132 0036 12       		.byte	(.L13-.L11)/2
 133 0037 00       		.p2align 1
 134              	.L13:
 135              		.loc 1 29 0
 136 0038 0020     		movs	r0, #0
 137              	.LVL6:
 138              	.L8:
 139              		.loc 1 36 0
 140 003a 019A     		ldr	r2, [sp, #4]
 141 003c 2368     		ldr	r3, [r4]
 142 003e 9A42     		cmp	r2, r3
 143 0040 08D1     		bne	.L15
 144 0042 03B0     		add	sp, sp, #12
 145              		.cfi_remember_state
 146              		.cfi_def_cfa_offset 12
 147              		@ sp needed
 148 0044 30BD     		pop	{r4, r5, pc}
 149              	.LVL7:
 150              	.L9:
 151              		.cfi_restore_state
 152              	.LBB19:
 153              	.LBB20:
 154              		.loc 1 33 0
 155 0046 1046     		mov	r0, r2
 156 0048 1946     		mov	r1, r3
 157 004a 044A     		ldr	r2, .L16+4
 158              	.LVL8:
 159 004c A847     		blx	r5
 160              	.LVL9:
 161 004e 4FF0FF30 		mov	r0, #-1
 162 0052 F2E7     		b	.L8
 163              	.L15:
 164              	.LBE20:
 165              	.LBE19:
 166              		.loc 1 36 0
 167 0054 FFF7FEFF 		bl	__stack_chk_fail
 168              	.LVL10:
 169              	.L17:
 170              		.align	2
 171              	.L16:
ARM GAS  C:\Users\25521\AppData\Local\Temp\cchuIINc.s 			page 4


 172 0058 00000000 		.word	__stack_chk_guard
 173 005c 00000000 		.word	.LC0
 174              		.cfi_endproc
 175              	.LFE19:
 176              		.size	discard_msgpack_element.isra.0, .-discard_msgpack_element.isra.0
 177              		.global	__aeabi_l2f
 178              		.section	.text.get_float,"ax",%progbits
 179              		.align	1
 180              		.p2align 4,,15
 181              		.syntax unified
 182              		.thumb
 183              		.thumb_func
 184              		.fpu fpv4-sp-d16
 185              		.type	get_float, %function
 186              	get_float:
 187              	.LFB1:
 188              		.loc 1 40 0
 189              		.cfi_startproc
 190              		@ args = 0, pretend = 0, frame = 24
 191              		@ frame_needed = 0, uses_anonymous_args = 0
 192              	.LVL11:
 193 0000 F0B5     		push	{r4, r5, r6, r7, lr}
 194              		.cfi_def_cfa_offset 20
 195              		.cfi_offset 4, -20
 196              		.cfi_offset 5, -16
 197              		.cfi_offset 6, -12
 198              		.cfi_offset 7, -8
 199              		.cfi_offset 14, -4
 200 0002 114D     		ldr	r5, .L28
 201 0004 87B0     		sub	sp, sp, #28
 202              		.cfi_def_cfa_offset 48
 203              		.loc 1 40 0
 204 0006 0E46     		mov	r6, r1
 205 0008 2B68     		ldr	r3, [r5]
 206 000a 0593     		str	r3, [sp, #20]
 207              		.loc 1 43 0
 208 000c 01A9     		add	r1, sp, #4
 209              	.LVL12:
 210              		.loc 1 40 0
 211 000e 0746     		mov	r7, r0
 212              		.loc 1 43 0
 213 0010 FFF7FEFF 		bl	cmp_object_as_float
 214              	.LVL13:
 215 0014 48B1     		cbz	r0, .L19
 216              		.loc 1 44 0
 217 0016 019B     		ldr	r3, [sp, #4]	@ float
 218 0018 3360     		str	r3, [r6]	@ float
 219 001a 0446     		mov	r4, r0
 220              	.L20:
 221              		.loc 1 51 0
 222 001c 059A     		ldr	r2, [sp, #20]
 223 001e 2B68     		ldr	r3, [r5]
 224 0020 9A42     		cmp	r2, r3
 225 0022 2046     		mov	r0, r4
 226 0024 0ED1     		bne	.L27
 227 0026 07B0     		add	sp, sp, #28
 228              		.cfi_remember_state
ARM GAS  C:\Users\25521\AppData\Local\Temp\cchuIINc.s 			page 5


 229              		.cfi_def_cfa_offset 20
 230              		@ sp needed
 231 0028 F0BD     		pop	{r4, r5, r6, r7, pc}
 232              	.LVL14:
 233              	.L19:
 234              		.cfi_restore_state
 235              	.LBB23:
 236              	.LBB24:
 237              		.loc 1 46 0
 238 002a 3846     		mov	r0, r7
 239 002c 02A9     		add	r1, sp, #8
 240 002e FFF7FEFF 		bl	cmp_object_as_sinteger
 241              	.LVL15:
 242 0032 0446     		mov	r4, r0
 243 0034 0028     		cmp	r0, #0
 244 0036 F1D0     		beq	.L20
 245              		.loc 1 47 0
 246 0038 DDE90201 		ldrd	r0, [sp, #8]
 247 003c FFF7FEFF 		bl	__aeabi_l2f
 248              	.LVL16:
 249 0040 3060     		str	r0, [r6]	@ float
 250              	.LVL17:
 251 0042 EBE7     		b	.L20
 252              	.L27:
 253              	.LBE24:
 254              	.LBE23:
 255              		.loc 1 51 0
 256 0044 FFF7FEFF 		bl	__stack_chk_fail
 257              	.LVL18:
 258              	.L29:
 259              		.align	2
 260              	.L28:
 261 0048 00000000 		.word	__stack_chk_guard
 262              		.cfi_endproc
 263              	.LFE1:
 264              		.size	get_float, .-get_float
 265              		.section	.text.get_vector,"ax",%progbits
 266              		.align	1
 267              		.p2align 4,,15
 268              		.syntax unified
 269              		.thumb
 270              		.thumb_func
 271              		.fpu fpv4-sp-d16
 272              		.type	get_vector, %function
 273              	get_vector:
 274              	.LFB4:
 275              		.loc 1 75 0
 276              		.cfi_startproc
 277              		@ args = 8, pretend = 0, frame = 40
 278              		@ frame_needed = 0, uses_anonymous_args = 0
 279              	.LVL19:
 280 0000 2DE9F04F 		push	{r4, r5, r6, r7, r8, r9, r10, fp, lr}
 281              		.cfi_def_cfa_offset 36
 282              		.cfi_offset 4, -36
 283              		.cfi_offset 5, -32
 284              		.cfi_offset 6, -28
 285              		.cfi_offset 7, -24
ARM GAS  C:\Users\25521\AppData\Local\Temp\cchuIINc.s 			page 6


 286              		.cfi_offset 8, -20
 287              		.cfi_offset 9, -16
 288              		.cfi_offset 10, -12
 289              		.cfi_offset 11, -8
 290              		.cfi_offset 14, -4
 291 0004 254C     		ldr	r4, .L47
 292 0006 8BB0     		sub	sp, sp, #44
 293              		.cfi_def_cfa_offset 80
 294              		.loc 1 75 0
 295 0008 2468     		ldr	r4, [r4]
 296 000a DDF85080 		ldr	r8, [sp, #80]
 297 000e 0994     		str	r4, [sp, #36]
 298              	.LVL20:
 299              		.loc 1 78 0
 300 0010 B2F1000B 		subs	fp, r2, #0
 301              		.loc 1 75 0
 302 0014 0191     		str	r1, [sp, #4]
 303 0016 DDF85490 		ldr	r9, [sp, #84]
 304              		.loc 1 78 0
 305 001a 3ADD     		ble	.L40
 306 001c 0025     		movs	r5, #0
 307 001e 8246     		mov	r10, r0
 308 0020 1F46     		mov	r7, r3
 309              		.loc 1 76 0
 310 0022 2C46     		mov	r4, r5
 311 0024 0BE0     		b	.L37
 312              	.LVL21:
 313              	.L34:
 314              	.LBB25:
 315              	.LBB26:
 316              		.loc 1 92 0
 317 0026 4B46     		mov	r3, r9
 318 0028 4246     		mov	r2, r8
 319 002a 3946     		mov	r1, r7
 320 002c 9DF81000 		ldrb	r0, [sp, #16]	@ zero_extendqisi2
 321 0030 FFF7FEFF 		bl	discard_msgpack_element.isra.0
 322              	.LVL22:
 323              		.loc 1 93 0
 324 0034 C8B9     		cbnz	r0, .L30
 325              	.LBE26:
 326              	.LBE25:
 327              		.loc 1 78 0
 328 0036 0135     		adds	r5, r5, #1
 329              	.LVL23:
 330 0038 AB45     		cmp	fp, r5
 331              	.LBB29:
 332              	.LBB27:
 333 003a 3446     		mov	r4, r6
 334              	.LVL24:
 335              	.LBE27:
 336              	.LBE29:
 337 003c 14D0     		beq	.L44
 338              	.LVL25:
 339              	.L37:
 340              	.LBB30:
 341              		.loc 1 80 0
 342 003e 04A9     		add	r1, sp, #16
ARM GAS  C:\Users\25521\AppData\Local\Temp\cchuIINc.s 			page 7


 343 0040 5046     		mov	r0, r10
 344 0042 FFF7FEFF 		bl	cmp_read_object
 345              	.LVL26:
 346 0046 0646     		mov	r6, r0
 347 0048 E0B1     		cbz	r0, .L45
 348              		.loc 1 85 0
 349 004a 002C     		cmp	r4, #0
 350 004c EBD1     		bne	.L34
 351              		.loc 1 85 0 is_stmt 0 discriminator 1
 352 004e 03A9     		add	r1, sp, #12
 353 0050 04A8     		add	r0, sp, #16
 354 0052 FFF7FEFF 		bl	get_float
 355              	.LVL27:
 356 0056 80B1     		cbz	r0, .L35
 357              		.loc 1 86 0 is_stmt 1
 358 0058 019B     		ldr	r3, [sp, #4]
 359 005a 039A     		ldr	r2, [sp, #12]	@ float
 360 005c 03EB8503 		add	r3, r3, r5, lsl #2
 361              	.LBE30:
 362              		.loc 1 78 0
 363 0060 0135     		adds	r5, r5, #1
 364              	.LVL28:
 365 0062 AB45     		cmp	fp, r5
 366              	.LBB31:
 367              		.loc 1 86 0
 368 0064 1A60     		str	r2, [r3]	@ float
 369              	.LVL29:
 370              	.LBE31:
 371              		.loc 1 78 0
 372 0066 EAD1     		bne	.L37
 373              	.L44:
 374 0068 6042     		negs	r0, r4
 375              	.LVL30:
 376              	.L30:
 377              		.loc 1 103 0
 378 006a 0C4B     		ldr	r3, .L47
 379 006c 099A     		ldr	r2, [sp, #36]
 380 006e 1B68     		ldr	r3, [r3]
 381 0070 9A42     		cmp	r2, r3
 382 0072 10D1     		bne	.L46
 383 0074 0BB0     		add	sp, sp, #44
 384              		.cfi_remember_state
 385              		.cfi_def_cfa_offset 36
 386              		@ sp needed
 387 0076 BDE8F08F 		pop	{r4, r5, r6, r7, r8, r9, r10, fp, pc}
 388              	.LVL31:
 389              	.L35:
 390              		.cfi_restore_state
 391              	.LBB32:
 392              	.LBB28:
 393              		.loc 1 90 0
 394 007a 094A     		ldr	r2, .L47+4
 395 007c 4946     		mov	r1, r9
 396 007e 4046     		mov	r0, r8
 397 0080 B847     		blx	r7
 398              	.LVL32:
 399 0082 D0E7     		b	.L34
ARM GAS  C:\Users\25521\AppData\Local\Temp\cchuIINc.s 			page 8


 400              	.LVL33:
 401              	.L45:
 402              	.LBE28:
 403              		.loc 1 81 0
 404 0084 4046     		mov	r0, r8
 405 0086 4946     		mov	r1, r9
 406 0088 064A     		ldr	r2, .L47+8
 407 008a B847     		blx	r7
 408              	.LVL34:
 409              		.loc 1 82 0
 410 008c 4FF0FF30 		mov	r0, #-1
 411 0090 EBE7     		b	.L30
 412              	.LVL35:
 413              	.L40:
 414              	.LBE32:
 415              		.loc 1 78 0
 416 0092 0020     		movs	r0, #0
 417              	.LVL36:
 418 0094 E9E7     		b	.L30
 419              	.LVL37:
 420              	.L46:
 421              		.loc 1 103 0
 422 0096 FFF7FEFF 		bl	__stack_chk_fail
 423              	.LVL38:
 424              	.L48:
 425 009a 00BF     		.align	2
 426              	.L47:
 427 009c 00000000 		.word	__stack_chk_guard
 428 00a0 18000000 		.word	.LC2
 429 00a4 00000000 		.word	.LC1
 430              		.cfi_endproc
 431              	.LFE4:
 432              		.size	get_vector, .-get_vector
 433              		.section	.text.read_namespace,"ax",%progbits
 434              		.align	1
 435              		.p2align 4,,15
 436              		.syntax unified
 437              		.thumb
 438              		.thumb_func
 439              		.fpu fpv4-sp-d16
 440              		.type	read_namespace, %function
 441              	read_namespace:
 442              	.LFB12:
 443              		.loc 1 310 0
 444              		.cfi_startproc
 445              		@ args = 4, pretend = 0, frame = 40
 446              		@ frame_needed = 0, uses_anonymous_args = 0
 447              	.LVL39:
 448 0000 2DE9F04F 		push	{r4, r5, r6, r7, r8, r9, r10, fp, lr}
 449              		.cfi_def_cfa_offset 36
 450              		.cfi_offset 4, -36
 451              		.cfi_offset 5, -32
 452              		.cfi_offset 6, -28
 453              		.cfi_offset 7, -24
 454              		.cfi_offset 8, -20
 455              		.cfi_offset 9, -16
 456              		.cfi_offset 10, -12
ARM GAS  C:\Users\25521\AppData\Local\Temp\cchuIINc.s 			page 9


 457              		.cfi_offset 11, -8
 458              		.cfi_offset 14, -4
 459 0004 AA4C     		ldr	r4, .L125
 460 0006 8DB0     		sub	sp, sp, #52
 461              		.cfi_def_cfa_offset 88
 462              		.loc 1 310 0
 463 0008 2468     		ldr	r4, [r4]
 464 000a DDF85880 		ldr	r8, [sp, #88]
 465 000e 0B94     		str	r4, [sp, #44]
 466              	.LVL40:
 467              		.loc 1 312 0
 468 0010 0029     		cmp	r1, #0
 469 0012 00F09180 		beq	.L94
 470 0016 8346     		mov	fp, r0
 471 0018 1546     		mov	r5, r2
 472 001a 1F46     		mov	r7, r3
 473 001c 8A46     		mov	r10, r1
 474 001e 0026     		movs	r6, #0
 475 0020 18E0     		b	.L50
 476              	.LVL41:
 477              	.L119:
 478              	.LBB69:
 479              	.LBB70:
 480              		.loc 1 337 0
 481 0022 5846     		mov	r0, fp
 482 0024 FFF7FEFF 		bl	_parameter_namespace_find_w_id_len
 483              	.LVL42:
 484              		.loc 1 338 0
 485 0028 8146     		mov	r9, r0
 486 002a 0028     		cmp	r0, #0
 487 002c 4FD1     		bne	.L58
 488              		.loc 1 339 0
 489 002e A14A     		ldr	r2, .L125+4
 490              	.LVL43:
 491              	.L110:
 492              	.LBE70:
 493              	.LBB74:
 494              		.loc 1 358 0
 495 0030 2146     		mov	r1, r4
 496 0032 4046     		mov	r0, r8
 497 0034 B847     		blx	r7
 498              	.LVL44:
 499              		.loc 1 360 0
 500 0036 2046     		mov	r0, r4
 501 0038 FFF7FEFF 		bl	parameter_port_buffer_free
 502              	.LVL45:
 503              	.LBB75:
 504              		.loc 1 367 0
 505 003c 4B46     		mov	r3, r9
 506 003e 4246     		mov	r2, r8
 507 0040 3946     		mov	r1, r7
 508 0042 9DF81800 		ldrb	r0, [sp, #24]	@ zero_extendqisi2
 509 0046 FFF7FEFF 		bl	discard_msgpack_element.isra.0
 510              	.LVL46:
 511              		.loc 1 368 0
 512 004a 0028     		cmp	r0, #0
 513 004c 50D1     		bne	.L105
ARM GAS  C:\Users\25521\AppData\Local\Temp\cchuIINc.s 			page 10


 514              	.LVL47:
 515              	.L59:
 516              	.LBE75:
 517              	.LBE74:
 518              	.LBE69:
 519              		.loc 1 312 0 discriminator 2
 520 004e 0136     		adds	r6, r6, #1
 521              	.LVL48:
 522 0050 B245     		cmp	r10, r6
 523 0052 71D0     		beq	.L94
 524              	.LVL49:
 525              	.L50:
 526              	.LBB145:
 527              		.loc 1 314 0
 528 0054 04A9     		add	r1, sp, #16
 529 0056 2846     		mov	r0, r5
 530 0058 FFF7FEFF 		bl	cmp_read_str_size
 531              	.LVL50:
 532 005c 0028     		cmp	r0, #0
 533 005e 00F0FD80 		beq	.L115
 534              		.loc 1 318 0
 535 0062 0498     		ldr	r0, [sp, #16]
 536 0064 0130     		adds	r0, r0, #1
 537 0066 FFF7FEFF 		bl	parameter_port_buffer_alloc
 538              	.LVL51:
 539              		.loc 1 319 0
 540 006a 0446     		mov	r4, r0
 541 006c 0028     		cmp	r0, #0
 542 006e 00F0FC80 		beq	.L116
 543              		.loc 1 324 0
 544 0072 0146     		mov	r1, r0
 545 0074 AB68     		ldr	r3, [r5, #8]
 546 0076 049A     		ldr	r2, [sp, #16]
 547 0078 2846     		mov	r0, r5
 548              	.LVL52:
 549 007a 9847     		blx	r3
 550              	.LVL53:
 551 007c 0028     		cmp	r0, #0
 552 007e 00F0FB80 		beq	.L117
 553              		.loc 1 329 0
 554 0082 049B     		ldr	r3, [sp, #16]
 555 0084 0022     		movs	r2, #0
 556 0086 E254     		strb	r2, [r4, r3]
 557              		.loc 1 331 0
 558 0088 06A9     		add	r1, sp, #24
 559 008a 2846     		mov	r0, r5
 560 008c FFF7FEFF 		bl	cmp_read_object
 561              	.LVL54:
 562 0090 0028     		cmp	r0, #0
 563 0092 00F0FB80 		beq	.L118
 564              		.loc 1 336 0
 565 0096 06A8     		add	r0, sp, #24
 566 0098 FFF7FEFF 		bl	cmp_object_is_map
 567              	.LVL55:
 568              	.LBB134:
 569              		.loc 1 337 0
 570 009c 049A     		ldr	r2, [sp, #16]
ARM GAS  C:\Users\25521\AppData\Local\Temp\cchuIINc.s 			page 11


 571 009e 2146     		mov	r1, r4
 572              	.LBE134:
 573              		.loc 1 336 0
 574 00a0 0028     		cmp	r0, #0
 575 00a2 BED1     		bne	.L119
 576              	.LBB135:
 577              		.loc 1 356 0
 578 00a4 5846     		mov	r0, fp
 579 00a6 FFF7FEFF 		bl	_parameter_find_w_id_len
 580              	.LVL56:
 581              		.loc 1 357 0
 582 00aa 8146     		mov	r9, r0
 583 00ac 08B9     		cbnz	r0, .L60
 584              		.loc 1 358 0
 585 00ae 824A     		ldr	r2, .L125+8
 586 00b0 BEE7     		b	.L110
 587              	.L60:
 588              		.loc 1 360 0
 589 00b2 2046     		mov	r0, r4
 590              	.LVL57:
 591 00b4 FFF7FEFF 		bl	parameter_port_buffer_free
 592              	.LVL58:
 593              	.LBB76:
 594              	.LBB77:
 595              	.LBB78:
 596              		.loc 1 279 0
 597 00b8 99F80E30 		ldrb	r3, [r9, #14]	@ zero_extendqisi2
 598 00bc 013B     		subs	r3, r3, #1
 599 00be 052B     		cmp	r3, #5
 600 00c0 00F2CA80 		bhi	.L93
 601 00c4 DFE803F0 		tbb	[pc, r3]
 602              	.L97:
 603 00c8 BB       		.byte	(.L62-.L97)/2
 604 00c9 A0       		.byte	(.L68-.L97)/2
 605 00ca 95       		.byte	(.L65-.L97)/2
 606 00cb 7E       		.byte	(.L87-.L97)/2
 607 00cc 3A       		.byte	(.L71-.L97)/2
 608 00cd 1F       		.byte	(.L79-.L97)/2
 609              	.LVL59:
 610              		.p2align 1
 611              	.L58:
 612              	.LBE78:
 613              	.LBE77:
 614              	.LBE76:
 615              	.LBE135:
 616              	.LBB136:
 617              		.loc 1 341 0
 618 00ce 2046     		mov	r0, r4
 619              	.LVL60:
 620 00d0 FFF7FEFF 		bl	parameter_port_buffer_free
 621              	.LVL61:
 622              	.LBB71:
 623              		.loc 1 344 0
 624 00d4 05A9     		add	r1, sp, #20
 625 00d6 06A8     		add	r0, sp, #24
 626 00d8 FFF7FEFF 		bl	cmp_object_as_map
 627              	.LVL62:
ARM GAS  C:\Users\25521\AppData\Local\Temp\cchuIINc.s 			page 12


 628              		.loc 1 345 0
 629 00dc 0599     		ldr	r1, [sp, #20]
 630 00de CDF80080 		str	r8, [sp]
 631 00e2 4846     		mov	r0, r9
 632 00e4 3B46     		mov	r3, r7
 633 00e6 2A46     		mov	r2, r5
 634 00e8 FFF78AFF 		bl	read_namespace
 635              	.LVL63:
 636              		.loc 1 346 0
 637 00ec 0028     		cmp	r0, #0
 638 00ee AED0     		beq	.L59
 639              	.LVL64:
 640              	.L105:
 641 00f0 0346     		mov	r3, r0
 642              	.LVL65:
 643              	.L49:
 644              	.LBE71:
 645              	.LBE136:
 646              	.LBE145:
 647              		.loc 1 375 0
 648 00f2 6F4A     		ldr	r2, .L125
 649 00f4 0B99     		ldr	r1, [sp, #44]
 650 00f6 1268     		ldr	r2, [r2]
 651 00f8 9142     		cmp	r1, r2
 652 00fa 1846     		mov	r0, r3
 653 00fc 40F05081 		bne	.L120
 654 0100 0DB0     		add	sp, sp, #52
 655              		.cfi_remember_state
 656              		.cfi_def_cfa_offset 36
 657              		@ sp needed
 658 0102 BDE8F08F 		pop	{r4, r5, r6, r7, r8, r9, r10, fp, pc}
 659              	.LVL66:
 660              	.L79:
 661              		.cfi_restore_state
 662              	.LBB146:
 663              	.LBB137:
 664              	.LBB128:
 665              	.LBB122:
 666              	.LBB116:
 667              	.LBB79:
 668              	.LBB80:
 669              		.loc 1 209 0
 670 0106 06A8     		add	r0, sp, #24
 671              	.LVL67:
 672 0108 05A9     		add	r1, sp, #20
 673 010a FFF7FEFF 		bl	cmp_object_as_array
 674              	.LVL68:
 675 010e 0028     		cmp	r0, #0
 676 0110 40F0E480 		bne	.L121
 677              	.LVL69:
 678              	.L80:
 679              	.LBB81:
 680              		.loc 1 233 0
 681 0114 694A     		ldr	r2, .L125+12
 682 0116 D9F80010 		ldr	r1, [r9]
 683 011a 4046     		mov	r0, r8
 684 011c B847     		blx	r7
ARM GAS  C:\Users\25521\AppData\Local\Temp\cchuIINc.s 			page 13


 685              	.LVL70:
 686              		.loc 1 234 0
 687 011e D9F80030 		ldr	r3, [r9]
 688 0122 9DF81800 		ldrb	r0, [sp, #24]	@ zero_extendqisi2
 689 0126 4246     		mov	r2, r8
 690 0128 3946     		mov	r1, r7
 691 012a FFF7FEFF 		bl	discard_msgpack_element.isra.0
 692              	.LVL71:
 693              		.loc 1 235 0
 694 012e 0028     		cmp	r0, #0
 695 0130 DED1     		bne	.L105
 696              	.LBE81:
 697              	.LBE80:
 698              	.LBE79:
 699              	.LBE116:
 700              	.LBE122:
 701              	.LBE128:
 702              	.LBE137:
 703              	.LBE146:
 704              		.loc 1 312 0
 705 0132 0136     		adds	r6, r6, #1
 706              	.LVL72:
 707 0134 B245     		cmp	r10, r6
 708 0136 8DD1     		bne	.L50
 709              	.LVL73:
 710              	.L94:
 711              		.loc 1 374 0
 712 0138 0023     		movs	r3, #0
 713 013a DAE7     		b	.L49
 714              	.LVL74:
 715              	.L71:
 716              	.LBB147:
 717              	.LBB138:
 718              	.LBB129:
 719              	.LBB123:
 720              	.LBB117:
 721              	.LBB88:
 722              	.LBB89:
 723              		.loc 1 169 0
 724 013c 06A8     		add	r0, sp, #24
 725              	.LVL75:
 726 013e 05A9     		add	r1, sp, #20
 727 0140 FFF7FEFF 		bl	cmp_object_as_array
 728              	.LVL76:
 729 0144 0028     		cmp	r0, #0
 730 0146 E5D0     		beq	.L80
 731              	.LBB90:
 732              		.loc 1 170 0
 733 0148 0598     		ldr	r0, [sp, #20]
 734 014a B9F81630 		ldrh	r3, [r9, #22]
 735 014e 8342     		cmp	r3, r0
 736 0150 0FD0     		beq	.L73
 737              	.LBB91:
 738              		.loc 1 171 0
 739 0152 5B4A     		ldr	r2, .L125+16
 740 0154 D9F80010 		ldr	r1, [r9]
 741 0158 4046     		mov	r0, r8
ARM GAS  C:\Users\25521\AppData\Local\Temp\cchuIINc.s 			page 14


 742 015a B847     		blx	r7
 743              	.LVL77:
 744              		.loc 1 172 0
 745 015c D9F80030 		ldr	r3, [r9]
 746 0160 9DF81800 		ldrb	r0, [sp, #24]	@ zero_extendqisi2
 747 0164 4246     		mov	r2, r8
 748 0166 3946     		mov	r1, r7
 749 0168 FFF7FEFF 		bl	discard_msgpack_element.isra.0
 750              	.LVL78:
 751              		.loc 1 173 0
 752 016c 0028     		cmp	r0, #0
 753 016e BFD1     		bne	.L105
 754 0170 0598     		ldr	r0, [sp, #20]
 755              	.LVL79:
 756              	.L73:
 757              	.LBE91:
 758              		.loc 1 177 0
 759 0172 8000     		lsls	r0, r0, #2
 760 0174 FFF7FEFF 		bl	parameter_port_buffer_alloc
 761              	.LVL80:
 762              		.loc 1 178 0
 763 0178 0446     		mov	r4, r0
 764              	.LVL81:
 765 017a 70B9     		cbnz	r0, .L78
 766              	.LBB92:
 767              		.loc 1 179 0
 768 017c 514A     		ldr	r2, .L125+20
 769 017e D9F80010 		ldr	r1, [r9]
 770 0182 4046     		mov	r0, r8
 771              	.LVL82:
 772 0184 B847     		blx	r7
 773              	.LVL83:
 774              		.loc 1 180 0
 775 0186 D9F80030 		ldr	r3, [r9]
 776 018a 9DF81800 		ldrb	r0, [sp, #24]	@ zero_extendqisi2
 777 018e 4246     		mov	r2, r8
 778 0190 3946     		mov	r1, r7
 779 0192 FFF7FEFF 		bl	discard_msgpack_element.isra.0
 780              	.LVL84:
 781              		.loc 1 181 0
 782 0196 0028     		cmp	r0, #0
 783 0198 AAD1     		bne	.L105
 784              	.LVL85:
 785              	.L78:
 786              	.LBE92:
 787              		.loc 1 185 0
 788 019a D9F80030 		ldr	r3, [r9]
 789 019e 059A     		ldr	r2, [sp, #20]
 790 01a0 CDE90083 		strd	r8, r3, [sp]
 791 01a4 2146     		mov	r1, r4
 792 01a6 3B46     		mov	r3, r7
 793 01a8 2846     		mov	r0, r5
 794 01aa FFF7FEFF 		bl	get_vector
 795              	.LVL86:
 796              		.loc 1 186 0
 797 01ae 0028     		cmp	r0, #0
 798 01b0 40F0DA80 		bne	.L84
ARM GAS  C:\Users\25521\AppData\Local\Temp\cchuIINc.s 			page 15


 799              		.loc 1 190 0
 800 01b4 4846     		mov	r0, r9
 801              	.LVL87:
 802 01b6 2146     		mov	r1, r4
 803 01b8 FFF7FEFF 		bl	parameter_vector_set
 804              	.LVL88:
 805              		.loc 1 191 0
 806 01bc 2046     		mov	r0, r4
 807 01be FFF7FEFF 		bl	parameter_port_buffer_free
 808              	.LVL89:
 809 01c2 44E7     		b	.L59
 810              	.LVL90:
 811              	.L87:
 812              	.LBE90:
 813              	.LBE89:
 814              	.LBE88:
 815              	.LBB93:
 816              	.LBB94:
 817              		.loc 1 250 0
 818 01c4 06A8     		add	r0, sp, #24
 819              	.LVL91:
 820 01c6 05A9     		add	r1, sp, #20
 821 01c8 FFF7FEFF 		bl	cmp_object_as_str
 822              	.LVL92:
 823 01cc 0028     		cmp	r0, #0
 824 01ce 67D1     		bne	.L88
 825              		.loc 1 251 0
 826 01d0 3A4A     		ldr	r2, .L125+12
 827              	.LVL93:
 828              	.L107:
 829              	.LBE94:
 830              	.LBE93:
 831              		.loc 1 299 0
 832 01d2 D9F80010 		ldr	r1, [r9]
 833 01d6 4046     		mov	r0, r8
 834 01d8 B847     		blx	r7
 835              	.LVL94:
 836              		.loc 1 300 0
 837 01da D9F80030 		ldr	r3, [r9]
 838 01de 9DF81800 		ldrb	r0, [sp, #24]	@ zero_extendqisi2
 839 01e2 4246     		mov	r2, r8
 840 01e4 3946     		mov	r1, r7
 841 01e6 FFF7FEFF 		bl	discard_msgpack_element.isra.0
 842              	.LVL95:
 843              	.LBE117:
 844              	.LBE123:
 845              	.LBE129:
 846              	.LBE138:
 847              	.LBB139:
 848              	.LBB72:
 849              		.loc 1 346 0
 850 01ea 0028     		cmp	r0, #0
 851 01ec 3FF42FAF 		beq	.L59
 852 01f0 7EE7     		b	.L105
 853              	.LVL96:
 854              	.L65:
 855              	.LBE72:
ARM GAS  C:\Users\25521\AppData\Local\Temp\cchuIINc.s 			page 16


 856              	.LBE139:
 857              	.LBB140:
 858              	.LBB130:
 859              	.LBB124:
 860              	.LBB118:
 861              	.LBB98:
 862              	.LBB99:
 863              	.LBB100:
 864              	.LBB101:
 865              		.loc 1 55 0
 866 01f2 06A8     		add	r0, sp, #24
 867              	.LVL97:
 868 01f4 05A9     		add	r1, sp, #20
 869              	.LVL98:
 870 01f6 FFF7FEFF 		bl	cmp_object_as_int
 871              	.LVL99:
 872 01fa 0028     		cmp	r0, #0
 873 01fc 8AD0     		beq	.L80
 874              	.LVL100:
 875              	.LBE101:
 876              	.LBE100:
 877              		.loc 1 132 0
 878 01fe 4846     		mov	r0, r9
 879 0200 0599     		ldr	r1, [sp, #20]
 880 0202 FFF7FEFF 		bl	parameter_integer_set
 881              	.LVL101:
 882 0206 22E7     		b	.L59
 883              	.LVL102:
 884              	.L68:
 885              	.LBE99:
 886              	.LBE98:
 887              	.LBB102:
 888              	.LBB103:
 889              	.LBB104:
 890              	.LBB105:
 891              		.loc 1 63 0
 892 0208 06A8     		add	r0, sp, #24
 893              	.LVL103:
 894 020a 05A9     		add	r1, sp, #20
 895              	.LVL104:
 896 020c FFF7FEFF 		bl	cmp_object_as_bool
 897              	.LVL105:
 898 0210 0028     		cmp	r0, #0
 899 0212 40F0A380 		bne	.L122
 900              	.LVL106:
 901              	.LBE105:
 902              	.LBE104:
 903              	.LBB106:
 904              		.loc 1 153 0
 905 0216 294A     		ldr	r2, .L125+12
 906 0218 D9F80010 		ldr	r1, [r9]
 907 021c 4046     		mov	r0, r8
 908 021e B847     		blx	r7
 909              	.LVL107:
 910              		.loc 1 154 0
 911 0220 D9F80030 		ldr	r3, [r9]
 912 0224 9DF81800 		ldrb	r0, [sp, #24]	@ zero_extendqisi2
ARM GAS  C:\Users\25521\AppData\Local\Temp\cchuIINc.s 			page 17


 913 0228 4246     		mov	r2, r8
 914 022a 3946     		mov	r1, r7
 915 022c FFF7FEFF 		bl	discard_msgpack_element.isra.0
 916              	.LVL108:
 917              		.loc 1 155 0
 918 0230 0030     		adds	r0, r0, #0
 919 0232 18BF     		it	ne
 920 0234 0120     		movne	r0, #1
 921              	.LVL109:
 922              	.LBE106:
 923              	.LBE103:
 924              	.LBE102:
 925              	.LBE118:
 926              	.LBE124:
 927              	.LBE130:
 928              	.LBE140:
 929              	.LBB141:
 930              	.LBB73:
 931              		.loc 1 346 0
 932 0236 0028     		cmp	r0, #0
 933 0238 3FF409AF 		beq	.L59
 934 023c 58E7     		b	.L105
 935              	.LVL110:
 936              	.L62:
 937              	.LBE73:
 938              	.LBE141:
 939              	.LBB142:
 940              	.LBB131:
 941              	.LBB125:
 942              	.LBB119:
 943              	.LBB108:
 944              	.LBB109:
 945              		.loc 1 112 0
 946 023e 06A8     		add	r0, sp, #24
 947              	.LVL111:
 948 0240 05A9     		add	r1, sp, #20
 949 0242 FFF7FEFF 		bl	get_float
 950              	.LVL112:
 951 0246 0028     		cmp	r0, #0
 952 0248 3FF464AF 		beq	.L80
 953              		.loc 1 113 0
 954 024c 4846     		mov	r0, r9
 955 024e 9DED050A 		vldr.32	s0, [sp, #20]
 956 0252 FFF7FEFF 		bl	parameter_scalar_set
 957              	.LVL113:
 958 0256 FAE6     		b	.L59
 959              	.LVL114:
 960              	.L93:
 961              	.LBE109:
 962              	.LBE108:
 963              		.loc 1 299 0
 964 0258 1B4A     		ldr	r2, .L125+24
 965 025a BAE7     		b	.L107
 966              	.LVL115:
 967              	.L115:
 968              	.LBE119:
 969              	.LBE125:
ARM GAS  C:\Users\25521\AppData\Local\Temp\cchuIINc.s 			page 18


 970              	.LBE131:
 971              	.LBE142:
 972              		.loc 1 315 0
 973 025c 0146     		mov	r1, r0
 974 025e 1B4A     		ldr	r2, .L125+28
 975 0260 4046     		mov	r0, r8
 976 0262 B847     		blx	r7
 977              	.LVL116:
 978              		.loc 1 316 0
 979 0264 4FF0FF33 		mov	r3, #-1
 980 0268 43E7     		b	.L49
 981              	.LVL117:
 982              	.L116:
 983              		.loc 1 320 0
 984 026a 0146     		mov	r1, r0
 985 026c 184A     		ldr	r2, .L125+32
 986 026e 4046     		mov	r0, r8
 987              	.LVL118:
 988 0270 B847     		blx	r7
 989              	.LVL119:
 990              		.loc 1 321 0
 991 0272 4FF0FF33 		mov	r3, #-1
 992 0276 3CE7     		b	.L49
 993              	.L117:
 994              		.loc 1 325 0
 995 0278 0146     		mov	r1, r0
 996 027a 144A     		ldr	r2, .L125+28
 997 027c 4046     		mov	r0, r8
 998 027e B847     		blx	r7
 999              	.LVL120:
 1000              		.loc 1 326 0
 1001 0280 2046     		mov	r0, r4
 1002 0282 FFF7FEFF 		bl	parameter_port_buffer_free
 1003              	.LVL121:
 1004              		.loc 1 327 0
 1005 0286 4FF0FF33 		mov	r3, #-1
 1006 028a 32E7     		b	.L49
 1007              	.L118:
 1008              		.loc 1 332 0
 1009 028c 4046     		mov	r0, r8
 1010 028e 114A     		ldr	r2, .L125+36
 1011 0290 2146     		mov	r1, r4
 1012 0292 B847     		blx	r7
 1013              	.LVL122:
 1014              		.loc 1 333 0
 1015 0294 2046     		mov	r0, r4
 1016 0296 FFF7FEFF 		bl	parameter_port_buffer_free
 1017              	.LVL123:
 1018              		.loc 1 334 0
 1019 029a 4FF0FF33 		mov	r3, #-1
 1020 029e 28E7     		b	.L49
 1021              	.LVL124:
 1022              	.L88:
 1023              	.LBB143:
 1024              	.LBB132:
 1025              	.LBB126:
 1026              	.LBB120:
ARM GAS  C:\Users\25521\AppData\Local\Temp\cchuIINc.s 			page 19


 1027              	.LBB110:
 1028              	.LBB95:
 1029              		.loc 1 254 0
 1030 02a0 0598     		ldr	r0, [sp, #20]
 1031 02a2 B9F81430 		ldrh	r3, [r9, #20]
 1032 02a6 8342     		cmp	r3, r0
 1033 02a8 64D8     		bhi	.L90
 1034              		.loc 1 255 0
 1035 02aa 0B4A     		ldr	r2, .L125+40
 1036 02ac 91E7     		b	.L107
 1037              	.L126:
 1038 02ae 00BF     		.align	2
 1039              	.L125:
 1040 02b0 00000000 		.word	__stack_chk_guard
 1041 02b4 40000000 		.word	.LC6
 1042 02b8 64000000 		.word	.LC7
 1043 02bc 18000000 		.word	.LC2
 1044 02c0 88000000 		.word	.LC8
 1045 02c4 A8000000 		.word	.LC9
 1046 02c8 10010000 		.word	.LC13
 1047 02cc 00000000 		.word	.LC3
 1048 02d0 14000000 		.word	.LC4
 1049 02d4 28000000 		.word	.LC5
 1050 02d8 E8000000 		.word	.LC11
 1051              	.LVL125:
 1052              	.L121:
 1053              	.LBE95:
 1054              	.LBE110:
 1055              	.LBB111:
 1056              	.LBB86:
 1057              	.LBB82:
 1058              		.loc 1 210 0
 1059 02dc 0598     		ldr	r0, [sp, #20]
 1060 02de B9F81430 		ldrh	r3, [r9, #20]
 1061 02e2 8342     		cmp	r3, r0
 1062 02e4 10D2     		bcs	.L81
 1063              	.LBB83:
 1064              		.loc 1 211 0
 1065 02e6 354A     		ldr	r2, .L127
 1066 02e8 D9F80010 		ldr	r1, [r9]
 1067 02ec 4046     		mov	r0, r8
 1068 02ee B847     		blx	r7
 1069              	.LVL126:
 1070              		.loc 1 212 0
 1071 02f0 D9F80030 		ldr	r3, [r9]
 1072 02f4 9DF81800 		ldrb	r0, [sp, #24]	@ zero_extendqisi2
 1073 02f8 4246     		mov	r2, r8
 1074 02fa 3946     		mov	r1, r7
 1075 02fc FFF7FEFF 		bl	discard_msgpack_element.isra.0
 1076              	.LVL127:
 1077              		.loc 1 213 0
 1078 0300 0028     		cmp	r0, #0
 1079 0302 7FF4F5AE 		bne	.L105
 1080 0306 0598     		ldr	r0, [sp, #20]
 1081              	.LVL128:
 1082              	.L81:
 1083              	.LBE83:
ARM GAS  C:\Users\25521\AppData\Local\Temp\cchuIINc.s 			page 20


 1084              		.loc 1 217 0
 1085 0308 8000     		lsls	r0, r0, #2
 1086 030a FFF7FEFF 		bl	parameter_port_buffer_alloc
 1087              	.LVL129:
 1088              		.loc 1 218 0
 1089 030e 0446     		mov	r4, r0
 1090              	.LVL130:
 1091 0310 78B9     		cbnz	r0, .L86
 1092              	.LBB84:
 1093              		.loc 1 219 0
 1094 0312 2B4A     		ldr	r2, .L127+4
 1095 0314 D9F80010 		ldr	r1, [r9]
 1096 0318 4046     		mov	r0, r8
 1097              	.LVL131:
 1098 031a B847     		blx	r7
 1099              	.LVL132:
 1100              		.loc 1 220 0
 1101 031c D9F80030 		ldr	r3, [r9]
 1102 0320 9DF81800 		ldrb	r0, [sp, #24]	@ zero_extendqisi2
 1103 0324 4246     		mov	r2, r8
 1104 0326 3946     		mov	r1, r7
 1105 0328 FFF7FEFF 		bl	discard_msgpack_element.isra.0
 1106              	.LVL133:
 1107              		.loc 1 221 0
 1108 032c 0028     		cmp	r0, #0
 1109 032e 7FF4DFAE 		bne	.L105
 1110              	.LVL134:
 1111              	.L86:
 1112              	.LBE84:
 1113              		.loc 1 225 0
 1114 0332 D9F80030 		ldr	r3, [r9]
 1115 0336 059A     		ldr	r2, [sp, #20]
 1116 0338 CDE90083 		strd	r8, r3, [sp]
 1117 033c 2146     		mov	r1, r4
 1118 033e 3B46     		mov	r3, r7
 1119 0340 2846     		mov	r0, r5
 1120 0342 FFF7FEFF 		bl	get_vector
 1121              	.LVL135:
 1122              		.loc 1 226 0
 1123 0346 78B9     		cbnz	r0, .L84
 1124              		.loc 1 230 0
 1125 0348 4846     		mov	r0, r9
 1126              	.LVL136:
 1127 034a BDF81420 		ldrh	r2, [sp, #20]
 1128 034e 2146     		mov	r1, r4
 1129 0350 FFF7FEFF 		bl	parameter_variable_vector_set
 1130              	.LVL137:
 1131              		.loc 1 231 0
 1132 0354 2046     		mov	r0, r4
 1133 0356 FFF7FEFF 		bl	parameter_port_buffer_free
 1134              	.LVL138:
 1135 035a 78E6     		b	.L59
 1136              	.LVL139:
 1137              	.L122:
 1138              	.LBE82:
 1139              	.LBE86:
 1140              	.LBE111:
ARM GAS  C:\Users\25521\AppData\Local\Temp\cchuIINc.s 			page 21


 1141              	.LBB112:
 1142              	.LBB107:
 1143              		.loc 1 151 0
 1144 035c 4846     		mov	r0, r9
 1145 035e 9DF81410 		ldrb	r1, [sp, #20]	@ zero_extendqisi2
 1146 0362 FFF7FEFF 		bl	parameter_boolean_set
 1147              	.LVL140:
 1148 0366 72E6     		b	.L59
 1149              	.LVL141:
 1150              	.L84:
 1151 0368 0390     		str	r0, [sp, #12]
 1152              	.LBE107:
 1153              	.LBE112:
 1154              	.LBB113:
 1155              	.LBB87:
 1156              	.LBB85:
 1157              		.loc 1 227 0
 1158 036a 2046     		mov	r0, r4
 1159 036c FFF7FEFF 		bl	parameter_port_buffer_free
 1160              	.LVL142:
 1161 0370 039B     		ldr	r3, [sp, #12]
 1162 0372 BEE6     		b	.L49
 1163              	.LVL143:
 1164              	.L90:
 1165              	.LBE85:
 1166              	.LBE87:
 1167              	.LBE113:
 1168              	.LBB114:
 1169              	.LBB96:
 1170              		.loc 1 258 0
 1171 0374 FFF7FEFF 		bl	parameter_port_buffer_alloc
 1172              	.LVL144:
 1173              		.loc 1 259 0
 1174 0378 0446     		mov	r4, r0
 1175              	.LVL145:
 1176 037a 78B1     		cbz	r0, .L123
 1177              		.loc 1 263 0
 1178 037c 0146     		mov	r1, r0
 1179 037e AB68     		ldr	r3, [r5, #8]
 1180 0380 059A     		ldr	r2, [sp, #20]
 1181 0382 2846     		mov	r0, r5
 1182              	.LVL146:
 1183 0384 9847     		blx	r3
 1184              	.LVL147:
 1185 0386 68B1     		cbz	r0, .L124
 1186              		.loc 1 268 0
 1187 0388 4846     		mov	r0, r9
 1188 038a BDF81420 		ldrh	r2, [sp, #20]
 1189 038e 2146     		mov	r1, r4
 1190 0390 FFF7FEFF 		bl	parameter_string_set_w_len
 1191              	.LVL148:
 1192              		.loc 1 269 0
 1193 0394 2046     		mov	r0, r4
 1194 0396 FFF7FEFF 		bl	parameter_port_buffer_free
 1195              	.LVL149:
 1196 039a 58E6     		b	.L59
 1197              	.LVL150:
ARM GAS  C:\Users\25521\AppData\Local\Temp\cchuIINc.s 			page 22


 1198              	.L123:
 1199              		.loc 1 260 0
 1200 039c 084A     		ldr	r2, .L127+4
 1201 039e 18E7     		b	.L107
 1202              	.LVL151:
 1203              	.L120:
 1204              	.LBE96:
 1205              	.LBE114:
 1206              	.LBE120:
 1207              	.LBE126:
 1208              	.LBE132:
 1209              	.LBE143:
 1210              	.LBE147:
 1211              		.loc 1 375 0
 1212 03a0 FFF7FEFF 		bl	__stack_chk_fail
 1213              	.LVL152:
 1214              	.L124:
 1215              	.LBB148:
 1216              	.LBB144:
 1217              	.LBB133:
 1218              	.LBB127:
 1219              	.LBB121:
 1220              	.LBB115:
 1221              	.LBB97:
 1222              		.loc 1 264 0
 1223 03a4 D9F80010 		ldr	r1, [r9]
 1224 03a8 064A     		ldr	r2, .L127+8
 1225 03aa 4046     		mov	r0, r8
 1226 03ac B847     		blx	r7
 1227              	.LVL153:
 1228              		.loc 1 265 0
 1229 03ae 2046     		mov	r0, r4
 1230 03b0 FFF7FEFF 		bl	parameter_port_buffer_free
 1231              	.LVL154:
 1232              		.loc 1 266 0
 1233 03b4 4FF0FF33 		mov	r3, #-1
 1234 03b8 9BE6     		b	.L49
 1235              	.L128:
 1236 03ba 00BF     		.align	2
 1237              	.L127:
 1238 03bc C4000000 		.word	.LC10
 1239 03c0 A8000000 		.word	.LC9
 1240 03c4 04010000 		.word	.LC12
 1241              	.LBE97:
 1242              	.LBE115:
 1243              	.LBE121:
 1244              	.LBE127:
 1245              	.LBE133:
 1246              	.LBE144:
 1247              	.LBE148:
 1248              		.cfi_endproc
 1249              	.LFE12:
 1250              		.size	read_namespace, .-read_namespace
 1251              		.section	.text.parameter_msgpack_write_subtree.isra.6,"ax",%progbits
 1252              		.align	1
 1253              		.p2align 4,,15
 1254              		.syntax unified
ARM GAS  C:\Users\25521\AppData\Local\Temp\cchuIINc.s 			page 23


 1255              		.thumb
 1256              		.thumb_func
 1257              		.fpu fpv4-sp-d16
 1258              		.type	parameter_msgpack_write_subtree.isra.6, %function
 1259              	parameter_msgpack_write_subtree.isra.6:
 1260              	.LFB25:
 1261              		.loc 1 416 0
 1262              		.cfi_startproc
 1263              		@ args = 4, pretend = 0, frame = 8
 1264              		@ frame_needed = 0, uses_anonymous_args = 0
 1265              	.LVL155:
 1266 0000 2DE9F04F 		push	{r4, r5, r6, r7, r8, r9, r10, fp, lr}
 1267              		.cfi_def_cfa_offset 36
 1268              		.cfi_offset 4, -36
 1269              		.cfi_offset 5, -32
 1270              		.cfi_offset 6, -28
 1271              		.cfi_offset 7, -24
 1272              		.cfi_offset 8, -20
 1273              		.cfi_offset 9, -16
 1274              		.cfi_offset 10, -12
 1275              		.cfi_offset 11, -8
 1276              		.cfi_offset 14, -4
 1277 0004 DFF89091 		ldr	r9, .L175+4
 1278 0008 85B0     		sub	sp, sp, #20
 1279              		.cfi_def_cfa_offset 56
 1280              		.loc 1 416 0
 1281 000a 0546     		mov	r5, r0
 1282              		.loc 1 428 0
 1283 000c 0068     		ldr	r0, [r0]
 1284              		.loc 1 416 0
 1285 000e D9F80040 		ldr	r4, [r9]
 1286 0012 0394     		str	r4, [sp, #12]
 1287              	.LVL156:
 1288 0014 1646     		mov	r6, r2
 1289 0016 0C46     		mov	r4, r1
 1290 0018 1F46     		mov	r7, r3
 1291 001a DDF83880 		ldr	r8, [sp, #56]
 1292              		.loc 1 428 0
 1293 001e 0028     		cmp	r0, #0
 1294 0020 00F0B380 		beq	.L152
 1295              		.loc 1 421 0
 1296 0024 0021     		movs	r1, #0
 1297              	.LVL157:
 1298              	.L131:
 1299              		.loc 1 428 0
 1300 0026 0069     		ldr	r0, [r0, #16]
 1301              	.LVL158:
 1302              		.loc 1 429 0
 1303 0028 0131     		adds	r1, r1, #1
 1304              	.LVL159:
 1305              		.loc 1 428 0
 1306 002a 0028     		cmp	r0, #0
 1307 002c FBD1     		bne	.L131
 1308              	.LVL160:
 1309              	.L130:
 1310              		.loc 1 432 0
 1311 002e 2368     		ldr	r3, [r4]
ARM GAS  C:\Users\25521\AppData\Local\Temp\cchuIINc.s 			page 24


 1312              	.LVL161:
 1313 0030 2BB1     		cbz	r3, .L132
 1314              	.LVL162:
 1315              	.L134:
 1316              		.loc 1 433 0
 1317 0032 5A7B     		ldrb	r2, [r3, #13]	@ zero_extendqisi2
 1318 0034 02B1     		cbz	r2, .L133
 1319              		.loc 1 434 0
 1320 0036 0131     		adds	r1, r1, #1
 1321              	.LVL163:
 1322              	.L133:
 1323              		.loc 1 432 0
 1324 0038 9B68     		ldr	r3, [r3, #8]
 1325              	.LVL164:
 1326 003a 002B     		cmp	r3, #0
 1327 003c F9D1     		bne	.L134
 1328              	.L132:
 1329              		.loc 1 438 0
 1330 003e 3046     		mov	r0, r6
 1331              	.LVL165:
 1332 0040 FFF7FEFF 		bl	cmp_write_map
 1333              	.LVL166:
 1334              		.loc 1 441 0
 1335 0044 2D68     		ldr	r5, [r5]
 1336              	.LVL167:
 1337 0046 B5B1     		cbz	r5, .L135
 1338              	.L136:
 1339              		.loc 1 442 0
 1340 0048 AA46     		mov	r10, r5
 1341 004a 5AF814BB 		ldr	fp, [r10], #20
 1342 004e 5846     		mov	r0, fp
 1343 0050 FFF7FEFF 		bl	strlen
 1344              	.LVL168:
 1345 0054 5946     		mov	r1, fp
 1346 0056 0246     		mov	r2, r0
 1347 0058 3046     		mov	r0, r6
 1348 005a FFF7FEFF 		bl	cmp_write_str
 1349              	.LVL169:
 1350              		.loc 1 443 0
 1351 005e 05F10C00 		add	r0, r5, #12
 1352 0062 5146     		mov	r1, r10
 1353 0064 CDF80080 		str	r8, [sp]
 1354 0068 3B46     		mov	r3, r7
 1355 006a 3246     		mov	r2, r6
 1356 006c FFF7C8FF 		bl	parameter_msgpack_write_subtree.isra.6
 1357              	.LVL170:
 1358              		.loc 1 441 0
 1359 0070 2D69     		ldr	r5, [r5, #16]
 1360              	.LVL171:
 1361 0072 002D     		cmp	r5, #0
 1362 0074 E8D1     		bne	.L136
 1363              	.L135:
 1364              		.loc 1 447 0
 1365 0076 2468     		ldr	r4, [r4]
 1366              	.LVL172:
 1367 0078 002C     		cmp	r4, #0
 1368 007a 37D0     		beq	.L129
ARM GAS  C:\Users\25521\AppData\Local\Temp\cchuIINc.s 			page 25


 1369              		.loc 1 491 0
 1370 007c DFF81CA1 		ldr	r10, .L175+8
 1371              	.LVL173:
 1372              	.L150:
 1373              		.loc 1 450 0
 1374 0080 637B     		ldrb	r3, [r4, #13]	@ zero_extendqisi2
 1375 0082 83B3     		cbz	r3, .L139
 1376              		.loc 1 454 0
 1377 0084 A37B     		ldrb	r3, [r4, #14]	@ zero_extendqisi2
 1378 0086 2568     		ldr	r5, [r4]
 1379 0088 013B     		subs	r3, r3, #1
 1380 008a 052B     		cmp	r3, #5
 1381 008c 78D8     		bhi	.L140
 1382 008e DFE803F0 		tbb	[pc, r3]
 1383              	.L142:
 1384 0092 66       		.byte	(.L141-.L142)/2
 1385 0093 56       		.byte	(.L143-.L142)/2
 1386 0094 46       		.byte	(.L144-.L142)/2
 1387 0095 35       		.byte	(.L145-.L142)/2
 1388 0096 03       		.byte	(.L146-.L142)/2
 1389 0097 03       		.byte	(.L146-.L142)/2
 1390              		.p2align 1
 1391              	.L146:
 1392              		.loc 1 478 0
 1393 0098 2846     		mov	r0, r5
 1394 009a FFF7FEFF 		bl	strlen
 1395              	.LVL174:
 1396 009e 2946     		mov	r1, r5
 1397 00a0 0246     		mov	r2, r0
 1398 00a2 3046     		mov	r0, r6
 1399 00a4 FFF7FEFF 		bl	cmp_write_str
 1400              	.LVL175:
 1401              		.loc 1 479 0
 1402 00a8 E18A     		ldrh	r1, [r4, #22]
 1403              		.loc 1 478 0
 1404 00aa 0546     		mov	r5, r0
 1405              	.LVL176:
 1406              		.loc 1 479 0
 1407 00ac 3046     		mov	r0, r6
 1408 00ae FFF7FEFF 		bl	cmp_write_array
 1409              	.LVL177:
 1410              		.loc 1 480 0
 1411 00b2 E38A     		ldrh	r3, [r4, #22]
 1412 00b4 0540     		ands	r5, r5, r0
 1413              	.LVL178:
 1414 00b6 EDB2     		uxtb	r5, r5
 1415              	.LVL179:
 1416 00b8 83B1     		cbz	r3, .L147
 1417 00ba 4FF0000B 		mov	fp, #0
 1418              	.LVL180:
 1419              	.L148:
 1420              		.loc 1 481 0
 1421 00be 2269     		ldr	r2, [r4, #16]
 1422 00c0 02EB8B02 		add	r2, r2, fp, lsl #2
 1423 00c4 92ED000A 		vldr.32	s0, [r2]
 1424 00c8 3046     		mov	r0, r6
 1425 00ca FFF7FEFF 		bl	cmp_write_float
ARM GAS  C:\Users\25521\AppData\Local\Temp\cchuIINc.s 			page 26


 1426              	.LVL181:
 1427              		.loc 1 480 0
 1428 00ce E28A     		ldrh	r2, [r4, #22]
 1429 00d0 0BF1010B 		add	fp, fp, #1
 1430              	.LVL182:
 1431 00d4 9345     		cmp	fp, r2
 1432 00d6 05EA0005 		and	r5, r5, r0
 1433              	.LVL183:
 1434 00da F0D3     		bcc	.L148
 1435              	.LVL184:
 1436              	.L147:
 1437              		.loc 1 490 0
 1438 00dc 1DB9     		cbnz	r5, .L139
 1439              		.loc 1 491 0
 1440 00de 5246     		mov	r2, r10
 1441 00e0 2168     		ldr	r1, [r4]
 1442 00e2 4046     		mov	r0, r8
 1443 00e4 B847     		blx	r7
 1444              	.LVL185:
 1445              	.L139:
 1446              		.loc 1 447 0
 1447 00e6 A468     		ldr	r4, [r4, #8]
 1448              	.LVL186:
 1449 00e8 002C     		cmp	r4, #0
 1450 00ea C9D1     		bne	.L150
 1451              	.L129:
 1452              		.loc 1 494 0
 1453 00ec 039A     		ldr	r2, [sp, #12]
 1454 00ee D9F80030 		ldr	r3, [r9]
 1455 00f2 9A42     		cmp	r2, r3
 1456 00f4 4BD1     		bne	.L174
 1457 00f6 05B0     		add	sp, sp, #20
 1458              		.cfi_remember_state
 1459              		.cfi_def_cfa_offset 36
 1460              		@ sp needed
 1461 00f8 BDE8F08F 		pop	{r4, r5, r6, r7, r8, r9, r10, fp, pc}
 1462              	.LVL187:
 1463              	.L145:
 1464              		.cfi_restore_state
 1465              		.loc 1 471 0
 1466 00fc 2846     		mov	r0, r5
 1467 00fe FFF7FEFF 		bl	strlen
 1468              	.LVL188:
 1469 0102 2946     		mov	r1, r5
 1470 0104 0246     		mov	r2, r0
 1471 0106 3046     		mov	r0, r6
 1472 0108 FFF7FEFF 		bl	cmp_write_str
 1473              	.LVL189:
 1474              		.loc 1 472 0
 1475 010c E28A     		ldrh	r2, [r4, #22]
 1476 010e 2169     		ldr	r1, [r4, #16]
 1477              		.loc 1 471 0
 1478 0110 0546     		mov	r5, r0
 1479              	.LVL190:
 1480              		.loc 1 472 0
 1481 0112 3046     		mov	r0, r6
 1482 0114 FFF7FEFF 		bl	cmp_write_str
ARM GAS  C:\Users\25521\AppData\Local\Temp\cchuIINc.s 			page 27


 1483              	.LVL191:
 1484 0118 0540     		ands	r5, r5, r0
 1485              	.LVL192:
 1486 011a EDB2     		uxtb	r5, r5
 1487              	.LVL193:
 1488 011c DEE7     		b	.L147
 1489              	.LVL194:
 1490              	.L144:
 1491              		.loc 1 461 0
 1492 011e 2846     		mov	r0, r5
 1493 0120 FFF7FEFF 		bl	strlen
 1494              	.LVL195:
 1495 0124 2946     		mov	r1, r5
 1496 0126 0246     		mov	r2, r0
 1497 0128 3046     		mov	r0, r6
 1498 012a FFF7FEFF 		bl	cmp_write_str
 1499              	.LVL196:
 1500              		.loc 1 462 0
 1501 012e 2169     		ldr	r1, [r4, #16]
 1502              		.loc 1 461 0
 1503 0130 0546     		mov	r5, r0
 1504              	.LVL197:
 1505              		.loc 1 462 0
 1506 0132 3046     		mov	r0, r6
 1507 0134 FFF7FEFF 		bl	cmp_write_s32
 1508              	.LVL198:
 1509 0138 0540     		ands	r5, r5, r0
 1510              	.LVL199:
 1511 013a EDB2     		uxtb	r5, r5
 1512              	.LVL200:
 1513 013c CEE7     		b	.L147
 1514              	.LVL201:
 1515              	.L143:
 1516              		.loc 1 466 0
 1517 013e 2846     		mov	r0, r5
 1518 0140 FFF7FEFF 		bl	strlen
 1519              	.LVL202:
 1520 0144 2946     		mov	r1, r5
 1521 0146 0246     		mov	r2, r0
 1522 0148 3046     		mov	r0, r6
 1523 014a FFF7FEFF 		bl	cmp_write_str
 1524              	.LVL203:
 1525              		.loc 1 467 0
 1526 014e 217C     		ldrb	r1, [r4, #16]	@ zero_extendqisi2
 1527              		.loc 1 466 0
 1528 0150 0546     		mov	r5, r0
 1529              	.LVL204:
 1530              		.loc 1 467 0
 1531 0152 3046     		mov	r0, r6
 1532 0154 FFF7FEFF 		bl	cmp_write_bool
 1533              	.LVL205:
 1534 0158 0540     		ands	r5, r5, r0
 1535              	.LVL206:
 1536 015a EDB2     		uxtb	r5, r5
 1537              	.LVL207:
 1538 015c BEE7     		b	.L147
 1539              	.LVL208:
ARM GAS  C:\Users\25521\AppData\Local\Temp\cchuIINc.s 			page 28


 1540              	.L141:
 1541              		.loc 1 456 0
 1542 015e 2846     		mov	r0, r5
 1543 0160 FFF7FEFF 		bl	strlen
 1544              	.LVL209:
 1545 0164 2946     		mov	r1, r5
 1546 0166 0246     		mov	r2, r0
 1547 0168 3046     		mov	r0, r6
 1548 016a FFF7FEFF 		bl	cmp_write_str
 1549              	.LVL210:
 1550              		.loc 1 457 0
 1551 016e 94ED040A 		vldr.32	s0, [r4, #16]
 1552              		.loc 1 456 0
 1553 0172 0546     		mov	r5, r0
 1554              	.LVL211:
 1555              		.loc 1 457 0
 1556 0174 3046     		mov	r0, r6
 1557 0176 FFF7FEFF 		bl	cmp_write_float
 1558              	.LVL212:
 1559 017a 0540     		ands	r5, r5, r0
 1560              	.LVL213:
 1561 017c EDB2     		uxtb	r5, r5
 1562              	.LVL214:
 1563 017e ADE7     		b	.L147
 1564              	.LVL215:
 1565              	.L140:
 1566              		.loc 1 486 0
 1567 0180 2946     		mov	r1, r5
 1568 0182 044A     		ldr	r2, .L175
 1569 0184 4046     		mov	r0, r8
 1570 0186 B847     		blx	r7
 1571              	.LVL216:
 1572 0188 ADE7     		b	.L139
 1573              	.LVL217:
 1574              	.L152:
 1575              		.loc 1 421 0
 1576 018a 0146     		mov	r1, r0
 1577 018c 4FE7     		b	.L130
 1578              	.LVL218:
 1579              	.L174:
 1580              		.loc 1 494 0
 1581 018e FFF7FEFF 		bl	__stack_chk_fail
 1582              	.LVL219:
 1583              	.L176:
 1584 0192 00BF     		.align	2
 1585              	.L175:
 1586 0194 00000000 		.word	.LC14
 1587 0198 00000000 		.word	__stack_chk_guard
 1588 019c 1C000000 		.word	.LC15
 1589              		.cfi_endproc
 1590              	.LFE25:
 1591              		.size	parameter_msgpack_write_subtree.isra.6, .-parameter_msgpack_write_subtree.isra.6
 1592              		.section	.text.parameter_msgpack_read_cmp,"ax",%progbits
 1593              		.align	1
 1594              		.p2align 4,,15
 1595              		.global	parameter_msgpack_read_cmp
 1596              		.syntax unified
ARM GAS  C:\Users\25521\AppData\Local\Temp\cchuIINc.s 			page 29


 1597              		.thumb
 1598              		.thumb_func
 1599              		.fpu fpv4-sp-d16
 1600              		.type	parameter_msgpack_read_cmp, %function
 1601              	parameter_msgpack_read_cmp:
 1602              	.LFB14:
 1603              		.loc 1 390 0
 1604              		.cfi_startproc
 1605              		@ args = 0, pretend = 0, frame = 8
 1606              		@ frame_needed = 0, uses_anonymous_args = 0
 1607              	.LVL220:
 1608 0000 2DE9F041 		push	{r4, r5, r6, r7, r8, lr}
 1609              		.cfi_def_cfa_offset 24
 1610              		.cfi_offset 4, -24
 1611              		.cfi_offset 5, -20
 1612              		.cfi_offset 6, -16
 1613              		.cfi_offset 7, -12
 1614              		.cfi_offset 8, -8
 1615              		.cfi_offset 14, -4
 1616 0004 134D     		ldr	r5, .L185
 1617              		.loc 1 392 0
 1618 0006 144C     		ldr	r4, .L185+4
 1619              		.loc 1 390 0
 1620 0008 2E68     		ldr	r6, [r5]
 1621 000a 84B0     		sub	sp, sp, #16
 1622              		.cfi_def_cfa_offset 40
 1623              		.loc 1 390 0
 1624 000c 8046     		mov	r8, r0
 1625 000e 0396     		str	r6, [sp, #12]
 1626              		.loc 1 395 0
 1627 0010 0846     		mov	r0, r1
 1628              	.LVL221:
 1629              		.loc 1 390 0
 1630 0012 0E46     		mov	r6, r1
 1631              		.loc 1 395 0
 1632 0014 02A9     		add	r1, sp, #8
 1633              	.LVL222:
 1634              		.loc 1 390 0
 1635 0016 1F46     		mov	r7, r3
 1636              		.loc 1 392 0
 1637 0018 002A     		cmp	r2, #0
 1638 001a 18BF     		it	ne
 1639 001c 1446     		movne	r4, r2
 1640              	.LVL223:
 1641              		.loc 1 395 0
 1642 001e FFF7FEFF 		bl	cmp_read_map
 1643              	.LVL224:
 1644 0022 68B1     		cbz	r0, .L183
 1645              		.loc 1 399 0
 1646 0024 0299     		ldr	r1, [sp, #8]
 1647 0026 0097     		str	r7, [sp]
 1648 0028 2346     		mov	r3, r4
 1649 002a 3246     		mov	r2, r6
 1650 002c 4046     		mov	r0, r8
 1651 002e FFF7FEFF 		bl	read_namespace
 1652              	.LVL225:
 1653              	.L177:
ARM GAS  C:\Users\25521\AppData\Local\Temp\cchuIINc.s 			page 30


 1654              		.loc 1 400 0
 1655 0032 039A     		ldr	r2, [sp, #12]
 1656 0034 2B68     		ldr	r3, [r5]
 1657 0036 9A42     		cmp	r2, r3
 1658 0038 09D1     		bne	.L184
 1659 003a 04B0     		add	sp, sp, #16
 1660              		.cfi_remember_state
 1661              		.cfi_def_cfa_offset 24
 1662              		@ sp needed
 1663 003c BDE8F081 		pop	{r4, r5, r6, r7, r8, pc}
 1664              	.LVL226:
 1665              	.L183:
 1666              		.cfi_restore_state
 1667              		.loc 1 396 0
 1668 0040 0146     		mov	r1, r0
 1669 0042 064A     		ldr	r2, .L185+8
 1670 0044 3846     		mov	r0, r7
 1671 0046 A047     		blx	r4
 1672              	.LVL227:
 1673              		.loc 1 397 0
 1674 0048 4FF0FF30 		mov	r0, #-1
 1675 004c F1E7     		b	.L177
 1676              	.L184:
 1677              		.loc 1 400 0
 1678 004e FFF7FEFF 		bl	__stack_chk_fail
 1679              	.LVL228:
 1680              	.L186:
 1681 0052 00BF     		.align	2
 1682              	.L185:
 1683 0054 00000000 		.word	__stack_chk_guard
 1684 0058 00000000 		.word	err_ignore_cb
 1685 005c 00000000 		.word	.LC16
 1686              		.cfi_endproc
 1687              	.LFE14:
 1688              		.size	parameter_msgpack_read_cmp, .-parameter_msgpack_read_cmp
 1689              		.section	.text.parameter_msgpack_read,"ax",%progbits
 1690              		.align	1
 1691              		.p2align 4,,15
 1692              		.global	parameter_msgpack_read
 1693              		.syntax unified
 1694              		.thumb
 1695              		.thumb_func
 1696              		.fpu fpv4-sp-d16
 1697              		.type	parameter_msgpack_read, %function
 1698              	parameter_msgpack_read:
 1699              	.LFB15:
 1700              		.loc 1 408 0
 1701              		.cfi_startproc
 1702              		@ args = 4, pretend = 0, frame = 32
 1703              		@ frame_needed = 0, uses_anonymous_args = 0
 1704              	.LVL229:
 1705 0000 F0B5     		push	{r4, r5, r6, r7, lr}
 1706              		.cfi_def_cfa_offset 20
 1707              		.cfi_offset 4, -20
 1708              		.cfi_offset 5, -16
 1709              		.cfi_offset 6, -12
 1710              		.cfi_offset 7, -8
ARM GAS  C:\Users\25521\AppData\Local\Temp\cchuIINc.s 			page 31


 1711              		.cfi_offset 14, -4
 1712 0002 0D4C     		ldr	r4, .L191
 1713 0004 89B0     		sub	sp, sp, #36
 1714              		.cfi_def_cfa_offset 56
 1715              		.loc 1 408 0
 1716 0006 2568     		ldr	r5, [r4]
 1717 0008 0E9F     		ldr	r7, [sp, #56]
 1718 000a 0795     		str	r5, [sp, #28]
 1719 000c 1E46     		mov	r6, r3
 1720 000e 0546     		mov	r5, r0
 1721              		.loc 1 411 0
 1722 0010 1346     		mov	r3, r2
 1723              	.LVL230:
 1724 0012 03A8     		add	r0, sp, #12
 1725              	.LVL231:
 1726 0014 0A46     		mov	r2, r1
 1727              	.LVL232:
 1728 0016 6946     		mov	r1, sp
 1729              	.LVL233:
 1730 0018 FFF7FEFF 		bl	cmp_mem_access_ro_init
 1731              	.LVL234:
 1732              		.loc 1 412 0
 1733 001c 3B46     		mov	r3, r7
 1734 001e 3246     		mov	r2, r6
 1735 0020 03A9     		add	r1, sp, #12
 1736 0022 2846     		mov	r0, r5
 1737 0024 FFF7FEFF 		bl	parameter_msgpack_read_cmp
 1738              	.LVL235:
 1739              		.loc 1 413 0
 1740 0028 079A     		ldr	r2, [sp, #28]
 1741 002a 2368     		ldr	r3, [r4]
 1742 002c 9A42     		cmp	r2, r3
 1743 002e 01D1     		bne	.L190
 1744 0030 09B0     		add	sp, sp, #36
 1745              		.cfi_remember_state
 1746              		.cfi_def_cfa_offset 20
 1747              		@ sp needed
 1748 0032 F0BD     		pop	{r4, r5, r6, r7, pc}
 1749              	.LVL236:
 1750              	.L190:
 1751              		.cfi_restore_state
 1752 0034 FFF7FEFF 		bl	__stack_chk_fail
 1753              	.LVL237:
 1754              	.L192:
 1755              		.align	2
 1756              	.L191:
 1757 0038 00000000 		.word	__stack_chk_guard
 1758              		.cfi_endproc
 1759              	.LFE15:
 1760              		.size	parameter_msgpack_read, .-parameter_msgpack_read
 1761              		.section	.text.parameter_msgpack_write_cmp,"ax",%progbits
 1762              		.align	1
 1763              		.p2align 4,,15
 1764              		.global	parameter_msgpack_write_cmp
 1765              		.syntax unified
 1766              		.thumb
 1767              		.thumb_func
ARM GAS  C:\Users\25521\AppData\Local\Temp\cchuIINc.s 			page 32


 1768              		.fpu fpv4-sp-d16
 1769              		.type	parameter_msgpack_write_cmp, %function
 1770              	parameter_msgpack_write_cmp:
 1771              	.LFB17:
 1772              		.loc 1 500 0
 1773              		.cfi_startproc
 1774              		@ args = 0, pretend = 0, frame = 8
 1775              		@ frame_needed = 0, uses_anonymous_args = 0
 1776              	.LVL238:
 1777 0000 2DE9F041 		push	{r4, r5, r6, r7, r8, lr}
 1778              		.cfi_def_cfa_offset 24
 1779              		.cfi_offset 4, -24
 1780              		.cfi_offset 5, -20
 1781              		.cfi_offset 6, -16
 1782              		.cfi_offset 7, -12
 1783              		.cfi_offset 8, -8
 1784              		.cfi_offset 14, -4
 1785 0004 0F4C     		ldr	r4, .L198
 1786 0006 84B0     		sub	sp, sp, #16
 1787              		.cfi_def_cfa_offset 40
 1788              		.loc 1 500 0
 1789 0008 0546     		mov	r5, r0
 1790 000a 0E46     		mov	r6, r1
 1791 000c 1746     		mov	r7, r2
 1792 000e 9846     		mov	r8, r3
 1793 0010 2368     		ldr	r3, [r4]
 1794              	.LVL239:
 1795 0012 0393     		str	r3, [sp, #12]
 1796              		.loc 1 501 0
 1797 0014 FFF7FEFF 		bl	parameter_port_lock
 1798              	.LVL240:
 1799              		.loc 1 502 0
 1800 0018 3B46     		mov	r3, r7
 1801 001a 3246     		mov	r2, r6
 1802 001c CDF80080 		str	r8, [sp]
 1803 0020 05F11401 		add	r1, r5, #20
 1804 0024 05F10C00 		add	r0, r5, #12
 1805 0028 FFF7FEFF 		bl	parameter_msgpack_write_subtree.isra.6
 1806              	.LVL241:
 1807              		.loc 1 503 0
 1808 002c 039A     		ldr	r2, [sp, #12]
 1809 002e 2368     		ldr	r3, [r4]
 1810 0030 9A42     		cmp	r2, r3
 1811 0032 04D1     		bne	.L197
 1812              		.loc 1 504 0
 1813 0034 04B0     		add	sp, sp, #16
 1814              		.cfi_remember_state
 1815              		.cfi_def_cfa_offset 24
 1816              		@ sp needed
 1817 0036 BDE8F041 		pop	{r4, r5, r6, r7, r8, lr}
 1818              		.cfi_restore 14
 1819              		.cfi_restore 8
 1820              		.cfi_restore 7
 1821              		.cfi_restore 6
 1822              		.cfi_restore 5
 1823              		.cfi_restore 4
 1824              		.cfi_def_cfa_offset 0
ARM GAS  C:\Users\25521\AppData\Local\Temp\cchuIINc.s 			page 33


 1825              	.LVL242:
 1826              		.loc 1 503 0
 1827 003a FFF7FEBF 		b	parameter_port_unlock
 1828              	.LVL243:
 1829              	.L197:
 1830              		.cfi_restore_state
 1831 003e FFF7FEFF 		bl	__stack_chk_fail
 1832              	.LVL244:
 1833              	.L199:
 1834 0042 00BF     		.align	2
 1835              	.L198:
 1836 0044 00000000 		.word	__stack_chk_guard
 1837              		.cfi_endproc
 1838              	.LFE17:
 1839              		.size	parameter_msgpack_write_cmp, .-parameter_msgpack_write_cmp
 1840              		.section	.text.parameter_msgpack_write,"ax",%progbits
 1841              		.align	1
 1842              		.p2align 4,,15
 1843              		.global	parameter_msgpack_write
 1844              		.syntax unified
 1845              		.thumb
 1846              		.thumb_func
 1847              		.fpu fpv4-sp-d16
 1848              		.type	parameter_msgpack_write, %function
 1849              	parameter_msgpack_write:
 1850              	.LFB18:
 1851              		.loc 1 512 0
 1852              		.cfi_startproc
 1853              		@ args = 4, pretend = 0, frame = 32
 1854              		@ frame_needed = 0, uses_anonymous_args = 0
 1855              	.LVL245:
 1856 0000 F0B5     		push	{r4, r5, r6, r7, lr}
 1857              		.cfi_def_cfa_offset 20
 1858              		.cfi_offset 4, -20
 1859              		.cfi_offset 5, -16
 1860              		.cfi_offset 6, -12
 1861              		.cfi_offset 7, -8
 1862              		.cfi_offset 14, -4
 1863 0002 114C     		ldr	r4, .L204
 1864 0004 8BB0     		sub	sp, sp, #44
 1865              		.cfi_def_cfa_offset 64
 1866              		.loc 1 512 0
 1867 0006 2568     		ldr	r5, [r4]
 1868 0008 109F     		ldr	r7, [sp, #64]
 1869 000a 0995     		str	r5, [sp, #36]
 1870 000c 1E46     		mov	r6, r3
 1871 000e 0546     		mov	r5, r0
 1872              		.loc 1 515 0
 1873 0010 1346     		mov	r3, r2
 1874              	.LVL246:
 1875 0012 05A8     		add	r0, sp, #20
 1876              	.LVL247:
 1877 0014 0A46     		mov	r2, r1
 1878              	.LVL248:
 1879 0016 02A9     		add	r1, sp, #8
 1880              	.LVL249:
 1881 0018 FFF7FEFF 		bl	cmp_mem_access_init
ARM GAS  C:\Users\25521\AppData\Local\Temp\cchuIINc.s 			page 34


 1882              	.LVL250:
 1883              	.LBB149:
 1884              	.LBB150:
 1885              		.loc 1 501 0
 1886 001c FFF7FEFF 		bl	parameter_port_lock
 1887              	.LVL251:
 1888              		.loc 1 502 0
 1889 0020 3346     		mov	r3, r6
 1890 0022 05AA     		add	r2, sp, #20
 1891              	.LVL252:
 1892 0024 05F11401 		add	r1, r5, #20
 1893 0028 05F10C00 		add	r0, r5, #12
 1894 002c 0097     		str	r7, [sp]
 1895 002e FFF7FEFF 		bl	parameter_msgpack_write_subtree.isra.6
 1896              	.LVL253:
 1897              		.loc 1 503 0
 1898 0032 FFF7FEFF 		bl	parameter_port_unlock
 1899              	.LVL254:
 1900              	.LBE150:
 1901              	.LBE149:
 1902              		.loc 1 517 0
 1903 0036 099A     		ldr	r2, [sp, #36]
 1904 0038 2368     		ldr	r3, [r4]
 1905 003a 9A42     		cmp	r2, r3
 1906 003c 01D1     		bne	.L203
 1907 003e 0BB0     		add	sp, sp, #44
 1908              		.cfi_remember_state
 1909              		.cfi_def_cfa_offset 20
 1910              		@ sp needed
 1911 0040 F0BD     		pop	{r4, r5, r6, r7, pc}
 1912              	.LVL255:
 1913              	.L203:
 1914              		.cfi_restore_state
 1915 0042 FFF7FEFF 		bl	__stack_chk_fail
 1916              	.LVL256:
 1917              	.L205:
 1918 0046 00BF     		.align	2
 1919              	.L204:
 1920 0048 00000000 		.word	__stack_chk_guard
 1921              		.cfi_endproc
 1922              	.LFE18:
 1923              		.size	parameter_msgpack_write, .-parameter_msgpack_write
 1924              		.section	.rodata.discard_msgpack_element.isra.0.str1.4,"aMS",%progbits,1
 1925              		.align	2
 1926              	.LC0:
 1927 0000 64697363 		.ascii	"discarding failed\000"
 1927      61726469 
 1927      6E672066 
 1927      61696C65 
 1927      6400
 1928              		.section	.rodata.get_vector.str1.4,"aMS",%progbits,1
 1929              		.align	2
 1930              	.LC1:
 1931 0000 636F756C 		.ascii	"could not read object\000"
 1931      64206E6F 
 1931      74207265 
 1931      6164206F 
ARM GAS  C:\Users\25521\AppData\Local\Temp\cchuIINc.s 			page 35


 1931      626A6563 
 1932 0016 0000     		.space	2
 1933              	.LC2:
 1934 0018 7761726E 		.ascii	"warning: type mismatch\000"
 1934      696E673A 
 1934      20747970 
 1934      65206D69 
 1934      736D6174 
 1935              		.section	.rodata.parameter_msgpack_read_cmp.str1.4,"aMS",%progbits,1
 1936              		.align	2
 1937              	.LC16:
 1938 0000 636F756C 		.ascii	"could not read namespace map\000"
 1938      64206E6F 
 1938      74207265 
 1938      6164206E 
 1938      616D6573 
 1939              		.section	.rodata.parameter_msgpack_write_subtree.isra.6.str1.4,"aMS",%progbits,1
 1940              		.align	2
 1941              	.LC14:
 1942 0000 756E7375 		.ascii	"unsupported type for saving\000"
 1942      70706F72 
 1942      74656420 
 1942      74797065 
 1942      20666F72 
 1943              	.LC15:
 1944 001c 636D705F 		.ascii	"cmp_write failed\000"
 1944      77726974 
 1944      65206661 
 1944      696C6564 
 1944      00
 1945              		.section	.rodata.read_namespace.str1.4,"aMS",%progbits,1
 1946              		.align	2
 1947              	.LC3:
 1948 0000 636F756C 		.ascii	"could not read id\000"
 1948      64206E6F 
 1948      74207265 
 1948      61642069 
 1948      6400
 1949 0012 0000     		.space	2
 1950              	.LC4:
 1951 0014 616C6C6F 		.ascii	"allocation failed\000"
 1951      63617469 
 1951      6F6E2066 
 1951      61696C65 
 1951      6400
 1952 0026 0000     		.space	2
 1953              	.LC5:
 1954 0028 636F756C 		.ascii	"could not read value\000"
 1954      64206E6F 
 1954      74207265 
 1954      61642076 
 1954      616C7565 
 1955 003d 000000   		.space	3
 1956              	.LC6:
 1957 0040 7761726E 		.ascii	"warning: namespace doesn't exist\000"
 1957      696E673A 
 1957      206E616D 
ARM GAS  C:\Users\25521\AppData\Local\Temp\cchuIINc.s 			page 36


 1957      65737061 
 1957      63652064 
 1958 0061 000000   		.space	3
 1959              	.LC7:
 1960 0064 7761726E 		.ascii	"warning: parameter doesn't exist\000"
 1960      696E673A 
 1960      20706172 
 1960      616D6574 
 1960      65722064 
 1961 0085 000000   		.space	3
 1962              	.LC8:
 1963 0088 7761726E 		.ascii	"warning: wrong vector dimension\000"
 1963      696E673A 
 1963      2077726F 
 1963      6E672076 
 1963      6563746F 
 1964              	.LC9:
 1965 00a8 7761726E 		.ascii	"warning: allocation failed\000"
 1965      696E673A 
 1965      20616C6C 
 1965      6F636174 
 1965      696F6E20 
 1966 00c3 00       		.space	1
 1967              	.LC10:
 1968 00c4 7761726E 		.ascii	"warning: vector dimension too big\000"
 1968      696E673A 
 1968      20766563 
 1968      746F7220 
 1968      64696D65 
 1969 00e6 0000     		.space	2
 1970              	.LC11:
 1971 00e8 7761726E 		.ascii	"warning: string is too long\000"
 1971      696E673A 
 1971      20737472 
 1971      696E6720 
 1971      69732074 
 1972              	.LC12:
 1973 0104 72656164 		.ascii	"read error\000"
 1973      20657272 
 1973      6F7200
 1974 010f 00       		.space	1
 1975              	.LC13:
 1976 0110 544F444F 		.ascii	"TODO not implemented yet\000"
 1976      206E6F74 
 1976      20696D70 
 1976      6C656D65 
 1976      6E746564 
 1977              		.text
 1978              	.Letext0:
 1979              		.file 2 "d:\\eclipse_e-puck2_win32_11_apr_2018\\eclipse_e-puck2\\tools\\gcc-arm-none-eabi-7-2017-q
 1980              		.file 3 "d:\\eclipse_e-puck2_win32_11_apr_2018\\eclipse_e-puck2\\tools\\gcc-arm-none-eabi-7-2017-q
 1981              		.file 4 "d:\\eclipse_e-puck2_win32_11_apr_2018\\eclipse_e-puck2\\tools\\gcc-arm-none-eabi-7-2017-q
 1982              		.file 5 "d:\\eclipse_e-puck2_win32_11_apr_2018\\eclipse_e-puck2\\tools\\gcc-arm-none-eabi-7-2017-q
 1983              		.file 6 "d:\\eclipse_e-puck2_win32_11_apr_2018\\eclipse_e-puck2\\tools\\gcc-arm-none-eabi-7-2017-q
 1984              		.file 7 "d:\\eclipse_e-puck2_win32_11_apr_2018\\eclipse_e-puck2\\tools\\gcc-arm-none-eabi-7-2017-q
 1985              		.file 8 "d:\\eclipse_e-puck2_win32_11_apr_2018\\eclipse_e-puck2\\tools\\gcc-arm-none-eabi-7-2017-q
 1986              		.file 9 "../e-puck2_main-processor/src/cmp/cmp.h"
ARM GAS  C:\Users\25521\AppData\Local\Temp\cchuIINc.s 			page 37


 1987              		.file 10 "../e-puck2_main-processor/src/cmp_mem_access/cmp_mem_access.h"
 1988              		.file 11 "../e-puck2_main-processor/src/parameter/parameter.h"
 1989              		.file 12 "../e-puck2_main-processor/src/parameter/parameter_msgpack.h"
 1990              		.file 13 "../e-puck2_main-processor/src/parameter/parameter_port.h"
 1991              		.file 14 "d:\\eclipse_e-puck2_win32_11_apr_2018\\eclipse_e-puck2\\tools\\gcc-arm-none-eabi-7-2017-