ARM GAS  C:\Users\25521\AppData\Local\Temp\cc2y9BKS.s 			page 1


   1              		.cpu cortex-m4
   2              		.eabi_attribute 27, 1
   3              		.eabi_attribute 28, 1
   4              		.eabi_attribute 20, 1
   5              		.eabi_attribute 21, 1
   6              		.eabi_attribute 23, 3
   7              		.eabi_attribute 24, 1
   8              		.eabi_attribute 25, 1
   9              		.eabi_attribute 26, 1
  10              		.eabi_attribute 30, 2
  11              		.eabi_attribute 34, 1
  12              		.eabi_attribute 18, 4
  13              		.file	"pwm.c"
  14              		.text
  15              	.Ltext0:
  16              		.cfi_sections	.debug_frame
  17              		.section	.text.pwmInit,"ax",%progbits
  18              		.align	1
  19              		.p2align 4,,15
  20              		.global	pwmInit
  21              		.syntax unified
  22              		.thumb
  23              		.thumb_func
  24              		.fpu fpv4-sp-d16
  25              		.type	pwmInit, %function
  26              	pwmInit:
  27              	.LFB267:
  28              		.file 1 "../e-puck2_main-processor/ChibiOS//os/hal/src/pwm.c"
  29              		.loc 1 56 0
  30              		.cfi_startproc
  31              		@ args = 0, pretend = 0, frame = 8
  32              		@ frame_needed = 0, uses_anonymous_args = 0
  33 0000 00B5     		push	{lr}
  34              		.cfi_def_cfa_offset 4
  35              		.cfi_offset 14, -4
  36 0002 074B     		ldr	r3, .L7
  37 0004 83B0     		sub	sp, sp, #12
  38              		.cfi_def_cfa_offset 16
  39              		.loc 1 56 0
  40 0006 1A68     		ldr	r2, [r3]
  41 0008 0192     		str	r2, [sp, #4]
  42              		.loc 1 58 0
  43 000a 019A     		ldr	r2, [sp, #4]
  44 000c 1B68     		ldr	r3, [r3]
  45 000e 9A42     		cmp	r2, r3
  46 0010 04D1     		bne	.L6
  47              		.loc 1 59 0
  48 0012 03B0     		add	sp, sp, #12
  49              		.cfi_remember_state
  50              		.cfi_def_cfa_offset 4
  51              		@ sp needed
  52 0014 5DF804EB 		ldr	lr, [sp], #4
  53              		.cfi_restore 14
  54              		.cfi_def_cfa_offset 0
  55              		.loc 1 58 0
  56 0018 FFF7FEBF 		b	pwm_lld_init
  57              	.LVL0:
ARM GAS  C:\Users\25521\AppData\Local\Temp\cc2y9BKS.s 			page 2


  58              	.L6:
  59              		.cfi_restore_state
  60 001c FFF7FEFF 		bl	__stack_chk_fail
  61              	.LVL1:
  62              	.L8:
  63              		.align	2
  64              	.L7:
  65 0020 00000000 		.word	__stack_chk_guard
  66              		.cfi_endproc
  67              	.LFE267:
  68              		.size	pwmInit, .-pwmInit
  69              		.section	.text.pwmObjectInit,"ax",%progbits
  70              		.align	1
  71              		.p2align 4,,15
  72              		.global	pwmObjectInit
  73              		.syntax unified
  74              		.thumb
  75              		.thumb_func
  76              		.fpu fpv4-sp-d16
  77              		.type	pwmObjectInit, %function
  78              	pwmObjectInit:
  79              	.LFB268:
  80              		.loc 1 68 0
  81              		.cfi_startproc
  82              		@ args = 0, pretend = 0, frame = 8
  83              		@ frame_needed = 0, uses_anonymous_args = 0
  84              	.LVL2:
  85 0000 00B5     		push	{lr}
  86              		.cfi_def_cfa_offset 4
  87              		.cfi_offset 14, -4
  88 0002 094B     		ldr	r3, .L13
  89 0004 83B0     		sub	sp, sp, #12
  90              		.cfi_def_cfa_offset 16
  91              		.loc 1 68 0
  92 0006 1A68     		ldr	r2, [r3]
  93 0008 0192     		str	r2, [sp, #4]
  94              		.loc 1 70 0
  95 000a 0122     		movs	r2, #1
  96 000c 0270     		strb	r2, [r0]
  97              		.loc 1 77 0
  98 000e 0199     		ldr	r1, [sp, #4]
  99 0010 1A68     		ldr	r2, [r3]
 100              		.loc 1 71 0
 101 0012 0023     		movs	r3, #0
 102              		.loc 1 77 0
 103 0014 9142     		cmp	r1, r2
 104              		.loc 1 71 0
 105 0016 4360     		str	r3, [r0, #4]
 106              		.loc 1 72 0
 107 0018 C360     		str	r3, [r0, #12]
 108              		.loc 1 73 0
 109 001a 0374     		strb	r3, [r0, #16]
 110              		.loc 1 77 0
 111 001c 02D1     		bne	.L12
 112 001e 03B0     		add	sp, sp, #12
 113              		.cfi_remember_state
 114              		.cfi_def_cfa_offset 4
ARM GAS  C:\Users\25521\AppData\Local\Temp\cc2y9BKS.s 			page 3


 115              		@ sp needed
 116 0020 5DF804FB 		ldr	pc, [sp], #4
 117              	.L12:
 118              		.cfi_restore_state
 119 0024 FFF7FEFF 		bl	__stack_chk_fail
 120              	.LVL3:
 121              	.L14:
 122              		.align	2
 123              	.L13:
 124 0028 00000000 		.word	__stack_chk_guard
 125              		.cfi_endproc
 126              	.LFE268:
 127              		.size	pwmObjectInit, .-pwmObjectInit
 128              		.section	.text.pwmStart,"ax",%progbits
 129              		.align	1
 130              		.p2align 4,,15
 131              		.global	pwmStart
 132              		.syntax unified
 133              		.thumb
 134              		.thumb_func
 135              		.fpu fpv4-sp-d16
 136              		.type	pwmStart, %function
 137              	pwmStart:
 138              	.LFB269:
 139              		.loc 1 89 0
 140              		.cfi_startproc
 141              		@ args = 0, pretend = 0, frame = 8
 142              		@ frame_needed = 0, uses_anonymous_args = 0
 143              	.LVL4:
 144 0000 70B5     		push	{r4, r5, r6, lr}
 145              		.cfi_def_cfa_offset 16
 146              		.cfi_offset 4, -16
 147              		.cfi_offset 5, -12
 148              		.cfi_offset 6, -8
 149              		.cfi_offset 14, -4
 150 0002 214E     		ldr	r6, .L27
 151 0004 82B0     		sub	sp, sp, #8
 152              		.cfi_def_cfa_offset 24
 153              		.loc 1 89 0
 154 0006 3368     		ldr	r3, [r6]
 155 0008 0193     		str	r3, [sp, #4]
 156 000a 0D46     		mov	r5, r1
 157              		.loc 1 91 0
 158 000c 0446     		mov	r4, r0
 159 000e 0028     		cmp	r0, #0
 160 0010 33D0     		beq	.L16
 161              		.loc 1 91 0 is_stmt 0 discriminator 3
 162 0012 0029     		cmp	r1, #0
 163 0014 31D0     		beq	.L16
 164              	.LVL5:
 165              	.L17:
 166              	.LBB113:
 167              	.LBB114:
 168              	.LBB115:
 169              	.LBB116:
 170              	.LBB117:
 171              	.LBB118:
ARM GAS  C:\Users\25521\AppData\Local\Temp\cc2y9BKS.s 			page 4


 172              		.file 2 "../e-puck2_main-processor/ChibiOS//os/ext/CMSIS/include/core_cmFunc.h"
 173              		.loc 2 548 0 is_stmt 1
 174 0016 2023     		movs	r3, #32
 175              		.syntax unified
 176              	@ 548 "../e-puck2_main-processor/ChibiOS//os/ext/CMSIS/include/core_cmFunc.h" 1
 177 0018 83F31188 		MSR basepri, r3
 178              	@ 0 "" 2
 179              	.LVL6:
 180              		.thumb
 181              		.syntax unified
 182              	.LBE118:
 183              	.LBE117:
 184              	.LBE116:
 185              		.file 3 "../e-puck2_main-processor/ChibiOS//os/rt/include/chsys.h"
 186              		.loc 3 349 0
 187 001c FFF7FEFF 		bl	_stats_start_measure_crit_thd
 188              	.LVL7:
 189              		.loc 3 350 0
 190 0020 FFF7FEFF 		bl	_dbg_check_lock
 191              	.LVL8:
 192              	.LBE115:
 193              	.LBE114:
 194              	.LBE113:
 195              		.loc 1 94 0
 196 0024 2378     		ldrb	r3, [r4]	@ zero_extendqisi2
 197 0026 013B     		subs	r3, r3, #1
 198 0028 012B     		cmp	r3, #1
 199 002a 02D9     		bls	.L18
 200              		.loc 1 94 0 is_stmt 0 discriminator 2
 201 002c 1748     		ldr	r0, .L27+4
 202 002e FFF7FEFF 		bl	chSysHalt
 203              	.LVL9:
 204              	.L18:
 205              		.loc 1 96 0 is_stmt 1
 206 0032 6560     		str	r5, [r4, #4]
 207              		.loc 1 97 0
 208 0034 6B68     		ldr	r3, [r5, #4]
 209 0036 A360     		str	r3, [r4, #8]
 210              		.loc 1 98 0
 211 0038 2046     		mov	r0, r4
 212 003a FFF7FEFF 		bl	pwm_lld_start
 213              	.LVL10:
 214              		.loc 1 99 0
 215 003e 0022     		movs	r2, #0
 216              		.loc 1 100 0
 217 0040 0223     		movs	r3, #2
 218              		.loc 1 99 0
 219 0042 E260     		str	r2, [r4, #12]
 220              		.loc 1 100 0
 221 0044 2370     		strb	r3, [r4]
 222              	.LBB119:
 223              	.LBB120:
 224              	.LBB121:
 225              		.loc 3 360 0
 226 0046 FFF7FEFF 		bl	_dbg_check_unlock
 227              	.LVL11:
 228              		.loc 3 361 0
ARM GAS  C:\Users\25521\AppData\Local\Temp\cc2y9BKS.s 			page 5


 229 004a FFF7FEFF 		bl	_stats_stop_measure_crit_thd
 230              	.LVL12:
 231              		.loc 3 367 0
 232 004e 104B     		ldr	r3, .L27+8
 233 0050 1A68     		ldr	r2, [r3]
 234 0052 9A42     		cmp	r2, r3
 235 0054 04D0     		beq	.L19
 236 0056 9969     		ldr	r1, [r3, #24]
 237 0058 9368     		ldr	r3, [r2, #8]
 238 005a 8A68     		ldr	r2, [r1, #8]
 239 005c 9A42     		cmp	r2, r3
 240 005e 08D3     		bcc	.L25
 241              	.L19:
 242              	.LVL13:
 243              	.LBB122:
 244              	.LBB123:
 245              	.LBB124:
 246              		.loc 2 548 0
 247 0060 0023     		movs	r3, #0
 248              		.syntax unified
 249              	@ 548 "../e-puck2_main-processor/ChibiOS//os/ext/CMSIS/include/core_cmFunc.h" 1
 250 0062 83F31188 		MSR basepri, r3
 251              	@ 0 "" 2
 252              	.LVL14:
 253              		.thumb
 254              		.syntax unified
 255              	.LBE124:
 256              	.LBE123:
 257              	.LBE122:
 258              	.LBE121:
 259              	.LBE120:
 260              	.LBE119:
 261              		.loc 1 102 0
 262 0066 019A     		ldr	r2, [sp, #4]
 263 0068 3368     		ldr	r3, [r6]
 264 006a 9A42     		cmp	r2, r3
 265 006c 09D1     		bne	.L26
 266 006e 02B0     		add	sp, sp, #8
 267              		.cfi_remember_state
 268              		.cfi_def_cfa_offset 16
 269              		@ sp needed
 270 0070 70BD     		pop	{r4, r5, r6, pc}
 271              	.LVL15:
 272              	.L25:
 273              		.cfi_restore_state
 274              	.LBB127:
 275              	.LBB126:
 276              	.LBB125:
 277              		.loc 3 367 0
 278 0072 0848     		ldr	r0, .L27+12
 279 0074 FFF7FEFF 		bl	chSysHalt
 280              	.LVL16:
 281 0078 F2E7     		b	.L19
 282              	.LVL17:
 283              	.L16:
 284              	.LBE125:
 285              	.LBE126:
ARM GAS  C:\Users\25521\AppData\Local\Temp\cc2y9BKS.s 			page 6


 286              	.LBE127:
 287              		.loc 1 91 0 discriminator 4
 288 007a 0448     		ldr	r0, .L27+4
 289              	.LVL18:
 290 007c FFF7FEFF 		bl	chSysHalt
 291              	.LVL19:
 292 0080 C9E7     		b	.L17
 293              	.L26:
 294              		.loc 1 102 0
 295 0082 FFF7FEFF 		bl	__stack_chk_fail
 296              	.LVL20:
 297              	.L28:
 298 0086 00BF     		.align	2
 299              	.L27:
 300 0088 00000000 		.word	__stack_chk_guard
 301 008c 00000000 		.word	.LANCHOR0
 302 0090 00000000 		.word	ch
 303 0094 00000000 		.word	.LANCHOR1
 304              		.cfi_endproc
 305              	.LFE269:
 306              		.size	pwmStart, .-pwmStart
 307              		.section	.text.pwmStop,"ax",%progbits
 308              		.align	1
 309              		.p2align 4,,15
 310              		.global	pwmStop
 311              		.syntax unified
 312              		.thumb
 313              		.thumb_func
 314              		.fpu fpv4-sp-d16
 315              		.type	pwmStop, %function
 316              	pwmStop:
 317              	.LFB270:
 318              		.loc 1 111 0
 319              		.cfi_startproc
 320              		@ args = 0, pretend = 0, frame = 8
 321              		@ frame_needed = 0, uses_anonymous_args = 0
 322              	.LVL21:
 323 0000 30B5     		push	{r4, r5, lr}
 324              		.cfi_def_cfa_offset 12
 325              		.cfi_offset 4, -12
 326              		.cfi_offset 5, -8
 327              		.cfi_offset 14, -4
 328 0002 1D4D     		ldr	r5, .L38
 329 0004 83B0     		sub	sp, sp, #12
 330              		.cfi_def_cfa_offset 24
 331              		.loc 1 111 0
 332 0006 2B68     		ldr	r3, [r5]
 333 0008 0193     		str	r3, [sp, #4]
 334              		.loc 1 113 0
 335 000a 0446     		mov	r4, r0
 336 000c 70B3     		cbz	r0, .L35
 337              	.LVL22:
 338              	.L30:
 339              	.LBB141:
 340              	.LBB142:
 341              	.LBB143:
 342              	.LBB144:
ARM GAS  C:\Users\25521\AppData\Local\Temp\cc2y9BKS.s 			page 7


 343              	.LBB145:
 344              	.LBB146:
 345              		.loc 2 548 0
 346 000e 2023     		movs	r3, #32
 347              		.syntax unified
 348              	@ 548 "../e-puck2_main-processor/ChibiOS//os/ext/CMSIS/include/core_cmFunc.h" 1
 349 0010 83F31188 		MSR basepri, r3
 350              	@ 0 "" 2
 351              	.LVL23:
 352              		.thumb
 353              		.syntax unified
 354              	.LBE146:
 355              	.LBE145:
 356              	.LBE144:
 357              		.loc 3 349 0
 358 0014 FFF7FEFF 		bl	_stats_start_measure_crit_thd
 359              	.LVL24:
 360              		.loc 3 350 0
 361 0018 FFF7FEFF 		bl	_dbg_check_lock
 362              	.LVL25:
 363              	.LBE143:
 364              	.LBE142:
 365              	.LBE141:
 366              		.loc 1 116 0
 367 001c 2378     		ldrb	r3, [r4]	@ zero_extendqisi2
 368 001e 013B     		subs	r3, r3, #1
 369 0020 012B     		cmp	r3, #1
 370 0022 02D9     		bls	.L31
 371              		.loc 1 116 0 is_stmt 0 discriminator 2
 372 0024 1548     		ldr	r0, .L38+4
 373 0026 FFF7FEFF 		bl	chSysHalt
 374              	.LVL26:
 375              	.L31:
 376              		.loc 1 118 0 is_stmt 1
 377 002a 2046     		mov	r0, r4
 378 002c FFF7FEFF 		bl	pwm_lld_stop
 379              	.LVL27:
 380              		.loc 1 119 0
 381 0030 0022     		movs	r2, #0
 382              		.loc 1 120 0
 383 0032 0123     		movs	r3, #1
 384              		.loc 1 119 0
 385 0034 E260     		str	r2, [r4, #12]
 386              		.loc 1 120 0
 387 0036 2370     		strb	r3, [r4]
 388              	.LBB147:
 389              	.LBB148:
 390              	.LBB149:
 391              		.loc 3 360 0
 392 0038 FFF7FEFF 		bl	_dbg_check_unlock
 393              	.LVL28:
 394              		.loc 3 361 0
 395 003c FFF7FEFF 		bl	_stats_stop_measure_crit_thd
 396              	.LVL29:
 397              		.loc 3 367 0
 398 0040 0F4B     		ldr	r3, .L38+8
 399 0042 1A68     		ldr	r2, [r3]
ARM GAS  C:\Users\25521\AppData\Local\Temp\cc2y9BKS.s 			page 8


 400 0044 9A42     		cmp	r2, r3
 401 0046 04D0     		beq	.L32
 402 0048 9969     		ldr	r1, [r3, #24]
 403 004a 9368     		ldr	r3, [r2, #8]
 404 004c 8A68     		ldr	r2, [r1, #8]
 405 004e 9A42     		cmp	r2, r3
 406 0050 08D3     		bcc	.L36
 407              	.L32:
 408              	.LVL30:
 409              	.LBB150:
 410              	.LBB151:
 411              	.LBB152:
 412              		.loc 2 548 0
 413 0052 0023     		movs	r3, #0
 414              		.syntax unified
 415              	@ 548 "../e-puck2_main-processor/ChibiOS//os/ext/CMSIS/include/core_cmFunc.h" 1
 416 0054 83F31188 		MSR basepri, r3
 417              	@ 0 "" 2
 418              	.LVL31:
 419              		.thumb
 420              		.syntax unified
 421              	.LBE152:
 422              	.LBE151:
 423              	.LBE150:
 424              	.LBE149:
 425              	.LBE148:
 426              	.LBE147:
 427              		.loc 1 122 0
 428 0058 019A     		ldr	r2, [sp, #4]
 429 005a 2B68     		ldr	r3, [r5]
 430 005c 9A42     		cmp	r2, r3
 431 005e 09D1     		bne	.L37
 432 0060 03B0     		add	sp, sp, #12
 433              		.cfi_remember_state
 434              		.cfi_def_cfa_offset 12
 435              		@ sp needed
 436 0062 30BD     		pop	{r4, r5, pc}
 437              	.LVL32:
 438              	.L36:
 439              		.cfi_restore_state
 440              	.LBB155:
 441              	.LBB154:
 442              	.LBB153:
 443              		.loc 3 367 0
 444 0064 0748     		ldr	r0, .L38+12
 445 0066 FFF7FEFF 		bl	chSysHalt
 446              	.LVL33:
 447 006a F2E7     		b	.L32
 448              	.LVL34:
 449              	.L35:
 450              	.LBE153:
 451              	.LBE154:
 452              	.LBE155:
 453              		.loc 1 113 0 discriminator 2
 454 006c 0348     		ldr	r0, .L38+4
 455              	.LVL35:
 456 006e FFF7FEFF 		bl	chSysHalt
ARM GAS  C:\Users\25521\AppData\Local\Temp\cc2y9BKS.s 			page 9


 457              	.LVL36:
 458 0072 CCE7     		b	.L30
 459              	.L37:
 460              		.loc 1 122 0
 461 0074 FFF7FEFF 		bl	__stack_chk_fail
 462              	.LVL37:
 463              	.L39:
 464              		.align	2
 465              	.L38:
 466 0078 00000000 		.word	__stack_chk_guard
 467 007c 00000000 		.word	.LANCHOR2
 468 0080 00000000 		.word	ch
 469 0084 00000000 		.word	.LANCHOR1
 470              		.cfi_endproc
 471              	.LFE270:
 472              		.size	pwmStop, .-pwmStop
 473              		.section	.text.pwmChangePeriod,"ax",%progbits
 474              		.align	1
 475              		.p2align 4,,15
 476              		.global	pwmChangePeriod
 477              		.syntax unified
 478              		.thumb
 479              		.thumb_func
 480              		.fpu fpv4-sp-d16
 481              		.type	pwmChangePeriod, %function
 482              	pwmChangePeriod:
 483              	.LFB271:
 484              		.loc 1 139 0
 485              		.cfi_startproc
 486              		@ args = 0, pretend = 0, frame = 8
 487              		@ frame_needed = 0, uses_anonymous_args = 0
 488              	.LVL38:
 489 0000 70B5     		push	{r4, r5, r6, lr}
 490              		.cfi_def_cfa_offset 16
 491              		.cfi_offset 4, -16
 492              		.cfi_offset 5, -12
 493              		.cfi_offset 6, -8
 494              		.cfi_offset 14, -4
 495 0002 1C4E     		ldr	r6, .L52
 496 0004 82B0     		sub	sp, sp, #8
 497              		.cfi_def_cfa_offset 24
 498              		.loc 1 139 0
 499 0006 3368     		ldr	r3, [r6]
 500 0008 0193     		str	r3, [sp, #4]
 501 000a 0C46     		mov	r4, r1
 502              		.loc 1 141 0
 503 000c 0546     		mov	r5, r0
 504 000e 50B3     		cbz	r0, .L49
 505              	.LVL39:
 506              	.L41:
 507              	.LBB169:
 508              	.LBB170:
 509              	.LBB171:
 510              	.LBB172:
 511              	.LBB173:
 512              	.LBB174:
 513              		.loc 2 548 0
ARM GAS  C:\Users\25521\AppData\Local\Temp\cc2y9BKS.s 			page 10


 514 0010 2023     		movs	r3, #32
 515              		.syntax unified
 516              	@ 548 "../e-puck2_main-processor/ChibiOS//os/ext/CMSIS/include/core_cmFunc.h" 1
 517 0012 83F31188 		MSR basepri, r3
 518              	@ 0 "" 2
 519              	.LVL40:
 520              		.thumb
 521              		.syntax unified
 522              	.LBE174:
 523              	.LBE173:
 524              	.LBE172:
 525              		.loc 3 349 0
 526 0016 FFF7FEFF 		bl	_stats_start_measure_crit_thd
 527              	.LVL41:
 528              		.loc 3 350 0
 529 001a FFF7FEFF 		bl	_dbg_check_lock
 530              	.LVL42:
 531              	.LBE171:
 532              	.LBE170:
 533              	.LBE169:
 534              		.loc 1 144 0
 535 001e 2B78     		ldrb	r3, [r5]	@ zero_extendqisi2
 536 0020 022B     		cmp	r3, #2
 537 0022 02D0     		beq	.L42
 538              		.loc 1 144 0 is_stmt 0 discriminator 2
 539 0024 1448     		ldr	r0, .L52+4
 540 0026 FFF7FEFF 		bl	chSysHalt
 541              	.LVL43:
 542              	.L42:
 543              		.loc 1 145 0 is_stmt 1
 544 002a AB69     		ldr	r3, [r5, #24]
 545 002c AC60     		str	r4, [r5, #8]
 546 002e 013C     		subs	r4, r4, #1
 547              	.LVL44:
 548 0030 DC62     		str	r4, [r3, #44]
 549              	.LVL45:
 550              	.LBB175:
 551              	.LBB176:
 552              	.LBB177:
 553              		.loc 3 360 0
 554 0032 FFF7FEFF 		bl	_dbg_check_unlock
 555              	.LVL46:
 556              		.loc 3 361 0
 557 0036 FFF7FEFF 		bl	_stats_stop_measure_crit_thd
 558              	.LVL47:
 559              		.loc 3 367 0
 560 003a 104B     		ldr	r3, .L52+8
 561 003c 1A68     		ldr	r2, [r3]
 562 003e 9A42     		cmp	r2, r3
 563 0040 04D0     		beq	.L43
 564 0042 9969     		ldr	r1, [r3, #24]
 565 0044 9368     		ldr	r3, [r2, #8]
 566 0046 8A68     		ldr	r2, [r1, #8]
 567 0048 9A42     		cmp	r2, r3
 568 004a 08D3     		bcc	.L50
 569              	.L43:
 570              	.LVL48:
ARM GAS  C:\Users\25521\AppData\Local\Temp\cc2y9BKS.s 			page 11


 571              	.LBB178:
 572              	.LBB179:
 573              	.LBB180:
 574              		.loc 2 548 0
 575 004c 0023     		movs	r3, #0
 576              		.syntax unified
 577              	@ 548 "../e-puck2_main-processor/ChibiOS//os/ext/CMSIS/include/core_cmFunc.h" 1
 578 004e 83F31188 		MSR basepri, r3
 579              	@ 0 "" 2
 580              	.LVL49:
 581              		.thumb
 582              		.syntax unified
 583              	.LBE180:
 584              	.LBE179:
 585              	.LBE178:
 586              	.LBE177:
 587              	.LBE176:
 588              	.LBE175:
 589              		.loc 1 147 0
 590 0052 019A     		ldr	r2, [sp, #4]
 591 0054 3368     		ldr	r3, [r6]
 592 0056 9A42     		cmp	r2, r3
 593 0058 09D1     		bne	.L51
 594 005a 02B0     		add	sp, sp, #8
 595              		.cfi_remember_state
 596              		.cfi_def_cfa_offset 16
 597              		@ sp needed
 598 005c 70BD     		pop	{r4, r5, r6, pc}
 599              	.LVL50:
 600              	.L50:
 601              		.cfi_restore_state
 602              	.LBB183:
 603              	.LBB182:
 604              	.LBB181:
 605              		.loc 3 367 0
 606 005e 0848     		ldr	r0, .L52+12
 607 0060 FFF7FEFF 		bl	chSysHalt
 608              	.LVL51:
 609 0064 F2E7     		b	.L43
 610              	.LVL52:
 611              	.L49:
 612              	.LBE181:
 613              	.LBE182:
 614              	.LBE183:
 615              		.loc 1 141 0 discriminator 2
 616 0066 0448     		ldr	r0, .L52+4
 617              	.LVL53:
 618 0068 FFF7FEFF 		bl	chSysHalt
 619              	.LVL54:
 620 006c D0E7     		b	.L41
 621              	.LVL55:
 622              	.L51:
 623              		.loc 1 147 0
 624 006e FFF7FEFF 		bl	__stack_chk_fail
 625              	.LVL56:
 626              	.L53:
 627 0072 00BF     		.align	2
ARM GAS  C:\Users\25521\AppData\Local\Temp\cc2y9BKS.s 			page 12


 628              	.L52:
 629 0074 00000000 		.word	__stack_chk_guard
 630 0078 00000000 		.word	.LANCHOR3
 631 007c 00000000 		.word	ch
 632 0080 00000000 		.word	.LANCHOR1
 633              		.cfi_endproc
 634              	.LFE271:
 635              		.size	pwmChangePeriod, .-pwmChangePeriod
 636              		.section	.text.pwmEnableChannel,"ax",%progbits
 637              		.align	1
 638              		.p2align 4,,15
 639              		.global	pwmEnableChannel
 640              		.syntax unified
 641              		.thumb
 642              		.thumb_func
 643              		.fpu fpv4-sp-d16
 644              		.type	pwmEnableChannel, %function
 645              	pwmEnableChannel:
 646              	.LFB272:
 647              		.loc 1 165 0
 648              		.cfi_startproc
 649              		@ args = 0, pretend = 0, frame = 8
 650              		@ frame_needed = 0, uses_anonymous_args = 0
 651              	.LVL57:
 652 0000 F0B5     		push	{r4, r5, r6, r7, lr}
 653              		.cfi_def_cfa_offset 20
 654              		.cfi_offset 4, -20
 655              		.cfi_offset 5, -16
 656              		.cfi_offset 6, -12
 657              		.cfi_offset 7, -8
 658              		.cfi_offset 14, -4
 659 0002 214E     		ldr	r6, .L69
 660 0004 83B0     		sub	sp, sp, #12
 661              		.cfi_def_cfa_offset 32
 662              		.loc 1 165 0
 663 0006 3368     		ldr	r3, [r6]
 664 0008 0193     		str	r3, [sp, #4]
 665 000a 0D46     		mov	r5, r1
 666 000c 1746     		mov	r7, r2
 667              		.loc 1 167 0
 668 000e 0446     		mov	r4, r0
 669 0010 78B3     		cbz	r0, .L55
 670              		.loc 1 167 0 is_stmt 0 discriminator 3
 671 0012 037C     		ldrb	r3, [r0, #16]	@ zero_extendqisi2
 672 0014 8B42     		cmp	r3, r1
 673 0016 2CD9     		bls	.L55
 674              	.LVL58:
 675              	.L56:
 676              	.LBB197:
 677              	.LBB198:
 678              	.LBB199:
 679              	.LBB200:
 680              	.LBB201:
 681              	.LBB202:
 682              		.loc 2 548 0 is_stmt 1
 683 0018 2023     		movs	r3, #32
 684              		.syntax unified
ARM GAS  C:\Users\25521\AppData\Local\Temp\cc2y9BKS.s 			page 13


 685              	@ 548 "../e-puck2_main-processor/ChibiOS//os/ext/CMSIS/include/core_cmFunc.h" 1
 686 001a 83F31188 		MSR basepri, r3
 687              	@ 0 "" 2
 688              	.LVL59:
 689              		.thumb
 690              		.syntax unified
 691              	.LBE202:
 692              	.LBE201:
 693              	.LBE200:
 694              		.loc 3 349 0
 695 001e FFF7FEFF 		bl	_stats_start_measure_crit_thd
 696              	.LVL60:
 697              		.loc 3 350 0
 698 0022 FFF7FEFF 		bl	_dbg_check_lock
 699              	.LVL61:
 700              	.LBE199:
 701              	.LBE198:
 702              	.LBE197:
 703              		.loc 1 171 0
 704 0026 2378     		ldrb	r3, [r4]	@ zero_extendqisi2
 705 0028 022B     		cmp	r3, #2
 706 002a 02D0     		beq	.L57
 707              		.loc 1 171 0 is_stmt 0 discriminator 2
 708 002c 1748     		ldr	r0, .L69+4
 709 002e FFF7FEFF 		bl	chSysHalt
 710              	.LVL62:
 711              	.L57:
 712              		.loc 1 173 0 is_stmt 1
 713 0032 E368     		ldr	r3, [r4, #12]
 714 0034 0122     		movs	r2, #1
 715 0036 AA40     		lsls	r2, r2, r5
 716 0038 1343     		orrs	r3, r3, r2
 717 003a E360     		str	r3, [r4, #12]
 718 003c 3A46     		mov	r2, r7
 719 003e 2946     		mov	r1, r5
 720 0040 2046     		mov	r0, r4
 721 0042 FFF7FEFF 		bl	pwm_lld_enable_channel
 722              	.LVL63:
 723              	.LBB203:
 724              	.LBB204:
 725              	.LBB205:
 726              		.loc 3 360 0
 727 0046 FFF7FEFF 		bl	_dbg_check_unlock
 728              	.LVL64:
 729              		.loc 3 361 0
 730 004a FFF7FEFF 		bl	_stats_stop_measure_crit_thd
 731              	.LVL65:
 732              		.loc 3 367 0
 733 004e 104B     		ldr	r3, .L69+8
 734 0050 1A68     		ldr	r2, [r3]
 735 0052 9A42     		cmp	r2, r3
 736 0054 04D0     		beq	.L58
 737 0056 9969     		ldr	r1, [r3, #24]
 738 0058 9368     		ldr	r3, [r2, #8]
 739 005a 8A68     		ldr	r2, [r1, #8]
 740 005c 9A42     		cmp	r2, r3
 741 005e 0CD3     		bcc	.L67
ARM GAS  C:\Users\25521\AppData\Local\Temp\cc2y9BKS.s 			page 14


 742              	.L58:
 743              	.LVL66:
 744              	.LBB206:
 745              	.LBB207:
 746              	.LBB208:
 747              		.loc 2 548 0
 748 0060 0023     		movs	r3, #0
 749              		.syntax unified
 750              	@ 548 "../e-puck2_main-processor/ChibiOS//os/ext/CMSIS/include/core_cmFunc.h" 1
 751 0062 83F31188 		MSR basepri, r3
 752              	@ 0 "" 2
 753              	.LVL67:
 754              		.thumb
 755              		.syntax unified
 756              	.LBE208:
 757              	.LBE207:
 758              	.LBE206:
 759              	.LBE205:
 760              	.LBE204:
 761              	.LBE203:
 762              		.loc 1 176 0
 763 0066 019A     		ldr	r2, [sp, #4]
 764 0068 3368     		ldr	r3, [r6]
 765 006a 9A42     		cmp	r2, r3
 766 006c 09D1     		bne	.L68
 767 006e 03B0     		add	sp, sp, #12
 768              		.cfi_remember_state
 769              		.cfi_def_cfa_offset 20
 770              		@ sp needed
 771 0070 F0BD     		pop	{r4, r5, r6, r7, pc}
 772              	.LVL68:
 773              	.L55:
 774              		.cfi_restore_state
 775              		.loc 1 167 0 discriminator 4
 776 0072 0648     		ldr	r0, .L69+4
 777              	.LVL69:
 778 0074 FFF7FEFF 		bl	chSysHalt
 779              	.LVL70:
 780 0078 CEE7     		b	.L56
 781              	.L67:
 782              	.LBB211:
 783              	.LBB210:
 784              	.LBB209:
 785              		.loc 3 367 0
 786 007a 0648     		ldr	r0, .L69+12
 787 007c FFF7FEFF 		bl	chSysHalt
 788              	.LVL71:
 789 0080 EEE7     		b	.L58
 790              	.L68:
 791              	.LBE209:
 792              	.LBE210:
 793              	.LBE211:
 794              		.loc 1 176 0
 795 0082 FFF7FEFF 		bl	__stack_chk_fail
 796              	.LVL72:
 797              	.L70:
 798 0086 00BF     		.align	2
ARM GAS  C:\Users\25521\AppData\Local\Temp\cc2y9BKS.s 			page 15


 799              	.L69:
 800 0088 00000000 		.word	__stack_chk_guard
 801 008c 00000000 		.word	.LANCHOR4
 802 0090 00000000 		.word	ch
 803 0094 00000000 		.word	.LANCHOR1
 804              		.cfi_endproc
 805              	.LFE272:
 806              		.size	pwmEnableChannel, .-pwmEnableChannel
 807              		.section	.text.pwmDisableChannel,"ax",%progbits
 808              		.align	1
 809              		.p2align 4,,15
 810              		.global	pwmDisableChannel
 811              		.syntax unified
 812              		.thumb
 813              		.thumb_func
 814              		.fpu fpv4-sp-d16
 815              		.type	pwmDisableChannel, %function
 816              	pwmDisableChannel:
 817              	.LFB273:
 818              		.loc 1 192 0
 819              		.cfi_startproc
 820              		@ args = 0, pretend = 0, frame = 8
 821              		@ frame_needed = 0, uses_anonymous_args = 0
 822              	.LVL73:
 823 0000 70B5     		push	{r4, r5, r6, lr}
 824              		.cfi_def_cfa_offset 16
 825              		.cfi_offset 4, -16
 826              		.cfi_offset 5, -12
 827              		.cfi_offset 6, -8
 828              		.cfi_offset 14, -4
 829 0002 204E     		ldr	r6, .L86
 830 0004 82B0     		sub	sp, sp, #8
 831              		.cfi_def_cfa_offset 24
 832              		.loc 1 192 0
 833 0006 3368     		ldr	r3, [r6]
 834 0008 0193     		str	r3, [sp, #4]
 835 000a 0D46     		mov	r5, r1
 836              		.loc 1 194 0
 837 000c 0446     		mov	r4, r0
 838 000e 78B3     		cbz	r0, .L72
 839              		.loc 1 194 0 is_stmt 0 discriminator 3
 840 0010 037C     		ldrb	r3, [r0, #16]	@ zero_extendqisi2
 841 0012 8B42     		cmp	r3, r1
 842 0014 2CD9     		bls	.L72
 843              	.LVL74:
 844              	.L73:
 845              	.LBB225:
 846              	.LBB226:
 847              	.LBB227:
 848              	.LBB228:
 849              	.LBB229:
 850              	.LBB230:
 851              		.loc 2 548 0 is_stmt 1
 852 0016 2023     		movs	r3, #32
 853              		.syntax unified
 854              	@ 548 "../e-puck2_main-processor/ChibiOS//os/ext/CMSIS/include/core_cmFunc.h" 1
 855 0018 83F31188 		MSR basepri, r3
ARM GAS  C:\Users\25521\AppData\Local\Temp\cc2y9BKS.s 			page 16


 856              	@ 0 "" 2
 857              	.LVL75:
 858              		.thumb
 859              		.syntax unified
 860              	.LBE230:
 861              	.LBE229:
 862              	.LBE228:
 863              		.loc 3 349 0
 864 001c FFF7FEFF 		bl	_stats_start_measure_crit_thd
 865              	.LVL76:
 866              		.loc 3 350 0
 867 0020 FFF7FEFF 		bl	_dbg_check_lock
 868              	.LVL77:
 869              	.LBE227:
 870              	.LBE226:
 871              	.LBE225:
 872              		.loc 1 198 0
 873 0024 2378     		ldrb	r3, [r4]	@ zero_extendqisi2
 874 0026 022B     		cmp	r3, #2
 875 0028 02D0     		beq	.L74
 876              		.loc 1 198 0 is_stmt 0 discriminator 2
 877 002a 1748     		ldr	r0, .L86+4
 878 002c FFF7FEFF 		bl	chSysHalt
 879              	.LVL78:
 880              	.L74:
 881              		.loc 1 200 0 is_stmt 1
 882 0030 E368     		ldr	r3, [r4, #12]
 883 0032 0122     		movs	r2, #1
 884 0034 AA40     		lsls	r2, r2, r5
 885 0036 23EA0203 		bic	r3, r3, r2
 886 003a E360     		str	r3, [r4, #12]
 887 003c 2946     		mov	r1, r5
 888 003e 2046     		mov	r0, r4
 889 0040 FFF7FEFF 		bl	pwm_lld_disable_channel
 890              	.LVL79:
 891              	.LBB231:
 892              	.LBB232:
 893              	.LBB233:
 894              		.loc 3 360 0
 895 0044 FFF7FEFF 		bl	_dbg_check_unlock
 896              	.LVL80:
 897              		.loc 3 361 0
 898 0048 FFF7FEFF 		bl	_stats_stop_measure_crit_thd
 899              	.LVL81:
 900              		.loc 3 367 0
 901 004c 0F4B     		ldr	r3, .L86+8
 902 004e 1A68     		ldr	r2, [r3]
 903 0050 9A42     		cmp	r2, r3
 904 0052 04D0     		beq	.L75
 905 0054 9969     		ldr	r1, [r3, #24]
 906 0056 9368     		ldr	r3, [r2, #8]
 907 0058 8A68     		ldr	r2, [r1, #8]
 908 005a 9A42     		cmp	r2, r3
 909 005c 0CD3     		bcc	.L84
 910              	.L75:
 911              	.LVL82:
 912              	.LBB234:
ARM GAS  C:\Users\25521\AppData\Local\Temp\cc2y9BKS.s 			page 17


 913              	.LBB235:
 914              	.LBB236:
 915              		.loc 2 548 0
 916 005e 0023     		movs	r3, #0
 917              		.syntax unified
 918              	@ 548 "../e-puck2_main-processor/ChibiOS//os/ext/CMSIS/include/core_cmFunc.h" 1
 919 0060 83F31188 		MSR basepri, r3
 920              	@ 0 "" 2
 921              	.LVL83:
 922              		.thumb
 923              		.syntax unified
 924              	.LBE236:
 925              	.LBE235:
 926              	.LBE234:
 927              	.LBE233:
 928              	.LBE232:
 929              	.LBE231:
 930              		.loc 1 203 0
 931 0064 019A     		ldr	r2, [sp, #4]
 932 0066 3368     		ldr	r3, [r6]
 933 0068 9A42     		cmp	r2, r3
 934 006a 09D1     		bne	.L85
 935 006c 02B0     		add	sp, sp, #8
 936              		.cfi_remember_state
 937              		.cfi_def_cfa_offset 16
 938              		@ sp needed
 939 006e 70BD     		pop	{r4, r5, r6, pc}
 940              	.LVL84:
 941              	.L72:
 942              		.cfi_restore_state
 943              		.loc 1 194 0 discriminator 4
 944 0070 0548     		ldr	r0, .L86+4
 945              	.LVL85:
 946 0072 FFF7FEFF 		bl	chSysHalt
 947              	.LVL86:
 948 0076 CEE7     		b	.L73
 949              	.L84:
 950              	.LBB239:
 951              	.LBB238:
 952              	.LBB237:
 953              		.loc 3 367 0
 954 0078 0548     		ldr	r0, .L86+12
 955 007a FFF7FEFF 		bl	chSysHalt
 956              	.LVL87:
 957 007e EEE7     		b	.L75
 958              	.L85:
 959              	.LBE237:
 960              	.LBE238:
 961              	.LBE239:
 962              		.loc 1 203 0
 963 0080 FFF7FEFF 		bl	__stack_chk_fail
 964              	.LVL88:
 965              	.L87:
 966              		.align	2
 967              	.L86:
 968 0084 00000000 		.word	__stack_chk_guard
 969 0088 00000000 		.word	.LANCHOR5
ARM GAS  C:\Users\25521\AppData\Local\Temp\cc2y9BKS.s 			page 18


 970 008c 00000000 		.word	ch
 971 0090 00000000 		.word	.LANCHOR1
 972              		.cfi_endproc
 973              	.LFE273:
 974              		.size	pwmDisableChannel, .-pwmDisableChannel
 975              		.section	.text.pwmEnablePeriodicNotification,"ax",%progbits
 976              		.align	1
 977              		.p2align 4,,15
 978              		.global	pwmEnablePeriodicNotification
 979              		.syntax unified
 980              		.thumb
 981              		.thumb_func
 982              		.fpu fpv4-sp-d16
 983              		.type	pwmEnablePeriodicNotification, %function
 984              	pwmEnablePeriodicNotification:
 985              	.LFB274:
 986              		.loc 1 214 0
 987              		.cfi_startproc
 988              		@ args = 0, pretend = 0, frame = 8
 989              		@ frame_needed = 0, uses_anonymous_args = 0
 990              	.LVL89:
 991 0000 30B5     		push	{r4, r5, lr}
 992              		.cfi_def_cfa_offset 12
 993              		.cfi_offset 4, -12
 994              		.cfi_offset 5, -8
 995              		.cfi_offset 14, -4
 996 0002 1E4D     		ldr	r5, .L102
 997 0004 83B0     		sub	sp, sp, #12
 998              		.cfi_def_cfa_offset 24
 999              		.loc 1 214 0
 1000 0006 2B68     		ldr	r3, [r5]
 1001 0008 0193     		str	r3, [sp, #4]
 1002              		.loc 1 216 0
 1003 000a 0446     		mov	r4, r0
 1004 000c 80B3     		cbz	r0, .L98
 1005              	.LVL90:
 1006              	.L89:
 1007              	.LBB253:
 1008              	.LBB254:
 1009              	.LBB255:
 1010              	.LBB256:
 1011              	.LBB257:
 1012              	.LBB258:
 1013              		.loc 2 548 0
 1014 000e 2023     		movs	r3, #32
 1015              		.syntax unified
 1016              	@ 548 "../e-puck2_main-processor/ChibiOS//os/ext/CMSIS/include/core_cmFunc.h" 1
 1017 0010 83F31188 		MSR basepri, r3
 1018              	@ 0 "" 2
 1019              	.LVL91:
 1020              		.thumb
 1021              		.syntax unified
 1022              	.LBE258:
 1023              	.LBE257:
 1024              	.LBE256:
 1025              		.loc 3 349 0
 1026 0014 FFF7FEFF 		bl	_stats_start_measure_crit_thd
ARM GAS  C:\Users\25521\AppData\Local\Temp\cc2y9BKS.s 			page 19


 1027              	.LVL92:
 1028              		.loc 3 350 0
 1029 0018 FFF7FEFF 		bl	_dbg_check_lock
 1030              	.LVL93:
 1031              	.LBE255:
 1032              	.LBE254:
 1033              	.LBE253:
 1034              		.loc 1 220 0
 1035 001c 2378     		ldrb	r3, [r4]	@ zero_extendqisi2
 1036 001e 022B     		cmp	r3, #2
 1037 0020 02D0     		beq	.L90
 1038              		.loc 1 220 0 is_stmt 0 discriminator 2
 1039 0022 1748     		ldr	r0, .L102+4
 1040 0024 FFF7FEFF 		bl	chSysHalt
 1041              	.LVL94:
 1042              	.L90:
 1043              		.loc 1 221 0 is_stmt 1 discriminator 1
 1044 0028 6368     		ldr	r3, [r4, #4]
 1045 002a 9B68     		ldr	r3, [r3, #8]
 1046 002c E3B1     		cbz	r3, .L99
 1047              	.L91:
 1048              		.loc 1 223 0
 1049 002e 2046     		mov	r0, r4
 1050 0030 FFF7FEFF 		bl	pwm_lld_enable_periodic_notification
 1051              	.LVL95:
 1052              	.LBB259:
 1053              	.LBB260:
 1054              	.LBB261:
 1055              		.loc 3 360 0
 1056 0034 FFF7FEFF 		bl	_dbg_check_unlock
 1057              	.LVL96:
 1058              		.loc 3 361 0
 1059 0038 FFF7FEFF 		bl	_stats_stop_measure_crit_thd
 1060              	.LVL97:
 1061              		.loc 3 367 0
 1062 003c 114B     		ldr	r3, .L102+8
 1063 003e 1A68     		ldr	r2, [r3]
 1064 0040 9A42     		cmp	r2, r3
 1065 0042 04D0     		beq	.L92
 1066 0044 9969     		ldr	r1, [r3, #24]
 1067 0046 9368     		ldr	r3, [r2, #8]
 1068 0048 8A68     		ldr	r2, [r1, #8]
 1069 004a 9A42     		cmp	r2, r3
 1070 004c 08D3     		bcc	.L100
 1071              	.L92:
 1072              	.LVL98:
 1073              	.LBB262:
 1074              	.LBB263:
 1075              	.LBB264:
 1076              		.loc 2 548 0
 1077 004e 0023     		movs	r3, #0
 1078              		.syntax unified
 1079              	@ 548 "../e-puck2_main-processor/ChibiOS//os/ext/CMSIS/include/core_cmFunc.h" 1
 1080 0050 83F31188 		MSR basepri, r3
 1081              	@ 0 "" 2
 1082              	.LVL99:
 1083              		.thumb
ARM GAS  C:\Users\25521\AppData\Local\Temp\cc2y9BKS.s 			page 20


 1084              		.syntax unified
 1085              	.LBE264:
 1086              	.LBE263:
 1087              	.LBE262:
 1088              	.LBE261:
 1089              	.LBE260:
 1090              	.LBE259:
 1091              		.loc 1 226 0
 1092 0054 019A     		ldr	r2, [sp, #4]
 1093 0056 2B68     		ldr	r3, [r5]
 1094 0058 9A42     		cmp	r2, r3
 1095 005a 0DD1     		bne	.L101
 1096 005c 03B0     		add	sp, sp, #12
 1097              		.cfi_remember_state
 1098              		.cfi_def_cfa_offset 12
 1099              		@ sp needed
 1100 005e 30BD     		pop	{r4, r5, pc}
 1101              	.LVL100:
 1102              	.L100:
 1103              		.cfi_restore_state
 1104              	.LBB267:
 1105              	.LBB266:
 1106              	.LBB265:
 1107              		.loc 3 367 0
 1108 0060 0948     		ldr	r0, .L102+12
 1109 0062 FFF7FEFF 		bl	chSysHalt
 1110              	.LVL101:
 1111 0066 F2E7     		b	.L92
 1112              	.L99:
 1113              	.LBE265:
 1114              	.LBE266:
 1115              	.LBE267:
 1116              		.loc 1 221 0 discriminator 2
 1117 0068 0548     		ldr	r0, .L102+4
 1118 006a FFF7FEFF 		bl	chSysHalt
 1119              	.LVL102:
 1120 006e DEE7     		b	.L91
 1121              	.LVL103:
 1122              	.L98:
 1123              		.loc 1 216 0 discriminator 2
 1124 0070 0348     		ldr	r0, .L102+4
 1125              	.LVL104:
 1126 0072 FFF7FEFF 		bl	chSysHalt
 1127              	.LVL105:
 1128 0076 CAE7     		b	.L89
 1129              	.L101:
 1130              		.loc 1 226 0
 1131 0078 FFF7FEFF 		bl	__stack_chk_fail
 1132              	.LVL106:
 1133              	.L103:
 1134              		.align	2
 1135              	.L102:
 1136 007c 00000000 		.word	__stack_chk_guard
 1137 0080 00000000 		.word	.LANCHOR6
 1138 0084 00000000 		.word	ch
 1139 0088 00000000 		.word	.LANCHOR1
 1140              		.cfi_endproc
ARM GAS  C:\Users\25521\AppData\Local\Temp\cc2y9BKS.s 			page 21


 1141              	.LFE274:
 1142              		.size	pwmEnablePeriodicNotification, .-pwmEnablePeriodicNotification
 1143              		.section	.text.pwmDisablePeriodicNotification,"ax",%progbits
 1144              		.align	1
 1145              		.p2align 4,,15
 1146              		.global	pwmDisablePeriodicNotification
 1147              		.syntax unified
 1148              		.thumb
 1149              		.thumb_func
 1150              		.fpu fpv4-sp-d16
 1151              		.type	pwmDisablePeriodicNotification, %function
 1152              	pwmDisablePeriodicNotification:
 1153              	.LFB275:
 1154              		.loc 1 237 0
 1155              		.cfi_startproc
 1156              		@ args = 0, pretend = 0, frame = 8
 1157              		@ frame_needed = 0, uses_anonymous_args = 0
 1158              	.LVL107:
 1159 0000 30B5     		push	{r4, r5, lr}
 1160              		.cfi_def_cfa_offset 12
 1161              		.cfi_offset 4, -12
 1162              		.cfi_offset 5, -8
 1163              		.cfi_offset 14, -4
 1164 0002 1E4D     		ldr	r5, .L118
 1165 0004 83B0     		sub	sp, sp, #12
 1166              		.cfi_def_cfa_offset 24
 1167              		.loc 1 237 0
 1168 0006 2B68     		ldr	r3, [r5]
 1169 0008 0193     		str	r3, [sp, #4]
 1170              		.loc 1 239 0
 1171 000a 0446     		mov	r4, r0
 1172 000c 80B3     		cbz	r0, .L114
 1173              	.LVL108:
 1174              	.L105:
 1175              	.LBB281:
 1176              	.LBB282:
 1177              	.LBB283:
 1178              	.LBB284:
 1179              	.LBB285:
 1180              	.LBB286:
 1181              		.loc 2 548 0
 1182 000e 2023     		movs	r3, #32
 1183              		.syntax unified
 1184              	@ 548 "../e-puck2_main-processor/ChibiOS//os/ext/CMSIS/include/core_cmFunc.h" 1
 1185 0010 83F31188 		MSR basepri, r3
 1186              	@ 0 "" 2
 1187              	.LVL109:
 1188              		.thumb
 1189              		.syntax unified
 1190              	.LBE286:
 1191              	.LBE285:
 1192              	.LBE284:
 1193              		.loc 3 349 0
 1194 0014 FFF7FEFF 		bl	_stats_start_measure_crit_thd
 1195              	.LVL110:
 1196              		.loc 3 350 0
 1197 0018 FFF7FEFF 		bl	_dbg_check_lock
ARM GAS  C:\Users\25521\AppData\Local\Temp\cc2y9BKS.s 			page 22


 1198              	.LVL111:
 1199              	.LBE283:
 1200              	.LBE282:
 1201              	.LBE281:
 1202              		.loc 1 243 0
 1203 001c 2378     		ldrb	r3, [r4]	@ zero_extendqisi2
 1204 001e 022B     		cmp	r3, #2
 1205 0020 02D0     		beq	.L106
 1206              		.loc 1 243 0 is_stmt 0 discriminator 2
 1207 0022 1748     		ldr	r0, .L118+4
 1208 0024 FFF7FEFF 		bl	chSysHalt
 1209              	.LVL112:
 1210              	.L106:
 1211              		.loc 1 244 0 is_stmt 1 discriminator 1
 1212 0028 6368     		ldr	r3, [r4, #4]
 1213 002a 9B68     		ldr	r3, [r3, #8]
 1214 002c E3B1     		cbz	r3, .L115
 1215              	.L107:
 1216              		.loc 1 246 0
 1217 002e 2046     		mov	r0, r4
 1218 0030 FFF7FEFF 		bl	pwm_lld_disable_periodic_notification
 1219              	.LVL113:
 1220              	.LBB287:
 1221              	.LBB288:
 1222              	.LBB289:
 1223              		.loc 3 360 0
 1224 0034 FFF7FEFF 		bl	_dbg_check_unlock
 1225              	.LVL114:
 1226              		.loc 3 361 0
 1227 0038 FFF7FEFF 		bl	_stats_stop_measure_crit_thd
 1228              	.LVL115:
 1229              		.loc 3 367 0
 1230 003c 114B     		ldr	r3, .L118+8
 1231 003e 1A68     		ldr	r2, [r3]
 1232 0040 9A42     		cmp	r2, r3
 1233 0042 04D0     		beq	.L108
 1234 0044 9969     		ldr	r1, [r3, #24]
 1235 0046 9368     		ldr	r3, [r2, #8]
 1236 0048 8A68     		ldr	r2, [r1, #8]
 1237 004a 9A42     		cmp	r2, r3
 1238 004c 08D3     		bcc	.L116
 1239              	.L108:
 1240              	.LVL116:
 1241              	.LBB290:
 1242              	.LBB291:
 1243              	.LBB292:
 1244              		.loc 2 548 0
 1245 004e 0023     		movs	r3, #0
 1246              		.syntax unified
 1247              	@ 548 "../e-puck2_main-processor/ChibiOS//os/ext/CMSIS/include/core_cmFunc.h" 1
 1248 0050 83F31188 		MSR basepri, r3
 1249              	@ 0 "" 2
 1250              	.LVL117:
 1251              		.thumb
 1252              		.syntax unified
 1253              	.LBE292:
 1254              	.LBE291:
ARM GAS  C:\Users\25521\AppData\Local\Temp\cc2y9BKS.s 			page 23


 1255              	.LBE290:
 1256              	.LBE289:
 1257              	.LBE288:
 1258              	.LBE287:
 1259              		.loc 1 249 0
 1260 0054 019A     		ldr	r2, [sp, #4]
 1261 0056 2B68     		ldr	r3, [r5]
 1262 0058 9A42     		cmp	r2, r3
 1263 005a 0DD1     		bne	.L117
 1264 005c 03B0     		add	sp, sp, #12
 1265              		.cfi_remember_state
 1266              		.cfi_def_cfa_offset 12
 1267              		@ sp needed
 1268 005e 30BD     		pop	{r4, r5, pc}
 1269              	.LVL118:
 1270              	.L116:
 1271              		.cfi_restore_state
 1272              	.LBB295:
 1273              	.LBB294:
 1274              	.LBB293:
 1275              		.loc 3 367 0
 1276 0060 0948     		ldr	r0, .L118+12
 1277 0062 FFF7FEFF 		bl	chSysHalt
 1278              	.LVL119:
 1279 0066 F2E7     		b	.L108
 1280              	.L115:
 1281              	.LBE293:
 1282              	.LBE294:
 1283              	.LBE295:
 1284              		.loc 1 244 0 discriminator 2
 1285 0068 0548     		ldr	r0, .L118+4
 1286 006a FFF7FEFF 		bl	chSysHalt
 1287              	.LVL120:
 1288 006e DEE7     		b	.L107
 1289              	.LVL121:
 1290              	.L114:
 1291              		.loc 1 239 0 discriminator 2
 1292 0070 0348     		ldr	r0, .L118+4
 1293              	.LVL122:
 1294 0072 FFF7FEFF 		bl	chSysHalt
 1295              	.LVL123:
 1296 0076 CAE7     		b	.L105
 1297              	.L117:
 1298              		.loc 1 249 0
 1299 0078 FFF7FEFF 		bl	__stack_chk_fail
 1300              	.LVL124:
 1301              	.L119:
 1302              		.align	2
 1303              	.L118:
 1304 007c 00000000 		.word	__stack_chk_guard
 1305 0080 00000000 		.word	.LANCHOR7
 1306 0084 00000000 		.word	ch
 1307 0088 00000000 		.word	.LANCHOR1
 1308              		.cfi_endproc
 1309              	.LFE275:
 1310              		.size	pwmDisablePeriodicNotification, .-pwmDisablePeriodicNotification
 1311              		.section	.text.pwmEnableChannelNotification,"ax",%progbits
ARM GAS  C:\Users\25521\AppData\Local\Temp\cc2y9BKS.s 			page 24


 1312              		.align	1
 1313              		.p2align 4,,15
 1314              		.global	pwmEnableChannelNotification
 1315              		.syntax unified
 1316              		.thumb
 1317              		.thumb_func
 1318              		.fpu fpv4-sp-d16
 1319              		.type	pwmEnableChannelNotification, %function
 1320              	pwmEnableChannelNotification:
 1321              	.LFB276:
 1322              		.loc 1 262 0
 1323              		.cfi_startproc
 1324              		@ args = 0, pretend = 0, frame = 8
 1325              		@ frame_needed = 0, uses_anonymous_args = 0
 1326              	.LVL125:
 1327 0000 70B5     		push	{r4, r5, r6, lr}
 1328              		.cfi_def_cfa_offset 16
 1329              		.cfi_offset 4, -16
 1330              		.cfi_offset 5, -12
 1331              		.cfi_offset 6, -8
 1332              		.cfi_offset 14, -4
 1333 0002 294E     		ldr	r6, .L139
 1334 0004 82B0     		sub	sp, sp, #8
 1335              		.cfi_def_cfa_offset 24
 1336              		.loc 1 262 0
 1337 0006 3368     		ldr	r3, [r6]
 1338 0008 0193     		str	r3, [sp, #4]
 1339 000a 0D46     		mov	r5, r1
 1340              		.loc 1 264 0
 1341 000c 0446     		mov	r4, r0
 1342 000e 0028     		cmp	r0, #0
 1343 0010 32D0     		beq	.L121
 1344              		.loc 1 264 0 is_stmt 0 discriminator 3
 1345 0012 037C     		ldrb	r3, [r0, #16]	@ zero_extendqisi2
 1346 0014 8B42     		cmp	r3, r1
 1347 0016 2FD9     		bls	.L121
 1348              	.LVL126:
 1349              	.L122:
 1350              	.LBB309:
 1351              	.LBB310:
 1352              	.LBB311:
 1353              	.LBB312:
 1354              	.LBB313:
 1355              	.LBB314:
 1356              		.loc 2 548 0 is_stmt 1
 1357 0018 2023     		movs	r3, #32
 1358              		.syntax unified
 1359              	@ 548 "../e-puck2_main-processor/ChibiOS//os/ext/CMSIS/include/core_cmFunc.h" 1
 1360 001a 83F31188 		MSR basepri, r3
 1361              	@ 0 "" 2
 1362              	.LVL127:
 1363              		.thumb
 1364              		.syntax unified
 1365              	.LBE314:
 1366              	.LBE313:
 1367              	.LBE312:
 1368              		.loc 3 349 0
ARM GAS  C:\Users\25521\AppData\Local\Temp\cc2y9BKS.s 			page 25


 1369 001e FFF7FEFF 		bl	_stats_start_measure_crit_thd
 1370              	.LVL128:
 1371              		.loc 3 350 0
 1372 0022 FFF7FEFF 		bl	_dbg_check_lock
 1373              	.LVL129:
 1374              	.LBE311:
 1375              	.LBE310:
 1376              	.LBE309:
 1377              		.loc 1 268 0
 1378 0026 2378     		ldrb	r3, [r4]	@ zero_extendqisi2
 1379 0028 022B     		cmp	r3, #2
 1380 002a 02D0     		beq	.L123
 1381              		.loc 1 268 0 is_stmt 0 discriminator 2
 1382 002c 1F48     		ldr	r0, .L139+4
 1383 002e FFF7FEFF 		bl	chSysHalt
 1384              	.LVL130:
 1385              	.L123:
 1386              		.loc 1 269 0 is_stmt 1 discriminator 1
 1387 0032 E368     		ldr	r3, [r4, #12]
 1388 0034 EB40     		lsrs	r3, r3, r5
 1389 0036 DB07     		lsls	r3, r3, #31
 1390 0038 26D5     		bpl	.L135
 1391              		.loc 1 271 0 discriminator 1
 1392 003a 6368     		ldr	r3, [r4, #4]
 1393 003c 03EBC503 		add	r3, r3, r5, lsl #3
 1394 0040 1B69     		ldr	r3, [r3, #16]
 1395 0042 53B3     		cbz	r3, .L136
 1396              	.L125:
 1397              		.loc 1 274 0
 1398 0044 2946     		mov	r1, r5
 1399 0046 2046     		mov	r0, r4
 1400 0048 FFF7FEFF 		bl	pwm_lld_enable_channel_notification
 1401              	.LVL131:
 1402              	.LBB315:
 1403              	.LBB316:
 1404              	.LBB317:
 1405              		.loc 3 360 0
 1406 004c FFF7FEFF 		bl	_dbg_check_unlock
 1407              	.LVL132:
 1408              		.loc 3 361 0
 1409 0050 FFF7FEFF 		bl	_stats_stop_measure_crit_thd
 1410              	.LVL133:
 1411              		.loc 3 367 0
 1412 0054 164B     		ldr	r3, .L139+8
 1413 0056 1A68     		ldr	r2, [r3]
 1414 0058 9A42     		cmp	r2, r3
 1415 005a 04D0     		beq	.L126
 1416 005c 9969     		ldr	r1, [r3, #24]
 1417 005e 9368     		ldr	r3, [r2, #8]
 1418 0060 8A68     		ldr	r2, [r1, #8]
 1419 0062 9A42     		cmp	r2, r3
 1420 0064 0CD3     		bcc	.L137
 1421              	.L126:
 1422              	.LVL134:
 1423              	.LBB318:
 1424              	.LBB319:
 1425              	.LBB320:
ARM GAS  C:\Users\25521\AppData\Local\Temp\cc2y9BKS.s 			page 26


 1426              		.loc 2 548 0
 1427 0066 0023     		movs	r3, #0
 1428              		.syntax unified
 1429              	@ 548 "../e-puck2_main-processor/ChibiOS//os/ext/CMSIS/include/core_cmFunc.h" 1
 1430 0068 83F31188 		MSR basepri, r3
 1431              	@ 0 "" 2
 1432              	.LVL135:
 1433              		.thumb
 1434              		.syntax unified
 1435              	.LBE320:
 1436              	.LBE319:
 1437              	.LBE318:
 1438              	.LBE317:
 1439              	.LBE316:
 1440              	.LBE315:
 1441              		.loc 1 277 0
 1442 006c 019A     		ldr	r2, [sp, #4]
 1443 006e 3368     		ldr	r3, [r6]
 1444 0070 9A42     		cmp	r2, r3
 1445 0072 16D1     		bne	.L138
 1446 0074 02B0     		add	sp, sp, #8
 1447              		.cfi_remember_state
 1448              		.cfi_def_cfa_offset 16
 1449              		@ sp needed
 1450 0076 70BD     		pop	{r4, r5, r6, pc}
 1451              	.LVL136:
 1452              	.L121:
 1453              		.cfi_restore_state
 1454              		.loc 1 264 0 discriminator 4
 1455 0078 0C48     		ldr	r0, .L139+4
 1456              	.LVL137:
 1457 007a FFF7FEFF 		bl	chSysHalt
 1458              	.LVL138:
 1459 007e CBE7     		b	.L122
 1460              	.L137:
 1461              	.LBB323:
 1462              	.LBB322:
 1463              	.LBB321:
 1464              		.loc 3 367 0
 1465 0080 0C48     		ldr	r0, .L139+12
 1466 0082 FFF7FEFF 		bl	chSysHalt
 1467              	.LVL139:
 1468 0086 EEE7     		b	.L126
 1469              	.L135:
 1470              	.LBE321:
 1471              	.LBE322:
 1472              	.LBE323:
 1473              		.loc 1 269 0 discriminator 2
 1474 0088 0848     		ldr	r0, .L139+4
 1475 008a FFF7FEFF 		bl	chSysHalt
 1476              	.LVL140:
 1477              		.loc 1 271 0 discriminator 2
 1478 008e 6368     		ldr	r3, [r4, #4]
 1479 0090 03EBC503 		add	r3, r3, r5, lsl #3
 1480 0094 1B69     		ldr	r3, [r3, #16]
 1481 0096 002B     		cmp	r3, #0
 1482 0098 D4D1     		bne	.L125
ARM GAS  C:\Users\25521\AppData\Local\Temp\cc2y9BKS.s 			page 27


 1483              	.L136:
 1484 009a 0448     		ldr	r0, .L139+4
 1485 009c FFF7FEFF 		bl	chSysHalt
 1486              	.LVL141:
 1487 00a0 D0E7     		b	.L125
 1488              	.L138:
 1489              		.loc 1 277 0
 1490 00a2 FFF7FEFF 		bl	__stack_chk_fail
 1491              	.LVL142:
 1492              	.L140:
 1493 00a6 00BF     		.align	2
 1494              	.L139:
 1495 00a8 00000000 		.word	__stack_chk_guard
 1496 00ac 00000000 		.word	.LANCHOR8
 1497 00b0 00000000 		.word	ch
 1498 00b4 00000000 		.word	.LANCHOR1
 1499              		.cfi_endproc
 1500              	.LFE276:
 1501              		.size	pwmEnableChannelNotification, .-pwmEnableChannelNotification
 1502              		.section	.text.pwmDisableChannelNotification,"ax",%progbits
 1503              		.align	1
 1504              		.p2align 4,,15
 1505              		.global	pwmDisableChannelNotification
 1506              		.syntax unified
 1507              		.thumb
 1508              		.thumb_func
 1509              		.fpu fpv4-sp-d16
 1510              		.type	pwmDisableChannelNotification, %function
 1511              	pwmDisableChannelNotification:
 1512              	.LFB277:
 1513              		.loc 1 290 0
 1514              		.cfi_startproc
 1515              		@ args = 0, pretend = 0, frame = 8
 1516              		@ frame_needed = 0, uses_anonymous_args = 0
 1517              	.LVL143:
 1518 0000 70B5     		push	{r4, r5, r6, lr}
 1519              		.cfi_def_cfa_offset 16
 1520              		.cfi_offset 4, -16
 1521              		.cfi_offset 5, -12
 1522              		.cfi_offset 6, -8
 1523              		.cfi_offset 14, -4
 1524 0002 294E     		ldr	r6, .L160
 1525 0004 82B0     		sub	sp, sp, #8
 1526              		.cfi_def_cfa_offset 24
 1527              		.loc 1 290 0
 1528 0006 3368     		ldr	r3, [r6]
 1529 0008 0193     		str	r3, [sp, #4]
 1530 000a 0D46     		mov	r5, r1
 1531              		.loc 1 292 0
 1532 000c 0446     		mov	r4, r0
 1533 000e 0028     		cmp	r0, #0
 1534 0010 32D0     		beq	.L142
 1535              		.loc 1 292 0 is_stmt 0 discriminator 3
 1536 0012 037C     		ldrb	r3, [r0, #16]	@ zero_extendqisi2
 1537 0014 8B42     		cmp	r3, r1
 1538 0016 2FD9     		bls	.L142
 1539              	.LVL144:
ARM GAS  C:\Users\25521\AppData\Local\Temp\cc2y9BKS.s 			page 28


 1540              	.L143:
 1541              	.LBB337:
 1542              	.LBB338:
 1543              	.LBB339:
 1544              	.LBB340:
 1545              	.LBB341:
 1546              	.LBB342:
 1547              		.loc 2 548 0 is_stmt 1
 1548 0018 2023     		movs	r3, #32
 1549              		.syntax unified
 1550              	@ 548 "../e-puck2_main-processor/ChibiOS//os/ext/CMSIS/include/core_cmFunc.h" 1
 1551 001a 83F31188 		MSR basepri, r3
 1552              	@ 0 "" 2
 1553              	.LVL145:
 1554              		.thumb
 1555              		.syntax unified
 1556              	.LBE342:
 1557              	.LBE341:
 1558              	.LBE340:
 1559              		.loc 3 349 0
 1560 001e FFF7FEFF 		bl	_stats_start_measure_crit_thd
 1561              	.LVL146:
 1562              		.loc 3 350 0
 1563 0022 FFF7FEFF 		bl	_dbg_check_lock
 1564              	.LVL147:
 1565              	.LBE339:
 1566              	.LBE338:
 1567              	.LBE337:
 1568              		.loc 1 296 0
 1569 0026 2378     		ldrb	r3, [r4]	@ zero_extendqisi2
 1570 0028 022B     		cmp	r3, #2
 1571 002a 02D0     		beq	.L144
 1572              		.loc 1 296 0 is_stmt 0 discriminator 2
 1573 002c 1F48     		ldr	r0, .L160+4
 1574 002e FFF7FEFF 		bl	chSysHalt
 1575              	.LVL148:
 1576              	.L144:
 1577              		.loc 1 297 0 is_stmt 1 discriminator 1
 1578 0032 E368     		ldr	r3, [r4, #12]
 1579 0034 EB40     		lsrs	r3, r3, r5
 1580 0036 DB07     		lsls	r3, r3, #31
 1581 0038 26D5     		bpl	.L156
 1582              		.loc 1 299 0 discriminator 1
 1583 003a 6368     		ldr	r3, [r4, #4]
 1584 003c 03EBC503 		add	r3, r3, r5, lsl #3
 1585 0040 1B69     		ldr	r3, [r3, #16]
 1586 0042 53B3     		cbz	r3, .L157
 1587              	.L146:
 1588              		.loc 1 302 0
 1589 0044 2946     		mov	r1, r5
 1590 0046 2046     		mov	r0, r4
 1591 0048 FFF7FEFF 		bl	pwm_lld_disable_channel_notification
 1592              	.LVL149:
 1593              	.LBB343:
 1594              	.LBB344:
 1595              	.LBB345:
 1596              		.loc 3 360 0
ARM GAS  C:\Users\25521\AppData\Local\Temp\cc2y9BKS.s 			page 29


 1597 004c FFF7FEFF 		bl	_dbg_check_unlock
 1598              	.LVL150:
 1599              		.loc 3 361 0
 1600 0050 FFF7FEFF 		bl	_stats_stop_measure_crit_thd
 1601              	.LVL151:
 1602              		.loc 3 367 0
 1603 0054 164B     		ldr	r3, .L160+8
 1604 0056 1A68     		ldr	r2, [r3]
 1605 0058 9A42     		cmp	r2, r3
 1606 005a 04D0     		beq	.L147
 1607 005c 9969     		ldr	r1, [r3, #24]
 1608 005e 9368     		ldr	r3, [r2, #8]
 1609 0060 8A68     		ldr	r2, [r1, #8]
 1610 0062 9A42     		cmp	r2, r3
 1611 0064 0CD3     		bcc	.L158
 1612              	.L147:
 1613              	.LVL152:
 1614              	.LBB346:
 1615              	.LBB347:
 1616              	.LBB348:
 1617              		.loc 2 548 0
 1618 0066 0023     		movs	r3, #0
 1619              		.syntax unified
 1620              	@ 548 "../e-puck2_main-processor/ChibiOS//os/ext/CMSIS/include/core_cmFunc.h" 1
 1621 0068 83F31188 		MSR basepri, r3
 1622              	@ 0 "" 2
 1623              	.LVL153:
 1624              		.thumb
 1625              		.syntax unified
 1626              	.LBE348:
 1627              	.LBE347:
 1628              	.LBE346:
 1629              	.LBE345:
 1630              	.LBE344:
 1631              	.LBE343:
 1632              		.loc 1 305 0
 1633 006c 019A     		ldr	r2, [sp, #4]
 1634 006e 3368     		ldr	r3, [r6]
 1635 0070 9A42     		cmp	r2, r3
 1636 0072 16D1     		bne	.L159
 1637 0074 02B0     		add	sp, sp, #8
 1638              		.cfi_remember_state
 1639              		.cfi_def_cfa_offset 16
 1640              		@ sp needed
 1641 0076 70BD     		pop	{r4, r5, r6, pc}
 1642              	.LVL154:
 1643              	.L142:
 1644              		.cfi_restore_state
 1645              		.loc 1 292 0 discriminator 4
 1646 0078 0C48     		ldr	r0, .L160+4
 1647              	.LVL155:
 1648 007a FFF7FEFF 		bl	chSysHalt
 1649              	.LVL156:
 1650 007e CBE7     		b	.L143
 1651              	.L158:
 1652              	.LBB351:
 1653              	.LBB350:
ARM GAS  C:\Users\25521\AppData\Local\Temp\cc2y9BKS.s 			page 30


 1654              	.LBB349:
 1655              		.loc 3 367 0
 1656 0080 0C48     		ldr	r0, .L160+12
 1657 0082 FFF7FEFF 		bl	chSysHalt
 1658              	.LVL157:
 1659 0086 EEE7     		b	.L147
 1660              	.L156:
 1661              	.LBE349:
 1662              	.LBE350:
 1663              	.LBE351:
 1664              		.loc 1 297 0 discriminator 2
 1665 0088 0848     		ldr	r0, .L160+4
 1666 008a FFF7FEFF 		bl	chSysHalt
 1667              	.LVL158:
 1668              		.loc 1 299 0 discriminator 2
 1669 008e 6368     		ldr	r3, [r4, #4]
 1670 0090 03EBC503 		add	r3, r3, r5, lsl #3
 1671 0094 1B69     		ldr	r3, [r3, #16]
 1672 0096 002B     		cmp	r3, #0
 1673 0098 D4D1     		bne	.L146
 1674              	.L157:
 1675 009a 0448     		ldr	r0, .L160+4
 1676 009c FFF7FEFF 		bl	chSysHalt
 1677              	.LVL159:
 1678 00a0 D0E7     		b	.L146
 1679              	.L159:
 1680              		.loc 1 305 0
 1681 00a2 FFF7FEFF 		bl	__stack_chk_fail
 1682              	.LVL160:
 1683              	.L161:
 1684 00a6 00BF     		.align	2
 1685              	.L160:
 1686 00a8 00000000 		.word	__stack_chk_guard
 1687 00ac 00000000 		.word	.LANCHOR9
 1688 00b0 00000000 		.word	ch
 1689 00b4 00000000 		.word	.LANCHOR1
 1690              		.cfi_endproc
 1691              	.LFE277:
 1692              		.size	pwmDisableChannelNotification, .-pwmDisableChannelNotification
 1693              		.section	.rodata.__func__.7216,"a",%progbits
 1694              		.align	2
 1695              		.set	.LANCHOR1,. + 0
 1696              		.type	__func__.7216, %object
 1697              		.size	__func__.7216, 12
 1698              	__func__.7216:
 1699 0000 63685379 		.ascii	"chSysUnlock\000"
 1699      73556E6C 
 1699      6F636B00 
 1700              		.section	.rodata.__func__.9916,"a",%progbits
 1701              		.align	2
 1702              		.set	.LANCHOR0,. + 0
 1703              		.type	__func__.9916, %object
 1704              		.size	__func__.9916, 9
 1705              	__func__.9916:
 1706 0000 70776D53 		.ascii	"pwmStart\000"
 1706      74617274 
 1706      00
ARM GAS  C:\Users\25521\AppData\Local\Temp\cc2y9BKS.s 			page 31


 1707              		.section	.rodata.__func__.9920,"a",%progbits
 1708              		.align	2
 1709              		.set	.LANCHOR2,. + 0
 1710              		.type	__func__.9920, %object
 1711              		.size	__func__.9920, 8
 1712              	__func__.9920:
 1713 0000 70776D53 		.ascii	"pwmStop\000"
 1713      746F7000 
 1714              		.section	.rodata.__func__.9925,"a",%progbits
 1715              		.align	2
 1716              		.set	.LANCHOR3,. + 0
 1717              		.type	__func__.9925, %object
 1718              		.size	__func__.9925, 16
 1719              	__func__.9925:
 1720 0000 70776D43 		.ascii	"pwmChangePeriod\000"
 1720      68616E67 
 1720      65506572 
 1720      696F6400 
 1721              		.section	.rodata.__func__.9931,"a",%progbits
 1722              		.align	2
 1723              		.set	.LANCHOR4,. + 0
 1724              		.type	__func__.9931, %object
 1725              		.size	__func__.9931, 17
 1726              	__func__.9931:
 1727 0000 70776D45 		.ascii	"pwmEnableChannel\000"
 1727      6E61626C 
 1727      65436861 
 1727      6E6E656C 
 1727      00
 1728              		.section	.rodata.__func__.9936,"a",%progbits
 1729              		.align	2
 1730              		.set	.LANCHOR5,. + 0
 1731              		.type	__func__.9936, %object
 1732              		.size	__func__.9936, 18
 1733              	__func__.9936:
 1734 0000 70776D44 		.ascii	"pwmDisableChannel\000"
 1734      69736162 
 1734      6C654368 
 1734      616E6E65 
 1734      6C00
 1735              		.section	.rodata.__func__.9940,"a",%progbits
 1736              		.align	2
 1737              		.set	.LANCHOR6,. + 0
 1738              		.type	__func__.9940, %object
 1739              		.size	__func__.9940, 30
 1740              	__func__.9940:
 1741 0000 70776D45 		.ascii	"pwmEnablePeriodicNotification\000"
 1741      6E61626C 
 1741      65506572 
 1741      696F6469 
 1741      634E6F74 
 1742              		.section	.rodata.__func__.9944,"a",%progbits
 1743              		.align	2
 1744              		.set	.LANCHOR7,. + 0
 1745              		.type	__func__.9944, %object
 1746              		.size	__func__.9944, 31
 1747              	__func__.9944:
ARM GAS  C:\Users\25521\AppData\Local\Temp\cc2y9BKS.s 			page 32


 1748 0000 70776D44 		.ascii	"pwmDisablePeriodicNotification\000"
 1748      69736162 
 1748      6C655065 
 1748      72696F64 
 1748      69634E6F 
 1749              		.section	.rodata.__func__.9949,"a",%progbits
 1750              		.align	2
 1751              		.set	.LANCHOR8,. + 0
 1752              		.type	__func__.9949, %object
 1753              		.size	__func__.9949, 29
 1754              	__func__.9949:
 1755 0000 70776D45 		.ascii	"pwmEnableChannelNotification\000"
 1755      6E61626C 
 1755      65436861 
 1755      6E6E656C 
 1755      4E6F7469 
 1756              		.section	.rodata.__func__.9954,"a",%progbits
 1757              		.align	2
 1758              		.set	.LANCHOR9,. + 0
 1759              		.type	__func__.9954, %object
 1760              		.size	__func__.9954, 30
 1761              	__func__.9954:
 1762 0000 70776D44 		.ascii	"pwmDisableChannelNotification\000"
 1762      69736162 
 1762      6C654368 
 1762      616E6E65 
 1762      6C4E6F74 
 1763              		.text
 1764              	.Letext0:
 1765              		.file 4 "d:\\eclipse_e-puck2_win32_11_apr_2018\\eclipse_e-puck2\\tools\\gcc-arm-none-eabi-7-2017-q
 1766              		.file 5 "d:\\eclipse_e-puck2_win32_11_apr_2018\\eclipse_e-puck2\\tools\\gcc-arm-none-eabi-7-2017-q
 1767              		.file 6 "d:\\eclipse_e-puck2_win32_11_apr_2018\\eclipse_e-puck2\\tools\\gcc-arm-none-eabi-7-2017-q
 1768              		.file 7 "../e-puck2_main-processor/ChibiOS//os/rt/ports/ARMCMx/compilers/GCC/chtypes.h"
 1769              		.file 8 "../e-puck2_main-processor/ChibiOS//os/rt/include/chsystypes.h"
 1770              		.file 9 "../e-puck2_main-processor/ChibiOS//os/rt/include/chschd.h"
 1771              		.file 10 "../e-puck2_main-processor/ChibiOS//os/ext/CMSIS/include/core_cm4.h"
 1772              		.file 11 "../e-puck2_main-processor/ChibiOS//os/ext/CMSIS/ST/system_stm32f4xx.h"
 1773              		.file 12 "../e-puck2_main-processor/ChibiOS//os/ext/CMSIS/ST/stm32f407xx.h"
 1774              		.file 13 "../e-puck2_main-processor/ChibiOS//os/rt/ports/ARMCMx/chcore.h"
 1775              		.file 14 "../e-puck2_main-processor/ChibiOS//os/rt/ports/ARMCMx/chcore_v7m.h"
 1776              		.file 15 "../e-puck2_main-processor/ChibiOS//os/rt/include/chdebug.h"
 1777              		.file 16 "../e-puck2_main-processor/ChibiOS//os/rt/include/chtm.h"
 1778              		.file 17 "../e-puck2_main-processor/ChibiOS//os/rt/include/chstats.h"
 1779              		.file 18 "../e-puck2_main-processor/ChibiOS//os/rt/include/chsem.h"
 1780              		.file 19 "../e-puck2_main-processor/ChibiOS//os/rt/include/chmtx.h"
 1781              		.file 20 "../e-puck2_main-processor/ChibiOS//os/rt/include/chregistry.h"
 1782              		.file 21 "../e-puck2_main-processor/ChibiOS//os/rt/include/chevents.h"
 1783              		.file 22 "../e-puck2_main-processor/ChibiOS//os/rt/include/chqueues.h"
 1784              		.file 23 "../e-puck2_main-processor/ChibiOS//os/hal/ports/STM32/LLD/DMAv2/stm32_dma.h"
 1785              		.file 24 "../e-puck2_main-processor/ChibiOS//os/hal/include/hal_ioblock.h"
 1786              		.file 25 "../e-puck2_main-processor/ChibiOS//os/hal/ports/STM32/LLD/GPIOv2/pal_lld.h"
 1787              		.file 26 "../e-puck2_main-processor/ChibiOS//os/hal/include/adc.h"
 1788              		.file 27 "../e-puck2_main-processor/ChibiOS//os/hal/ports/STM32/LLD/ADCv2/adc_lld.h"
 1789              		.file 28 "../e-puck2_main-processor/ChibiOS//os/hal/include/can.h"
 1790              		.file 29 "../e-puck2_main-processor/ChibiOS//os/hal/ports/STM32/LLD/CANv1/can_lld.h"
 1791              		.file 30 "../e-puck2_main-processor/ChibiOS//os/hal/include/dac.h"
 1792              		.file 31 "../e-puck2_main-processor/ChibiOS//os/hal/ports/STM32/LLD/DACv1/dac_lld.h"
ARM GAS  C:\Users\25521\AppData\Local\Temp\cc2y9BKS.s 			page 33


 1793              		.file 32 "../e-puck2_main-processor/ChibiOS//os/hal/include/ext.h"
 1794              		.file 33 "../e-puck2_main-processor/ChibiOS//os/hal/ports/STM32/LLD/EXTIv1/ext_lld.h"
 1795              		.file 34 "../e-puck2_main-processor/ChibiOS//os/hal/include/gpt.h"
 1796              		.file 35 "../e-puck2_main-processor/ChibiOS//os/hal/ports/STM32/LLD/TIMv1/gpt_lld.h"
 1797              		.file 36 "../e-puck2_main-processor/ChibiOS//os/hal/ports/STM32/LLD/TIMv1/stm32_tim.h"
 1798              		.file 37 "../e-puck2_main-processor/ChibiOS//os/hal/include/i2c.h"
 1799              		.file 38 "../e-puck2_main-processor/ChibiOS//os/hal/ports/STM32/LLD/I2Cv1/i2c_lld.h"
 1800              		.file 39 "../e-puck2_main-processor/ChibiOS//os/hal/include/i2s.h"
 1801              		.file 40 "../e-puck2_main-processor/ChibiOS//os/hal/ports/STM32/LLD/SPIv1/i2s_lld.h"
 1802              		.file 41 "../e-puck2_main-processor/ChibiOS//os/hal/include/pwm.h"
 1803              		.file 42 "../e-puck2_main-processor/ChibiOS//os/hal/ports/STM32/LLD/TIMv1/pwm_lld.h"
 1804              		.file 43 "../e-puck2_main-processor/ChibiOS//os/hal/include/serial.h"
 1805              		.file 44 "../e-puck2_main-processor/ChibiOS//os/hal/ports/STM32/LLD/USARTv1/serial_lld.h"
 1806              		.file 45 "../e-puck2_main-processor/ChibiOS//os/hal/include/sdc.h"
 1807              		.file 46 "../e-puck2_main-processor/ChibiOS//os/hal/ports/STM32/LLD/SDIOv1/sdc_lld.h"
 1808              		.file 47 "../e-puck2_main-processor/ChibiOS//os/hal/include/spi.h"
 1809              		.file 48 "../e-puck2_main-processor/ChibiOS//os/hal/ports/STM32/LLD/SPIv1/spi_lld.h"
 1810              		.file 49 "../e-puck2_main-processor/ChibiOS//os/hal/include/usb.h"
 1811              		.file 50 "../e-puck2_main-processor/ChibiOS//os/hal/ports/STM32/LLD/OTGv1/usb_lld.h"
 1812              		.file 51 "../e-puck2_main-processor/ChibiOS//os/hal/ports/STM32/LLD/OTGv1/stm32_otg.h"
 1813              		.file 52 "../e-puck2_main-processor/ChibiOS//os/hal/osal/rt/osal.h"