ARM GAS  C:\Users\25521\AppData\Local\Temp\cc0WxJvG.s 			page 1


   1              		.cpu cortex-m4
   2              		.eabi_attribute 27, 1
   3              		.eabi_attribute 28, 1
   4              		.eabi_attribute 20, 1
   5              		.eabi_attribute 21, 1
   6              		.eabi_attribute 23, 3
   7              		.eabi_attribute 24, 1
   8              		.eabi_attribute 25, 1
   9              		.eabi_attribute 26, 1
  10              		.eabi_attribute 30, 2
  11              		.eabi_attribute 34, 1
  12              		.eabi_attribute 18, 4
  13              		.file	"pwm_lld.c"
  14              		.text
  15              	.Ltext0:
  16              		.cfi_sections	.debug_frame
  17              		.section	.text.pwm_lld_serve_interrupt,"ax",%progbits
  18              		.align	1
  19              		.p2align 4,,15
  20              		.syntax unified
  21              		.thumb
  22              		.thumb_func
  23              		.fpu fpv4-sp-d16
  24              		.type	pwm_lld_serve_interrupt, %function
  25              	pwm_lld_serve_interrupt:
  26              	.LFB267:
  27              		.file 1 "../e-puck2_main-processor/ChibiOS//os/hal/ports/STM32/LLD/TIMv1/pwm_lld.c"
  28              		.loc 1 111 0
  29              		.cfi_startproc
  30              		@ args = 0, pretend = 0, frame = 8
  31              		@ frame_needed = 0, uses_anonymous_args = 0
  32              	.LVL0:
  33 0000 70B5     		push	{r4, r5, r6, lr}
  34              		.cfi_def_cfa_offset 16
  35              		.cfi_offset 4, -16
  36              		.cfi_offset 5, -12
  37              		.cfi_offset 6, -8
  38              		.cfi_offset 14, -4
  39 0002 1E4E     		ldr	r6, .L42
  40              		.loc 1 114 0
  41 0004 8369     		ldr	r3, [r0, #24]
  42              		.loc 1 111 0
  43 0006 3268     		ldr	r2, [r6]
  44 0008 82B0     		sub	sp, sp, #8
  45              		.cfi_def_cfa_offset 24
  46              		.loc 1 111 0
  47 000a 0546     		mov	r5, r0
  48 000c 0192     		str	r2, [sp, #4]
  49              		.loc 1 114 0
  50 000e 1A69     		ldr	r2, [r3, #16]
  51              	.LVL1:
  52              		.loc 1 115 0
  53 0010 DC68     		ldr	r4, [r3, #12]
  54 0012 1440     		ands	r4, r4, r2
  55              	.LVL2:
  56 0014 E2B2     		uxtb	r2, r4
  57              		.loc 1 116 0
ARM GAS  C:\Users\25521\AppData\Local\Temp\cc0WxJvG.s 			page 2


  58 0016 D243     		mvns	r2, r2
  59 0018 1A61     		str	r2, [r3, #16]
  60              		.loc 1 117 0
  61 001a A307     		lsls	r3, r4, #30
  62 001c 03D5     		bpl	.L2
  63              		.loc 1 118 0 discriminator 1
  64 001e 4368     		ldr	r3, [r0, #4]
  65 0020 1B69     		ldr	r3, [r3, #16]
  66              		.loc 1 117 0 discriminator 1
  67 0022 03B1     		cbz	r3, .L2
  68              		.loc 1 119 0
  69 0024 9847     		blx	r3
  70              	.LVL3:
  71              	.L2:
  72              		.loc 1 120 0
  73 0026 6007     		lsls	r0, r4, #29
  74 0028 04D5     		bpl	.L3
  75              		.loc 1 121 0 discriminator 1
  76 002a 6B68     		ldr	r3, [r5, #4]
  77 002c 9B69     		ldr	r3, [r3, #24]
  78              		.loc 1 120 0 discriminator 1
  79 002e 0BB1     		cbz	r3, .L3
  80              		.loc 1 122 0
  81 0030 2846     		mov	r0, r5
  82 0032 9847     		blx	r3
  83              	.LVL4:
  84              	.L3:
  85              		.loc 1 123 0
  86 0034 2107     		lsls	r1, r4, #28
  87 0036 04D5     		bpl	.L4
  88              		.loc 1 124 0 discriminator 1
  89 0038 6B68     		ldr	r3, [r5, #4]
  90 003a 1B6A     		ldr	r3, [r3, #32]
  91              		.loc 1 123 0 discriminator 1
  92 003c 0BB1     		cbz	r3, .L4
  93              		.loc 1 125 0
  94 003e 2846     		mov	r0, r5
  95 0040 9847     		blx	r3
  96              	.LVL5:
  97              	.L4:
  98              		.loc 1 126 0
  99 0042 E206     		lsls	r2, r4, #27
 100 0044 04D5     		bpl	.L5
 101              		.loc 1 127 0 discriminator 1
 102 0046 6B68     		ldr	r3, [r5, #4]
 103 0048 9B6A     		ldr	r3, [r3, #40]
 104              		.loc 1 126 0 discriminator 1
 105 004a 0BB1     		cbz	r3, .L5
 106              		.loc 1 128 0
 107 004c 2846     		mov	r0, r5
 108 004e 9847     		blx	r3
 109              	.LVL6:
 110              	.L5:
 111              		.loc 1 129 0
 112 0050 E307     		lsls	r3, r4, #31
 113 0052 0BD5     		bpl	.L1
 114              		.loc 1 129 0 is_stmt 0 discriminator 1
ARM GAS  C:\Users\25521\AppData\Local\Temp\cc0WxJvG.s 			page 3


 115 0054 6B68     		ldr	r3, [r5, #4]
 116 0056 9B68     		ldr	r3, [r3, #8]
 117 0058 43B1     		cbz	r3, .L1
 118              		.loc 1 130 0 is_stmt 1
 119 005a 0199     		ldr	r1, [sp, #4]
 120 005c 3268     		ldr	r2, [r6]
 121 005e 9142     		cmp	r1, r2
 122 0060 0AD1     		bne	.L40
 123 0062 2846     		mov	r0, r5
 124              		.loc 1 131 0
 125 0064 02B0     		add	sp, sp, #8
 126              		.cfi_remember_state
 127              		.cfi_def_cfa_offset 16
 128              		@ sp needed
 129 0066 BDE87040 		pop	{r4, r5, r6, lr}
 130              		.cfi_restore 14
 131              		.cfi_restore 6
 132              		.cfi_restore 5
 133              		.cfi_restore 4
 134              		.cfi_def_cfa_offset 0
 135              	.LVL7:
 136              		.loc 1 130 0
 137 006a 1847     		bx	r3	@ indirect register sibling call
 138              	.LVL8:
 139              	.L1:
 140              		.cfi_restore_state
 141              		.loc 1 131 0
 142 006c 019A     		ldr	r2, [sp, #4]
 143 006e 3368     		ldr	r3, [r6]
 144 0070 9A42     		cmp	r2, r3
 145 0072 01D1     		bne	.L40
 146 0074 02B0     		add	sp, sp, #8
 147              		.cfi_remember_state
 148              		.cfi_def_cfa_offset 16
 149              		@ sp needed
 150 0076 70BD     		pop	{r4, r5, r6, pc}
 151              	.LVL9:
 152              	.L40:
 153              		.cfi_restore_state
 154 0078 FFF7FEFF 		bl	__stack_chk_fail
 155              	.LVL10:
 156              	.L43:
 157              		.align	2
 158              	.L42:
 159 007c 00000000 		.word	__stack_chk_guard
 160              		.cfi_endproc
 161              	.LFE267:
 162              		.size	pwm_lld_serve_interrupt, .-pwm_lld_serve_interrupt
 163              		.section	.text.VectorB0,"ax",%progbits
 164              		.align	1
 165              		.p2align 4,,15
 166              		.global	VectorB0
 167              		.syntax unified
 168              		.thumb
 169              		.thumb_func
 170              		.fpu fpv4-sp-d16
 171              		.type	VectorB0, %function
ARM GAS  C:\Users\25521\AppData\Local\Temp\cc0WxJvG.s 			page 4


 172              	VectorB0:
 173              	.LFB268:
 174              		.loc 1 208 0
 175              		.cfi_startproc
 176              		@ args = 0, pretend = 0, frame = 8
 177              		@ frame_needed = 0, uses_anonymous_args = 0
 178 0000 10B5     		push	{r4, lr}
 179              		.cfi_def_cfa_offset 8
 180              		.cfi_offset 4, -8
 181              		.cfi_offset 14, -4
 182 0002 0C4C     		ldr	r4, .L49
 183 0004 82B0     		sub	sp, sp, #8
 184              		.cfi_def_cfa_offset 16
 185              		.loc 1 208 0
 186 0006 2368     		ldr	r3, [r4]
 187 0008 0193     		str	r3, [sp, #4]
 188              		.loc 1 210 0
 189 000a FFF7FEFF 		bl	_stats_increase_irq
 190              	.LVL11:
 191 000e FFF7FEFF 		bl	_dbg_check_enter_isr
 192              	.LVL12:
 193              		.loc 1 212 0
 194 0012 0948     		ldr	r0, .L49+4
 195 0014 FFF7FEFF 		bl	pwm_lld_serve_interrupt
 196              	.LVL13:
 197              		.loc 1 214 0
 198 0018 FFF7FEFF 		bl	_dbg_check_leave_isr
 199              	.LVL14:
 200 001c 019A     		ldr	r2, [sp, #4]
 201 001e 2368     		ldr	r3, [r4]
 202 0020 9A42     		cmp	r2, r3
 203 0022 04D1     		bne	.L48
 204              		.loc 1 215 0
 205 0024 02B0     		add	sp, sp, #8
 206              		.cfi_remember_state
 207              		.cfi_def_cfa_offset 8
 208              		@ sp needed
 209 0026 BDE81040 		pop	{r4, lr}
 210              		.cfi_restore 14
 211              		.cfi_restore 4
 212              		.cfi_def_cfa_offset 0
 213              		.loc 1 214 0
 214 002a FFF7FEBF 		b	_port_irq_epilogue
 215              	.LVL15:
 216              	.L48:
 217              		.cfi_restore_state
 218 002e FFF7FEFF 		bl	__stack_chk_fail
 219              	.LVL16:
 220              	.L50:
 221 0032 00BF     		.align	2
 222              	.L49:
 223 0034 00000000 		.word	__stack_chk_guard
 224 0038 00000000 		.word	.LANCHOR0
 225              		.cfi_endproc
 226              	.LFE268:
 227              		.size	VectorB0, .-VectorB0
 228              		.section	.text.VectorB4,"ax",%progbits
ARM GAS  C:\Users\25521\AppData\Local\Temp\cc0WxJvG.s 			page 5


 229              		.align	1
 230              		.p2align 4,,15
 231              		.global	VectorB4
 232              		.syntax unified
 233              		.thumb
 234              		.thumb_func
 235              		.fpu fpv4-sp-d16
 236              		.type	VectorB4, %function
 237              	VectorB4:
 238              	.LFB269:
 239              		.loc 1 227 0
 240              		.cfi_startproc
 241              		@ args = 0, pretend = 0, frame = 8
 242              		@ frame_needed = 0, uses_anonymous_args = 0
 243 0000 10B5     		push	{r4, lr}
 244              		.cfi_def_cfa_offset 8
 245              		.cfi_offset 4, -8
 246              		.cfi_offset 14, -4
 247 0002 0C4C     		ldr	r4, .L56
 248 0004 82B0     		sub	sp, sp, #8
 249              		.cfi_def_cfa_offset 16
 250              		.loc 1 227 0
 251 0006 2368     		ldr	r3, [r4]
 252 0008 0193     		str	r3, [sp, #4]
 253              		.loc 1 229 0
 254 000a FFF7FEFF 		bl	_stats_increase_irq
 255              	.LVL17:
 256 000e FFF7FEFF 		bl	_dbg_check_enter_isr
 257              	.LVL18:
 258              		.loc 1 231 0
 259 0012 0948     		ldr	r0, .L56+4
 260 0014 FFF7FEFF 		bl	pwm_lld_serve_interrupt
 261              	.LVL19:
 262              		.loc 1 233 0
 263 0018 FFF7FEFF 		bl	_dbg_check_leave_isr
 264              	.LVL20:
 265 001c 019A     		ldr	r2, [sp, #4]
 266 001e 2368     		ldr	r3, [r4]
 267 0020 9A42     		cmp	r2, r3
 268 0022 04D1     		bne	.L55
 269              		.loc 1 234 0
 270 0024 02B0     		add	sp, sp, #8
 271              		.cfi_remember_state
 272              		.cfi_def_cfa_offset 8
 273              		@ sp needed
 274 0026 BDE81040 		pop	{r4, lr}
 275              		.cfi_restore 14
 276              		.cfi_restore 4
 277              		.cfi_def_cfa_offset 0
 278              		.loc 1 233 0
 279 002a FFF7FEBF 		b	_port_irq_epilogue
 280              	.LVL21:
 281              	.L55:
 282              		.cfi_restore_state
 283 002e FFF7FEFF 		bl	__stack_chk_fail
 284              	.LVL22:
 285              	.L57:
ARM GAS  C:\Users\25521\AppData\Local\Temp\cc0WxJvG.s 			page 6


 286 0032 00BF     		.align	2
 287              	.L56:
 288 0034 00000000 		.word	__stack_chk_guard
 289 0038 00000000 		.word	.LANCHOR1
 290              		.cfi_endproc
 291              	.LFE269:
 292              		.size	VectorB4, .-VectorB4
 293              		.section	.text.VectorB8,"ax",%progbits
 294              		.align	1
 295              		.p2align 4,,15
 296              		.global	VectorB8
 297              		.syntax unified
 298              		.thumb
 299              		.thumb_func
 300              		.fpu fpv4-sp-d16
 301              		.type	VectorB8, %function
 302              	VectorB8:
 303              	.LFB270:
 304              		.loc 1 246 0
 305              		.cfi_startproc
 306              		@ args = 0, pretend = 0, frame = 8
 307              		@ frame_needed = 0, uses_anonymous_args = 0
 308 0000 10B5     		push	{r4, lr}
 309              		.cfi_def_cfa_offset 8
 310              		.cfi_offset 4, -8
 311              		.cfi_offset 14, -4
 312 0002 0C4C     		ldr	r4, .L63
 313 0004 82B0     		sub	sp, sp, #8
 314              		.cfi_def_cfa_offset 16
 315              		.loc 1 246 0
 316 0006 2368     		ldr	r3, [r4]
 317 0008 0193     		str	r3, [sp, #4]
 318              		.loc 1 248 0
 319 000a FFF7FEFF 		bl	_stats_increase_irq
 320              	.LVL23:
 321 000e FFF7FEFF 		bl	_dbg_check_enter_isr
 322              	.LVL24:
 323              		.loc 1 250 0
 324 0012 0948     		ldr	r0, .L63+4
 325 0014 FFF7FEFF 		bl	pwm_lld_serve_interrupt
 326              	.LVL25:
 327              		.loc 1 252 0
 328 0018 FFF7FEFF 		bl	_dbg_check_leave_isr
 329              	.LVL26:
 330 001c 019A     		ldr	r2, [sp, #4]
 331 001e 2368     		ldr	r3, [r4]
 332 0020 9A42     		cmp	r2, r3
 333 0022 04D1     		bne	.L62
 334              		.loc 1 253 0
 335 0024 02B0     		add	sp, sp, #8
 336              		.cfi_remember_state
 337              		.cfi_def_cfa_offset 8
 338              		@ sp needed
 339 0026 BDE81040 		pop	{r4, lr}
 340              		.cfi_restore 14
 341              		.cfi_restore 4
 342              		.cfi_def_cfa_offset 0
ARM GAS  C:\Users\25521\AppData\Local\Temp\cc0WxJvG.s 			page 7


 343              		.loc 1 252 0
 344 002a FFF7FEBF 		b	_port_irq_epilogue
 345              	.LVL27:
 346              	.L62:
 347              		.cfi_restore_state
 348 002e FFF7FEFF 		bl	__stack_chk_fail
 349              	.LVL28:
 350              	.L64:
 351 0032 00BF     		.align	2
 352              	.L63:
 353 0034 00000000 		.word	__stack_chk_guard
 354 0038 00000000 		.word	.LANCHOR2
 355              		.cfi_endproc
 356              	.LFE270:
 357              		.size	VectorB8, .-VectorB8
 358              		.section	.text.Vector108,"ax",%progbits
 359              		.align	1
 360              		.p2align 4,,15
 361              		.global	Vector108
 362              		.syntax unified
 363              		.thumb
 364              		.thumb_func
 365              		.fpu fpv4-sp-d16
 366              		.type	Vector108, %function
 367              	Vector108:
 368              	.LFB271:
 369              		.loc 1 265 0
 370              		.cfi_startproc
 371              		@ args = 0, pretend = 0, frame = 8
 372              		@ frame_needed = 0, uses_anonymous_args = 0
 373 0000 10B5     		push	{r4, lr}
 374              		.cfi_def_cfa_offset 8
 375              		.cfi_offset 4, -8
 376              		.cfi_offset 14, -4
 377 0002 0C4C     		ldr	r4, .L70
 378 0004 82B0     		sub	sp, sp, #8
 379              		.cfi_def_cfa_offset 16
 380              		.loc 1 265 0
 381 0006 2368     		ldr	r3, [r4]
 382 0008 0193     		str	r3, [sp, #4]
 383              		.loc 1 267 0
 384 000a FFF7FEFF 		bl	_stats_increase_irq
 385              	.LVL29:
 386 000e FFF7FEFF 		bl	_dbg_check_enter_isr
 387              	.LVL30:
 388              		.loc 1 269 0
 389 0012 0948     		ldr	r0, .L70+4
 390 0014 FFF7FEFF 		bl	pwm_lld_serve_interrupt
 391              	.LVL31:
 392              		.loc 1 271 0
 393 0018 FFF7FEFF 		bl	_dbg_check_leave_isr
 394              	.LVL32:
 395 001c 019A     		ldr	r2, [sp, #4]
 396 001e 2368     		ldr	r3, [r4]
 397 0020 9A42     		cmp	r2, r3
 398 0022 04D1     		bne	.L69
 399              		.loc 1 272 0
ARM GAS  C:\Users\25521\AppData\Local\Temp\cc0WxJvG.s 			page 8


 400 0024 02B0     		add	sp, sp, #8
 401              		.cfi_remember_state
 402              		.cfi_def_cfa_offset 8
 403              		@ sp needed
 404 0026 BDE81040 		pop	{r4, lr}
 405              		.cfi_restore 14
 406              		.cfi_restore 4
 407              		.cfi_def_cfa_offset 0
 408              		.loc 1 271 0
 409 002a FFF7FEBF 		b	_port_irq_epilogue
 410              	.LVL33:
 411              	.L69:
 412              		.cfi_restore_state
 413 002e FFF7FEFF 		bl	__stack_chk_fail
 414              	.LVL34:
 415              	.L71:
 416 0032 00BF     		.align	2
 417              	.L70:
 418 0034 00000000 		.word	__stack_chk_guard
 419 0038 00000000 		.word	.LANCHOR3
 420              		.cfi_endproc
 421              	.LFE271:
 422              		.size	Vector108, .-Vector108
 423              		.section	.text.pwm_lld_init,"ax",%progbits
 424              		.align	1
 425              		.p2align 4,,15
 426              		.global	pwm_lld_init
 427              		.syntax unified
 428              		.thumb
 429              		.thumb_func
 430              		.fpu fpv4-sp-d16
 431              		.type	pwm_lld_init, %function
 432              	pwm_lld_init:
 433              	.LFB272:
 434              		.loc 1 364 0
 435              		.cfi_startproc
 436              		@ args = 0, pretend = 0, frame = 8
 437              		@ frame_needed = 0, uses_anonymous_args = 0
 438 0000 2DE9F041 		push	{r4, r5, r6, r7, r8, lr}
 439              		.cfi_def_cfa_offset 24
 440              		.cfi_offset 4, -24
 441              		.cfi_offset 5, -20
 442              		.cfi_offset 6, -16
 443              		.cfi_offset 7, -12
 444              		.cfi_offset 8, -8
 445              		.cfi_offset 14, -4
 446              		.loc 1 375 0
 447 0004 164D     		ldr	r5, .L76
 448              		.loc 1 364 0
 449 0006 DFF87480 		ldr	r8, .L76+28
 450              		.loc 1 382 0
 451 000a 164F     		ldr	r7, .L76+4
 452              		.loc 1 364 0
 453 000c D8F80030 		ldr	r3, [r8]
 454              		.loc 1 389 0
 455 0010 154E     		ldr	r6, .L76+8
 456              		.loc 1 364 0
ARM GAS  C:\Users\25521\AppData\Local\Temp\cc0WxJvG.s 			page 9


 457 0012 82B0     		sub	sp, sp, #8
 458              		.cfi_def_cfa_offset 32
 459              		.loc 1 375 0
 460 0014 2846     		mov	r0, r5
 461              		.loc 1 376 0
 462 0016 0424     		movs	r4, #4
 463              		.loc 1 364 0
 464 0018 0193     		str	r3, [sp, #4]
 465              		.loc 1 375 0
 466 001a FFF7FEFF 		bl	pwmObjectInit
 467              	.LVL35:
 468              		.loc 1 377 0
 469 001e 4FF08043 		mov	r3, #1073741824
 470 0022 AB61     		str	r3, [r5, #24]
 471              		.loc 1 382 0
 472 0024 3846     		mov	r0, r7
 473              		.loc 1 376 0
 474 0026 2C74     		strb	r4, [r5, #16]
 475              		.loc 1 396 0
 476 0028 104D     		ldr	r5, .L76+12
 477              		.loc 1 382 0
 478 002a FFF7FEFF 		bl	pwmObjectInit
 479              	.LVL36:
 480              		.loc 1 384 0
 481 002e 104B     		ldr	r3, .L76+16
 482 0030 BB61     		str	r3, [r7, #24]
 483              		.loc 1 389 0
 484 0032 3046     		mov	r0, r6
 485              		.loc 1 383 0
 486 0034 3C74     		strb	r4, [r7, #16]
 487              		.loc 1 389 0
 488 0036 FFF7FEFF 		bl	pwmObjectInit
 489              	.LVL37:
 490              		.loc 1 391 0
 491 003a 0E4B     		ldr	r3, .L76+20
 492 003c B361     		str	r3, [r6, #24]
 493              		.loc 1 396 0
 494 003e 2846     		mov	r0, r5
 495              		.loc 1 390 0
 496 0040 3474     		strb	r4, [r6, #16]
 497              		.loc 1 396 0
 498 0042 FFF7FEFF 		bl	pwmObjectInit
 499              	.LVL38:
 500              		.loc 1 414 0
 501 0046 019A     		ldr	r2, [sp, #4]
 502 0048 D8F80030 		ldr	r3, [r8]
 503              		.loc 1 398 0
 504 004c 0A49     		ldr	r1, .L76+24
 505              		.loc 1 397 0
 506 004e 2C74     		strb	r4, [r5, #16]
 507              		.loc 1 414 0
 508 0050 9A42     		cmp	r2, r3
 509              		.loc 1 398 0
 510 0052 A961     		str	r1, [r5, #24]
 511              		.loc 1 414 0
 512 0054 02D1     		bne	.L75
 513 0056 02B0     		add	sp, sp, #8
ARM GAS  C:\Users\25521\AppData\Local\Temp\cc0WxJvG.s 			page 10


 514              		.cfi_remember_state
 515              		.cfi_def_cfa_offset 24
 516              		@ sp needed
 517 0058 BDE8F081 		pop	{r4, r5, r6, r7, r8, pc}
 518              	.L75:
 519              		.cfi_restore_state
 520 005c FFF7FEFF 		bl	__stack_chk_fail
 521              	.LVL39:
 522              	.L77:
 523              		.align	2
 524              	.L76:
 525 0060 00000000 		.word	.LANCHOR0
 526 0064 00000000 		.word	.LANCHOR1
 527 0068 00000000 		.word	.LANCHOR2
 528 006c 00000000 		.word	.LANCHOR3
 529 0070 00040040 		.word	1073742848
 530 0074 00080040 		.word	1073743872
 531 0078 000C0040 		.word	1073744896
 532 007c 00000000 		.word	__stack_chk_guard
 533              		.cfi_endproc
 534              	.LFE272:
 535              		.size	pwm_lld_init, .-pwm_lld_init
 536              		.section	.text.pwm_lld_start,"ax",%progbits
 537              		.align	1
 538              		.p2align 4,,15
 539              		.global	pwm_lld_start
 540              		.syntax unified
 541              		.thumb
 542              		.thumb_func
 543              		.fpu fpv4-sp-d16
 544              		.type	pwm_lld_start, %function
 545              	pwm_lld_start:
 546              	.LFB273:
 547              		.loc 1 425 0
 548              		.cfi_startproc
 549              		@ args = 0, pretend = 0, frame = 8
 550              		@ frame_needed = 0, uses_anonymous_args = 0
 551              	.LVL40:
 552 0000 70B5     		push	{r4, r5, r6, lr}
 553              		.cfi_def_cfa_offset 16
 554              		.cfi_offset 4, -16
 555              		.cfi_offset 5, -12
 556              		.cfi_offset 6, -8
 557              		.cfi_offset 14, -4
 558 0002 6B4D     		ldr	r5, .L121
 559              		.loc 1 429 0
 560 0004 0378     		ldrb	r3, [r0]	@ zero_extendqisi2
 561              		.loc 1 425 0
 562 0006 2A68     		ldr	r2, [r5]
 563 0008 82B0     		sub	sp, sp, #8
 564              		.cfi_def_cfa_offset 24
 565              		.loc 1 429 0
 566 000a 012B     		cmp	r3, #1
 567              		.loc 1 425 0
 568 000c 0446     		mov	r4, r0
 569 000e 0192     		str	r2, [sp, #4]
 570              		.loc 1 429 0
ARM GAS  C:\Users\25521\AppData\Local\Temp\cc0WxJvG.s 			page 11


 571 0010 72D0     		beq	.L112
 572              		.loc 1 512 0
 573 0012 8269     		ldr	r2, [r0, #24]
 574 0014 0023     		movs	r3, #0
 575 0016 1360     		str	r3, [r2]
 576              		.loc 1 513 0
 577 0018 8269     		ldr	r2, [r0, #24]
 578 001a 5363     		str	r3, [r2, #52]
 579              		.loc 1 514 0
 580 001c 8269     		ldr	r2, [r0, #24]
 581 001e 9363     		str	r3, [r2, #56]
 582              		.loc 1 515 0
 583 0020 8269     		ldr	r2, [r0, #24]
 584 0022 D363     		str	r3, [r2, #60]
 585              		.loc 1 516 0
 586 0024 8269     		ldr	r2, [r0, #24]
 587 0026 1364     		str	r3, [r2, #64]
 588              		.loc 1 523 0
 589 0028 8269     		ldr	r2, [r0, #24]
 590 002a 5362     		str	r3, [r2, #36]
 591              	.LVL41:
 592              	.L84:
 593              		.loc 1 527 0
 594 002c 6368     		ldr	r3, [r4, #4]
 595 002e 6269     		ldr	r2, [r4, #20]
 596 0030 1968     		ldr	r1, [r3]
 597 0032 B2FBF1F3 		udiv	r3, r2, r1
 598 0036 5E1E     		subs	r6, r3, #1
 599              	.LVL42:
 600              		.loc 1 528 0
 601 0038 B6F5803F 		cmp	r6, #65536
 602 003c 03D2     		bcs	.L85
 603              		.loc 1 528 0 is_stmt 0 discriminator 3
 604 003e 03FB01F3 		mul	r3, r3, r1
 605 0042 9A42     		cmp	r2, r3
 606 0044 02D0     		beq	.L86
 607              	.L85:
 608              		.loc 1 528 0 discriminator 4
 609 0046 5B48     		ldr	r0, .L121+4
 610 0048 FFF7FEFF 		bl	chSysHalt
 611              	.LVL43:
 612              	.L86:
 613              		.loc 1 531 0 is_stmt 1
 614 004c A369     		ldr	r3, [r4, #24]
 615 004e 9E62     		str	r6, [r3, #40]
 616              		.loc 1 532 0
 617 0050 A368     		ldr	r3, [r4, #8]
 618 0052 A269     		ldr	r2, [r4, #24]
 619 0054 013B     		subs	r3, r3, #1
 620 0056 D362     		str	r3, [r2, #44]
 621              		.loc 1 533 0
 622 0058 6268     		ldr	r2, [r4, #4]
 623 005a A369     		ldr	r3, [r4, #24]
 624 005c D26A     		ldr	r2, [r2, #44]
 625 005e 5A60     		str	r2, [r3, #4]
 626              	.LVL44:
 627              		.loc 1 537 0
ARM GAS  C:\Users\25521\AppData\Local\Temp\cc0WxJvG.s 			page 12


 628 0060 6268     		ldr	r2, [r4, #4]
 629 0062 D368     		ldr	r3, [r2, #12]
 630 0064 03F00F03 		and	r3, r3, #15
 631 0068 012B     		cmp	r3, #1
 632 006a 03D0     		beq	.L87
 633              		.loc 1 536 0
 634 006c 022B     		cmp	r3, #2
 635 006e 0CBF     		ite	eq
 636 0070 0323     		moveq	r3, #3
 637 0072 0023     		movne	r3, #0
 638              	.L87:
 639              	.LVL45:
 640              		.loc 1 545 0
 641 0074 5169     		ldr	r1, [r2, #20]
 642 0076 01F00F01 		and	r1, r1, #15
 643 007a 0129     		cmp	r1, #1
 644 007c 34D0     		beq	.L91
 645 007e 0229     		cmp	r1, #2
 646 0080 30D0     		beq	.L113
 647              	.L90:
 648              		.loc 1 553 0
 649 0082 D169     		ldr	r1, [r2, #28]
 650 0084 01F00F01 		and	r1, r1, #15
 651 0088 0129     		cmp	r1, #1
 652 008a 21D0     		beq	.L94
 653 008c 0229     		cmp	r1, #2
 654 008e 1DD0     		beq	.L114
 655              		.loc 1 561 0
 656 0090 526A     		ldr	r2, [r2, #36]
 657 0092 02F00F02 		and	r2, r2, #15
 658 0096 012A     		cmp	r2, #1
 659 0098 21D0     		beq	.L97
 660              	.L117:
 661 009a 022A     		cmp	r2, #2
 662 009c 27D0     		beq	.L115
 663              	.L96:
 664              		.loc 1 606 0
 665 009e A269     		ldr	r2, [r4, #24]
 666 00a0 1362     		str	r3, [r2, #32]
 667              		.loc 1 607 0
 668 00a2 A369     		ldr	r3, [r4, #24]
 669              	.LVL46:
 670 00a4 0122     		movs	r2, #1
 671              	.LVL47:
 672 00a6 5A61     		str	r2, [r3, #20]
 673              		.loc 1 608 0
 674 00a8 A369     		ldr	r3, [r4, #24]
 675 00aa 0022     		movs	r2, #0
 676 00ac 1A61     		str	r2, [r3, #16]
 677              		.loc 1 609 0
 678 00ae 6368     		ldr	r3, [r4, #4]
 679 00b0 A269     		ldr	r2, [r4, #24]
 680 00b2 1B6B     		ldr	r3, [r3, #48]
 681 00b4 23F0FF03 		bic	r3, r3, #255
 682 00b8 D360     		str	r3, [r2, #12]
 683              		.loc 1 619 0
 684 00ba A369     		ldr	r3, [r4, #24]
ARM GAS  C:\Users\25521\AppData\Local\Temp\cc0WxJvG.s 			page 13


 685 00bc 8522     		movs	r2, #133
 686 00be 1A60     		str	r2, [r3]
 687              		.loc 1 621 0
 688 00c0 019A     		ldr	r2, [sp, #4]
 689 00c2 2B68     		ldr	r3, [r5]
 690 00c4 9A42     		cmp	r2, r3
 691 00c6 71D1     		bne	.L116
 692 00c8 02B0     		add	sp, sp, #8
 693              		.cfi_remember_state
 694              		.cfi_def_cfa_offset 16
 695              		@ sp needed
 696 00ca 70BD     		pop	{r4, r5, r6, pc}
 697              	.LVL48:
 698              	.L114:
 699              		.cfi_restore_state
 700              		.loc 1 555 0
 701 00cc 43F40073 		orr	r3, r3, #512
 702              	.LVL49:
 703              	.L94:
 704              		.loc 1 561 0
 705 00d0 526A     		ldr	r2, [r2, #36]
 706 00d2 02F00F02 		and	r2, r2, #15
 707 00d6 012A     		cmp	r2, #1
 708              		.loc 1 557 0
 709 00d8 43F48073 		orr	r3, r3, #256
 710              	.LVL50:
 711              		.loc 1 561 0
 712 00dc DDD1     		bne	.L117
 713              	.L97:
 714              		.loc 1 565 0
 715 00de 43F48053 		orr	r3, r3, #4096
 716              	.LVL51:
 717 00e2 DCE7     		b	.L96
 718              	.L113:
 719              		.loc 1 547 0
 720 00e4 43F02003 		orr	r3, r3, #32
 721              	.LVL52:
 722              	.L91:
 723              		.loc 1 549 0
 724 00e8 43F01003 		orr	r3, r3, #16
 725              	.LVL53:
 726 00ec C9E7     		b	.L90
 727              	.L115:
 728              		.loc 1 563 0
 729 00ee 43F40053 		orr	r3, r3, #8192
 730              	.LVL54:
 731              		.loc 1 565 0
 732 00f2 43F48053 		orr	r3, r3, #4096
 733              	.LVL55:
 734 00f6 D2E7     		b	.L96
 735              	.LVL56:
 736              	.L112:
 737              		.loc 1 445 0
 738 00f8 2F4B     		ldr	r3, .L121+8
 739 00fa 9842     		cmp	r0, r3
 740 00fc 44D0     		beq	.L118
 741              		.loc 1 453 0
ARM GAS  C:\Users\25521\AppData\Local\Temp\cc0WxJvG.s 			page 14


 742 00fe 2F4B     		ldr	r3, .L121+12
 743 0100 9842     		cmp	r0, r3
 744 0102 2FD0     		beq	.L119
 745              		.loc 1 461 0
 746 0104 2E4B     		ldr	r3, .L121+16
 747 0106 9842     		cmp	r0, r3
 748 0108 1AD0     		beq	.L120
 749              		.loc 1 470 0
 750 010a 2E4B     		ldr	r3, .L121+20
 751 010c 9842     		cmp	r0, r3
 752 010e 10D1     		bne	.L81
 753              		.loc 1 471 0
 754 0110 2D4B     		ldr	r3, .L121+24
 755 0112 1A6C     		ldr	r2, [r3, #64]
 756 0114 42F00802 		orr	r2, r2, #8
 757 0118 1A64     		str	r2, [r3, #64]
 758              		.loc 1 472 0
 759 011a 1A6A     		ldr	r2, [r3, #32]
 760 011c 0020     		movs	r0, #0
 761              	.LVL57:
 762 011e 42F00802 		orr	r2, r2, #8
 763 0122 1A62     		str	r2, [r3, #32]
 764              		.loc 1 473 0
 765 0124 0721     		movs	r1, #7
 766              		.loc 1 472 0
 767 0126 1862     		str	r0, [r3, #32]
 768              		.loc 1 473 0
 769 0128 3220     		movs	r0, #50
 770 012a FFF7FEFF 		bl	nvicEnableVector
 771              	.LVL58:
 772              		.loc 1 474 0
 773 012e 274B     		ldr	r3, .L121+28
 774 0130 6361     		str	r3, [r4, #20]
 775              	.L81:
 776              		.loc 1 501 0
 777 0132 A269     		ldr	r2, [r4, #24]
 778 0134 46F66803 		movw	r3, #26728
 779 0138 9361     		str	r3, [r2, #24]
 780              		.loc 1 503 0
 781 013a A269     		ldr	r2, [r4, #24]
 782 013c D361     		str	r3, [r2, #28]
 783 013e 75E7     		b	.L84
 784              	.LVL59:
 785              	.L120:
 786              		.loc 1 462 0
 787 0140 214B     		ldr	r3, .L121+24
 788 0142 1A6C     		ldr	r2, [r3, #64]
 789 0144 42F00402 		orr	r2, r2, #4
 790 0148 1A64     		str	r2, [r3, #64]
 791              		.loc 1 463 0
 792 014a 1A6A     		ldr	r2, [r3, #32]
 793 014c 0020     		movs	r0, #0
 794              	.LVL60:
 795 014e 42F00402 		orr	r2, r2, #4
 796 0152 1A62     		str	r2, [r3, #32]
 797              		.loc 1 464 0
 798 0154 0721     		movs	r1, #7
ARM GAS  C:\Users\25521\AppData\Local\Temp\cc0WxJvG.s 			page 15


 799              		.loc 1 463 0
 800 0156 1862     		str	r0, [r3, #32]
 801              		.loc 1 464 0
 802 0158 1E20     		movs	r0, #30
 803 015a FFF7FEFF 		bl	nvicEnableVector
 804              	.LVL61:
 805              		.loc 1 465 0
 806 015e 1B4B     		ldr	r3, .L121+28
 807 0160 6361     		str	r3, [r4, #20]
 808 0162 E6E7     		b	.L81
 809              	.LVL62:
 810              	.L119:
 811              		.loc 1 454 0
 812 0164 184B     		ldr	r3, .L121+24
 813 0166 1A6C     		ldr	r2, [r3, #64]
 814 0168 42F00202 		orr	r2, r2, #2
 815 016c 1A64     		str	r2, [r3, #64]
 816              		.loc 1 455 0
 817 016e 1A6A     		ldr	r2, [r3, #32]
 818 0170 0020     		movs	r0, #0
 819              	.LVL63:
 820 0172 42F00202 		orr	r2, r2, #2
 821 0176 1A62     		str	r2, [r3, #32]
 822              		.loc 1 456 0
 823 0178 0721     		movs	r1, #7
 824              		.loc 1 455 0
 825 017a 1862     		str	r0, [r3, #32]
 826              		.loc 1 456 0
 827 017c 1D20     		movs	r0, #29
 828 017e FFF7FEFF 		bl	nvicEnableVector
 829              	.LVL64:
 830              		.loc 1 457 0
 831 0182 124B     		ldr	r3, .L121+28
 832 0184 6361     		str	r3, [r4, #20]
 833 0186 D4E7     		b	.L81
 834              	.LVL65:
 835              	.L118:
 836              		.loc 1 446 0
 837 0188 0F4B     		ldr	r3, .L121+24
 838 018a 1A6C     		ldr	r2, [r3, #64]
 839 018c 42F00102 		orr	r2, r2, #1
 840 0190 1A64     		str	r2, [r3, #64]
 841              		.loc 1 447 0
 842 0192 1A6A     		ldr	r2, [r3, #32]
 843 0194 0020     		movs	r0, #0
 844              	.LVL66:
 845 0196 42F00102 		orr	r2, r2, #1
 846 019a 1A62     		str	r2, [r3, #32]
 847              		.loc 1 448 0
 848 019c 0721     		movs	r1, #7
 849              		.loc 1 447 0
 850 019e 1862     		str	r0, [r3, #32]
 851              		.loc 1 448 0
 852 01a0 1C20     		movs	r0, #28
 853 01a2 FFF7FEFF 		bl	nvicEnableVector
 854              	.LVL67:
 855              		.loc 1 449 0
ARM GAS  C:\Users\25521\AppData\Local\Temp\cc0WxJvG.s 			page 16


 856 01a6 094B     		ldr	r3, .L121+28
 857 01a8 6361     		str	r3, [r4, #20]
 858 01aa C2E7     		b	.L81
 859              	.LVL68:
 860              	.L116:
 861              		.loc 1 621 0
 862 01ac FFF7FEFF 		bl	__stack_chk_fail
 863              	.LVL69:
 864              	.L122:
 865              		.align	2
 866              	.L121:
 867 01b0 00000000 		.word	__stack_chk_guard
 868 01b4 00000000 		.word	.LANCHOR4
 869 01b8 00000000 		.word	.LANCHOR0
 870 01bc 00000000 		.word	.LANCHOR1
 871 01c0 00000000 		.word	.LANCHOR2
 872 01c4 00000000 		.word	.LANCHOR3
 873 01c8 00380240 		.word	1073887232
 874 01cc 00BD0105 		.word	84000000
 875              		.cfi_endproc
 876              	.LFE273:
 877              		.size	pwm_lld_start, .-pwm_lld_start
 878              		.section	.text.pwm_lld_stop,"ax",%progbits
 879              		.align	1
 880              		.p2align 4,,15
 881              		.global	pwm_lld_stop
 882              		.syntax unified
 883              		.thumb
 884              		.thumb_func
 885              		.fpu fpv4-sp-d16
 886              		.type	pwm_lld_stop, %function
 887              	pwm_lld_stop:
 888              	.LFB274:
 889              		.loc 1 630 0
 890              		.cfi_startproc
 891              		@ args = 0, pretend = 0, frame = 8
 892              		@ frame_needed = 0, uses_anonymous_args = 0
 893              	.LVL70:
 894 0000 10B5     		push	{r4, lr}
 895              		.cfi_def_cfa_offset 8
 896              		.cfi_offset 4, -8
 897              		.cfi_offset 14, -4
 898 0002 234C     		ldr	r4, .L137
 899              		.loc 1 633 0
 900 0004 0378     		ldrb	r3, [r0]	@ zero_extendqisi2
 901              		.loc 1 630 0
 902 0006 2268     		ldr	r2, [r4]
 903 0008 82B0     		sub	sp, sp, #8
 904              		.cfi_def_cfa_offset 16
 905              		.loc 1 633 0
 906 000a 022B     		cmp	r3, #2
 907              		.loc 1 630 0
 908 000c 0192     		str	r2, [sp, #4]
 909              		.loc 1 633 0
 910 000e 05D0     		beq	.L132
 911              	.LVL71:
 912              	.L123:
ARM GAS  C:\Users\25521\AppData\Local\Temp\cc0WxJvG.s 			page 17


 913              		.loc 1 686 0
 914 0010 019A     		ldr	r2, [sp, #4]
 915 0012 2368     		ldr	r3, [r4]
 916 0014 9A42     		cmp	r2, r3
 917 0016 38D1     		bne	.L133
 918 0018 02B0     		add	sp, sp, #8
 919              		.cfi_remember_state
 920              		.cfi_def_cfa_offset 8
 921              		@ sp needed
 922 001a 10BD     		pop	{r4, pc}
 923              	.LVL72:
 924              	.L132:
 925              		.cfi_restore_state
 926              		.loc 1 634 0
 927 001c 8169     		ldr	r1, [r0, #24]
 928              		.loc 1 649 0
 929 001e 1D4A     		ldr	r2, .L137+4
 930              		.loc 1 634 0
 931 0020 0023     		movs	r3, #0
 932 0022 0B60     		str	r3, [r1]
 933              		.loc 1 635 0
 934 0024 8169     		ldr	r1, [r0, #24]
 935 0026 CB60     		str	r3, [r1, #12]
 936              		.loc 1 636 0
 937 0028 8169     		ldr	r1, [r0, #24]
 938              		.loc 1 649 0
 939 002a 9042     		cmp	r0, r2
 940              		.loc 1 636 0
 941 002c 0B61     		str	r3, [r1, #16]
 942              		.loc 1 649 0
 943 002e 23D0     		beq	.L134
 944              		.loc 1 655 0
 945 0030 194B     		ldr	r3, .L137+8
 946 0032 9842     		cmp	r0, r3
 947 0034 17D0     		beq	.L135
 948              		.loc 1 661 0
 949 0036 194B     		ldr	r3, .L137+12
 950 0038 9842     		cmp	r0, r3
 951 003a 0BD0     		beq	.L136
 952              		.loc 1 667 0
 953 003c 184B     		ldr	r3, .L137+16
 954 003e 9842     		cmp	r0, r3
 955 0040 E6D1     		bne	.L123
 956              		.loc 1 668 0
 957 0042 3220     		movs	r0, #50
 958              	.LVL73:
 959 0044 FFF7FEFF 		bl	nvicDisableVector
 960              	.LVL74:
 961              		.loc 1 669 0
 962 0048 164A     		ldr	r2, .L137+20
 963 004a 136C     		ldr	r3, [r2, #64]
 964 004c 23F00803 		bic	r3, r3, #8
 965 0050 1364     		str	r3, [r2, #64]
 966              		.loc 1 686 0
 967 0052 DDE7     		b	.L123
 968              	.LVL75:
 969              	.L136:
ARM GAS  C:\Users\25521\AppData\Local\Temp\cc0WxJvG.s 			page 18


 970              		.loc 1 662 0
 971 0054 1E20     		movs	r0, #30
 972              	.LVL76:
 973 0056 FFF7FEFF 		bl	nvicDisableVector
 974              	.LVL77:
 975              		.loc 1 663 0
 976 005a 124A     		ldr	r2, .L137+20
 977 005c 136C     		ldr	r3, [r2, #64]
 978 005e 23F00403 		bic	r3, r3, #4
 979 0062 1364     		str	r3, [r2, #64]
 980 0064 D4E7     		b	.L123
 981              	.LVL78:
 982              	.L135:
 983              		.loc 1 656 0
 984 0066 1D20     		movs	r0, #29
 985              	.LVL79:
 986 0068 FFF7FEFF 		bl	nvicDisableVector
 987              	.LVL80:
 988              		.loc 1 657 0
 989 006c 0D4A     		ldr	r2, .L137+20
 990 006e 136C     		ldr	r3, [r2, #64]
 991 0070 23F00203 		bic	r3, r3, #2
 992 0074 1364     		str	r3, [r2, #64]
 993 0076 CBE7     		b	.L123
 994              	.LVL81:
 995              	.L134:
 996              		.loc 1 650 0
 997 0078 1C20     		movs	r0, #28
 998              	.LVL82:
 999 007a FFF7FEFF 		bl	nvicDisableVector
 1000              	.LVL83:
 1001              		.loc 1 651 0
 1002 007e 094A     		ldr	r2, .L137+20
 1003 0080 136C     		ldr	r3, [r2, #64]
 1004 0082 23F00103 		bic	r3, r3, #1
 1005 0086 1364     		str	r3, [r2, #64]
 1006 0088 C2E7     		b	.L123
 1007              	.L133:
 1008              		.loc 1 686 0
 1009 008a FFF7FEFF 		bl	__stack_chk_fail
 1010              	.LVL84:
 1011              	.L138:
 1012 008e 00BF     		.align	2
 1013              	.L137:
 1014 0090 00000000 		.word	__stack_chk_guard
 1015 0094 00000000 		.word	.LANCHOR0
 1016 0098 00000000 		.word	.LANCHOR1
 1017 009c 00000000 		.word	.LANCHOR2
 1018 00a0 00000000 		.word	.LANCHOR3
 1019 00a4 00380240 		.word	1073887232
 1020              		.cfi_endproc
 1021              	.LFE274:
 1022              		.size	pwm_lld_stop, .-pwm_lld_stop
 1023              		.section	.text.pwm_lld_enable_channel,"ax",%progbits
 1024              		.align	1
 1025              		.p2align 4,,15
 1026              		.global	pwm_lld_enable_channel
ARM GAS  C:\Users\25521\AppData\Local\Temp\cc0WxJvG.s 			page 19


 1027              		.syntax unified
 1028              		.thumb
 1029              		.thumb_func
 1030              		.fpu fpv4-sp-d16
 1031              		.type	pwm_lld_enable_channel, %function
 1032              	pwm_lld_enable_channel:
 1033              	.LFB275:
 1034              		.loc 1 703 0
 1035              		.cfi_startproc
 1036              		@ args = 0, pretend = 0, frame = 8
 1037              		@ frame_needed = 0, uses_anonymous_args = 0
 1038              	.LVL85:
 1039 0000 00B5     		push	{lr}
 1040              		.cfi_def_cfa_offset 4
 1041              		.cfi_offset 14, -4
 1042              		.loc 1 707 0
 1043 0002 8369     		ldr	r3, [r0, #24]
 1044              		.loc 1 703 0
 1045 0004 0848     		ldr	r0, .L143
 1046              	.LVL86:
 1047              		.loc 1 707 0
 1048 0006 0C31     		adds	r1, r1, #12
 1049              	.LVL87:
 1050 0008 03EB8103 		add	r3, r3, r1, lsl #2
 1051              		.loc 1 703 0
 1052 000c 83B0     		sub	sp, sp, #12
 1053              		.cfi_def_cfa_offset 16
 1054              		.loc 1 703 0
 1055 000e 0168     		ldr	r1, [r0]
 1056 0010 0191     		str	r1, [sp, #4]
 1057              		.loc 1 707 0
 1058 0012 5A60     		str	r2, [r3, #4]
 1059              		.loc 1 714 0
 1060 0014 019A     		ldr	r2, [sp, #4]
 1061              	.LVL88:
 1062 0016 0368     		ldr	r3, [r0]
 1063              	.LVL89:
 1064 0018 9A42     		cmp	r2, r3
 1065 001a 02D1     		bne	.L142
 1066 001c 03B0     		add	sp, sp, #12
 1067              		.cfi_remember_state
 1068              		.cfi_def_cfa_offset 4
 1069              		@ sp needed
 1070 001e 5DF804FB 		ldr	pc, [sp], #4
 1071              	.L142:
 1072              		.cfi_restore_state
 1073 0022 FFF7FEFF 		bl	__stack_chk_fail
 1074              	.LVL90:
 1075              	.L144:
 1076 0026 00BF     		.align	2
 1077              	.L143:
 1078 0028 00000000 		.word	__stack_chk_guard
 1079              		.cfi_endproc
 1080              	.LFE275:
 1081              		.size	pwm_lld_enable_channel, .-pwm_lld_enable_channel
 1082              		.section	.text.pwm_lld_disable_channel,"ax",%progbits
 1083              		.align	1
ARM GAS  C:\Users\25521\AppData\Local\Temp\cc0WxJvG.s 			page 20


 1084              		.p2align 4,,15
 1085              		.global	pwm_lld_disable_channel
 1086              		.syntax unified
 1087              		.thumb
 1088              		.thumb_func
 1089              		.fpu fpv4-sp-d16
 1090              		.type	pwm_lld_disable_channel, %function
 1091              	pwm_lld_disable_channel:
 1092              	.LFB276:
 1093              		.loc 1 728 0
 1094              		.cfi_startproc
 1095              		@ args = 0, pretend = 0, frame = 8
 1096              		@ frame_needed = 0, uses_anonymous_args = 0
 1097              	.LVL91:
 1098 0000 10B5     		push	{r4, lr}
 1099              		.cfi_def_cfa_offset 8
 1100              		.cfi_offset 4, -8
 1101              		.cfi_offset 14, -4
 1102 0002 0D4C     		ldr	r4, .L149
 1103              		.loc 1 731 0
 1104 0004 8369     		ldr	r3, [r0, #24]
 1105 0006 01F10C02 		add	r2, r1, #12
 1106              		.loc 1 728 0
 1107 000a 82B0     		sub	sp, sp, #8
 1108              		.cfi_def_cfa_offset 16
 1109              		.loc 1 731 0
 1110 000c 03EB8203 		add	r3, r3, r2, lsl #2
 1111              		.loc 1 728 0
 1112 0010 2268     		ldr	r2, [r4]
 1113 0012 0192     		str	r2, [sp, #4]
 1114              		.loc 1 731 0
 1115 0014 0022     		movs	r2, #0
 1116 0016 5A60     		str	r2, [r3, #4]
 1117              		.loc 1 732 0
 1118 0018 8069     		ldr	r0, [r0, #24]
 1119              	.LVL92:
 1120 001a 0222     		movs	r2, #2
 1121 001c C368     		ldr	r3, [r0, #12]
 1122 001e 02FA01F1 		lsl	r1, r2, r1
 1123              	.LVL93:
 1124 0022 23EA0101 		bic	r1, r3, r1
 1125 0026 C160     		str	r1, [r0, #12]
 1126              		.loc 1 741 0
 1127 0028 019A     		ldr	r2, [sp, #4]
 1128 002a 2368     		ldr	r3, [r4]
 1129 002c 9A42     		cmp	r2, r3
 1130 002e 01D1     		bne	.L148
 1131 0030 02B0     		add	sp, sp, #8
 1132              		.cfi_remember_state
 1133              		.cfi_def_cfa_offset 8
 1134              		@ sp needed
 1135 0032 10BD     		pop	{r4, pc}
 1136              	.L148:
 1137              		.cfi_restore_state
 1138 0034 FFF7FEFF 		bl	__stack_chk_fail
 1139              	.LVL94:
 1140              	.L150:
ARM GAS  C:\Users\25521\AppData\Local\Temp\cc0WxJvG.s 			page 21


 1141              		.align	2
 1142              	.L149:
 1143 0038 00000000 		.word	__stack_chk_guard
 1144              		.cfi_endproc
 1145              	.LFE276:
 1146              		.size	pwm_lld_disable_channel, .-pwm_lld_disable_channel
 1147              		.section	.text.pwm_lld_enable_periodic_notification,"ax",%progbits
 1148              		.align	1
 1149              		.p2align 4,,15
 1150              		.global	pwm_lld_enable_periodic_notification
 1151              		.syntax unified
 1152              		.thumb
 1153              		.thumb_func
 1154              		.fpu fpv4-sp-d16
 1155              		.type	pwm_lld_enable_periodic_notification, %function
 1156              	pwm_lld_enable_periodic_notification:
 1157              	.LFB277:
 1158              		.loc 1 752 0
 1159              		.cfi_startproc
 1160              		@ args = 0, pretend = 0, frame = 8
 1161              		@ frame_needed = 0, uses_anonymous_args = 0
 1162              	.LVL95:
 1163 0000 10B5     		push	{r4, lr}
 1164              		.cfi_def_cfa_offset 8
 1165              		.cfi_offset 4, -8
 1166              		.cfi_offset 14, -4
 1167 0002 0C49     		ldr	r1, .L156
 1168              		.loc 1 753 0
 1169 0004 8269     		ldr	r2, [r0, #24]
 1170              		.loc 1 752 0
 1171 0006 0B68     		ldr	r3, [r1]
 1172 0008 82B0     		sub	sp, sp, #8
 1173              		.cfi_def_cfa_offset 16
 1174              		.loc 1 752 0
 1175 000a 0193     		str	r3, [sp, #4]
 1176              		.loc 1 753 0
 1177 000c D368     		ldr	r3, [r2, #12]
 1178              	.LVL96:
 1179              		.loc 1 757 0
 1180 000e DC07     		lsls	r4, r3, #31
 1181 0010 07D4     		bmi	.L151
 1182              		.loc 1 758 0
 1183 0012 1469     		ldr	r4, [r2, #16]
 1184 0014 24F00104 		bic	r4, r4, #1
 1185 0018 1461     		str	r4, [r2, #16]
 1186              		.loc 1 759 0
 1187 001a 8269     		ldr	r2, [r0, #24]
 1188 001c 43F00103 		orr	r3, r3, #1
 1189              	.LVL97:
 1190 0020 D360     		str	r3, [r2, #12]
 1191              	.L151:
 1192              		.loc 1 761 0
 1193 0022 019A     		ldr	r2, [sp, #4]
 1194 0024 0B68     		ldr	r3, [r1]
 1195 0026 9A42     		cmp	r2, r3
 1196 0028 01D1     		bne	.L155
 1197 002a 02B0     		add	sp, sp, #8
ARM GAS  C:\Users\25521\AppData\Local\Temp\cc0WxJvG.s 			page 22


 1198              		.cfi_remember_state
 1199              		.cfi_def_cfa_offset 8
 1200              		@ sp needed
 1201 002c 10BD     		pop	{r4, pc}
 1202              	.L155:
 1203              		.cfi_restore_state
 1204 002e FFF7FEFF 		bl	__stack_chk_fail
 1205              	.LVL98:
 1206              	.L157:
 1207 0032 00BF     		.align	2
 1208              	.L156:
 1209 0034 00000000 		.word	__stack_chk_guard
 1210              		.cfi_endproc
 1211              	.LFE277:
 1212              		.size	pwm_lld_enable_periodic_notification, .-pwm_lld_enable_periodic_notification
 1213              		.section	.text.pwm_lld_disable_periodic_notification,"ax",%progbits
 1214              		.align	1
 1215              		.p2align 4,,15
 1216              		.global	pwm_lld_disable_periodic_notification
 1217              		.syntax unified
 1218              		.thumb
 1219              		.thumb_func
 1220              		.fpu fpv4-sp-d16
 1221              		.type	pwm_lld_disable_periodic_notification, %function
 1222              	pwm_lld_disable_periodic_notification:
 1223              	.LFB278:
 1224              		.loc 1 772 0
 1225              		.cfi_startproc
 1226              		@ args = 0, pretend = 0, frame = 8
 1227              		@ frame_needed = 0, uses_anonymous_args = 0
 1228              	.LVL99:
 1229 0000 00B5     		push	{lr}
 1230              		.cfi_def_cfa_offset 4
 1231              		.cfi_offset 14, -4
 1232 0002 094A     		ldr	r2, .L162
 1233              		.loc 1 774 0
 1234 0004 8169     		ldr	r1, [r0, #24]
 1235              		.loc 1 772 0
 1236 0006 1368     		ldr	r3, [r2]
 1237 0008 83B0     		sub	sp, sp, #12
 1238              		.cfi_def_cfa_offset 16
 1239              		.loc 1 772 0
 1240 000a 0193     		str	r3, [sp, #4]
 1241              		.loc 1 774 0
 1242 000c CB68     		ldr	r3, [r1, #12]
 1243 000e 23F00103 		bic	r3, r3, #1
 1244 0012 CB60     		str	r3, [r1, #12]
 1245              		.loc 1 775 0
 1246 0014 0199     		ldr	r1, [sp, #4]
 1247 0016 1368     		ldr	r3, [r2]
 1248 0018 9942     		cmp	r1, r3
 1249 001a 02D1     		bne	.L161
 1250 001c 03B0     		add	sp, sp, #12
 1251              		.cfi_remember_state
 1252              		.cfi_def_cfa_offset 4
 1253              		@ sp needed
 1254 001e 5DF804FB 		ldr	pc, [sp], #4
ARM GAS  C:\Users\25521\AppData\Local\Temp\cc0WxJvG.s 			page 23


 1255              	.L161:
 1256              		.cfi_restore_state
 1257 0022 FFF7FEFF 		bl	__stack_chk_fail
 1258              	.LVL100:
 1259              	.L163:
 1260 0026 00BF     		.align	2
 1261              	.L162:
 1262 0028 00000000 		.word	__stack_chk_guard
 1263              		.cfi_endproc
 1264              	.LFE278:
 1265              		.size	pwm_lld_disable_periodic_notification, .-pwm_lld_disable_periodic_notification
 1266              		.section	.text.pwm_lld_enable_channel_notification,"ax",%progbits
 1267              		.align	1
 1268              		.p2align 4,,15
 1269              		.global	pwm_lld_enable_channel_notification
 1270              		.syntax unified
 1271              		.thumb
 1272              		.thumb_func
 1273              		.fpu fpv4-sp-d16
 1274              		.type	pwm_lld_enable_channel_notification, %function
 1275              	pwm_lld_enable_channel_notification:
 1276              	.LFB279:
 1277              		.loc 1 789 0
 1278              		.cfi_startproc
 1279              		@ args = 0, pretend = 0, frame = 8
 1280              		@ frame_needed = 0, uses_anonymous_args = 0
 1281              	.LVL101:
 1282 0000 30B5     		push	{r4, r5, lr}
 1283              		.cfi_def_cfa_offset 12
 1284              		.cfi_offset 4, -12
 1285              		.cfi_offset 5, -8
 1286              		.cfi_offset 14, -4
 1287 0002 0C4C     		ldr	r4, .L169
 1288              		.loc 1 790 0
 1289 0004 8569     		ldr	r5, [r0, #24]
 1290              		.loc 1 789 0
 1291 0006 2368     		ldr	r3, [r4]
 1292 0008 83B0     		sub	sp, sp, #12
 1293              		.cfi_def_cfa_offset 24
 1294              		.loc 1 789 0
 1295 000a 0193     		str	r3, [sp, #4]
 1296              		.loc 1 790 0
 1297 000c EA68     		ldr	r2, [r5, #12]
 1298              	.LVL102:
 1299              		.loc 1 799 0
 1300 000e 0223     		movs	r3, #2
 1301 0010 03FA01F1 		lsl	r1, r3, r1
 1302              	.LVL103:
 1303 0014 1142     		tst	r1, r2
 1304 0016 04D1     		bne	.L164
 1305              		.loc 1 800 0
 1306 0018 0A43     		orrs	r2, r2, r1
 1307              	.LVL104:
 1308 001a EA60     		str	r2, [r5, #12]
 1309              		.loc 1 801 0
 1310 001c 8369     		ldr	r3, [r0, #24]
 1311 001e C943     		mvns	r1, r1
ARM GAS  C:\Users\25521\AppData\Local\Temp\cc0WxJvG.s 			page 24


 1312 0020 1961     		str	r1, [r3, #16]
 1313              	.L164:
 1314              		.loc 1 803 0
 1315 0022 019A     		ldr	r2, [sp, #4]
 1316 0024 2368     		ldr	r3, [r4]
 1317 0026 9A42     		cmp	r2, r3
 1318 0028 01D1     		bne	.L168
 1319 002a 03B0     		add	sp, sp, #12
 1320              		.cfi_remember_state
 1321              		.cfi_def_cfa_offset 12
 1322              		@ sp needed
 1323 002c 30BD     		pop	{r4, r5, pc}
 1324              	.L168:
 1325              		.cfi_restore_state
 1326 002e FFF7FEFF 		bl	__stack_chk_fail
 1327              	.LVL105:
 1328              	.L170:
 1329 0032 00BF     		.align	2
 1330              	.L169:
 1331 0034 00000000 		.word	__stack_chk_guard
 1332              		.cfi_endproc
 1333              	.LFE279:
 1334              		.size	pwm_lld_enable_channel_notification, .-pwm_lld_enable_channel_notification
 1335              		.section	.text.pwm_lld_disable_channel_notification,"ax",%progbits
 1336              		.align	1
 1337              		.p2align 4,,15
 1338              		.global	pwm_lld_disable_channel_notification
 1339              		.syntax unified
 1340              		.thumb
 1341              		.thumb_func
 1342              		.fpu fpv4-sp-d16
 1343              		.type	pwm_lld_disable_channel_notification, %function
 1344              	pwm_lld_disable_channel_notification:
 1345              	.LFB280:
 1346              		.loc 1 817 0
 1347              		.cfi_startproc
 1348              		@ args = 0, pretend = 0, frame = 8
 1349              		@ frame_needed = 0, uses_anonymous_args = 0
 1350              	.LVL106:
 1351 0000 10B5     		push	{r4, lr}
 1352              		.cfi_def_cfa_offset 8
 1353              		.cfi_offset 4, -8
 1354              		.cfi_offset 14, -4
 1355 0002 0A4C     		ldr	r4, .L175
 1356              		.loc 1 819 0
 1357 0004 8069     		ldr	r0, [r0, #24]
 1358              	.LVL107:
 1359              		.loc 1 817 0
 1360 0006 2368     		ldr	r3, [r4]
 1361 0008 82B0     		sub	sp, sp, #8
 1362              		.cfi_def_cfa_offset 16
 1363              		.loc 1 819 0
 1364 000a 0222     		movs	r2, #2
 1365              		.loc 1 817 0
 1366 000c 0193     		str	r3, [sp, #4]
 1367              		.loc 1 819 0
 1368 000e C368     		ldr	r3, [r0, #12]
ARM GAS  C:\Users\25521\AppData\Local\Temp\cc0WxJvG.s 			page 25


 1369 0010 02FA01F1 		lsl	r1, r2, r1
 1370              	.LVL108:
 1371 0014 23EA0103 		bic	r3, r3, r1
 1372 0018 C360     		str	r3, [r0, #12]
 1373              		.loc 1 820 0
 1374 001a 019A     		ldr	r2, [sp, #4]
 1375 001c 2368     		ldr	r3, [r4]
 1376 001e 9A42     		cmp	r2, r3
 1377 0020 01D1     		bne	.L174
 1378 0022 02B0     		add	sp, sp, #8
 1379              		.cfi_remember_state
 1380              		.cfi_def_cfa_offset 8
 1381              		@ sp needed
 1382 0024 10BD     		pop	{r4, pc}
 1383              	.L174:
 1384              		.cfi_restore_state
 1385 0026 FFF7FEFF 		bl	__stack_chk_fail
 1386              	.LVL109:
 1387              	.L176:
 1388 002a 00BF     		.align	2
 1389              	.L175:
 1390 002c 00000000 		.word	__stack_chk_guard
 1391              		.cfi_endproc
 1392              	.LFE280:
 1393              		.size	pwm_lld_disable_channel_notification, .-pwm_lld_disable_channel_notification
 1394              		.global	PWMD5
 1395              		.global	PWMD4
 1396              		.global	PWMD3
 1397              		.global	PWMD2
 1398              		.section	.bss.PWMD2,"aw",%nobits
 1399              		.align	2
 1400              		.set	.LANCHOR0,. + 0
 1401              		.type	PWMD2, %object
 1402              		.size	PWMD2, 28
 1403              	PWMD2:
 1404 0000 00000000 		.space	28
 1404      00000000 
 1404      00000000 
 1404      00000000 
 1404      00000000 
 1405              		.section	.bss.PWMD3,"aw",%nobits
 1406              		.align	2
 1407              		.set	.LANCHOR1,. + 0
 1408              		.type	PWMD3, %object
 1409              		.size	PWMD3, 28
 1410              	PWMD3:
 1411 0000 00000000 		.space	28
 1411      00000000 
 1411      00000000 
 1411      00000000 
 1411      00000000 
 1412              		.section	.bss.PWMD4,"aw",%nobits
 1413              		.align	2
 1414              		.set	.LANCHOR2,. + 0
 1415              		.type	PWMD4, %object
 1416              		.size	PWMD4, 28
 1417              	PWMD4:
ARM GAS  C:\Users\25521\AppData\Local\Temp\cc0WxJvG.s 			page 26


 1418 0000 00000000 		.space	28
 1418      00000000 
 1418      00000000 
 1418      00000000 
 1418      00000000 
 1419              		.section	.bss.PWMD5,"aw",%nobits
 1420              		.align	2
 1421              		.set	.LANCHOR3,. + 0
 1422              		.type	PWMD5, %object
 1423              		.size	PWMD5, 28
 1424              	PWMD5:
 1425 0000 00000000 		.space	28
 1425      00000000 
 1425      00000000 
 1425      00000000 
 1425      00000000 
 1426              		.section	.rodata.__func__.9934,"a",%progbits
 1427              		.align	2
 1428              		.set	.LANCHOR4,. + 0
 1429              		.type	__func__.9934, %object
 1430              		.size	__func__.9934, 14
 1431              	__func__.9934:
 1432 0000 70776D5F 		.ascii	"pwm_lld_start\000"
 1432      6C6C645F 
 1432      73746172 
 1432      7400
 1433              		.text
 1434              	.Letext0:
 1435              		.file 2 "d:\\eclipse_e-puck2_win32_11_apr_2018\\eclipse_e-puck2\\tools\\gcc-arm-none-eabi-7-2017-q
 1436              		.file 3 "d:\\eclipse_e-puck2_win32_11_apr_2018\\eclipse_e-puck2\\tools\\gcc-arm-none-eabi-7-2017-q
 1437              		.file 4 "d:\\eclipse_e-puck2_win32_11_apr_2018\\eclipse_e-puck2\\tools\\gcc-arm-none-eabi-7-2017-q
 1438              		.file 5 "../e-puck2_main-processor/ChibiOS//os/rt/ports/ARMCMx/compilers/GCC/chtypes.h"
 1439              		.file 6 "../e-puck2_main-processor/ChibiOS//os/rt/include/chsystypes.h"
 1440              		.file 7 "../e-puck2_main-processor/ChibiOS//os/rt/include/chschd.h"
 1441              		.file 8 "../e-puck2_main-processor/ChibiOS//os/ext/CMSIS/include/core_cm4.h"
 1442              		.file 9 "../e-puck2_main-processor/ChibiOS//os/ext/CMSIS/ST/system_stm32f4xx.h"
 1443              		.file 10 "../e-puck2_main-processor/ChibiOS//os/ext/CMSIS/ST/stm32f407xx.h"
 1444              		.file 11 "../e-puck2_main-processor/ChibiOS//os/rt/ports/ARMCMx/chcore.h"
 1445              		.file 12 "../e-puck2_main-processor/ChibiOS//os/rt/ports/ARMCMx/chcore_v7m.h"
 1446              		.file 13 "../e-puck2_main-processor/ChibiOS//os/rt/include/chdebug.h"
 1447              		.file 14 "../e-puck2_main-processor/ChibiOS//os/rt/include/chtm.h"
 1448              		.file 15 "../e-puck2_main-processor/ChibiOS//os/rt/include/chstats.h"
 1449              		.file 16 "../e-puck2_main-processor/ChibiOS//os/rt/include/chsem.h"
 1450              		.file 17 "../e-puck2_main-processor/ChibiOS//os/rt/include/chmtx.h"
 1451              		.file 18 "../e-puck2_main-processor/ChibiOS//os/rt/include/chregistry.h"
 1452              		.file 19 "../e-puck2_main-processor/ChibiOS//os/rt/include/chevents.h"
 1453              		.file 20 "../e-puck2_main-processor/ChibiOS//os/rt/include/chqueues.h"
 1454              		.file 21 "../e-puck2_main-processor/ChibiOS//os/hal/ports/STM32/LLD/DMAv2/stm32_dma.h"
 1455              		.file 22 "../e-puck2_main-processor/ChibiOS//os/hal/include/hal_ioblock.h"
 1456              		.file 23 "../e-puck2_main-processor/ChibiOS//os/hal/ports/STM32/LLD/GPIOv2/pal_lld.h"
 1457              		.file 24 "../e-puck2_main-processor/ChibiOS//os/hal/include/adc.h"
 1458              		.file 25 "../e-puck2_main-processor/ChibiOS//os/hal/ports/STM32/LLD/ADCv2/adc_lld.h"
 1459              		.file 26 "../e-puck2_main-processor/ChibiOS//os/hal/include/can.h"
 1460              		.file 27 "../e-puck2_main-processor/ChibiOS//os/hal/ports/STM32/LLD/CANv1/can_lld.h"
 1461              		.file 28 "../e-puck2_main-processor/ChibiOS//os/hal/include/dac.h"
 1462              		.file 29 "../e-puck2_main-processor/ChibiOS//os/hal/ports/STM32/LLD/DACv1/dac_lld.h"
 1463              		.file 30 "../e-puck2_main-processor/ChibiOS//os/hal/include/ext.h"
ARM GAS  C:\Users\25521\AppData\Local\Temp\cc0WxJvG.s 			page 27


 1464              		.file 31 "../e-puck2_main-processor/ChibiOS//os/hal/ports/STM32/LLD/EXTIv1/ext_lld.h"
 1465              		.file 32 "../e-puck2_main-processor/ChibiOS//os/hal/include/gpt.h"
 1466              		.file 33 "../e-puck2_main-processor/ChibiOS//os/hal/ports/STM32/LLD/TIMv1/gpt_lld.h"
 1467              		.file 34 "../e-puck2_main-processor/ChibiOS//os/hal/ports/STM32/LLD/TIMv1/stm32_tim.h"
 1468              		.file 35 "../e-puck2_main-processor/ChibiOS//os/hal/include/i2c.h"
 1469              		.file 36 "../e-puck2_main-processor/ChibiOS//os/hal/ports/STM32/LLD/I2Cv1/i2c_lld.h"
 1470              		.file 37 "../e-puck2_main-processor/ChibiOS//os/hal/include/i2s.h"
 1471              		.file 38 "../e-puck2_main-processor/ChibiOS//os/hal/ports/STM32/LLD/SPIv1/i2s_lld.h"
 1472              		.file 39 "../e-puck2_main-processor/ChibiOS//os/hal/include/pwm.h"
 1473              		.file 40 "../e-puck2_main-processor/ChibiOS//os/hal/ports/STM32/LLD/TIMv1/pwm_lld.h"
 1474              		.file 41 "../e-puck2_main-processor/ChibiOS//os/hal/include/serial.h"
 1475              		.file 42 "../e-puck2_main-processor/ChibiOS//os/hal/ports/STM32/LLD/USARTv1/serial_lld.h"
 1476              		.file 43 "../e-puck2_main-processor/ChibiOS//os/hal/include/sdc.h"
 1477              		.file 44 "../e-puck2_main-processor/ChibiOS//os/hal/ports/STM32/LLD/SDIOv1/sdc_lld.h"
 1478              		.file 45 "../e-puck2_main-processor/ChibiOS//os/hal/include/spi.h"
 1479              		.file 46 "../e-puck2_main-processor/ChibiOS//os/hal/ports/STM32/LLD/SPIv1/spi_lld.h"
 1480              		.file 47 "../e-puck2_main-processor/ChibiOS//os/hal/include/usb.h"
 1481              		.file 48 "../e-puck2_main-processor/ChibiOS//os/hal/ports/STM32/LLD/OTGv1/usb_lld.h"
 1482              		.file 49 "../e-puck2_main-processor/ChibiOS//os/hal/ports/STM32/LLD/OTGv1/stm32_otg.h"
 1483              		.file 50 "../e-puck2_main-processor/ChibiOS//os/hal/ports/common/ARMCMx/nvic.h"
 1484              		.file 51 "../e-puck2_main-processor/ChibiOS//os/rt/include/chsys.h"