ARM GAS  C:\Users\25521\AppData\Local\Temp\ccalLoVc.s 			page 1


   1              		.cpu cortex-m4
   2              		.eabi_attribute 27, 1
   3              		.eabi_attribute 28, 1
   4              		.eabi_attribute 20, 1
   5              		.eabi_attribute 21, 1
   6              		.eabi_attribute 23, 3
   7              		.eabi_attribute 24, 1
   8              		.eabi_attribute 25, 1
   9              		.eabi_attribute 26, 1
  10              		.eabi_attribute 30, 2
  11              		.eabi_attribute 34, 1
  12              		.eabi_attribute 18, 4
  13              		.file	"skel_user.c"
  14              		.text
  15              	.Ltext0:
  16              		.cfi_sections	.debug_frame
  17              		.section	.text.AsebaNative__system_reboot,"ax",%progbits
  18              		.align	1
  19              		.p2align 4,,15
  20              		.global	AsebaNative__system_reboot
  21              		.syntax unified
  22              		.thumb
  23              		.thumb_func
  24              		.fpu fpv4-sp-d16
  25              		.type	AsebaNative__system_reboot, %function
  26              	AsebaNative__system_reboot:
  27              	.LFB277:
  28              		.file 1 "../e-puck2_main-processor/src/aseba_vm/skel_user.c"
  29              		.loc 1 134 0
  30              		.cfi_startproc
  31              		@ Volatile: function does not return.
  32              		@ args = 0, pretend = 0, frame = 8
  33              		@ frame_needed = 0, uses_anonymous_args = 0
  34              		@ link register save eliminated.
  35              	.LVL0:
  36 0000 084B     		ldr	r3, .L6
  37 0002 82B0     		sub	sp, sp, #8
  38              		.cfi_def_cfa_offset 8
  39              		.loc 1 134 0
  40 0004 1B68     		ldr	r3, [r3]
  41 0006 0193     		str	r3, [sp, #4]
  42              	.LBB24:
  43              	.LBB25:
  44              	.LBB26:
  45              	.LBB27:
  46              		.file 2 "../e-puck2_main-processor/ChibiOS//os/ext/CMSIS/include/core_cmInstr.h"
  47              		.loc 2 478 0
  48              		.syntax unified
  49              	@ 478 "../e-puck2_main-processor/ChibiOS//os/ext/CMSIS/include/core_cmInstr.h" 1
  50 0008 BFF34F8F 		dsb 0xF
  51              	@ 0 "" 2
  52              		.thumb
  53              		.syntax unified
  54              	.LBE27:
  55              	.LBE26:
  56              		.file 3 "../e-puck2_main-processor/ChibiOS//os/ext/CMSIS/include/core_cm4.h"
  57              		.loc 3 1726 0
ARM GAS  C:\Users\25521\AppData\Local\Temp\ccalLoVc.s 			page 2


  58 000c 0649     		ldr	r1, .L6+4
  59              		.loc 3 1725 0
  60 000e 074B     		ldr	r3, .L6+8
  61              		.loc 3 1726 0
  62 0010 CA68     		ldr	r2, [r1, #12]
  63 0012 02F4E062 		and	r2, r2, #1792
  64              		.loc 3 1725 0
  65 0016 1343     		orrs	r3, r3, r2
  66 0018 CB60     		str	r3, [r1, #12]
  67              	.LBB28:
  68              	.LBB29:
  69              		.loc 2 478 0
  70              		.syntax unified
  71              	@ 478 "../e-puck2_main-processor/ChibiOS//os/ext/CMSIS/include/core_cmInstr.h" 1
  72 001a BFF34F8F 		dsb 0xF
  73              	@ 0 "" 2
  74              		.thumb
  75              		.syntax unified
  76              	.L2:
  77              	.LBE29:
  78              	.LBE28:
  79              	.LBB30:
  80              	.LBB31:
  81              		.loc 2 423 0
  82              		.syntax unified
  83              	@ 423 "../e-puck2_main-processor/ChibiOS//os/ext/CMSIS/include/core_cmInstr.h" 1
  84 001e 00BF     		nop
  85              	@ 0 "" 2
  86              		.thumb
  87              		.syntax unified
  88 0020 FDE7     		b	.L2
  89              	.L7:
  90 0022 00BF     		.align	2
  91              	.L6:
  92 0024 00000000 		.word	__stack_chk_guard
  93 0028 00ED00E0 		.word	-536810240
  94 002c 0400FA05 		.word	100270084
  95              	.LBE31:
  96              	.LBE30:
  97              	.LBE25:
  98              	.LBE24:
  99              		.cfi_endproc
 100              	.LFE277:
 101              		.size	AsebaNative__system_reboot, .-AsebaNative__system_reboot
 102              		.section	.text.clear_all_leds,"ax",%progbits
 103              		.align	1
 104              		.p2align 4,,15
 105              		.global	clear_all_leds
 106              		.syntax unified
 107              		.thumb
 108              		.thumb_func
 109              		.fpu fpv4-sp-d16
 110              		.type	clear_all_leds, %function
 111              	clear_all_leds:
 112              	.LFB282:
 113              		.loc 1 242 0
 114              		.cfi_startproc
ARM GAS  C:\Users\25521\AppData\Local\Temp\ccalLoVc.s 			page 3


 115              		@ args = 0, pretend = 0, frame = 8
 116              		@ frame_needed = 0, uses_anonymous_args = 0
 117              	.LVL1:
 118 0000 00B5     		push	{lr}
 119              		.cfi_def_cfa_offset 4
 120              		.cfi_offset 14, -4
 121 0002 174A     		ldr	r2, .L12
 122              		.loc 1 245 0
 123 0004 174B     		ldr	r3, .L12+4
 124              		.loc 1 242 0
 125 0006 1168     		ldr	r1, [r2]
 126 0008 83B0     		sub	sp, sp, #12
 127              		.cfi_def_cfa_offset 16
 128              		.loc 1 242 0
 129 000a 0191     		str	r1, [sp, #4]
 130              		.loc 1 262 0
 131 000c 0198     		ldr	r0, [sp, #4]
 132              	.LVL2:
 133 000e 1168     		ldr	r1, [r2]
 134              		.loc 1 245 0
 135 0010 0022     		movs	r2, #0
 136              		.loc 1 262 0
 137 0012 8842     		cmp	r0, r1
 138              		.loc 1 245 0
 139 0014 A3F84A20 		strh	r2, [r3, #74]	@ movhi
 140              		.loc 1 246 0
 141 0018 A3F84C20 		strh	r2, [r3, #76]	@ movhi
 142              		.loc 1 247 0
 143 001c A3F84E20 		strh	r2, [r3, #78]	@ movhi
 144              		.loc 1 248 0
 145 0020 A3F85020 		strh	r2, [r3, #80]	@ movhi
 146              		.loc 1 249 0
 147 0024 A3F85220 		strh	r2, [r3, #82]	@ movhi
 148              		.loc 1 250 0
 149 0028 A3F85420 		strh	r2, [r3, #84]	@ movhi
 150              		.loc 1 251 0
 151 002c A3F85620 		strh	r2, [r3, #86]	@ movhi
 152              		.loc 1 252 0
 153 0030 A3F85820 		strh	r2, [r3, #88]	@ movhi
 154              		.loc 1 253 0
 155 0034 A3F85A20 		strh	r2, [r3, #90]	@ movhi
 156              		.loc 1 254 0
 157 0038 A3F85C20 		strh	r2, [r3, #92]	@ movhi
 158              		.loc 1 255 0
 159 003c A3F85E20 		strh	r2, [r3, #94]	@ movhi
 160              		.loc 1 256 0
 161 0040 A3F86020 		strh	r2, [r3, #96]	@ movhi
 162              		.loc 1 257 0
 163 0044 A3F86220 		strh	r2, [r3, #98]	@ movhi
 164              		.loc 1 258 0
 165 0048 A3F86420 		strh	r2, [r3, #100]	@ movhi
 166              		.loc 1 259 0
 167 004c A3F86620 		strh	r2, [r3, #102]	@ movhi
 168              		.loc 1 260 0
 169 0050 A3F86820 		strh	r2, [r3, #104]	@ movhi
 170              		.loc 1 262 0
 171 0054 02D1     		bne	.L11
ARM GAS  C:\Users\25521\AppData\Local\Temp\ccalLoVc.s 			page 4


 172 0056 03B0     		add	sp, sp, #12
 173              		.cfi_remember_state
 174              		.cfi_def_cfa_offset 4
 175              		@ sp needed
 176 0058 5DF804FB 		ldr	pc, [sp], #4
 177              	.L11:
 178              		.cfi_restore_state
 179 005c FFF7FEFF 		bl	__stack_chk_fail
 180              	.LVL3:
 181              	.L13:
 182              		.align	2
 183              	.L12:
 184 0060 00000000 		.word	__stack_chk_guard
 185 0064 00000000 		.word	.LANCHOR0
 186              		.cfi_endproc
 187              	.LFE282:
 188              		.size	clear_all_leds, .-clear_all_leds
 189              		.section	.text.AsebaNative_settings_save,"ax",%progbits
 190              		.align	1
 191              		.p2align 4,,15
 192              		.global	AsebaNative_settings_save
 193              		.syntax unified
 194              		.thumb
 195              		.thumb_func
 196              		.fpu fpv4-sp-d16
 197              		.type	AsebaNative_settings_save, %function
 198              	AsebaNative_settings_save:
 199              	.LFB280:
 200              		.loc 1 197 0
 201              		.cfi_startproc
 202              		@ args = 0, pretend = 0, frame = 8
 203              		@ frame_needed = 0, uses_anonymous_args = 0
 204              	.LVL4:
 205 0000 70B5     		push	{r4, r5, r6, lr}
 206              		.cfi_def_cfa_offset 16
 207              		.cfi_offset 4, -16
 208              		.cfi_offset 5, -12
 209              		.cfi_offset 6, -8
 210              		.cfi_offset 14, -4
 211              		.loc 1 199 0
 212 0002 1149     		ldr	r1, .L21
 213 0004 114C     		ldr	r4, .L21+4
 214              		.loc 1 197 0
 215 0006 124D     		ldr	r5, .L21+8
 216              		.loc 1 203 0
 217 0008 124A     		ldr	r2, .L21+12
 218              		.loc 1 197 0
 219 000a 2B68     		ldr	r3, [r5]
 220 000c 82B0     		sub	sp, sp, #8
 221              		.cfi_def_cfa_offset 24
 222              		.loc 1 199 0
 223 000e 091B     		subs	r1, r1, r4
 224              		.loc 1 203 0
 225 0010 8910     		asrs	r1, r1, #2
 226              		.loc 1 197 0
 227 0012 0646     		mov	r6, r0
 228              		.loc 1 203 0
ARM GAS  C:\Users\25521\AppData\Local\Temp\ccalLoVc.s 			page 5


 229 0014 2046     		mov	r0, r4
 230              	.LVL5:
 231              		.loc 1 197 0
 232 0016 0193     		str	r3, [sp, #4]
 233              	.LVL6:
 234              		.loc 1 203 0
 235 0018 FFF7FEFF 		bl	config_save
 236              	.LVL7:
 237              		.loc 1 206 0
 238 001c 2146     		mov	r1, r4
 239 001e 0D48     		ldr	r0, .L21+12
 240 0020 FFF7FEFF 		bl	config_load
 241              	.LVL8:
 242              		.loc 1 209 0
 243 0024 019A     		ldr	r2, [sp, #4]
 244 0026 2B68     		ldr	r3, [r5]
 245              		.loc 1 208 0
 246 0028 18B1     		cbz	r0, .L20
 247              		.loc 1 211 0
 248 002a 9A42     		cmp	r2, r3
 249 002c 0AD1     		bne	.L19
 250 002e 02B0     		add	sp, sp, #8
 251              		.cfi_remember_state
 252              		.cfi_def_cfa_offset 16
 253              		@ sp needed
 254 0030 70BD     		pop	{r4, r5, r6, pc}
 255              	.LVL9:
 256              	.L20:
 257              		.cfi_restore_state
 258              		.loc 1 209 0
 259 0032 9A42     		cmp	r2, r3
 260 0034 06D1     		bne	.L19
 261 0036 0849     		ldr	r1, .L21+16
 262 0038 3046     		mov	r0, r6
 263              	.LVL10:
 264              		.loc 1 211 0
 265 003a 02B0     		add	sp, sp, #8
 266              		.cfi_remember_state
 267              		.cfi_def_cfa_offset 16
 268              		@ sp needed
 269 003c BDE87040 		pop	{r4, r5, r6, lr}
 270              		.cfi_restore 14
 271              		.cfi_restore 6
 272              		.cfi_restore 5
 273              		.cfi_restore 4
 274              		.cfi_def_cfa_offset 0
 275              	.LVL11:
 276              		.loc 1 209 0
 277 0040 FFF7FEBF 		b	AsebaVMEmitNodeSpecificError
 278              	.LVL12:
 279              	.L19:
 280              		.cfi_restore_state
 281              		.loc 1 211 0
 282 0044 FFF7FEFF 		bl	__stack_chk_fail
 283              	.LVL13:
 284              	.L22:
 285              		.align	2
ARM GAS  C:\Users\25521\AppData\Local\Temp\ccalLoVc.s 			page 6


 286              	.L21:
 287 0048 00000000 		.word	_config_end
 288 004c 00000000 		.word	_config_start
 289 0050 00000000 		.word	__stack_chk_guard
 290 0054 00000000 		.word	parameter_root
 291 0058 00000000 		.word	.LC0
 292              		.cfi_endproc
 293              	.LFE280:
 294              		.size	AsebaNative_settings_save, .-AsebaNative_settings_save
 295              		.section	.text.AsebaNative_settings_erase,"ax",%progbits
 296              		.align	1
 297              		.p2align 4,,15
 298              		.global	AsebaNative_settings_erase
 299              		.syntax unified
 300              		.thumb
 301              		.thumb_func
 302              		.fpu fpv4-sp-d16
 303              		.type	AsebaNative_settings_erase, %function
 304              	AsebaNative_settings_erase:
 305              	.LFB281:
 306              		.loc 1 224 0
 307              		.cfi_startproc
 308              		@ args = 0, pretend = 0, frame = 8
 309              		@ frame_needed = 0, uses_anonymous_args = 0
 310              	.LVL14:
 311 0000 00B5     		push	{lr}
 312              		.cfi_def_cfa_offset 4
 313              		.cfi_offset 14, -4
 314 0002 084B     		ldr	r3, .L28
 315 0004 83B0     		sub	sp, sp, #12
 316              		.cfi_def_cfa_offset 16
 317              		.loc 1 224 0
 318 0006 1A68     		ldr	r2, [r3]
 319 0008 0192     		str	r2, [sp, #4]
 320              		.loc 1 229 0
 321 000a 019A     		ldr	r2, [sp, #4]
 322 000c 1B68     		ldr	r3, [r3]
 323 000e 9A42     		cmp	r2, r3
 324 0010 05D1     		bne	.L27
 325 0012 0548     		ldr	r0, .L28+4
 326              	.LVL15:
 327              		.loc 1 230 0
 328 0014 03B0     		add	sp, sp, #12
 329              		.cfi_remember_state
 330              		.cfi_def_cfa_offset 4
 331              		@ sp needed
 332 0016 5DF804EB 		ldr	lr, [sp], #4
 333              		.cfi_restore 14
 334              		.cfi_def_cfa_offset 0
 335              		.loc 1 229 0
 336 001a FFF7FEBF 		b	config_erase
 337              	.LVL16:
 338              	.L27:
 339              		.cfi_restore_state
 340 001e FFF7FEFF 		bl	__stack_chk_fail
 341              	.LVL17:
 342              	.L29:
ARM GAS  C:\Users\25521\AppData\Local\Temp\ccalLoVc.s 			page 7


 343 0022 00BF     		.align	2
 344              	.L28:
 345 0024 00000000 		.word	__stack_chk_guard
 346 0028 00000000 		.word	_config_start
 347              		.cfi_endproc
 348              	.LFE281:
 349              		.size	AsebaNative_settings_erase, .-AsebaNative_settings_erase
 350              		.section	.text.AsebaNative__system_settings_write,"ax",%progbits
 351              		.align	1
 352              		.p2align 4,,15
 353              		.syntax unified
 354              		.thumb
 355              		.thumb_func
 356              		.fpu fpv4-sp-d16
 357              		.type	AsebaNative__system_settings_write, %function
 358              	AsebaNative__system_settings_write:
 359              	.LFB279:
 360              		.loc 1 173 0
 361              		.cfi_startproc
 362              		@ args = 0, pretend = 0, frame = 8
 363              		@ frame_needed = 0, uses_anonymous_args = 0
 364              	.LVL18:
 365 0000 F0B5     		push	{r4, r5, r6, r7, lr}
 366              		.cfi_def_cfa_offset 20
 367              		.cfi_offset 4, -20
 368              		.cfi_offset 5, -16
 369              		.cfi_offset 6, -12
 370              		.cfi_offset 7, -8
 371              		.cfi_offset 14, -4
 372              	.LBB32:
 373              	.LBB33:
 374              		.file 4 "../e-puck2_main-processor/aseba/vm/natives.h"
 375              		.loc 4 90 0
 376 0002 B0F91C40 		ldrsh	r4, [r0, #28]
 377 0006 4769     		ldr	r7, [r0, #20]
 378              	.LVL19:
 379              	.LBE33:
 380              	.LBE32:
 381              		.loc 1 174 0
 382 0008 C668     		ldr	r6, [r0, #12]
 383              		.loc 1 173 0
 384 000a 174D     		ldr	r5, .L38
 385              	.LBB35:
 386              	.LBB34:
 387              		.loc 4 90 0
 388 000c A2B2     		uxth	r2, r4
 389 000e 511E     		subs	r1, r2, #1
 390 0010 09B2     		sxth	r1, r1
 391 0012 8183     		strh	r1, [r0, #28]	@ movhi
 392              	.LBE34:
 393              	.LBE35:
 394              		.loc 1 174 0
 395 0014 37F91440 		ldrsh	r4, [r7, r4, lsl #1]
 396              		.loc 1 173 0
 397 0018 D5F800C0 		ldr	ip, [r5]
 398              		.loc 1 174 0
 399 001c 36F81440 		ldrh	r4, [r6, r4, lsl #1]
ARM GAS  C:\Users\25521\AppData\Local\Temp\ccalLoVc.s 			page 8


 400              	.LVL20:
 401              		.loc 1 173 0
 402 0020 83B0     		sub	sp, sp, #12
 403              		.cfi_def_cfa_offset 32
 404              	.LBB36:
 405              	.LBB37:
 406              		.loc 4 90 0
 407 0022 023A     		subs	r2, r2, #2
 408              	.LBE37:
 409              	.LBE36:
 410              		.loc 1 173 0
 411 0024 CDF804C0 		str	ip, [sp, #4]
 412              		.loc 1 177 0
 413 0028 1F2C     		cmp	r4, #31
 414              	.LBB39:
 415              	.LBB38:
 416              		.loc 4 90 0
 417 002a 8283     		strh	r2, [r0, #28]	@ movhi
 418              	.LVL21:
 419              	.LBE38:
 420              	.LBE39:
 421              		.loc 1 178 0
 422 002c 019A     		ldr	r2, [sp, #4]
 423 002e 2B68     		ldr	r3, [r5]
 424              		.loc 1 177 0
 425 0030 07D9     		bls	.L37
 426              		.loc 1 180 0
 427 0032 9A42     		cmp	r2, r3
 428 0034 15D1     		bne	.L36
 429 0036 0D49     		ldr	r1, .L38+4
 430              	.LVL22:
 431              		.loc 1 182 0
 432 0038 03B0     		add	sp, sp, #12
 433              		.cfi_remember_state
 434              		.cfi_def_cfa_offset 20
 435              		@ sp needed
 436 003a BDE8F040 		pop	{r4, r5, r6, r7, lr}
 437              		.cfi_restore 14
 438              		.cfi_restore 7
 439              		.cfi_restore 6
 440              		.cfi_restore 5
 441              		.cfi_restore 4
 442              		.cfi_def_cfa_offset 0
 443              	.LVL23:
 444              		.loc 1 180 0
 445 003e FFF7FEBF 		b	AsebaVMEmitNodeSpecificError
 446              	.LVL24:
 447              	.L37:
 448              		.cfi_restore_state
 449              		.loc 1 178 0
 450 0042 9A42     		cmp	r2, r3
 451 0044 0DD1     		bne	.L36
 452              		.loc 1 175 0
 453 0046 37F91130 		ldrsh	r3, [r7, r1, lsl #1]
 454              		.loc 1 178 0
 455 004a 0948     		ldr	r0, .L38+8
 456              	.LVL25:
ARM GAS  C:\Users\25521\AppData\Local\Temp\ccalLoVc.s 			page 9


 457 004c 36F81310 		ldrh	r1, [r6, r3, lsl #1]
 458              	.LVL26:
 459 0050 04EB4404 		add	r4, r4, r4, lsl #1
 460              	.LVL27:
 461 0054 00EBC400 		add	r0, r0, r4, lsl #3
 462              		.loc 1 182 0
 463 0058 03B0     		add	sp, sp, #12
 464              		.cfi_remember_state
 465              		.cfi_def_cfa_offset 20
 466              		@ sp needed
 467 005a BDE8F040 		pop	{r4, r5, r6, r7, lr}
 468              		.cfi_restore 14
 469              		.cfi_restore 7
 470              		.cfi_restore 6
 471              		.cfi_restore 5
 472              		.cfi_restore 4
 473              		.cfi_def_cfa_offset 0
 474              		.loc 1 178 0
 475 005e FFF7FEBF 		b	parameter_integer_set
 476              	.LVL28:
 477              	.L36:
 478              		.cfi_restore_state
 479              		.loc 1 180 0
 480 0062 FFF7FEFF 		bl	__stack_chk_fail
 481              	.LVL29:
 482              	.L39:
 483 0066 00BF     		.align	2
 484              	.L38:
 485 0068 00000000 		.word	__stack_chk_guard
 486 006c 00000000 		.word	.LC1
 487 0070 00000000 		.word	.LANCHOR1
 488              		.cfi_endproc
 489              	.LFE279:
 490              		.size	AsebaNative__system_settings_write, .-AsebaNative__system_settings_write
 491              		.section	.text.AsebaNative__system_settings_read,"ax",%progbits
 492              		.align	1
 493              		.p2align 4,,15
 494              		.syntax unified
 495              		.thumb
 496              		.thumb_func
 497              		.fpu fpv4-sp-d16
 498              		.type	AsebaNative__system_settings_read, %function
 499              	AsebaNative__system_settings_read:
 500              	.LFB278:
 501              		.loc 1 151 0
 502              		.cfi_startproc
 503              		@ args = 0, pretend = 0, frame = 8
 504              		@ frame_needed = 0, uses_anonymous_args = 0
 505              	.LVL30:
 506 0000 F0B5     		push	{r4, r5, r6, r7, lr}
 507              		.cfi_def_cfa_offset 20
 508              		.cfi_offset 4, -20
 509              		.cfi_offset 5, -16
 510              		.cfi_offset 6, -12
 511              		.cfi_offset 7, -8
 512              		.cfi_offset 14, -4
 513              	.LBB40:
ARM GAS  C:\Users\25521\AppData\Local\Temp\ccalLoVc.s 			page 10


 514              	.LBB41:
 515              		.loc 4 90 0
 516 0002 B0F91C10 		ldrsh	r1, [r0, #28]
 517 0006 4769     		ldr	r7, [r0, #20]
 518              	.LVL31:
 519              	.LBE41:
 520              	.LBE40:
 521              		.loc 1 152 0
 522 0008 C668     		ldr	r6, [r0, #12]
 523              		.loc 1 151 0
 524 000a 184D     		ldr	r5, .L48
 525              	.LBB43:
 526              	.LBB42:
 527              		.loc 4 90 0
 528 000c 8BB2     		uxth	r3, r1
 529 000e 5A1E     		subs	r2, r3, #1
 530 0010 12B2     		sxth	r2, r2
 531 0012 8283     		strh	r2, [r0, #28]	@ movhi
 532              	.LBE42:
 533              	.LBE43:
 534              		.loc 1 152 0
 535 0014 37F91110 		ldrsh	r1, [r7, r1, lsl #1]
 536 0018 36F81110 		ldrh	r1, [r6, r1, lsl #1]
 537              	.LVL32:
 538              		.loc 1 151 0
 539 001c 2E68     		ldr	r6, [r5]
 540 001e 83B0     		sub	sp, sp, #12
 541              		.cfi_def_cfa_offset 32
 542              	.LBB44:
 543              	.LBB45:
 544              		.loc 4 90 0
 545 0020 023B     		subs	r3, r3, #2
 546              	.LBE45:
 547              	.LBE44:
 548              		.loc 1 154 0
 549 0022 1F29     		cmp	r1, #31
 550              		.loc 1 151 0
 551 0024 0196     		str	r6, [sp, #4]
 552              	.LBB48:
 553              	.LBB46:
 554              		.loc 4 90 0
 555 0026 8383     		strh	r3, [r0, #28]	@ movhi
 556              	.LVL33:
 557              	.LBE46:
 558              	.LBE48:
 559              		.loc 1 154 0
 560 0028 09D9     		bls	.L47
 561              		.loc 1 157 0
 562 002a 019A     		ldr	r2, [sp, #4]
 563              	.LVL34:
 564 002c 2B68     		ldr	r3, [r5]
 565              	.LVL35:
 566 002e 9A42     		cmp	r2, r3
 567 0030 19D1     		bne	.L45
 568 0032 0F49     		ldr	r1, .L48+4
 569              	.LVL36:
 570              		.loc 1 159 0
ARM GAS  C:\Users\25521\AppData\Local\Temp\ccalLoVc.s 			page 11


 571 0034 03B0     		add	sp, sp, #12
 572              		.cfi_remember_state
 573              		.cfi_def_cfa_offset 20
 574              		@ sp needed
 575 0036 BDE8F040 		pop	{r4, r5, r6, r7, lr}
 576              		.cfi_restore 14
 577              		.cfi_restore 7
 578              		.cfi_restore 6
 579              		.cfi_restore 5
 580              		.cfi_restore 4
 581              		.cfi_def_cfa_offset 0
 582              		.loc 1 157 0
 583 003a FFF7FEBF 		b	AsebaVMEmitNodeSpecificError
 584              	.LVL37:
 585              	.L47:
 586              		.cfi_restore_state
 587 003e 0446     		mov	r4, r0
 588              		.loc 1 155 0
 589 0040 0C48     		ldr	r0, .L48+8
 590              	.LVL38:
 591              	.LBB49:
 592              	.LBB47:
 593              		.loc 4 90 0
 594 0042 37F91260 		ldrsh	r6, [r7, r2, lsl #1]
 595              	.LBE47:
 596              	.LBE49:
 597              		.loc 1 155 0
 598 0046 01EB4101 		add	r1, r1, r1, lsl #1
 599              	.LVL39:
 600 004a 00EBC100 		add	r0, r0, r1, lsl #3
 601 004e FFF7FEFF 		bl	parameter_integer_get
 602              	.LVL40:
 603 0052 B6B2     		uxth	r6, r6
 604 0054 E368     		ldr	r3, [r4, #12]
 605              		.loc 1 159 0
 606 0056 019A     		ldr	r2, [sp, #4]
 607              		.loc 1 155 0
 608 0058 23F81600 		strh	r0, [r3, r6, lsl #1]	@ movhi
 609              		.loc 1 159 0
 610 005c 2B68     		ldr	r3, [r5]
 611 005e 9A42     		cmp	r2, r3
 612 0060 01D1     		bne	.L45
 613 0062 03B0     		add	sp, sp, #12
 614              		.cfi_remember_state
 615              		.cfi_def_cfa_offset 20
 616              		@ sp needed
 617 0064 F0BD     		pop	{r4, r5, r6, r7, pc}
 618              	.LVL41:
 619              	.L45:
 620              		.cfi_restore_state
 621 0066 FFF7FEFF 		bl	__stack_chk_fail
 622              	.LVL42:
 623              	.L49:
 624 006a 00BF     		.align	2
 625              	.L48:
 626 006c 00000000 		.word	__stack_chk_guard
 627 0070 00000000 		.word	.LC1
ARM GAS  C:\Users\25521\AppData\Local\Temp\ccalLoVc.s 			page 12


 628 0074 00000000 		.word	.LANCHOR1
 629              		.cfi_endproc
 630              	.LFE278:
 631              		.size	AsebaNative__system_settings_read, .-AsebaNative__system_settings_read
 632              		.section	.text.aseba_variables_init,"ax",%progbits
 633              		.align	1
 634              		.p2align 4,,15
 635              		.global	aseba_variables_init
 636              		.syntax unified
 637              		.thumb
 638              		.thumb_func
 639              		.fpu fpv4-sp-d16
 640              		.type	aseba_variables_init, %function
 641              	aseba_variables_init:
 642              	.LFB271:
 643              		.loc 1 57 0
 644              		.cfi_startproc
 645              		@ args = 0, pretend = 0, frame = 8
 646              		@ frame_needed = 0, uses_anonymous_args = 0
 647              	.LVL43:
 648 0000 2DE9F043 		push	{r4, r5, r6, r7, r8, r9, lr}
 649              		.cfi_def_cfa_offset 28
 650              		.cfi_offset 4, -28
 651              		.cfi_offset 5, -24
 652              		.cfi_offset 6, -20
 653              		.cfi_offset 7, -16
 654              		.cfi_offset 8, -12
 655              		.cfi_offset 9, -8
 656              		.cfi_offset 14, -4
 657 0004 DFF87090 		ldr	r9, .L56+16
 658              		.loc 1 59 0
 659 0008 174B     		ldr	r3, .L56
 660              		.loc 1 57 0
 661 000a D9F80020 		ldr	r2, [r9]
 662 000e 174D     		ldr	r5, .L56+4
 663 0010 174E     		ldr	r6, .L56+8
 664              		.loc 1 70 0
 665 0012 184F     		ldr	r7, .L56+12
 666              		.loc 1 57 0
 667 0014 83B0     		sub	sp, sp, #12
 668              		.cfi_def_cfa_offset 40
 669              		.loc 1 57 0
 670 0016 8046     		mov	r8, r0
 671 0018 0192     		str	r2, [sp, #4]
 672              		.loc 1 59 0
 673 001a 1846     		mov	r0, r3
 674              	.LVL44:
 675 001c 40F27622 		movw	r2, #630
 676 0020 0021     		movs	r1, #0
 677 0022 FFF7FEFF 		bl	memset
 678              	.LVL45:
 679              		.loc 1 63 0
 680 0026 0122     		movs	r2, #1
 681 0028 A0F84620 		strh	r2, [r0, #70]	@ movhi
 682              	.LVL46:
 683              		.loc 1 69 0
 684 002c 1F24     		movs	r4, #31
ARM GAS  C:\Users\25521\AppData\Local\Temp\ccalLoVc.s 			page 13


 685              	.LVL47:
 686              	.L51:
 687              		.loc 1 70 0 discriminator 3
 688 002e 2246     		mov	r2, r4
 689 0030 3946     		mov	r1, r7
 690 0032 2846     		mov	r0, r5
 691 0034 FFF7FEFF 		bl	sprintf
 692              	.LVL48:
 693              		.loc 1 69 0 discriminator 3
 694 0038 013C     		subs	r4, r4, #1
 695              	.LVL49:
 696              		.loc 1 71 0 discriminator 3
 697 003a 0023     		movs	r3, #0
 698 003c 2A46     		mov	r2, r5
 699 003e 3046     		mov	r0, r6
 700 0040 4146     		mov	r1, r8
 701 0042 FFF7FEFF 		bl	parameter_integer_declare_with_default
 702              	.LVL50:
 703              		.loc 1 69 0 discriminator 3
 704 0046 631C     		adds	r3, r4, #1
 705 0048 A5F10A05 		sub	r5, r5, #10
 706 004c A6F11806 		sub	r6, r6, #24
 707 0050 EDD1     		bne	.L51
 708              		.loc 1 76 0
 709 0052 019A     		ldr	r2, [sp, #4]
 710 0054 D9F80030 		ldr	r3, [r9]
 711 0058 9A42     		cmp	r2, r3
 712 005a 02D1     		bne	.L55
 713 005c 03B0     		add	sp, sp, #12
 714              		.cfi_remember_state
 715              		.cfi_def_cfa_offset 28
 716              		@ sp needed
 717 005e BDE8F083 		pop	{r4, r5, r6, r7, r8, r9, pc}
 718              	.LVL51:
 719              	.L55:
 720              		.cfi_restore_state
 721 0062 FFF7FEFF 		bl	__stack_chk_fail
 722              	.LVL52:
 723              	.L57:
 724 0066 00BF     		.align	2
 725              	.L56:
 726 0068 00000000 		.word	.LANCHOR0
 727 006c 36010000 		.word	.LANCHOR2+310
 728 0070 E8020000 		.word	.LANCHOR1+744
 729 0074 00000000 		.word	.LC2
 730 0078 00000000 		.word	__stack_chk_guard
 731              		.cfi_endproc
 732              	.LFE271:
 733              		.size	aseba_variables_init, .-aseba_variables_init
 734              		.section	.text.aseba_read_variables_from_system,"ax",%progbits
 735              		.align	1
 736              		.p2align 4,,15
 737              		.global	aseba_read_variables_from_system
 738              		.syntax unified
 739              		.thumb
 740              		.thumb_func
 741              		.fpu fpv4-sp-d16
ARM GAS  C:\Users\25521\AppData\Local\Temp\ccalLoVc.s 			page 14


 742              		.type	aseba_read_variables_from_system, %function
 743              	aseba_read_variables_from_system:
 744              	.LFB272:
 745              		.loc 1 79 0
 746              		.cfi_startproc
 747              		@ args = 0, pretend = 0, frame = 8
 748              		@ frame_needed = 0, uses_anonymous_args = 0
 749              	.LVL53:
 750 0000 00B5     		push	{lr}
 751              		.cfi_def_cfa_offset 4
 752              		.cfi_offset 14, -4
 753 0002 084B     		ldr	r3, .L62
 754              		.loc 1 80 0
 755 0004 0849     		ldr	r1, .L62+4
 756              		.loc 1 79 0
 757 0006 1A68     		ldr	r2, [r3]
 758              		.loc 1 80 0
 759 0008 0088     		ldrh	r0, [r0]
 760              	.LVL54:
 761 000a 0880     		strh	r0, [r1]	@ movhi
 762              		.loc 1 79 0
 763 000c 83B0     		sub	sp, sp, #12
 764              		.cfi_def_cfa_offset 16
 765              		.loc 1 79 0
 766 000e 0192     		str	r2, [sp, #4]
 767              		.loc 1 81 0
 768 0010 019A     		ldr	r2, [sp, #4]
 769 0012 1B68     		ldr	r3, [r3]
 770 0014 9A42     		cmp	r2, r3
 771 0016 02D1     		bne	.L61
 772 0018 03B0     		add	sp, sp, #12
 773              		.cfi_remember_state
 774              		.cfi_def_cfa_offset 4
 775              		@ sp needed
 776 001a 5DF804FB 		ldr	pc, [sp], #4
 777              	.L61:
 778              		.cfi_restore_state
 779 001e FFF7FEFF 		bl	__stack_chk_fail
 780              	.LVL55:
 781              	.L63:
 782 0022 00BF     		.align	2
 783              	.L62:
 784 0024 00000000 		.word	__stack_chk_guard
 785 0028 00000000 		.word	.LANCHOR0
 786              		.cfi_endproc
 787              	.LFE272:
 788              		.size	aseba_read_variables_from_system, .-aseba_read_variables_from_system
 789              		.section	.text.imu_cb,"ax",%progbits
 790              		.align	1
 791              		.p2align 4,,15
 792              		.global	imu_cb
 793              		.syntax unified
 794              		.thumb
 795              		.thumb_func
 796              		.fpu fpv4-sp-d16
 797              		.type	imu_cb, %function
 798              	imu_cb:
ARM GAS  C:\Users\25521\AppData\Local\Temp\ccalLoVc.s 			page 15


 799              	.LFB274:
 800              		.loc 1 93 0
 801              		.cfi_startproc
 802              		@ args = 0, pretend = 0, frame = 8
 803              		@ frame_needed = 0, uses_anonymous_args = 0
 804 0000 70B5     		push	{r4, r5, r6, lr}
 805              		.cfi_def_cfa_offset 16
 806              		.cfi_offset 4, -16
 807              		.cfi_offset 5, -12
 808              		.cfi_offset 6, -8
 809              		.cfi_offset 14, -4
 810 0002 2DED028B 		vpush.64	{d8}
 811              		.cfi_def_cfa_offset 24
 812              		.cfi_offset 80, -24
 813              		.cfi_offset 81, -20
 814 0006 234D     		ldr	r5, .L68
 815              		.loc 1 94 0
 816 0008 9FED238A 		vldr.32	s16, .L68+4
 817              		.loc 1 93 0
 818 000c 2B68     		ldr	r3, [r5]
 819              		.loc 1 94 0
 820 000e 234C     		ldr	r4, .L68+8
 821              		.loc 1 93 0
 822 0010 82B0     		sub	sp, sp, #8
 823              		.cfi_def_cfa_offset 32
 824              		.loc 1 94 0
 825 0012 0020     		movs	r0, #0
 826              		.loc 1 93 0
 827 0014 0193     		str	r3, [sp, #4]
 828              		.loc 1 94 0
 829 0016 FFF7FEFF 		bl	get_acceleration
 830              	.LVL56:
 831 001a 20EE080A 		vmul.f32	s0, s0, s16
 832              		.loc 1 95 0
 833 001e 0120     		movs	r0, #1
 834              		.loc 1 94 0
 835 0020 BDEEC00A 		vcvt.s32.f32	s0, s0
 836 0024 10EE103A 		vmov	r3, s0	@ int
 837 0028 A4F86A30 		strh	r3, [r4, #106]	@ movhi
 838              		.loc 1 95 0
 839 002c FFF7FEFF 		bl	get_acceleration
 840              	.LVL57:
 841 0030 20EE080A 		vmul.f32	s0, s0, s16
 842              		.loc 1 96 0
 843 0034 0220     		movs	r0, #2
 844              		.loc 1 95 0
 845 0036 BDEEC00A 		vcvt.s32.f32	s0, s0
 846 003a 10EE103A 		vmov	r3, s0	@ int
 847 003e A4F86C30 		strh	r3, [r4, #108]	@ movhi
 848              		.loc 1 96 0
 849 0042 FFF7FEFF 		bl	get_acceleration
 850              	.LVL58:
 851 0046 20EE080A 		vmul.f32	s0, s0, s16
 852              		.loc 1 98 0
 853 004a 0020     		movs	r0, #0
 854              		.loc 1 96 0
 855 004c BDEEC00A 		vcvt.s32.f32	s0, s0
ARM GAS  C:\Users\25521\AppData\Local\Temp\ccalLoVc.s 			page 16


 856 0050 10EE103A 		vmov	r3, s0	@ int
 857 0054 A4F86E30 		strh	r3, [r4, #110]	@ movhi
 858              		.loc 1 98 0
 859 0058 FFF7FEFF 		bl	get_gyro
 860              	.LVL59:
 861 005c A4F87000 		strh	r0, [r4, #112]	@ movhi
 862              		.loc 1 99 0
 863 0060 0120     		movs	r0, #1
 864 0062 FFF7FEFF 		bl	get_gyro
 865              	.LVL60:
 866 0066 A4F87200 		strh	r0, [r4, #114]	@ movhi
 867              		.loc 1 100 0
 868 006a 0220     		movs	r0, #2
 869 006c FFF7FEFF 		bl	get_gyro
 870              	.LVL61:
 871              		.loc 1 102 0
 872 0070 0B4A     		ldr	r2, .L68+12
 873              		.loc 1 103 0
 874 0072 019E     		ldr	r6, [sp, #4]
 875              		.loc 1 102 0
 876 0074 1368     		ldr	r3, [r2]
 877              		.loc 1 103 0
 878 0076 2968     		ldr	r1, [r5]
 879              		.loc 1 100 0
 880 0078 A4F87400 		strh	r0, [r4, #116]	@ movhi
 881              		.loc 1 102 0
 882 007c 43F00103 		orr	r3, r3, #1
 883              		.loc 1 103 0
 884 0080 8E42     		cmp	r6, r1
 885              		.loc 1 102 0
 886 0082 1360     		str	r3, [r2]
 887              		.loc 1 103 0
 888 0084 03D1     		bne	.L67
 889 0086 02B0     		add	sp, sp, #8
 890              		.cfi_remember_state
 891              		.cfi_def_cfa_offset 24
 892              		@ sp needed
 893 0088 BDEC028B 		vldm	sp!, {d8}
 894              		.cfi_restore 80
 895              		.cfi_restore 81
 896              		.cfi_def_cfa_offset 16
 897 008c 70BD     		pop	{r4, r5, r6, pc}
 898              	.L67:
 899              		.cfi_restore_state
 900 008e FFF7FEFF 		bl	__stack_chk_fail
 901              	.LVL62:
 902              	.L69:
 903 0092 00BF     		.align	2
 904              	.L68:
 905 0094 00000000 		.word	__stack_chk_guard
 906 0098 00007A44 		.word	1148846080
 907 009c 00000000 		.word	.LANCHOR0
 908 00a0 00000000 		.word	events_flags
 909              		.cfi_endproc
 910              	.LFE274:
 911              		.size	imu_cb, .-imu_cb
 912              		.section	.text.leds_cb,"ax",%progbits
ARM GAS  C:\Users\25521\AppData\Local\Temp\ccalLoVc.s 			page 17


 913              		.align	1
 914              		.p2align 4,,15
 915              		.global	leds_cb
 916              		.syntax unified
 917              		.thumb
 918              		.thumb_func
 919              		.fpu fpv4-sp-d16
 920              		.type	leds_cb, %function
 921              	leds_cb:
 922              	.LFB275:
 923              		.loc 1 105 0
 924              		.cfi_startproc
 925              		@ args = 0, pretend = 0, frame = 8
 926              		@ frame_needed = 0, uses_anonymous_args = 0
 927 0000 30B5     		push	{r4, r5, lr}
 928              		.cfi_def_cfa_offset 12
 929              		.cfi_offset 4, -12
 930              		.cfi_offset 5, -8
 931              		.cfi_offset 14, -4
 932              		.loc 1 107 0
 933 0002 234C     		ldr	r4, .L75
 934              		.loc 1 105 0
 935 0004 234D     		ldr	r5, .L75+4
 936              		.loc 1 107 0
 937 0006 B4F84A10 		ldrh	r1, [r4, #74]
 938              		.loc 1 105 0
 939 000a 2B68     		ldr	r3, [r5]
 940 000c 83B0     		sub	sp, sp, #12
 941              		.cfi_def_cfa_offset 24
 942              		.loc 1 107 0
 943 000e 0020     		movs	r0, #0
 944              		.loc 1 105 0
 945 0010 0193     		str	r3, [sp, #4]
 946              		.loc 1 107 0
 947 0012 FFF7FEFF 		bl	set_led
 948              	.LVL63:
 949              		.loc 1 108 0
 950 0016 94F85030 		ldrb	r3, [r4, #80]	@ zero_extendqisi2
 951 001a 94F84E20 		ldrb	r2, [r4, #78]	@ zero_extendqisi2
 952 001e 94F84C10 		ldrb	r1, [r4, #76]	@ zero_extendqisi2
 953 0022 0020     		movs	r0, #0
 954 0024 FFF7FEFF 		bl	set_rgb_led
 955              	.LVL64:
 956              		.loc 1 109 0
 957 0028 B4F85210 		ldrh	r1, [r4, #82]
 958 002c 0120     		movs	r0, #1
 959 002e FFF7FEFF 		bl	set_led
 960              	.LVL65:
 961              		.loc 1 110 0
 962 0032 94F85830 		ldrb	r3, [r4, #88]	@ zero_extendqisi2
 963 0036 94F85620 		ldrb	r2, [r4, #86]	@ zero_extendqisi2
 964 003a 94F85410 		ldrb	r1, [r4, #84]	@ zero_extendqisi2
 965 003e 0120     		movs	r0, #1
 966 0040 FFF7FEFF 		bl	set_rgb_led
 967              	.LVL66:
 968              		.loc 1 111 0
 969 0044 B4F85A10 		ldrh	r1, [r4, #90]
ARM GAS  C:\Users\25521\AppData\Local\Temp\ccalLoVc.s 			page 18


 970 0048 0220     		movs	r0, #2
 971 004a FFF7FEFF 		bl	set_led
 972              	.LVL67:
 973              		.loc 1 112 0
 974 004e 94F86030 		ldrb	r3, [r4, #96]	@ zero_extendqisi2
 975 0052 94F85E20 		ldrb	r2, [r4, #94]	@ zero_extendqisi2
 976 0056 94F85C10 		ldrb	r1, [r4, #92]	@ zero_extendqisi2
 977 005a 0220     		movs	r0, #2
 978 005c FFF7FEFF 		bl	set_rgb_led
 979              	.LVL68:
 980              		.loc 1 113 0
 981 0060 B4F86210 		ldrh	r1, [r4, #98]
 982 0064 0320     		movs	r0, #3
 983 0066 FFF7FEFF 		bl	set_led
 984              	.LVL69:
 985              		.loc 1 114 0
 986 006a 019A     		ldr	r2, [sp, #4]
 987 006c 2B68     		ldr	r3, [r5]
 988 006e 9A42     		cmp	r2, r3
 989 0070 0BD1     		bne	.L74
 990 0072 94F86830 		ldrb	r3, [r4, #104]	@ zero_extendqisi2
 991 0076 94F86620 		ldrb	r2, [r4, #102]	@ zero_extendqisi2
 992 007a 94F86410 		ldrb	r1, [r4, #100]	@ zero_extendqisi2
 993 007e 0320     		movs	r0, #3
 994              		.loc 1 115 0
 995 0080 03B0     		add	sp, sp, #12
 996              		.cfi_remember_state
 997              		.cfi_def_cfa_offset 12
 998              		@ sp needed
 999 0082 BDE83040 		pop	{r4, r5, lr}
 1000              		.cfi_restore 14
 1001              		.cfi_restore 5
 1002              		.cfi_restore 4
 1003              		.cfi_def_cfa_offset 0
 1004              		.loc 1 114 0
 1005 0086 FFF7FEBF 		b	set_rgb_led
 1006              	.LVL70:
 1007              	.L74:
 1008              		.cfi_restore_state
 1009 008a FFF7FEFF 		bl	__stack_chk_fail
 1010              	.LVL71:
 1011              	.L76:
 1012 008e 00BF     		.align	2
 1013              	.L75:
 1014 0090 00000000 		.word	.LANCHOR0
 1015 0094 00000000 		.word	__stack_chk_guard
 1016              		.cfi_endproc
 1017              	.LFE275:
 1018              		.size	leds_cb, .-leds_cb
 1019              		.section	.text.aseba_write_variables_to_system,"ax",%progbits
 1020              		.align	1
 1021              		.p2align 4,,15
 1022              		.global	aseba_write_variables_to_system
 1023              		.syntax unified
 1024              		.thumb
 1025              		.thumb_func
 1026              		.fpu fpv4-sp-d16
ARM GAS  C:\Users\25521\AppData\Local\Temp\ccalLoVc.s 			page 19


 1027              		.type	aseba_write_variables_to_system, %function
 1028              	aseba_write_variables_to_system:
 1029              	.LFB273:
 1030              		.loc 1 84 0
 1031              		.cfi_startproc
 1032              		@ args = 0, pretend = 0, frame = 8
 1033              		@ frame_needed = 0, uses_anonymous_args = 0
 1034              	.LVL72:
 1035 0000 10B5     		push	{r4, lr}
 1036              		.cfi_def_cfa_offset 8
 1037              		.cfi_offset 4, -8
 1038              		.cfi_offset 14, -4
 1039 0002 084C     		ldr	r4, .L82
 1040 0004 82B0     		sub	sp, sp, #8
 1041              		.cfi_def_cfa_offset 16
 1042              		.loc 1 84 0
 1043 0006 2368     		ldr	r3, [r4]
 1044 0008 0193     		str	r3, [sp, #4]
 1045              		.loc 1 87 0
 1046 000a FFF7FEFF 		bl	imu_cb
 1047              	.LVL73:
 1048              		.loc 1 88 0
 1049 000e 019A     		ldr	r2, [sp, #4]
 1050 0010 2368     		ldr	r3, [r4]
 1051 0012 9A42     		cmp	r2, r3
 1052 0014 04D1     		bne	.L81
 1053              		.loc 1 89 0
 1054 0016 02B0     		add	sp, sp, #8
 1055              		.cfi_remember_state
 1056              		.cfi_def_cfa_offset 8
 1057              		@ sp needed
 1058 0018 BDE81040 		pop	{r4, lr}
 1059              		.cfi_restore 14
 1060              		.cfi_restore 4
 1061              		.cfi_def_cfa_offset 0
 1062              		.loc 1 88 0
 1063 001c FFF7FEBF 		b	leds_cb
 1064              	.LVL74:
 1065              	.L81:
 1066              		.cfi_restore_state
 1067 0020 FFF7FEFF 		bl	__stack_chk_fail
 1068              	.LVL75:
 1069              	.L83:
 1070              		.align	2
 1071              	.L82:
 1072 0024 00000000 		.word	__stack_chk_guard
 1073              		.cfi_endproc
 1074              	.LFE273:
 1075              		.size	aseba_write_variables_to_system, .-aseba_write_variables_to_system
 1076              		.section	.text.button_cb,"ax",%progbits
 1077              		.align	1
 1078              		.p2align 4,,15
 1079              		.global	button_cb
 1080              		.syntax unified
 1081              		.thumb
 1082              		.thumb_func
 1083              		.fpu fpv4-sp-d16
ARM GAS  C:\Users\25521\AppData\Local\Temp\ccalLoVc.s 			page 20


 1084              		.type	button_cb, %function
 1085              	button_cb:
 1086              	.LFB276:
 1087              		.loc 1 118 0
 1088              		.cfi_startproc
 1089              		@ args = 0, pretend = 0, frame = 8
 1090              		@ frame_needed = 0, uses_anonymous_args = 0
 1091 0000 00B5     		push	{lr}
 1092              		.cfi_def_cfa_offset 4
 1093              		.cfi_offset 14, -4
 1094 0002 0949     		ldr	r1, .L88
 1095              		.loc 1 119 0
 1096 0004 094A     		ldr	r2, .L88+4
 1097              		.loc 1 118 0
 1098 0006 0B68     		ldr	r3, [r1]
 1099 0008 83B0     		sub	sp, sp, #12
 1100              		.cfi_def_cfa_offset 16
 1101              		.loc 1 118 0
 1102 000a 0193     		str	r3, [sp, #4]
 1103              		.loc 1 120 0
 1104 000c 0198     		ldr	r0, [sp, #4]
 1105              		.loc 1 119 0
 1106 000e 1368     		ldr	r3, [r2]
 1107              		.loc 1 120 0
 1108 0010 0968     		ldr	r1, [r1]
 1109              		.loc 1 119 0
 1110 0012 43F00203 		orr	r3, r3, #2
 1111              		.loc 1 120 0
 1112 0016 8842     		cmp	r0, r1
 1113              		.loc 1 119 0
 1114 0018 1360     		str	r3, [r2]
 1115              		.loc 1 120 0
 1116 001a 02D1     		bne	.L87
 1117 001c 03B0     		add	sp, sp, #12
 1118              		.cfi_remember_state
 1119              		.cfi_def_cfa_offset 4
 1120              		@ sp needed
 1121 001e 5DF804FB 		ldr	pc, [sp], #4
 1122              	.L87:
 1123              		.cfi_restore_state
 1124 0022 FFF7FEFF 		bl	__stack_chk_fail
 1125              	.LVL76:
 1126              	.L89:
 1127 0026 00BF     		.align	2
 1128              	.L88:
 1129 0028 00000000 		.word	__stack_chk_guard
 1130 002c 00000000 		.word	events_flags
 1131              		.cfi_endproc
 1132              	.LFE276:
 1133              		.size	button_cb, .-button_cb
 1134              		.global	nativeFunctions_length
 1135              		.global	nativeFunctions
 1136              		.global	nativeFunctionsDescription
 1137              		.global	AsebaNativeDescription_clear_all_leds
 1138              		.global	localEvents
 1139              		.global	vmDescription
 1140              		.global	vmVariables
ARM GAS  C:\Users\25521\AppData\Local\Temp\ccalLoVc.s 			page 21


 1141              		.section	.bss.aseba_settings,"aw",%nobits
 1142              		.align	2
 1143              		.set	.LANCHOR1,. + 0
 1144              		.type	aseba_settings, %object
 1145              		.size	aseba_settings, 768
 1146              	aseba_settings:
 1147 0000 00000000 		.space	768
 1147      00000000 
 1147      00000000 
 1147      00000000 
 1147      00000000 
 1148              		.section	.bss.aseba_settings_name,"aw",%nobits
 1149              		.align	2
 1150              		.set	.LANCHOR2,. + 0
 1151              		.type	aseba_settings_name, %object
 1152              		.size	aseba_settings_name, 320
 1153              	aseba_settings_name:
 1154 0000 00000000 		.space	320
 1154      00000000 
 1154      00000000 
 1154      00000000 
 1154      00000000 
 1155              		.section	.bss.vmVariables,"aw",%nobits
 1156              		.align	2
 1157              		.set	.LANCHOR0,. + 0
 1158              		.type	vmVariables, %object
 1159              		.size	vmVariables, 630
 1160              	vmVariables:
 1161 0000 00000000 		.space	630
 1161      00000000 
 1161      00000000 
 1161      00000000 
 1161      00000000 
 1162              		.section	.data.AsebaNativeDescription__system_reboot,"aw",%progbits
 1163              		.align	2
 1164              		.type	AsebaNativeDescription__system_reboot, %object
 1165              		.size	AsebaNativeDescription__system_reboot, 16
 1166              	AsebaNativeDescription__system_reboot:
 1167 0000 04010000 		.word	.LC15
 1168 0004 14010000 		.word	.LC16
 1169 0008 0000     		.short	0
 1170 000a 0000     		.space	2
 1171 000c 00000000 		.word	0
 1172              		.section	.data.AsebaNativeDescription__system_settings_read,"aw",%progbits
 1173              		.align	2
 1174              		.type	AsebaNativeDescription__system_settings_read, %object
 1175              		.size	AsebaNativeDescription__system_settings_read, 32
 1176              	AsebaNativeDescription__system_settings_read:
 1177 0000 DC000000 		.word	.LC13
 1178 0004 F4000000 		.word	.LC14
 1179 0008 0100     		.short	1
 1180 000a 0000     		.space	2
 1181 000c CC000000 		.word	.LC11
 1182 0010 0100     		.short	1
 1183 0012 0000     		.space	2
 1184 0014 D4000000 		.word	.LC12
 1185 0018 0000     		.short	0
ARM GAS  C:\Users\25521\AppData\Local\Temp\ccalLoVc.s 			page 22


 1186 001a 0000     		.space	2
 1187 001c 00000000 		.word	0
 1188              		.section	.data.AsebaNativeDescription__system_settings_write,"aw",%progbits
 1189              		.align	2
 1190              		.type	AsebaNativeDescription__system_settings_write, %object
 1191              		.size	AsebaNativeDescription__system_settings_write, 32
 1192              	AsebaNativeDescription__system_settings_write:
 1193 0000 A4000000 		.word	.LC9
 1194 0004 BC000000 		.word	.LC10
 1195 0008 0100     		.short	1
 1196 000a 0000     		.space	2
 1197 000c CC000000 		.word	.LC11
 1198 0010 0100     		.short	1
 1199 0012 0000     		.space	2
 1200 0014 D4000000 		.word	.LC12
 1201 0018 0000     		.short	0
 1202 001a 0000     		.space	2
 1203 001c 00000000 		.word	0
 1204              		.section	.data.AsebaNativeDescription_clear_all_leds,"aw",%progbits
 1205              		.align	2
 1206              		.type	AsebaNativeDescription_clear_all_leds, %object
 1207              		.size	AsebaNativeDescription_clear_all_leds, 16
 1208              	AsebaNativeDescription_clear_all_leds:
 1209 0000 00000000 		.word	.LC3
 1210 0004 10000000 		.word	.LC4
 1211 0008 0000     		.short	0
 1212 000a 0000     		.space	2
 1213 000c 00000000 		.word	0
 1214              		.section	.data.AsebaNativeDescription_settings_erase,"aw",%progbits
 1215              		.align	2
 1216              		.type	AsebaNativeDescription_settings_erase, %object
 1217              		.size	AsebaNativeDescription_settings_erase, 16
 1218              	AsebaNativeDescription_settings_erase:
 1219 0000 24000000 		.word	.LC5
 1220 0004 3C000000 		.word	.LC6
 1221 0008 0000     		.short	0
 1222 000a 0000     		.space	2
 1223 000c 00000000 		.word	0
 1224              		.section	.data.AsebaNativeDescription_settings_save,"aw",%progbits
 1225              		.align	2
 1226              		.type	AsebaNativeDescription_settings_save, %object
 1227              		.size	AsebaNativeDescription_settings_save, 16
 1228              	AsebaNativeDescription_settings_save:
 1229 0000 70000000 		.word	.LC7
 1230 0004 88000000 		.word	.LC8
 1231 0008 0000     		.short	0
 1232 000a 0000     		.space	2
 1233 000c 00000000 		.word	0
 1234              		.section	.data.nativeFunctions,"aw",%progbits
 1235              		.align	2
 1236              		.type	nativeFunctions, %object
 1237              		.size	nativeFunctions, 108
 1238              	nativeFunctions:
 1239 0000 00000000 		.word	AsebaNative__system_reboot
 1240 0004 00000000 		.word	AsebaNative__system_settings_read
 1241 0008 00000000 		.word	AsebaNative__system_settings_write
 1242 000c 00000000 		.word	AsebaNative_settings_save
ARM GAS  C:\Users\25521\AppData\Local\Temp\ccalLoVc.s 			page 23


 1243 0010 00000000 		.word	AsebaNative_settings_erase
 1244 0014 00000000 		.word	clear_all_leds
 1245 0018 00000000 		.word	AsebaNative_veccopy
 1246 001c 00000000 		.word	AsebaNative_vecfill
 1247 0020 00000000 		.word	AsebaNative_vecaddscalar
 1248 0024 00000000 		.word	AsebaNative_vecadd
 1249 0028 00000000 		.word	AsebaNative_vecsub
 1250 002c 00000000 		.word	AsebaNative_vecmul
 1251 0030 00000000 		.word	AsebaNative_vecdiv
 1252 0034 00000000 		.word	AsebaNative_vecmin
 1253 0038 00000000 		.word	AsebaNative_vecmax
 1254 003c 00000000 		.word	AsebaNative_vecclamp
 1255 0040 00000000 		.word	AsebaNative_vecdot
 1256 0044 00000000 		.word	AsebaNative_vecstat
 1257 0048 00000000 		.word	AsebaNative_vecargbounds
 1258 004c 00000000 		.word	AsebaNative_vecsort
 1259 0050 00000000 		.word	AsebaNative_mathmuldiv
 1260 0054 00000000 		.word	AsebaNative_mathatan2
 1261 0058 00000000 		.word	AsebaNative_mathsin
 1262 005c 00000000 		.word	AsebaNative_mathcos
 1263 0060 00000000 		.word	AsebaNative_mathrot2
 1264 0064 00000000 		.word	AsebaNative_mathsqrt
 1265 0068 00000000 		.word	AsebaNative_rand
 1266              		.section	.data.nativeFunctionsDescription,"aw",%progbits
 1267              		.align	2
 1268              		.type	nativeFunctionsDescription, %object
 1269              		.size	nativeFunctionsDescription, 112
 1270              	nativeFunctionsDescription:
 1271 0000 00000000 		.word	AsebaNativeDescription__system_reboot
 1272 0004 00000000 		.word	AsebaNativeDescription__system_settings_read
 1273 0008 00000000 		.word	AsebaNativeDescription__system_settings_write
 1274 000c 00000000 		.word	AsebaNativeDescription_settings_save
 1275 0010 00000000 		.word	AsebaNativeDescription_settings_erase
 1276 0014 00000000 		.word	AsebaNativeDescription_clear_all_leds
 1277 0018 00000000 		.word	AsebaNativeDescription_veccopy
 1278 001c 00000000 		.word	AsebaNativeDescription_vecfill
 1279 0020 00000000 		.word	AsebaNativeDescription_vecaddscalar
 1280 0024 00000000 		.word	AsebaNativeDescription_vecadd
 1281 0028 00000000 		.word	AsebaNativeDescription_vecsub
 1282 002c 00000000 		.word	AsebaNativeDescription_vecmul
 1283 0030 00000000 		.word	AsebaNativeDescription_vecdiv
 1284 0034 00000000 		.word	AsebaNativeDescription_vecmin
 1285 0038 00000000 		.word	AsebaNativeDescription_vecmax
 1286 003c 00000000 		.word	AsebaNativeDescription_vecclamp
 1287 0040 00000000 		.word	AsebaNativeDescription_vecdot
 1288 0044 00000000 		.word	AsebaNativeDescription_vecstat
 1289 0048 00000000 		.word	AsebaNativeDescription_vecargbounds
 1290 004c 00000000 		.word	AsebaNativeDescription_vecsort
 1291 0050 00000000 		.word	AsebaNativeDescription_mathmuldiv
 1292 0054 00000000 		.word	AsebaNativeDescription_mathatan2
 1293 0058 00000000 		.word	AsebaNativeDescription_mathsin
 1294 005c 00000000 		.word	AsebaNativeDescription_mathcos
 1295 0060 00000000 		.word	AsebaNativeDescription_mathrot2
 1296 0064 00000000 		.word	AsebaNativeDescription_mathsqrt
 1297 0068 00000000 		.word	AsebaNativeDescription_rand
 1298 006c 00000000 		.word	0
 1299              		.section	.rodata.AsebaNative__system_settings_write.str1.4,"aMS",%progbits,1
ARM GAS  C:\Users\25521\AppData\Local\Temp\ccalLoVc.s 			page 24


 1300              		.align	2
 1301              	.LC1:
 1302 0000 496E7661 		.ascii	"Invalid settings address.\000"
 1302      6C696420 
 1302      73657474 
 1302      696E6773 
 1302      20616464 
 1303              		.section	.rodata.AsebaNative_settings_save.str1.4,"aMS",%progbits,1
 1304              		.align	2
 1305              	.LC0:
 1306 0000 436F6E66 		.ascii	"Config save failed!\000"
 1306      69672073 
 1306      61766520 
 1306      6661696C 
 1306      65642100 
 1307              		.section	.rodata.aseba_variables_init.str1.4,"aMS",%progbits,1
 1308              		.align	2
 1309              	.LC2:
 1310 0000 256400   		.ascii	"%d\000"
 1311              		.section	.rodata.localEvents,"a",%progbits
 1312              		.align	2
 1313              		.type	localEvents, %object
 1314              		.size	localEvents, 24
 1315              	localEvents:
 1316 0000 30010000 		.word	.LC17
 1317 0004 38010000 		.word	.LC18
 1318 0008 4C010000 		.word	.LC19
 1319 000c 54010000 		.word	.LC20
 1320 0010 00000000 		.word	0
 1321 0014 00000000 		.word	0
 1322              		.section	.rodata.nativeFunctions_length,"a",%progbits
 1323              		.align	2
 1324              		.type	nativeFunctions_length, %object
 1325              		.size	nativeFunctions_length, 4
 1326              	nativeFunctions_length:
 1327 0000 1B000000 		.word	27
 1328              		.section	.rodata.str1.4,"aMS",%progbits,1
 1329              		.align	2
 1330              	.LC3:
 1331 0000 6C656473 		.ascii	"leds.clear_all\000"
 1331      2E636C65 
 1331      61725F61 
 1331      6C6C00
 1332 000f 00       		.space	1
 1333              	.LC4:
 1334 0010 436C6561 		.ascii	"Clear all the LEDs\000"
 1334      7220616C 
 1334      6C207468 
 1334      65204C45 
 1334      447300
 1335 0023 00       		.space	1
 1336              	.LC5:
 1337 0024 5F737973 		.ascii	"_system.settings.erase\000"
 1337      74656D2E 
 1337      73657474 
 1337      696E6773 
 1337      2E657261 
ARM GAS  C:\Users\25521\AppData\Local\Temp\ccalLoVc.s 			page 25


 1338 003b 00       		.space	1
 1339              	.LC6:
 1340 003c 52657374 		.ascii	"Restore settings to default value (erases flash)\000"
 1340      6F726520 
 1340      73657474 
 1340      696E6773 
 1340      20746F20 
 1341 006d 000000   		.space	3
 1342              	.LC7:
 1343 0070 5F737973 		.ascii	"_system.settings.flash\000"
 1343      74656D2E 
 1343      73657474 
 1343      696E6773 
 1343      2E666C61 
 1344 0087 00       		.space	1
 1345              	.LC8:
 1346 0088 53617665 		.ascii	"Save settings into flash\000"
 1346      20736574 
 1346      74696E67 
 1346      7320696E 
 1346      746F2066 
 1347 00a1 000000   		.space	3
 1348              	.LC9:
 1349 00a4 5F737973 		.ascii	"_system.settings.write\000"
 1349      74656D2E 
 1349      73657474 
 1349      696E6773 
 1349      2E777269 
 1350 00bb 00       		.space	1
 1351              	.LC10:
 1352 00bc 57726974 		.ascii	"Write a setting\000"
 1352      65206120 
 1352      73657474 
 1352      696E6700 
 1353              	.LC11:
 1354 00cc 61646472 		.ascii	"address\000"
 1354      65737300 
 1355              	.LC12:
 1356 00d4 76616C75 		.ascii	"value\000"
 1356      6500
 1357 00da 0000     		.space	2
 1358              	.LC13:
 1359 00dc 5F737973 		.ascii	"_system.settings.read\000"
 1359      74656D2E 
 1359      73657474 
 1359      696E6773 
 1359      2E726561 
 1360 00f2 0000     		.space	2
 1361              	.LC14:
 1362 00f4 52656164 		.ascii	"Read a setting\000"
 1362      20612073 
 1362      65747469 
 1362      6E6700
 1363 0103 00       		.space	1
 1364              	.LC15:
 1365 0104 5F737973 		.ascii	"_system.reboot\000"
 1365      74656D2E 
ARM GAS  C:\Users\25521\AppData\Local\Temp\ccalLoVc.s 			page 26


 1365      7265626F 
 1365      6F7400
 1366 0113 00       		.space	1
 1367              	.LC16:
 1368 0114 5265626F 		.ascii	"Reboot the microcontroller\000"
 1368      6F742074 
 1368      6865206D 
 1368      6963726F 
 1368      636F6E74 
 1369 012f 00       		.space	1
 1370              	.LC17:
 1371 0130 6E65775F 		.ascii	"new_imu\000"
 1371      696D7500 
 1372              	.LC18:
 1373 0138 4E657720 		.ascii	"New imu measurement\000"
 1373      696D7520 
 1373      6D656173 
 1373      7572656D 
 1373      656E7400 
 1374              	.LC19:
 1375 014c 62757474 		.ascii	"button\000"
 1375      6F6E00
 1376 0153 00       		.space	1
 1377              	.LC20:
 1378 0154 55736572 		.ascii	"User button clicked\000"
 1378      20627574 
 1378      746F6E20 
 1378      636C6963 
 1378      6B656400 
 1379              	.LC21:
 1380 0168 47435472 		.ascii	"GCTronic-MobotsEPFL e-puck V2.0_F\000"
 1380      6F6E6963 
 1380      2D4D6F62 
 1380      6F747345 
 1380      50464C20 
 1381 018a 0000     		.space	2
 1382              	.LC22:
 1383 018c 5F696400 		.ascii	"_id\000"
 1384              	.LC23:
 1385 0190 6576656E 		.ascii	"event.source\000"
 1385      742E736F 
 1385      75726365 
 1385      00
 1386 019d 000000   		.space	3
 1387              	.LC24:
 1388 01a0 6576656E 		.ascii	"event.args\000"
 1388      742E6172 
 1388      677300
 1389 01ab 00       		.space	1
 1390              	.LC25:
 1391 01ac 5F667776 		.ascii	"_fwversion\000"
 1391      65727369 
 1391      6F6E00
 1392 01b7 00       		.space	1
 1393              	.LC26:
 1394 01b8 5F70726F 		.ascii	"_productId\000"
 1394      64756374 
ARM GAS  C:\Users\25521\AppData\Local\Temp\ccalLoVc.s 			page 27


 1394      496400
 1395 01c3 00       		.space	1
 1396              	.LC27:
 1397 01c4 6C656431 		.ascii	"led1\000"
 1397      00
 1398 01c9 000000   		.space	3
 1399              	.LC28:
 1400 01cc 6C656432 		.ascii	"led2\000"
 1400      00
 1401 01d1 000000   		.space	3
 1402              	.LC29:
 1403 01d4 6C656433 		.ascii	"led3\000"
 1403      00
 1404 01d9 000000   		.space	3
 1405              	.LC30:
 1406 01dc 6C656434 		.ascii	"led4\000"
 1406      00
 1407 01e1 000000   		.space	3
 1408              	.LC31:
 1409 01e4 6C656435 		.ascii	"led5\000"
 1409      00
 1410 01e9 000000   		.space	3
 1411              	.LC32:
 1412 01ec 6C656436 		.ascii	"led6\000"
 1412      00
 1413 01f1 000000   		.space	3
 1414              	.LC33:
 1415 01f4 6C656437 		.ascii	"led7\000"
 1415      00
 1416 01f9 000000   		.space	3
 1417              	.LC34:
 1418 01fc 6C656438 		.ascii	"led8\000"
 1418      00
 1419 0201 000000   		.space	3
 1420              	.LC35:
 1421 0204 61636300 		.ascii	"acc\000"
 1422              	.LC36:
 1423 0208 6779726F 		.ascii	"gyro\000"
 1423      00
 1424              		.section	.rodata.vmDescription,"a",%progbits
 1425              		.align	2
 1426              		.type	vmDescription, %object
 1427              		.size	vmDescription, 132
 1428              	vmDescription:
 1429 0000 68010000 		.word	.LC21
 1430 0004 0100     		.short	1
 1431 0006 0000     		.space	2
 1432 0008 8C010000 		.word	.LC22
 1433 000c 0100     		.short	1
 1434 000e 0000     		.space	2
 1435 0010 90010000 		.word	.LC23
 1436 0014 2000     		.short	32
 1437 0016 0000     		.space	2
 1438 0018 A0010000 		.word	.LC24
 1439 001c 0200     		.short	2
 1440 001e 0000     		.space	2
 1441 0020 AC010000 		.word	.LC25
ARM GAS  C:\Users\25521\AppData\Local\Temp\ccalLoVc.s 			page 28


 1442 0024 0100     		.short	1
 1443 0026 0000     		.space	2
 1444 0028 B8010000 		.word	.LC26
 1445 002c 0100     		.short	1
 1446 002e 0000     		.space	2
 1447 0030 C4010000 		.word	.LC27
 1448 0034 0300     		.short	3
 1449 0036 0000     		.space	2
 1450 0038 CC010000 		.word	.LC28
 1451 003c 0100     		.short	1
 1452 003e 0000     		.space	2
 1453 0040 D4010000 		.word	.LC29
 1454 0044 0300     		.short	3
 1455 0046 0000     		.space	2
 1456 0048 DC010000 		.word	.LC30
 1457 004c 0100     		.short	1
 1458 004e 0000     		.space	2
 1459 0050 E4010000 		.word	.LC31
 1460 0054 0300     		.short	3
 1461 0056 0000     		.space	2
 1462 0058 EC010000 		.word	.LC32
 1463 005c 0100     		.short	1
 1464 005e 0000     		.space	2
 1465 0060 F4010000 		.word	.LC33
 1466 0064 0300     		.short	3
 1467 0066 0000     		.space	2
 1468 0068 FC010000 		.word	.LC34
 1469 006c 0300     		.short	3
 1470 006e 0000     		.space	2
 1471 0070 04020000 		.word	.LC35
 1472 0074 0300     		.short	3
 1473 0076 0000     		.space	2
 1474 0078 08020000 		.word	.LC36
 1475 007c 0000     		.short	0
 1476 007e 0000     		.space	2
 1477 0080 00000000 		.word	0
 1478              		.text
 1479              	.Letext0:
 1480              		.file 5 "d:\\eclipse_e-puck2_win32_11_apr_2018\\eclipse_e-puck2\\tools\\gcc-arm-none-eabi-7-2017-q
 1481              		.file 6 "d:\\eclipse_e-puck2_win32_11_apr_2018\\eclipse_e-puck2\\tools\\gcc-arm-none-eabi-7-2017-q
 1482              		.file 7 "d:\\eclipse_e-puck2_win32_11_apr_2018\\eclipse_e-puck2\\tools\\gcc-arm-none-eabi-7-2017-q
 1483              		.file 8 "d:\\eclipse_e-puck2_win32_11_apr_2018\\eclipse_e-puck2\\tools\\gcc-arm-none-eabi-7-2017-q
 1484              		.file 9 "d:\\eclipse_e-puck2_win32_11_apr_2018\\eclipse_e-puck2\\tools\\gcc-arm-none-eabi-7-2017-q
 1485              		.file 10 "d:\\eclipse_e-puck2_win32_11_apr_2018\\eclipse_e-puck2\\tools\\gcc-arm-none-eabi-7-2017-
 1486              		.file 11 "../e-puck2_main-processor/ChibiOS//os/rt/ports/ARMCMx/compilers/GCC/chtypes.h"
 1487              		.file 12 "../e-puck2_main-processor/ChibiOS//os/rt/include/chsystypes.h"
 1488              		.file 13 "../e-puck2_main-processor/ChibiOS//os/rt/include/chschd.h"
 1489              		.file 14 "../e-puck2_main-processor/ChibiOS//os/ext/CMSIS/ST/system_stm32f4xx.h"
 1490              		.file 15 "../e-puck2_main-processor/ChibiOS//os/ext/CMSIS/ST/stm32f407xx.h"
 1491              		.file 16 "../e-puck2_main-processor/ChibiOS//os/rt/ports/ARMCMx/chcore.h"
 1492              		.file 17 "../e-puck2_main-processor/ChibiOS//os/rt/ports/ARMCMx/chcore_v7m.h"
 1493              		.file 18 "../e-puck2_main-processor/ChibiOS//os/rt/include/chdebug.h"
 1494              		.file 19 "../e-puck2_main-processor/ChibiOS//os/rt/include/chtm.h"
 1495              		.file 20 "../e-puck2_main-processor/ChibiOS//os/rt/include/chstats.h"
 1496              		.file 21 "../e-puck2_main-processor/ChibiOS//os/rt/include/chsem.h"
 1497              		.file 22 "../e-puck2_main-processor/ChibiOS//os/rt/include/chmtx.h"
 1498              		.file 23 "../e-puck2_main-processor/ChibiOS//os/rt/include/chregistry.h"
ARM GAS  C:\Users\25521\AppData\Local\Temp\ccalLoVc.s 			page 29


 1499              		.file 24 "../e-puck2_main-processor/ChibiOS//os/rt/include/chevents.h"
 1500              		.file 25 "../e-puck2_main-processor/ChibiOS//os/rt/include/chqueues.h"
 1501              		.file 26 "../e-puck2_main-processor/ChibiOS//os/hal/ports/STM32/LLD/DMAv2/stm32_dma.h"
 1502              		.file 27 "../e-puck2_main-processor/ChibiOS//os/hal/include/hal_ioblock.h"
 1503              		.file 28 "../e-puck2_main-processor/ChibiOS//os/hal/ports/STM32/LLD/GPIOv2/pal_lld.h"
 1504              		.file 29 "../e-puck2_main-processor/ChibiOS//os/hal/include/adc.h"
 1505              		.file 30 "../e-puck2_main-processor/ChibiOS//os/hal/ports/STM32/LLD/ADCv2/adc_lld.h"
 1506              		.file 31 "../e-puck2_main-processor/ChibiOS//os/hal/include/can.h"
 1507              		.file 32 "../e-puck2_main-processor/ChibiOS//os/hal/ports/STM32/LLD/CANv1/can_lld.h"
 1508              		.file 33 "../e-puck2_main-processor/ChibiOS//os/hal/include/dac.h"
 1509              		.file 34 "../e-puck2_main-processor/ChibiOS//os/hal/ports/STM32/LLD/DACv1/dac_lld.h"
 1510              		.file 35 "../e-puck2_main-processor/ChibiOS//os/hal/include/ext.h"
 1511              		.file 36 "../e-puck2_main-processor/ChibiOS//os/hal/ports/STM32/LLD/EXTIv1/ext_lld.h"
 1512              		.file 37 "../e-puck2_main-processor/ChibiOS//os/hal/include/gpt.h"
 1513              		.file 38 "../e-puck2_main-processor/ChibiOS//os/hal/ports/STM32/LLD/TIMv1/gpt_lld.h"
 1514              		.file 39 "../e-puck2_main-processor/ChibiOS//os/hal/ports/STM32/LLD/TIMv1/stm32_tim.h"
 1515              		.file 40 "../e-puck2_main-processor/ChibiOS//os/hal/include/i2c.h"
 1516              		.file 41 "../e-puck2_main-processor/ChibiOS//os/hal/ports/STM32/LLD/I2Cv1/i2c_lld.h"
 1517              		.file 42 "../e-puck2_main-processor/ChibiOS//os/hal/include/i2s.h"
 1518              		.file 43 "../e-puck2_main-processor/ChibiOS//os/hal/ports/STM32/LLD/SPIv1/i2s_lld.h"
 1519              		.file 44 "../e-puck2_main-processor/ChibiOS//os/hal/include/pwm.h"
 1520              		.file 45 "../e-puck2_main-processor/ChibiOS//os/hal/ports/STM32/LLD/TIMv1/pwm_lld.h"
 1521              		.file 46 "../e-puck2_main-processor/ChibiOS//os/hal/include/serial.h"
 1522              		.file 47 "../e-puck2_main-processor/ChibiOS//os/hal/ports/STM32/LLD/USARTv1/serial_lld.h"
 1523              		.file 48 "../e-puck2_main-processor/ChibiOS//os/hal/include/sdc.h"
 1524              		.file 49 "../e-puck2_main-processor/ChibiOS//os/hal/ports/STM32/LLD/SDIOv1/sdc_lld.h"
 1525              		.file 50 "../e-puck2_main-processor/ChibiOS//os/hal/include/spi.h"
 1526              		.file 51 "../e-puck2_main-processor/ChibiOS//os/hal/ports/STM32/LLD/SPIv1/spi_lld.h"
 1527              		.file 52 "../e-puck2_main-processor/ChibiOS//os/hal/include/usb.h"
 1528              		.file 53 "../e-puck2_main-processor/ChibiOS//os/hal/ports/STM32/LLD/OTGv1/usb_lld.h"
 1529              		.file 54 "../e-puck2_main-processor/ChibiOS//os/hal/ports/STM32/LLD/OTGv1/stm32_otg.h"
 1530              		.file 55 "d:\\eclipse_e-puck2_win32_11_apr_2018\\eclipse_e-puck2\\tools\\gcc-arm-none-eabi-7-2017-
 1531              		.file 56 "../e-puck2_main-processor/aseba/common/types.h"
 1532              		.file 57 "../e-puck2_main-processor/aseba/vm/vm.h"
 1533              		.file 58 "../e-puck2_main-processor/src/parameter/parameter.h"
 1534              		.file 59 "../e-puck2_main-processor/src/aseba_vm/aseba_node.h"
 1535              		.file 60 "../e-puck2_main-processor/src/sensors/mpu9250.h"
 1536              		.file 61 "../e-puck2_main-processor/src/leds.h"
 1537              		.file 62 "../e-puck2_main-processor/src/aseba_vm/skel_user.h"
 1538              		.file 63 "../e-puck2_main-processor/aseba/common/productids.h"
 1539              		.file 64 "../e-puck2_main-processor/ChibiOS_ext/os/hal/include/../ports/STM32/STM32F4xx/dcmi_lld.h
 1540              		.file 65 "d:\\eclipse_e-puck2_win32_11_apr_2018\\eclipse_e-puck2\\tools\\gcc-arm-none-eabi-7-2017-
 1541              		.file 66 "../e-puck2_main-processor/src/msgbus/messagebus.h"
 1542              		.file 67 "./main.h"
 1543              		.file 68 "../e-puck2_main-processor/src/config_flash_storage.h"
 1544              		.file 69 "../e-puck2_main-processor/src/sensors/imu.h"
 1545              		.file 70 "d:\\eclipse_e-puck2_win32_11_apr_2018\\eclipse_e-puck2\\tools\\gcc-arm-none-eabi-7-2017-
 1546              		.file 71 "<built-in>"