ARM GAS  C:\Users\25521\AppData\Local\Temp\cccJFQJo.s 			page 1


   1              		.cpu cortex-m4
   2              		.eabi_attribute 27, 1
   3              		.eabi_attribute 28, 1
   4              		.eabi_attribute 20, 1
   5              		.eabi_attribute 21, 1
   6              		.eabi_attribute 23, 3
   7              		.eabi_attribute 24, 1
   8              		.eabi_attribute 25, 1
   9              		.eabi_attribute 26, 1
  10              		.eabi_attribute 30, 2
  11              		.eabi_attribute 34, 1
  12              		.eabi_attribute 18, 4
  13              		.file	"spi3_slave.c"
  14              		.text
  15              	.Ltext0:
  16              		.cfi_sections	.debug_frame
  17              		.section	.text.spi3SlaveInit,"ax",%progbits
  18              		.align	1
  19              		.p2align 4,,15
  20              		.global	spi3SlaveInit
  21              		.syntax unified
  22              		.thumb
  23              		.thumb_func
  24              		.fpu fpv4-sp-d16
  25              		.type	spi3SlaveInit, %function
  26              	spi3SlaveInit:
  27              	.LFB267:
  28              		.file 1 "../e-puck2_main-processor/ChibiOS_ext/os/hal/src/spi3_slave.c"
  29              		.loc 1 62 0
  30              		.cfi_startproc
  31              		@ args = 0, pretend = 0, frame = 8
  32              		@ frame_needed = 0, uses_anonymous_args = 0
  33 0000 00B5     		push	{lr}
  34              		.cfi_def_cfa_offset 4
  35              		.cfi_offset 14, -4
  36 0002 074B     		ldr	r3, .L7
  37 0004 83B0     		sub	sp, sp, #12
  38              		.cfi_def_cfa_offset 16
  39              		.loc 1 62 0
  40 0006 1A68     		ldr	r2, [r3]
  41 0008 0192     		str	r2, [sp, #4]
  42              		.loc 1 64 0
  43 000a 019A     		ldr	r2, [sp, #4]
  44 000c 1B68     		ldr	r3, [r3]
  45 000e 9A42     		cmp	r2, r3
  46 0010 04D1     		bne	.L6
  47              		.loc 1 65 0
  48 0012 03B0     		add	sp, sp, #12
  49              		.cfi_remember_state
  50              		.cfi_def_cfa_offset 4
  51              		@ sp needed
  52 0014 5DF804EB 		ldr	lr, [sp], #4
  53              		.cfi_restore 14
  54              		.cfi_def_cfa_offset 0
  55              		.loc 1 64 0
  56 0018 FFF7FEBF 		b	spi3_slave_lld_init
  57              	.LVL0:
ARM GAS  C:\Users\25521\AppData\Local\Temp\cccJFQJo.s 			page 2


  58              	.L6:
  59              		.cfi_restore_state
  60 001c FFF7FEFF 		bl	__stack_chk_fail
  61              	.LVL1:
  62              	.L8:
  63              		.align	2
  64              	.L7:
  65 0020 00000000 		.word	__stack_chk_guard
  66              		.cfi_endproc
  67              	.LFE267:
  68              		.size	spi3SlaveInit, .-spi3SlaveInit
  69              		.section	.text.spi3SlaveObjectInit,"ax",%progbits
  70              		.align	1
  71              		.p2align 4,,15
  72              		.global	spi3SlaveObjectInit
  73              		.syntax unified
  74              		.thumb
  75              		.thumb_func
  76              		.fpu fpv4-sp-d16
  77              		.type	spi3SlaveObjectInit, %function
  78              	spi3SlaveObjectInit:
  79              	.LFB268:
  80              		.loc 1 74 0
  81              		.cfi_startproc
  82              		@ args = 0, pretend = 0, frame = 8
  83              		@ frame_needed = 0, uses_anonymous_args = 0
  84              	.LVL2:
  85 0000 00B5     		push	{lr}
  86              		.cfi_def_cfa_offset 4
  87              		.cfi_offset 14, -4
  88 0002 0A4B     		ldr	r3, .L14
  89 0004 83B0     		sub	sp, sp, #12
  90              		.cfi_def_cfa_offset 16
  91              		.loc 1 74 0
  92 0006 1A68     		ldr	r2, [r3]
  93 0008 0192     		str	r2, [sp, #4]
  94              		.loc 1 76 0
  95 000a 0122     		movs	r2, #1
  96 000c 0270     		strb	r2, [r0]
  97              	.LBB132:
  98              	.LBB133:
  99              		.file 2 "../e-puck2_main-processor/ChibiOS//os/hal/osal/rt/osal.h"
 100              		.loc 2 887 0
 101 000e 0199     		ldr	r1, [sp, #4]
 102 0010 1A68     		ldr	r2, [r3]
 103              	.LBE133:
 104              	.LBE132:
 105              		.loc 1 77 0
 106 0012 0023     		movs	r3, #0
 107              	.LBB137:
 108              	.LBB134:
 109              		.loc 2 887 0
 110 0014 9142     		cmp	r1, r2
 111              	.LBE134:
 112              	.LBE137:
 113              		.loc 1 79 0
 114 0016 C0E90133 		strd	r3, r3, [r0, #4]
ARM GAS  C:\Users\25521\AppData\Local\Temp\cccJFQJo.s 			page 3


 115              	.LVL3:
 116              	.LBB138:
 117              	.LBB135:
 118              		.loc 2 887 0
 119 001a 05D1     		bne	.L13
 120 001c 0C30     		adds	r0, r0, #12
 121              	.LVL4:
 122              	.LBE135:
 123              	.LBE138:
 124              		.loc 1 87 0
 125 001e 03B0     		add	sp, sp, #12
 126              		.cfi_remember_state
 127              		.cfi_def_cfa_offset 4
 128              		@ sp needed
 129 0020 5DF804EB 		ldr	lr, [sp], #4
 130              		.cfi_restore 14
 131              		.cfi_def_cfa_offset 0
 132              	.LBB139:
 133              	.LBB136:
 134              		.loc 2 887 0
 135 0024 FFF7FEBF 		b	chMtxObjectInit
 136              	.LVL5:
 137              	.L13:
 138              		.cfi_restore_state
 139 0028 FFF7FEFF 		bl	__stack_chk_fail
 140              	.LVL6:
 141              	.L15:
 142              		.align	2
 143              	.L14:
 144 002c 00000000 		.word	__stack_chk_guard
 145              	.LBE136:
 146              	.LBE139:
 147              		.cfi_endproc
 148              	.LFE268:
 149              		.size	spi3SlaveObjectInit, .-spi3SlaveObjectInit
 150              		.section	.text.spi3SlaveStart,"ax",%progbits
 151              		.align	1
 152              		.p2align 4,,15
 153              		.global	spi3SlaveStart
 154              		.syntax unified
 155              		.thumb
 156              		.thumb_func
 157              		.fpu fpv4-sp-d16
 158              		.type	spi3SlaveStart, %function
 159              	spi3SlaveStart:
 160              	.LFB269:
 161              		.loc 1 97 0
 162              		.cfi_startproc
 163              		@ args = 0, pretend = 0, frame = 8
 164              		@ frame_needed = 0, uses_anonymous_args = 0
 165              	.LVL7:
 166 0000 70B5     		push	{r4, r5, r6, lr}
 167              		.cfi_def_cfa_offset 16
 168              		.cfi_offset 4, -16
 169              		.cfi_offset 5, -12
 170              		.cfi_offset 6, -8
 171              		.cfi_offset 14, -4
ARM GAS  C:\Users\25521\AppData\Local\Temp\cccJFQJo.s 			page 4


 172 0002 1E4D     		ldr	r5, .L28
 173 0004 82B0     		sub	sp, sp, #8
 174              		.cfi_def_cfa_offset 24
 175              		.loc 1 97 0
 176 0006 2B68     		ldr	r3, [r5]
 177 0008 0193     		str	r3, [sp, #4]
 178 000a 0E46     		mov	r6, r1
 179              		.loc 1 99 0
 180 000c 0446     		mov	r4, r0
 181 000e 70B3     		cbz	r0, .L17
 182              		.loc 1 99 0 is_stmt 0 discriminator 3
 183 0010 69B3     		cbz	r1, .L17
 184              	.LVL8:
 185              	.L18:
 186              	.LBB153:
 187              	.LBB154:
 188              	.LBB155:
 189              	.LBB156:
 190              	.LBB157:
 191              	.LBB158:
 192              		.file 3 "../e-puck2_main-processor/ChibiOS//os/ext/CMSIS/include/core_cmFunc.h"
 193              		.loc 3 548 0 is_stmt 1
 194 0012 2023     		movs	r3, #32
 195              		.syntax unified
 196              	@ 548 "../e-puck2_main-processor/ChibiOS//os/ext/CMSIS/include/core_cmFunc.h" 1
 197 0014 83F31188 		MSR basepri, r3
 198              	@ 0 "" 2
 199              	.LVL9:
 200              		.thumb
 201              		.syntax unified
 202              	.LBE158:
 203              	.LBE157:
 204              	.LBE156:
 205              		.file 4 "../e-puck2_main-processor/ChibiOS//os/rt/include/chsys.h"
 206              		.loc 4 349 0
 207 0018 FFF7FEFF 		bl	_stats_start_measure_crit_thd
 208              	.LVL10:
 209              		.loc 4 350 0
 210 001c FFF7FEFF 		bl	_dbg_check_lock
 211              	.LVL11:
 212              	.LBE155:
 213              	.LBE154:
 214              	.LBE153:
 215              		.loc 1 102 0
 216 0020 2378     		ldrb	r3, [r4]	@ zero_extendqisi2
 217 0022 013B     		subs	r3, r3, #1
 218 0024 012B     		cmp	r3, #1
 219 0026 02D9     		bls	.L19
 220              		.loc 1 102 0 is_stmt 0 discriminator 2
 221 0028 1548     		ldr	r0, .L28+4
 222 002a FFF7FEFF 		bl	chSysHalt
 223              	.LVL12:
 224              	.L19:
 225              		.loc 1 105 0 is_stmt 1
 226 002e 2046     		mov	r0, r4
 227              		.loc 1 104 0
 228 0030 6660     		str	r6, [r4, #4]
ARM GAS  C:\Users\25521\AppData\Local\Temp\cccJFQJo.s 			page 5


 229              		.loc 1 105 0
 230 0032 FFF7FEFF 		bl	spi3_slave_lld_start
 231              	.LVL13:
 232              		.loc 1 106 0
 233 0036 0223     		movs	r3, #2
 234 0038 2370     		strb	r3, [r4]
 235              	.LBB159:
 236              	.LBB160:
 237              	.LBB161:
 238              		.loc 4 360 0
 239 003a FFF7FEFF 		bl	_dbg_check_unlock
 240              	.LVL14:
 241              		.loc 4 361 0
 242 003e FFF7FEFF 		bl	_stats_stop_measure_crit_thd
 243              	.LVL15:
 244              		.loc 4 367 0
 245 0042 104B     		ldr	r3, .L28+8
 246 0044 1A68     		ldr	r2, [r3]
 247 0046 9A42     		cmp	r2, r3
 248 0048 04D0     		beq	.L20
 249 004a 9969     		ldr	r1, [r3, #24]
 250 004c 9368     		ldr	r3, [r2, #8]
 251 004e 8A68     		ldr	r2, [r1, #8]
 252 0050 9A42     		cmp	r2, r3
 253 0052 08D3     		bcc	.L26
 254              	.L20:
 255              	.LVL16:
 256              	.LBB162:
 257              	.LBB163:
 258              	.LBB164:
 259              		.loc 3 548 0
 260 0054 0023     		movs	r3, #0
 261              		.syntax unified
 262              	@ 548 "../e-puck2_main-processor/ChibiOS//os/ext/CMSIS/include/core_cmFunc.h" 1
 263 0056 83F31188 		MSR basepri, r3
 264              	@ 0 "" 2
 265              	.LVL17:
 266              		.thumb
 267              		.syntax unified
 268              	.LBE164:
 269              	.LBE163:
 270              	.LBE162:
 271              	.LBE161:
 272              	.LBE160:
 273              	.LBE159:
 274              		.loc 1 108 0
 275 005a 019A     		ldr	r2, [sp, #4]
 276 005c 2B68     		ldr	r3, [r5]
 277 005e 9A42     		cmp	r2, r3
 278 0060 09D1     		bne	.L27
 279 0062 02B0     		add	sp, sp, #8
 280              		.cfi_remember_state
 281              		.cfi_def_cfa_offset 16
 282              		@ sp needed
 283 0064 70BD     		pop	{r4, r5, r6, pc}
 284              	.LVL18:
 285              	.L26:
ARM GAS  C:\Users\25521\AppData\Local\Temp\cccJFQJo.s 			page 6


 286              		.cfi_restore_state
 287              	.LBB167:
 288              	.LBB166:
 289              	.LBB165:
 290              		.loc 4 367 0
 291 0066 0848     		ldr	r0, .L28+12
 292 0068 FFF7FEFF 		bl	chSysHalt
 293              	.LVL19:
 294 006c F2E7     		b	.L20
 295              	.LVL20:
 296              	.L17:
 297              	.LBE165:
 298              	.LBE166:
 299              	.LBE167:
 300              		.loc 1 99 0 discriminator 4
 301 006e 0448     		ldr	r0, .L28+4
 302              	.LVL21:
 303 0070 FFF7FEFF 		bl	chSysHalt
 304              	.LVL22:
 305 0074 CDE7     		b	.L18
 306              	.L27:
 307              		.loc 1 108 0
 308 0076 FFF7FEFF 		bl	__stack_chk_fail
 309              	.LVL23:
 310              	.L29:
 311 007a 00BF     		.align	2
 312              	.L28:
 313 007c 00000000 		.word	__stack_chk_guard
 314 0080 00000000 		.word	.LANCHOR0
 315 0084 00000000 		.word	ch
 316 0088 00000000 		.word	.LANCHOR1
 317              		.cfi_endproc
 318              	.LFE269:
 319              		.size	spi3SlaveStart, .-spi3SlaveStart
 320              		.section	.text.spi3SlaveStop,"ax",%progbits
 321              		.align	1
 322              		.p2align 4,,15
 323              		.global	spi3SlaveStop
 324              		.syntax unified
 325              		.thumb
 326              		.thumb_func
 327              		.fpu fpv4-sp-d16
 328              		.type	spi3SlaveStop, %function
 329              	spi3SlaveStop:
 330              	.LFB270:
 331              		.loc 1 119 0
 332              		.cfi_startproc
 333              		@ args = 0, pretend = 0, frame = 8
 334              		@ frame_needed = 0, uses_anonymous_args = 0
 335              	.LVL24:
 336 0000 30B5     		push	{r4, r5, lr}
 337              		.cfi_def_cfa_offset 12
 338              		.cfi_offset 4, -12
 339              		.cfi_offset 5, -8
 340              		.cfi_offset 14, -4
 341 0002 1C4D     		ldr	r5, .L39
 342 0004 83B0     		sub	sp, sp, #12
ARM GAS  C:\Users\25521\AppData\Local\Temp\cccJFQJo.s 			page 7


 343              		.cfi_def_cfa_offset 24
 344              		.loc 1 119 0
 345 0006 2B68     		ldr	r3, [r5]
 346 0008 0193     		str	r3, [sp, #4]
 347              		.loc 1 121 0
 348 000a 0446     		mov	r4, r0
 349 000c 60B3     		cbz	r0, .L36
 350              	.LVL25:
 351              	.L31:
 352              	.LBB181:
 353              	.LBB182:
 354              	.LBB183:
 355              	.LBB184:
 356              	.LBB185:
 357              	.LBB186:
 358              		.loc 3 548 0
 359 000e 2023     		movs	r3, #32
 360              		.syntax unified
 361              	@ 548 "../e-puck2_main-processor/ChibiOS//os/ext/CMSIS/include/core_cmFunc.h" 1
 362 0010 83F31188 		MSR basepri, r3
 363              	@ 0 "" 2
 364              	.LVL26:
 365              		.thumb
 366              		.syntax unified
 367              	.LBE186:
 368              	.LBE185:
 369              	.LBE184:
 370              		.loc 4 349 0
 371 0014 FFF7FEFF 		bl	_stats_start_measure_crit_thd
 372              	.LVL27:
 373              		.loc 4 350 0
 374 0018 FFF7FEFF 		bl	_dbg_check_lock
 375              	.LVL28:
 376              	.LBE183:
 377              	.LBE182:
 378              	.LBE181:
 379              		.loc 1 124 0
 380 001c 2378     		ldrb	r3, [r4]	@ zero_extendqisi2
 381 001e 013B     		subs	r3, r3, #1
 382 0020 012B     		cmp	r3, #1
 383 0022 02D9     		bls	.L32
 384              		.loc 1 124 0 is_stmt 0 discriminator 2
 385 0024 1448     		ldr	r0, .L39+4
 386 0026 FFF7FEFF 		bl	chSysHalt
 387              	.LVL29:
 388              	.L32:
 389              		.loc 1 126 0 is_stmt 1
 390 002a 2046     		mov	r0, r4
 391 002c FFF7FEFF 		bl	spi3_slave_lld_stop
 392              	.LVL30:
 393              		.loc 1 127 0
 394 0030 0123     		movs	r3, #1
 395 0032 2370     		strb	r3, [r4]
 396              	.LBB187:
 397              	.LBB188:
 398              	.LBB189:
 399              		.loc 4 360 0
ARM GAS  C:\Users\25521\AppData\Local\Temp\cccJFQJo.s 			page 8


 400 0034 FFF7FEFF 		bl	_dbg_check_unlock
 401              	.LVL31:
 402              		.loc 4 361 0
 403 0038 FFF7FEFF 		bl	_stats_stop_measure_crit_thd
 404              	.LVL32:
 405              		.loc 4 367 0
 406 003c 0F4B     		ldr	r3, .L39+8
 407 003e 1A68     		ldr	r2, [r3]
 408 0040 9A42     		cmp	r2, r3
 409 0042 04D0     		beq	.L33
 410 0044 9969     		ldr	r1, [r3, #24]
 411 0046 9368     		ldr	r3, [r2, #8]
 412 0048 8A68     		ldr	r2, [r1, #8]
 413 004a 9A42     		cmp	r2, r3
 414 004c 08D3     		bcc	.L37
 415              	.L33:
 416              	.LVL33:
 417              	.LBB190:
 418              	.LBB191:
 419              	.LBB192:
 420              		.loc 3 548 0
 421 004e 0023     		movs	r3, #0
 422              		.syntax unified
 423              	@ 548 "../e-puck2_main-processor/ChibiOS//os/ext/CMSIS/include/core_cmFunc.h" 1
 424 0050 83F31188 		MSR basepri, r3
 425              	@ 0 "" 2
 426              	.LVL34:
 427              		.thumb
 428              		.syntax unified
 429              	.LBE192:
 430              	.LBE191:
 431              	.LBE190:
 432              	.LBE189:
 433              	.LBE188:
 434              	.LBE187:
 435              		.loc 1 129 0
 436 0054 019A     		ldr	r2, [sp, #4]
 437 0056 2B68     		ldr	r3, [r5]
 438 0058 9A42     		cmp	r2, r3
 439 005a 09D1     		bne	.L38
 440 005c 03B0     		add	sp, sp, #12
 441              		.cfi_remember_state
 442              		.cfi_def_cfa_offset 12
 443              		@ sp needed
 444 005e 30BD     		pop	{r4, r5, pc}
 445              	.LVL35:
 446              	.L37:
 447              		.cfi_restore_state
 448              	.LBB195:
 449              	.LBB194:
 450              	.LBB193:
 451              		.loc 4 367 0
 452 0060 0748     		ldr	r0, .L39+12
 453 0062 FFF7FEFF 		bl	chSysHalt
 454              	.LVL36:
 455 0066 F2E7     		b	.L33
 456              	.LVL37:
ARM GAS  C:\Users\25521\AppData\Local\Temp\cccJFQJo.s 			page 9


 457              	.L36:
 458              	.LBE193:
 459              	.LBE194:
 460              	.LBE195:
 461              		.loc 1 121 0 discriminator 2
 462 0068 0348     		ldr	r0, .L39+4
 463              	.LVL38:
 464 006a FFF7FEFF 		bl	chSysHalt
 465              	.LVL39:
 466 006e CEE7     		b	.L31
 467              	.L38:
 468              		.loc 1 129 0
 469 0070 FFF7FEFF 		bl	__stack_chk_fail
 470              	.LVL40:
 471              	.L40:
 472              		.align	2
 473              	.L39:
 474 0074 00000000 		.word	__stack_chk_guard
 475 0078 00000000 		.word	.LANCHOR2
 476 007c 00000000 		.word	ch
 477 0080 00000000 		.word	.LANCHOR1
 478              		.cfi_endproc
 479              	.LFE270:
 480              		.size	spi3SlaveStop, .-spi3SlaveStop
 481              		.section	.text.spi3SlaveStartIgnore,"ax",%progbits
 482              		.align	1
 483              		.p2align 4,,15
 484              		.global	spi3SlaveStartIgnore
 485              		.syntax unified
 486              		.thumb
 487              		.thumb_func
 488              		.fpu fpv4-sp-d16
 489              		.type	spi3SlaveStartIgnore, %function
 490              	spi3SlaveStartIgnore:
 491              	.LFB271:
 492              		.loc 1 144 0
 493              		.cfi_startproc
 494              		@ args = 0, pretend = 0, frame = 8
 495              		@ frame_needed = 0, uses_anonymous_args = 0
 496              	.LVL41:
 497 0000 70B5     		push	{r4, r5, r6, lr}
 498              		.cfi_def_cfa_offset 16
 499              		.cfi_offset 4, -16
 500              		.cfi_offset 5, -12
 501              		.cfi_offset 6, -8
 502              		.cfi_offset 14, -4
 503 0002 1D4D     		ldr	r5, .L56
 504 0004 82B0     		sub	sp, sp, #8
 505              		.cfi_def_cfa_offset 24
 506              		.loc 1 144 0
 507 0006 2B68     		ldr	r3, [r5]
 508 0008 0193     		str	r3, [sp, #4]
 509 000a 0E46     		mov	r6, r1
 510              		.loc 1 146 0
 511 000c 0446     		mov	r4, r0
 512 000e 48B3     		cbz	r0, .L42
 513              		.loc 1 146 0 is_stmt 0 discriminator 3
ARM GAS  C:\Users\25521\AppData\Local\Temp\cccJFQJo.s 			page 10


 514 0010 41B3     		cbz	r1, .L42
 515              	.LVL42:
 516              	.L43:
 517              	.LBB209:
 518              	.LBB210:
 519              	.LBB211:
 520              	.LBB212:
 521              	.LBB213:
 522              	.LBB214:
 523              		.loc 3 548 0 is_stmt 1
 524 0012 2023     		movs	r3, #32
 525              		.syntax unified
 526              	@ 548 "../e-puck2_main-processor/ChibiOS//os/ext/CMSIS/include/core_cmFunc.h" 1
 527 0014 83F31188 		MSR basepri, r3
 528              	@ 0 "" 2
 529              	.LVL43:
 530              		.thumb
 531              		.syntax unified
 532              	.LBE214:
 533              	.LBE213:
 534              	.LBE212:
 535              		.loc 4 349 0
 536 0018 FFF7FEFF 		bl	_stats_start_measure_crit_thd
 537              	.LVL44:
 538              		.loc 4 350 0
 539 001c FFF7FEFF 		bl	_dbg_check_lock
 540              	.LVL45:
 541              	.LBE211:
 542              	.LBE210:
 543              	.LBE209:
 544              		.loc 1 149 0
 545 0020 2378     		ldrb	r3, [r4]	@ zero_extendqisi2
 546 0022 022B     		cmp	r3, #2
 547 0024 02D0     		beq	.L44
 548              		.loc 1 149 0 is_stmt 0 discriminator 2
 549 0026 1548     		ldr	r0, .L56+4
 550 0028 FFF7FEFF 		bl	chSysHalt
 551              	.LVL46:
 552              	.L44:
 553              		.loc 1 150 0 is_stmt 1
 554 002c 0323     		movs	r3, #3
 555 002e 2370     		strb	r3, [r4]
 556 0030 3146     		mov	r1, r6
 557 0032 2046     		mov	r0, r4
 558 0034 FFF7FEFF 		bl	spi3_slave_lld_ignore
 559              	.LVL47:
 560              	.LBB215:
 561              	.LBB216:
 562              	.LBB217:
 563              		.loc 4 360 0
 564 0038 FFF7FEFF 		bl	_dbg_check_unlock
 565              	.LVL48:
 566              		.loc 4 361 0
 567 003c FFF7FEFF 		bl	_stats_stop_measure_crit_thd
 568              	.LVL49:
 569              		.loc 4 367 0
 570 0040 0F4B     		ldr	r3, .L56+8
ARM GAS  C:\Users\25521\AppData\Local\Temp\cccJFQJo.s 			page 11


 571 0042 1A68     		ldr	r2, [r3]
 572 0044 9A42     		cmp	r2, r3
 573 0046 04D0     		beq	.L45
 574 0048 9969     		ldr	r1, [r3, #24]
 575 004a 9368     		ldr	r3, [r2, #8]
 576 004c 8A68     		ldr	r2, [r1, #8]
 577 004e 9A42     		cmp	r2, r3
 578 0050 0CD3     		bcc	.L54
 579              	.L45:
 580              	.LVL50:
 581              	.LBB218:
 582              	.LBB219:
 583              	.LBB220:
 584              		.loc 3 548 0
 585 0052 0023     		movs	r3, #0
 586              		.syntax unified
 587              	@ 548 "../e-puck2_main-processor/ChibiOS//os/ext/CMSIS/include/core_cmFunc.h" 1
 588 0054 83F31188 		MSR basepri, r3
 589              	@ 0 "" 2
 590              	.LVL51:
 591              		.thumb
 592              		.syntax unified
 593              	.LBE220:
 594              	.LBE219:
 595              	.LBE218:
 596              	.LBE217:
 597              	.LBE216:
 598              	.LBE215:
 599              		.loc 1 152 0
 600 0058 019A     		ldr	r2, [sp, #4]
 601 005a 2B68     		ldr	r3, [r5]
 602 005c 9A42     		cmp	r2, r3
 603 005e 09D1     		bne	.L55
 604 0060 02B0     		add	sp, sp, #8
 605              		.cfi_remember_state
 606              		.cfi_def_cfa_offset 16
 607              		@ sp needed
 608 0062 70BD     		pop	{r4, r5, r6, pc}
 609              	.LVL52:
 610              	.L42:
 611              		.cfi_restore_state
 612              		.loc 1 146 0 discriminator 4
 613 0064 0548     		ldr	r0, .L56+4
 614              	.LVL53:
 615 0066 FFF7FEFF 		bl	chSysHalt
 616              	.LVL54:
 617 006a D2E7     		b	.L43
 618              	.L54:
 619              	.LBB223:
 620              	.LBB222:
 621              	.LBB221:
 622              		.loc 4 367 0
 623 006c 0548     		ldr	r0, .L56+12
 624 006e FFF7FEFF 		bl	chSysHalt
 625              	.LVL55:
 626 0072 EEE7     		b	.L45
 627              	.L55:
ARM GAS  C:\Users\25521\AppData\Local\Temp\cccJFQJo.s 			page 12


 628              	.LBE221:
 629              	.LBE222:
 630              	.LBE223:
 631              		.loc 1 152 0
 632 0074 FFF7FEFF 		bl	__stack_chk_fail
 633              	.LVL56:
 634              	.L57:
 635              		.align	2
 636              	.L56:
 637 0078 00000000 		.word	__stack_chk_guard
 638 007c 00000000 		.word	.LANCHOR3
 639 0080 00000000 		.word	ch
 640 0084 00000000 		.word	.LANCHOR1
 641              		.cfi_endproc
 642              	.LFE271:
 643              		.size	spi3SlaveStartIgnore, .-spi3SlaveStartIgnore
 644              		.section	.text.spi3SlaveStartExchange,"ax",%progbits
 645              		.align	1
 646              		.p2align 4,,15
 647              		.global	spi3SlaveStartExchange
 648              		.syntax unified
 649              		.thumb
 650              		.thumb_func
 651              		.fpu fpv4-sp-d16
 652              		.type	spi3SlaveStartExchange, %function
 653              	spi3SlaveStartExchange:
 654              	.LFB272:
 655              		.loc 1 172 0
 656              		.cfi_startproc
 657              		@ args = 0, pretend = 0, frame = 8
 658              		@ frame_needed = 0, uses_anonymous_args = 0
 659              	.LVL57:
 660 0000 2DE9F041 		push	{r4, r5, r6, r7, r8, lr}
 661              		.cfi_def_cfa_offset 24
 662              		.cfi_offset 4, -24
 663              		.cfi_offset 5, -20
 664              		.cfi_offset 6, -16
 665              		.cfi_offset 7, -12
 666              		.cfi_offset 8, -8
 667              		.cfi_offset 14, -4
 668 0004 214D     		ldr	r5, .L80
 669 0006 82B0     		sub	sp, sp, #8
 670              		.cfi_def_cfa_offset 32
 671              		.loc 1 172 0
 672 0008 2C68     		ldr	r4, [r5]
 673 000a 0194     		str	r4, [sp, #4]
 674 000c 0E46     		mov	r6, r1
 675 000e 9046     		mov	r8, r2
 676 0010 1F46     		mov	r7, r3
 677              		.loc 1 174 0
 678 0012 0446     		mov	r4, r0
 679 0014 00B1     		cbz	r0, .L59
 680              		.loc 1 174 0 is_stmt 0 discriminator 3
 681 0016 71BB     		cbnz	r1, .L77
 682              	.L59:
 683              		.loc 1 174 0 discriminator 8
 684 0018 1D48     		ldr	r0, .L80+4
ARM GAS  C:\Users\25521\AppData\Local\Temp\cccJFQJo.s 			page 13


 685              	.LVL58:
 686 001a FFF7FEFF 		bl	chSysHalt
 687              	.LVL59:
 688              	.L60:
 689              	.LBB237:
 690              	.LBB238:
 691              	.LBB239:
 692              	.LBB240:
 693              	.LBB241:
 694              	.LBB242:
 695              		.loc 3 548 0 is_stmt 1
 696 001e 2023     		movs	r3, #32
 697              		.syntax unified
 698              	@ 548 "../e-puck2_main-processor/ChibiOS//os/ext/CMSIS/include/core_cmFunc.h" 1
 699 0020 83F31188 		MSR basepri, r3
 700              	@ 0 "" 2
 701              	.LVL60:
 702              		.thumb
 703              		.syntax unified
 704              	.LBE242:
 705              	.LBE241:
 706              	.LBE240:
 707              		.loc 4 349 0
 708 0024 FFF7FEFF 		bl	_stats_start_measure_crit_thd
 709              	.LVL61:
 710              		.loc 4 350 0
 711 0028 FFF7FEFF 		bl	_dbg_check_lock
 712              	.LVL62:
 713              	.LBE239:
 714              	.LBE238:
 715              	.LBE237:
 716              		.loc 1 178 0
 717 002c 2378     		ldrb	r3, [r4]	@ zero_extendqisi2
 718 002e 022B     		cmp	r3, #2
 719 0030 02D0     		beq	.L61
 720              		.loc 1 178 0 is_stmt 0 discriminator 2
 721 0032 1748     		ldr	r0, .L80+4
 722 0034 FFF7FEFF 		bl	chSysHalt
 723              	.LVL63:
 724              	.L61:
 725              		.loc 1 179 0 is_stmt 1
 726 0038 0320     		movs	r0, #3
 727 003a 3B46     		mov	r3, r7
 728 003c 4246     		mov	r2, r8
 729 003e 3146     		mov	r1, r6
 730 0040 2070     		strb	r0, [r4]
 731 0042 2046     		mov	r0, r4
 732 0044 FFF7FEFF 		bl	spi3_slave_lld_exchange
 733              	.LVL64:
 734              	.LBB243:
 735              	.LBB244:
 736              	.LBB245:
 737              		.loc 4 360 0
 738 0048 FFF7FEFF 		bl	_dbg_check_unlock
 739              	.LVL65:
 740              		.loc 4 361 0
 741 004c FFF7FEFF 		bl	_stats_stop_measure_crit_thd
ARM GAS  C:\Users\25521\AppData\Local\Temp\cccJFQJo.s 			page 14


 742              	.LVL66:
 743              		.loc 4 367 0
 744 0050 104B     		ldr	r3, .L80+8
 745 0052 1A68     		ldr	r2, [r3]
 746 0054 9A42     		cmp	r2, r3
 747 0056 04D0     		beq	.L62
 748 0058 9969     		ldr	r1, [r3, #24]
 749 005a 9368     		ldr	r3, [r2, #8]
 750 005c 8A68     		ldr	r2, [r1, #8]
 751 005e 9A42     		cmp	r2, r3
 752 0060 0ED3     		bcc	.L78
 753              	.L62:
 754              	.LVL67:
 755              	.LBB246:
 756              	.LBB247:
 757              	.LBB248:
 758              		.loc 3 548 0
 759 0062 0023     		movs	r3, #0
 760              		.syntax unified
 761              	@ 548 "../e-puck2_main-processor/ChibiOS//os/ext/CMSIS/include/core_cmFunc.h" 1
 762 0064 83F31188 		MSR basepri, r3
 763              	@ 0 "" 2
 764              	.LVL68:
 765              		.thumb
 766              		.syntax unified
 767              	.LBE248:
 768              	.LBE247:
 769              	.LBE246:
 770              	.LBE245:
 771              	.LBE244:
 772              	.LBE243:
 773              		.loc 1 181 0
 774 0068 019A     		ldr	r2, [sp, #4]
 775 006a 2B68     		ldr	r3, [r5]
 776 006c 9A42     		cmp	r2, r3
 777 006e 0BD1     		bne	.L79
 778 0070 02B0     		add	sp, sp, #8
 779              		.cfi_remember_state
 780              		.cfi_def_cfa_offset 24
 781              		@ sp needed
 782 0072 BDE8F081 		pop	{r4, r5, r6, r7, r8, pc}
 783              	.LVL69:
 784              	.L77:
 785              		.cfi_restore_state
 786              		.loc 1 174 0 discriminator 5
 787 0076 002B     		cmp	r3, #0
 788 0078 CED0     		beq	.L59
 789              		.loc 1 174 0 is_stmt 0 discriminator 7
 790 007a 002A     		cmp	r2, #0
 791 007c CFD1     		bne	.L60
 792 007e CBE7     		b	.L59
 793              	.LVL70:
 794              	.L78:
 795              	.LBB251:
 796              	.LBB250:
 797              	.LBB249:
 798              		.loc 4 367 0 is_stmt 1
ARM GAS  C:\Users\25521\AppData\Local\Temp\cccJFQJo.s 			page 15


 799 0080 0548     		ldr	r0, .L80+12
 800 0082 FFF7FEFF 		bl	chSysHalt
 801              	.LVL71:
 802 0086 ECE7     		b	.L62
 803              	.L79:
 804              	.LBE249:
 805              	.LBE250:
 806              	.LBE251:
 807              		.loc 1 181 0
 808 0088 FFF7FEFF 		bl	__stack_chk_fail
 809              	.LVL72:
 810              	.L81:
 811              		.align	2
 812              	.L80:
 813 008c 00000000 		.word	__stack_chk_guard
 814 0090 00000000 		.word	.LANCHOR4
 815 0094 00000000 		.word	ch
 816 0098 00000000 		.word	.LANCHOR1
 817              		.cfi_endproc
 818              	.LFE272:
 819              		.size	spi3SlaveStartExchange, .-spi3SlaveStartExchange
 820              		.section	.text.spi3SlaveStartSend,"ax",%progbits
 821              		.align	1
 822              		.p2align 4,,15
 823              		.global	spi3SlaveStartSend
 824              		.syntax unified
 825              		.thumb
 826              		.thumb_func
 827              		.fpu fpv4-sp-d16
 828              		.type	spi3SlaveStartSend, %function
 829              	spi3SlaveStartSend:
 830              	.LFB273:
 831              		.loc 1 198 0
 832              		.cfi_startproc
 833              		@ args = 0, pretend = 0, frame = 8
 834              		@ frame_needed = 0, uses_anonymous_args = 0
 835              	.LVL73:
 836 0000 F0B5     		push	{r4, r5, r6, r7, lr}
 837              		.cfi_def_cfa_offset 20
 838              		.cfi_offset 4, -20
 839              		.cfi_offset 5, -16
 840              		.cfi_offset 6, -12
 841              		.cfi_offset 7, -8
 842              		.cfi_offset 14, -4
 843 0002 1F4D     		ldr	r5, .L101
 844 0004 83B0     		sub	sp, sp, #12
 845              		.cfi_def_cfa_offset 32
 846              		.loc 1 198 0
 847 0006 2B68     		ldr	r3, [r5]
 848 0008 0193     		str	r3, [sp, #4]
 849 000a 0E46     		mov	r6, r1
 850 000c 1746     		mov	r7, r2
 851              		.loc 1 200 0
 852 000e 0446     		mov	r4, r0
 853 0010 00B1     		cbz	r0, .L83
 854              		.loc 1 200 0 is_stmt 0 discriminator 3
 855 0012 61BB     		cbnz	r1, .L98
ARM GAS  C:\Users\25521\AppData\Local\Temp\cccJFQJo.s 			page 16


 856              	.L83:
 857              		.loc 1 200 0 discriminator 6
 858 0014 1B48     		ldr	r0, .L101+4
 859              	.LVL74:
 860 0016 FFF7FEFF 		bl	chSysHalt
 861              	.LVL75:
 862              	.L84:
 863              	.LBB265:
 864              	.LBB266:
 865              	.LBB267:
 866              	.LBB268:
 867              	.LBB269:
 868              	.LBB270:
 869              		.loc 3 548 0 is_stmt 1
 870 001a 2023     		movs	r3, #32
 871              		.syntax unified
 872              	@ 548 "../e-puck2_main-processor/ChibiOS//os/ext/CMSIS/include/core_cmFunc.h" 1
 873 001c 83F31188 		MSR basepri, r3
 874              	@ 0 "" 2
 875              	.LVL76:
 876              		.thumb
 877              		.syntax unified
 878              	.LBE270:
 879              	.LBE269:
 880              	.LBE268:
 881              		.loc 4 349 0
 882 0020 FFF7FEFF 		bl	_stats_start_measure_crit_thd
 883              	.LVL77:
 884              		.loc 4 350 0
 885 0024 FFF7FEFF 		bl	_dbg_check_lock
 886              	.LVL78:
 887              	.LBE267:
 888              	.LBE266:
 889              	.LBE265:
 890              		.loc 1 203 0
 891 0028 2378     		ldrb	r3, [r4]	@ zero_extendqisi2
 892 002a 022B     		cmp	r3, #2
 893 002c 02D0     		beq	.L85
 894              		.loc 1 203 0 is_stmt 0 discriminator 2
 895 002e 1548     		ldr	r0, .L101+4
 896 0030 FFF7FEFF 		bl	chSysHalt
 897              	.LVL79:
 898              	.L85:
 899              		.loc 1 204 0 is_stmt 1
 900 0034 0323     		movs	r3, #3
 901 0036 3A46     		mov	r2, r7
 902 0038 2370     		strb	r3, [r4]
 903 003a 3146     		mov	r1, r6
 904 003c 2046     		mov	r0, r4
 905 003e FFF7FEFF 		bl	spi3_slave_lld_send
 906              	.LVL80:
 907              	.LBB271:
 908              	.LBB272:
 909              	.LBB273:
 910              		.loc 4 360 0
 911 0042 FFF7FEFF 		bl	_dbg_check_unlock
 912              	.LVL81:
ARM GAS  C:\Users\25521\AppData\Local\Temp\cccJFQJo.s 			page 17


 913              		.loc 4 361 0
 914 0046 FFF7FEFF 		bl	_stats_stop_measure_crit_thd
 915              	.LVL82:
 916              		.loc 4 367 0
 917 004a 0F4B     		ldr	r3, .L101+8
 918 004c 1A68     		ldr	r2, [r3]
 919 004e 9A42     		cmp	r2, r3
 920 0050 04D0     		beq	.L86
 921 0052 9969     		ldr	r1, [r3, #24]
 922 0054 9368     		ldr	r3, [r2, #8]
 923 0056 8A68     		ldr	r2, [r1, #8]
 924 0058 9A42     		cmp	r2, r3
 925 005a 0BD3     		bcc	.L99
 926              	.L86:
 927              	.LVL83:
 928              	.LBB274:
 929              	.LBB275:
 930              	.LBB276:
 931              		.loc 3 548 0
 932 005c 0023     		movs	r3, #0
 933              		.syntax unified
 934              	@ 548 "../e-puck2_main-processor/ChibiOS//os/ext/CMSIS/include/core_cmFunc.h" 1
 935 005e 83F31188 		MSR basepri, r3
 936              	@ 0 "" 2
 937              	.LVL84:
 938              		.thumb
 939              		.syntax unified
 940              	.LBE276:
 941              	.LBE275:
 942              	.LBE274:
 943              	.LBE273:
 944              	.LBE272:
 945              	.LBE271:
 946              		.loc 1 206 0
 947 0062 019A     		ldr	r2, [sp, #4]
 948 0064 2B68     		ldr	r3, [r5]
 949 0066 9A42     		cmp	r2, r3
 950 0068 08D1     		bne	.L100
 951 006a 03B0     		add	sp, sp, #12
 952              		.cfi_remember_state
 953              		.cfi_def_cfa_offset 20
 954              		@ sp needed
 955 006c F0BD     		pop	{r4, r5, r6, r7, pc}
 956              	.LVL85:
 957              	.L98:
 958              		.cfi_restore_state
 959              		.loc 1 200 0 discriminator 5
 960 006e 002A     		cmp	r2, #0
 961 0070 D3D1     		bne	.L84
 962 0072 CFE7     		b	.L83
 963              	.LVL86:
 964              	.L99:
 965              	.LBB279:
 966              	.LBB278:
 967              	.LBB277:
 968              		.loc 4 367 0
 969 0074 0548     		ldr	r0, .L101+12
ARM GAS  C:\Users\25521\AppData\Local\Temp\cccJFQJo.s 			page 18


 970 0076 FFF7FEFF 		bl	chSysHalt
 971              	.LVL87:
 972 007a EFE7     		b	.L86
 973              	.L100:
 974              	.LBE277:
 975              	.LBE278:
 976              	.LBE279:
 977              		.loc 1 206 0
 978 007c FFF7FEFF 		bl	__stack_chk_fail
 979              	.LVL88:
 980              	.L102:
 981              		.align	2
 982              	.L101:
 983 0080 00000000 		.word	__stack_chk_guard
 984 0084 00000000 		.word	.LANCHOR5
 985 0088 00000000 		.word	ch
 986 008c 00000000 		.word	.LANCHOR1
 987              		.cfi_endproc
 988              	.LFE273:
 989              		.size	spi3SlaveStartSend, .-spi3SlaveStartSend
 990              		.section	.text.spi3SlaveStartReceive,"ax",%progbits
 991              		.align	1
 992              		.p2align 4,,15
 993              		.global	spi3SlaveStartReceive
 994              		.syntax unified
 995              		.thumb
 996              		.thumb_func
 997              		.fpu fpv4-sp-d16
 998              		.type	spi3SlaveStartReceive, %function
 999              	spi3SlaveStartReceive:
 1000              	.LFB274:
 1001              		.loc 1 223 0
 1002              		.cfi_startproc
 1003              		@ args = 0, pretend = 0, frame = 8
 1004              		@ frame_needed = 0, uses_anonymous_args = 0
 1005              	.LVL89:
 1006 0000 F0B5     		push	{r4, r5, r6, r7, lr}
 1007              		.cfi_def_cfa_offset 20
 1008              		.cfi_offset 4, -20
 1009              		.cfi_offset 5, -16
 1010              		.cfi_offset 6, -12
 1011              		.cfi_offset 7, -8
 1012              		.cfi_offset 14, -4
 1013 0002 1F4D     		ldr	r5, .L122
 1014 0004 83B0     		sub	sp, sp, #12
 1015              		.cfi_def_cfa_offset 32
 1016              		.loc 1 223 0
 1017 0006 2B68     		ldr	r3, [r5]
 1018 0008 0193     		str	r3, [sp, #4]
 1019 000a 0E46     		mov	r6, r1
 1020 000c 1746     		mov	r7, r2
 1021              		.loc 1 225 0
 1022 000e 0446     		mov	r4, r0
 1023 0010 00B1     		cbz	r0, .L104
 1024              		.loc 1 225 0 is_stmt 0 discriminator 3
 1025 0012 61BB     		cbnz	r1, .L119
 1026              	.L104:
ARM GAS  C:\Users\25521\AppData\Local\Temp\cccJFQJo.s 			page 19


 1027              		.loc 1 225 0 discriminator 6
 1028 0014 1B48     		ldr	r0, .L122+4
 1029              	.LVL90:
 1030 0016 FFF7FEFF 		bl	chSysHalt
 1031              	.LVL91:
 1032              	.L105:
 1033              	.LBB293:
 1034              	.LBB294:
 1035              	.LBB295:
 1036              	.LBB296:
 1037              	.LBB297:
 1038              	.LBB298:
 1039              		.loc 3 548 0 is_stmt 1
 1040 001a 2023     		movs	r3, #32
 1041              		.syntax unified
 1042              	@ 548 "../e-puck2_main-processor/ChibiOS//os/ext/CMSIS/include/core_cmFunc.h" 1
 1043 001c 83F31188 		MSR basepri, r3
 1044              	@ 0 "" 2
 1045              	.LVL92:
 1046              		.thumb
 1047              		.syntax unified
 1048              	.LBE298:
 1049              	.LBE297:
 1050              	.LBE296:
 1051              		.loc 4 349 0
 1052 0020 FFF7FEFF 		bl	_stats_start_measure_crit_thd
 1053              	.LVL93:
 1054              		.loc 4 350 0
 1055 0024 FFF7FEFF 		bl	_dbg_check_lock
 1056              	.LVL94:
 1057              	.LBE295:
 1058              	.LBE294:
 1059              	.LBE293:
 1060              		.loc 1 228 0
 1061 0028 2378     		ldrb	r3, [r4]	@ zero_extendqisi2
 1062 002a 022B     		cmp	r3, #2
 1063 002c 02D0     		beq	.L106
 1064              		.loc 1 228 0 is_stmt 0 discriminator 2
 1065 002e 1548     		ldr	r0, .L122+4
 1066 0030 FFF7FEFF 		bl	chSysHalt
 1067              	.LVL95:
 1068              	.L106:
 1069              		.loc 1 229 0 is_stmt 1
 1070 0034 0323     		movs	r3, #3
 1071 0036 3A46     		mov	r2, r7
 1072 0038 2370     		strb	r3, [r4]
 1073 003a 3146     		mov	r1, r6
 1074 003c 2046     		mov	r0, r4
 1075 003e FFF7FEFF 		bl	spi3_slave_lld_receive
 1076              	.LVL96:
 1077              	.LBB299:
 1078              	.LBB300:
 1079              	.LBB301:
 1080              		.loc 4 360 0
 1081 0042 FFF7FEFF 		bl	_dbg_check_unlock
 1082              	.LVL97:
 1083              		.loc 4 361 0
ARM GAS  C:\Users\25521\AppData\Local\Temp\cccJFQJo.s 			page 20


 1084 0046 FFF7FEFF 		bl	_stats_stop_measure_crit_thd
 1085              	.LVL98:
 1086              		.loc 4 367 0
 1087 004a 0F4B     		ldr	r3, .L122+8
 1088 004c 1A68     		ldr	r2, [r3]
 1089 004e 9A42     		cmp	r2, r3
 1090 0050 04D0     		beq	.L107
 1091 0052 9969     		ldr	r1, [r3, #24]
 1092 0054 9368     		ldr	r3, [r2, #8]
 1093 0056 8A68     		ldr	r2, [r1, #8]
 1094 0058 9A42     		cmp	r2, r3
 1095 005a 0BD3     		bcc	.L120
 1096              	.L107:
 1097              	.LVL99:
 1098              	.LBB302:
 1099              	.LBB303:
 1100              	.LBB304:
 1101              		.loc 3 548 0
 1102 005c 0023     		movs	r3, #0
 1103              		.syntax unified
 1104              	@ 548 "../e-puck2_main-processor/ChibiOS//os/ext/CMSIS/include/core_cmFunc.h" 1
 1105 005e 83F31188 		MSR basepri, r3
 1106              	@ 0 "" 2
 1107              	.LVL100:
 1108              		.thumb
 1109              		.syntax unified
 1110              	.LBE304:
 1111              	.LBE303:
 1112              	.LBE302:
 1113              	.LBE301:
 1114              	.LBE300:
 1115              	.LBE299:
 1116              		.loc 1 231 0
 1117 0062 019A     		ldr	r2, [sp, #4]
 1118 0064 2B68     		ldr	r3, [r5]
 1119 0066 9A42     		cmp	r2, r3
 1120 0068 08D1     		bne	.L121
 1121 006a 03B0     		add	sp, sp, #12
 1122              		.cfi_remember_state
 1123              		.cfi_def_cfa_offset 20
 1124              		@ sp needed
 1125 006c F0BD     		pop	{r4, r5, r6, r7, pc}
 1126              	.LVL101:
 1127              	.L119:
 1128              		.cfi_restore_state
 1129              		.loc 1 225 0 discriminator 5
 1130 006e 002A     		cmp	r2, #0
 1131 0070 D3D1     		bne	.L105
 1132 0072 CFE7     		b	.L104
 1133              	.LVL102:
 1134              	.L120:
 1135              	.LBB307:
 1136              	.LBB306:
 1137              	.LBB305:
 1138              		.loc 4 367 0
 1139 0074 0548     		ldr	r0, .L122+12
 1140 0076 FFF7FEFF 		bl	chSysHalt
ARM GAS  C:\Users\25521\AppData\Local\Temp\cccJFQJo.s 			page 21


 1141              	.LVL103:
 1142 007a EFE7     		b	.L107
 1143              	.L121:
 1144              	.LBE305:
 1145              	.LBE306:
 1146              	.LBE307:
 1147              		.loc 1 231 0
 1148 007c FFF7FEFF 		bl	__stack_chk_fail
 1149              	.LVL104:
 1150              	.L123:
 1151              		.align	2
 1152              	.L122:
 1153 0080 00000000 		.word	__stack_chk_guard
 1154 0084 00000000 		.word	.LANCHOR6
 1155 0088 00000000 		.word	ch
 1156 008c 00000000 		.word	.LANCHOR1
 1157              		.cfi_endproc
 1158              	.LFE274:
 1159              		.size	spi3SlaveStartReceive, .-spi3SlaveStartReceive
 1160              		.section	.text.spi3SlaveIgnore,"ax",%progbits
 1161              		.align	1
 1162              		.p2align 4,,15
 1163              		.global	spi3SlaveIgnore
 1164              		.syntax unified
 1165              		.thumb
 1166              		.thumb_func
 1167              		.fpu fpv4-sp-d16
 1168              		.type	spi3SlaveIgnore, %function
 1169              	spi3SlaveIgnore:
 1170              	.LFB275:
 1171              		.loc 1 248 0
 1172              		.cfi_startproc
 1173              		@ args = 0, pretend = 0, frame = 8
 1174              		@ frame_needed = 0, uses_anonymous_args = 0
 1175              	.LVL105:
 1176 0000 70B5     		push	{r4, r5, r6, lr}
 1177              		.cfi_def_cfa_offset 16
 1178              		.cfi_offset 4, -16
 1179              		.cfi_offset 5, -12
 1180              		.cfi_offset 6, -8
 1181              		.cfi_offset 14, -4
 1182 0002 234D     		ldr	r5, .L143
 1183 0004 82B0     		sub	sp, sp, #8
 1184              		.cfi_def_cfa_offset 24
 1185              		.loc 1 248 0
 1186 0006 2B68     		ldr	r3, [r5]
 1187 0008 0193     		str	r3, [sp, #4]
 1188 000a 0E46     		mov	r6, r1
 1189              		.loc 1 250 0
 1190 000c 0446     		mov	r4, r0
 1191 000e 0028     		cmp	r0, #0
 1192 0010 33D0     		beq	.L125
 1193              		.loc 1 250 0 is_stmt 0 discriminator 3
 1194 0012 91B3     		cbz	r1, .L125
 1195              	.LVL106:
 1196              	.L126:
 1197              	.LBB323:
ARM GAS  C:\Users\25521\AppData\Local\Temp\cccJFQJo.s 			page 22


 1198              	.LBB324:
 1199              	.LBB325:
 1200              	.LBB326:
 1201              	.LBB327:
 1202              	.LBB328:
 1203              		.loc 3 548 0 is_stmt 1
 1204 0014 2023     		movs	r3, #32
 1205              		.syntax unified
 1206              	@ 548 "../e-puck2_main-processor/ChibiOS//os/ext/CMSIS/include/core_cmFunc.h" 1
 1207 0016 83F31188 		MSR basepri, r3
 1208              	@ 0 "" 2
 1209              	.LVL107:
 1210              		.thumb
 1211              		.syntax unified
 1212              	.LBE328:
 1213              	.LBE327:
 1214              	.LBE326:
 1215              		.loc 4 349 0
 1216 001a FFF7FEFF 		bl	_stats_start_measure_crit_thd
 1217              	.LVL108:
 1218              		.loc 4 350 0
 1219 001e FFF7FEFF 		bl	_dbg_check_lock
 1220              	.LVL109:
 1221              	.LBE325:
 1222              	.LBE324:
 1223              	.LBE323:
 1224              		.loc 1 253 0
 1225 0022 2378     		ldrb	r3, [r4]	@ zero_extendqisi2
 1226 0024 022B     		cmp	r3, #2
 1227 0026 02D0     		beq	.L127
 1228              		.loc 1 253 0 is_stmt 0 discriminator 2
 1229 0028 1A48     		ldr	r0, .L143+4
 1230 002a FFF7FEFF 		bl	chSysHalt
 1231              	.LVL110:
 1232              	.L127:
 1233              		.loc 1 254 0 is_stmt 1 discriminator 1
 1234 002e 6368     		ldr	r3, [r4, #4]
 1235 0030 1B68     		ldr	r3, [r3]
 1236 0032 13B1     		cbz	r3, .L128
 1237              		.loc 1 254 0 is_stmt 0 discriminator 2
 1238 0034 1748     		ldr	r0, .L143+4
 1239 0036 FFF7FEFF 		bl	chSysHalt
 1240              	.LVL111:
 1241              	.L128:
 1242              		.loc 1 255 0 is_stmt 1
 1243 003a 0323     		movs	r3, #3
 1244 003c 2370     		strb	r3, [r4]
 1245 003e 3146     		mov	r1, r6
 1246 0040 2046     		mov	r0, r4
 1247 0042 FFF7FEFF 		bl	spi3_slave_lld_ignore
 1248              	.LVL112:
 1249              	.LBB329:
 1250              	.LBB330:
 1251              		.loc 2 688 0
 1252 0046 04F10800 		add	r0, r4, #8
 1253              	.LVL113:
 1254 004a FFF7FEFF 		bl	chThdSuspendS
ARM GAS  C:\Users\25521\AppData\Local\Temp\cccJFQJo.s 			page 23


 1255              	.LVL114:
 1256              	.LBE330:
 1257              	.LBE329:
 1258              	.LBB331:
 1259              	.LBB332:
 1260              	.LBB333:
 1261              		.loc 4 360 0
 1262 004e FFF7FEFF 		bl	_dbg_check_unlock
 1263              	.LVL115:
 1264              		.loc 4 361 0
 1265 0052 FFF7FEFF 		bl	_stats_stop_measure_crit_thd
 1266              	.LVL116:
 1267              		.loc 4 367 0
 1268 0056 104B     		ldr	r3, .L143+8
 1269 0058 1A68     		ldr	r2, [r3]
 1270 005a 9A42     		cmp	r2, r3
 1271 005c 04D0     		beq	.L129
 1272 005e 9969     		ldr	r1, [r3, #24]
 1273 0060 9368     		ldr	r3, [r2, #8]
 1274 0062 8A68     		ldr	r2, [r1, #8]
 1275 0064 9A42     		cmp	r2, r3
 1276 0066 0CD3     		bcc	.L141
 1277              	.L129:
 1278              	.LVL117:
 1279              	.LBB334:
 1280              	.LBB335:
 1281              	.LBB336:
 1282              		.loc 3 548 0
 1283 0068 0023     		movs	r3, #0
 1284              		.syntax unified
 1285              	@ 548 "../e-puck2_main-processor/ChibiOS//os/ext/CMSIS/include/core_cmFunc.h" 1
 1286 006a 83F31188 		MSR basepri, r3
 1287              	@ 0 "" 2
 1288              	.LVL118:
 1289              		.thumb
 1290              		.syntax unified
 1291              	.LBE336:
 1292              	.LBE335:
 1293              	.LBE334:
 1294              	.LBE333:
 1295              	.LBE332:
 1296              	.LBE331:
 1297              		.loc 1 258 0
 1298 006e 019A     		ldr	r2, [sp, #4]
 1299 0070 2B68     		ldr	r3, [r5]
 1300 0072 9A42     		cmp	r2, r3
 1301 0074 09D1     		bne	.L142
 1302 0076 02B0     		add	sp, sp, #8
 1303              		.cfi_remember_state
 1304              		.cfi_def_cfa_offset 16
 1305              		@ sp needed
 1306 0078 70BD     		pop	{r4, r5, r6, pc}
 1307              	.LVL119:
 1308              	.L125:
 1309              		.cfi_restore_state
 1310              		.loc 1 250 0 discriminator 4
 1311 007a 0648     		ldr	r0, .L143+4
ARM GAS  C:\Users\25521\AppData\Local\Temp\cccJFQJo.s 			page 24


 1312              	.LVL120:
 1313 007c FFF7FEFF 		bl	chSysHalt
 1314              	.LVL121:
 1315 0080 C8E7     		b	.L126
 1316              	.L141:
 1317              	.LBB339:
 1318              	.LBB338:
 1319              	.LBB337:
 1320              		.loc 4 367 0
 1321 0082 0648     		ldr	r0, .L143+12
 1322 0084 FFF7FEFF 		bl	chSysHalt
 1323              	.LVL122:
 1324 0088 EEE7     		b	.L129
 1325              	.L142:
 1326              	.LBE337:
 1327              	.LBE338:
 1328              	.LBE339:
 1329              		.loc 1 258 0
 1330 008a FFF7FEFF 		bl	__stack_chk_fail
 1331              	.LVL123:
 1332              	.L144:
 1333 008e 00BF     		.align	2
 1334              	.L143:
 1335 0090 00000000 		.word	__stack_chk_guard
 1336 0094 00000000 		.word	.LANCHOR7
 1337 0098 00000000 		.word	ch
 1338 009c 00000000 		.word	.LANCHOR1
 1339              		.cfi_endproc
 1340              	.LFE275:
 1341              		.size	spi3SlaveIgnore, .-spi3SlaveIgnore
 1342              		.section	.text.spi3SlaveExchange,"ax",%progbits
 1343              		.align	1
 1344              		.p2align 4,,15
 1345              		.global	spi3SlaveExchange
 1346              		.syntax unified
 1347              		.thumb
 1348              		.thumb_func
 1349              		.fpu fpv4-sp-d16
 1350              		.type	spi3SlaveExchange, %function
 1351              	spi3SlaveExchange:
 1352              	.LFB276:
 1353              		.loc 1 279 0
 1354              		.cfi_startproc
 1355              		@ args = 0, pretend = 0, frame = 8
 1356              		@ frame_needed = 0, uses_anonymous_args = 0
 1357              	.LVL124:
 1358 0000 2DE9F041 		push	{r4, r5, r6, r7, r8, lr}
 1359              		.cfi_def_cfa_offset 24
 1360              		.cfi_offset 4, -24
 1361              		.cfi_offset 5, -20
 1362              		.cfi_offset 6, -16
 1363              		.cfi_offset 7, -12
 1364              		.cfi_offset 8, -8
 1365              		.cfi_offset 14, -4
 1366 0004 274D     		ldr	r5, .L171
 1367 0006 82B0     		sub	sp, sp, #8
 1368              		.cfi_def_cfa_offset 32
ARM GAS  C:\Users\25521\AppData\Local\Temp\cccJFQJo.s 			page 25


 1369              		.loc 1 279 0
 1370 0008 2C68     		ldr	r4, [r5]
 1371 000a 0194     		str	r4, [sp, #4]
 1372 000c 0E46     		mov	r6, r1
 1373 000e 9046     		mov	r8, r2
 1374 0010 1F46     		mov	r7, r3
 1375              		.loc 1 281 0
 1376 0012 0446     		mov	r4, r0
 1377 0014 08B1     		cbz	r0, .L146
 1378              		.loc 1 281 0 is_stmt 0 discriminator 3
 1379 0016 0029     		cmp	r1, #0
 1380 0018 38D1     		bne	.L168
 1381              	.L146:
 1382              		.loc 1 281 0 discriminator 8
 1383 001a 2348     		ldr	r0, .L171+4
 1384              	.LVL125:
 1385 001c FFF7FEFF 		bl	chSysHalt
 1386              	.LVL126:
 1387              	.L147:
 1388              	.LBB355:
 1389              	.LBB356:
 1390              	.LBB357:
 1391              	.LBB358:
 1392              	.LBB359:
 1393              	.LBB360:
 1394              		.loc 3 548 0 is_stmt 1
 1395 0020 2023     		movs	r3, #32
 1396              		.syntax unified
 1397              	@ 548 "../e-puck2_main-processor/ChibiOS//os/ext/CMSIS/include/core_cmFunc.h" 1
 1398 0022 83F31188 		MSR basepri, r3
 1399              	@ 0 "" 2
 1400              	.LVL127:
 1401              		.thumb
 1402              		.syntax unified
 1403              	.LBE360:
 1404              	.LBE359:
 1405              	.LBE358:
 1406              		.loc 4 349 0
 1407 0026 FFF7FEFF 		bl	_stats_start_measure_crit_thd
 1408              	.LVL128:
 1409              		.loc 4 350 0
 1410 002a FFF7FEFF 		bl	_dbg_check_lock
 1411              	.LVL129:
 1412              	.LBE357:
 1413              	.LBE356:
 1414              	.LBE355:
 1415              		.loc 1 285 0
 1416 002e 2378     		ldrb	r3, [r4]	@ zero_extendqisi2
 1417 0030 022B     		cmp	r3, #2
 1418 0032 02D0     		beq	.L148
 1419              		.loc 1 285 0 is_stmt 0 discriminator 2
 1420 0034 1C48     		ldr	r0, .L171+4
 1421 0036 FFF7FEFF 		bl	chSysHalt
 1422              	.LVL130:
 1423              	.L148:
 1424              		.loc 1 286 0 is_stmt 1 discriminator 1
 1425 003a 6368     		ldr	r3, [r4, #4]
ARM GAS  C:\Users\25521\AppData\Local\Temp\cccJFQJo.s 			page 26


 1426 003c 1B68     		ldr	r3, [r3]
 1427 003e 13B1     		cbz	r3, .L149
 1428              		.loc 1 286 0 is_stmt 0 discriminator 2
 1429 0040 1948     		ldr	r0, .L171+4
 1430 0042 FFF7FEFF 		bl	chSysHalt
 1431              	.LVL131:
 1432              	.L149:
 1433              		.loc 1 287 0 is_stmt 1
 1434 0046 0320     		movs	r0, #3
 1435 0048 3B46     		mov	r3, r7
 1436 004a 4246     		mov	r2, r8
 1437 004c 3146     		mov	r1, r6
 1438 004e 2070     		strb	r0, [r4]
 1439 0050 2046     		mov	r0, r4
 1440 0052 FFF7FEFF 		bl	spi3_slave_lld_exchange
 1441              	.LVL132:
 1442              	.LBB361:
 1443              	.LBB362:
 1444              		.loc 2 688 0
 1445 0056 04F10800 		add	r0, r4, #8
 1446              	.LVL133:
 1447 005a FFF7FEFF 		bl	chThdSuspendS
 1448              	.LVL134:
 1449              	.LBE362:
 1450              	.LBE361:
 1451              	.LBB363:
 1452              	.LBB364:
 1453              	.LBB365:
 1454              		.loc 4 360 0
 1455 005e FFF7FEFF 		bl	_dbg_check_unlock
 1456              	.LVL135:
 1457              		.loc 4 361 0
 1458 0062 FFF7FEFF 		bl	_stats_stop_measure_crit_thd
 1459              	.LVL136:
 1460              		.loc 4 367 0
 1461 0066 114B     		ldr	r3, .L171+8
 1462 0068 1A68     		ldr	r2, [r3]
 1463 006a 9A42     		cmp	r2, r3
 1464 006c 04D0     		beq	.L150
 1465 006e 9969     		ldr	r1, [r3, #24]
 1466 0070 9368     		ldr	r3, [r2, #8]
 1467 0072 8A68     		ldr	r2, [r1, #8]
 1468 0074 9A42     		cmp	r2, r3
 1469 0076 0ED3     		bcc	.L169
 1470              	.L150:
 1471              	.LVL137:
 1472              	.LBB366:
 1473              	.LBB367:
 1474              	.LBB368:
 1475              		.loc 3 548 0
 1476 0078 0023     		movs	r3, #0
 1477              		.syntax unified
 1478              	@ 548 "../e-puck2_main-processor/ChibiOS//os/ext/CMSIS/include/core_cmFunc.h" 1
 1479 007a 83F31188 		MSR basepri, r3
 1480              	@ 0 "" 2
 1481              	.LVL138:
 1482              		.thumb
ARM GAS  C:\Users\25521\AppData\Local\Temp\cccJFQJo.s 			page 27


 1483              		.syntax unified
 1484              	.LBE368:
 1485              	.LBE367:
 1486              	.LBE366:
 1487              	.LBE365:
 1488              	.LBE364:
 1489              	.LBE363:
 1490              		.loc 1 290 0
 1491 007e 019A     		ldr	r2, [sp, #4]
 1492 0080 2B68     		ldr	r3, [r5]
 1493 0082 9A42     		cmp	r2, r3
 1494 0084 0BD1     		bne	.L170
 1495 0086 02B0     		add	sp, sp, #8
 1496              		.cfi_remember_state
 1497              		.cfi_def_cfa_offset 24
 1498              		@ sp needed
 1499 0088 BDE8F081 		pop	{r4, r5, r6, r7, r8, pc}
 1500              	.LVL139:
 1501              	.L168:
 1502              		.cfi_restore_state
 1503              		.loc 1 281 0 discriminator 5
 1504 008c 002B     		cmp	r3, #0
 1505 008e C4D0     		beq	.L146
 1506              		.loc 1 281 0 is_stmt 0 discriminator 7
 1507 0090 002A     		cmp	r2, #0
 1508 0092 C5D1     		bne	.L147
 1509 0094 C1E7     		b	.L146
 1510              	.LVL140:
 1511              	.L169:
 1512              	.LBB371:
 1513              	.LBB370:
 1514              	.LBB369:
 1515              		.loc 4 367 0 is_stmt 1
 1516 0096 0648     		ldr	r0, .L171+12
 1517 0098 FFF7FEFF 		bl	chSysHalt
 1518              	.LVL141:
 1519 009c ECE7     		b	.L150
 1520              	.L170:
 1521              	.LBE369:
 1522              	.LBE370:
 1523              	.LBE371:
 1524              		.loc 1 290 0
 1525 009e FFF7FEFF 		bl	__stack_chk_fail
 1526              	.LVL142:
 1527              	.L172:
 1528 00a2 00BF     		.align	2
 1529              	.L171:
 1530 00a4 00000000 		.word	__stack_chk_guard
 1531 00a8 00000000 		.word	.LANCHOR8
 1532 00ac 00000000 		.word	ch
 1533 00b0 00000000 		.word	.LANCHOR1
 1534              		.cfi_endproc
 1535              	.LFE276:
 1536              		.size	spi3SlaveExchange, .-spi3SlaveExchange
 1537              		.section	.text.spi3SlaveSend,"ax",%progbits
 1538              		.align	1
 1539              		.p2align 4,,15
ARM GAS  C:\Users\25521\AppData\Local\Temp\cccJFQJo.s 			page 28


 1540              		.global	spi3SlaveSend
 1541              		.syntax unified
 1542              		.thumb
 1543              		.thumb_func
 1544              		.fpu fpv4-sp-d16
 1545              		.type	spi3SlaveSend, %function
 1546              	spi3SlaveSend:
 1547              	.LFB277:
 1548              		.loc 1 308 0
 1549              		.cfi_startproc
 1550              		@ args = 0, pretend = 0, frame = 8
 1551              		@ frame_needed = 0, uses_anonymous_args = 0
 1552              	.LVL143:
 1553 0000 F0B5     		push	{r4, r5, r6, r7, lr}
 1554              		.cfi_def_cfa_offset 20
 1555              		.cfi_offset 4, -20
 1556              		.cfi_offset 5, -16
 1557              		.cfi_offset 6, -12
 1558              		.cfi_offset 7, -8
 1559              		.cfi_offset 14, -4
 1560 0002 254D     		ldr	r5, .L196
 1561 0004 83B0     		sub	sp, sp, #12
 1562              		.cfi_def_cfa_offset 32
 1563              		.loc 1 308 0
 1564 0006 2B68     		ldr	r3, [r5]
 1565 0008 0193     		str	r3, [sp, #4]
 1566 000a 0E46     		mov	r6, r1
 1567 000c 1746     		mov	r7, r2
 1568              		.loc 1 310 0
 1569 000e 0446     		mov	r4, r0
 1570 0010 08B1     		cbz	r0, .L174
 1571              		.loc 1 310 0 is_stmt 0 discriminator 3
 1572 0012 0029     		cmp	r1, #0
 1573 0014 36D1     		bne	.L193
 1574              	.L174:
 1575              		.loc 1 310 0 discriminator 6
 1576 0016 2148     		ldr	r0, .L196+4
 1577              	.LVL144:
 1578 0018 FFF7FEFF 		bl	chSysHalt
 1579              	.LVL145:
 1580              	.L175:
 1581              	.LBB387:
 1582              	.LBB388:
 1583              	.LBB389:
 1584              	.LBB390:
 1585              	.LBB391:
 1586              	.LBB392:
 1587              		.loc 3 548 0 is_stmt 1
 1588 001c 2023     		movs	r3, #32
 1589              		.syntax unified
 1590              	@ 548 "../e-puck2_main-processor/ChibiOS//os/ext/CMSIS/include/core_cmFunc.h" 1
 1591 001e 83F31188 		MSR basepri, r3
 1592              	@ 0 "" 2
 1593              	.LVL146:
 1594              		.thumb
 1595              		.syntax unified
 1596              	.LBE392:
ARM GAS  C:\Users\25521\AppData\Local\Temp\cccJFQJo.s 			page 29


 1597              	.LBE391:
 1598              	.LBE390:
 1599              		.loc 4 349 0
 1600 0022 FFF7FEFF 		bl	_stats_start_measure_crit_thd
 1601              	.LVL147:
 1602              		.loc 4 350 0
 1603 0026 FFF7FEFF 		bl	_dbg_check_lock
 1604              	.LVL148:
 1605              	.LBE389:
 1606              	.LBE388:
 1607              	.LBE387:
 1608              		.loc 1 313 0
 1609 002a 2378     		ldrb	r3, [r4]	@ zero_extendqisi2
 1610 002c 022B     		cmp	r3, #2
 1611 002e 02D0     		beq	.L176
 1612              		.loc 1 313 0 is_stmt 0 discriminator 2
 1613 0030 1A48     		ldr	r0, .L196+4
 1614 0032 FFF7FEFF 		bl	chSysHalt
 1615              	.LVL149:
 1616              	.L176:
 1617              		.loc 1 314 0 is_stmt 1 discriminator 1
 1618 0036 6368     		ldr	r3, [r4, #4]
 1619 0038 1B68     		ldr	r3, [r3]
 1620 003a 13B1     		cbz	r3, .L177
 1621              		.loc 1 314 0 is_stmt 0 discriminator 2
 1622 003c 1748     		ldr	r0, .L196+4
 1623 003e FFF7FEFF 		bl	chSysHalt
 1624              	.LVL150:
 1625              	.L177:
 1626              		.loc 1 315 0 is_stmt 1
 1627 0042 0323     		movs	r3, #3
 1628 0044 3A46     		mov	r2, r7
 1629 0046 2370     		strb	r3, [r4]
 1630 0048 3146     		mov	r1, r6
 1631 004a 2046     		mov	r0, r4
 1632 004c FFF7FEFF 		bl	spi3_slave_lld_send
 1633              	.LVL151:
 1634              	.LBB393:
 1635              	.LBB394:
 1636              		.loc 2 688 0
 1637 0050 04F10800 		add	r0, r4, #8
 1638              	.LVL152:
 1639 0054 FFF7FEFF 		bl	chThdSuspendS
 1640              	.LVL153:
 1641              	.LBE394:
 1642              	.LBE393:
 1643              	.LBB395:
 1644              	.LBB396:
 1645              	.LBB397:
 1646              		.loc 4 360 0
 1647 0058 FFF7FEFF 		bl	_dbg_check_unlock
 1648              	.LVL154:
 1649              		.loc 4 361 0
 1650 005c FFF7FEFF 		bl	_stats_stop_measure_crit_thd
 1651              	.LVL155:
 1652              		.loc 4 367 0
 1653 0060 0F4B     		ldr	r3, .L196+8
ARM GAS  C:\Users\25521\AppData\Local\Temp\cccJFQJo.s 			page 30


 1654 0062 1A68     		ldr	r2, [r3]
 1655 0064 9A42     		cmp	r2, r3
 1656 0066 04D0     		beq	.L178
 1657 0068 9969     		ldr	r1, [r3, #24]
 1658 006a 9368     		ldr	r3, [r2, #8]
 1659 006c 8A68     		ldr	r2, [r1, #8]
 1660 006e 9A42     		cmp	r2, r3
 1661 0070 0BD3     		bcc	.L194
 1662              	.L178:
 1663              	.LVL156:
 1664              	.LBB398:
 1665              	.LBB399:
 1666              	.LBB400:
 1667              		.loc 3 548 0
 1668 0072 0023     		movs	r3, #0
 1669              		.syntax unified
 1670              	@ 548 "../e-puck2_main-processor/ChibiOS//os/ext/CMSIS/include/core_cmFunc.h" 1
 1671 0074 83F31188 		MSR basepri, r3
 1672              	@ 0 "" 2
 1673              	.LVL157:
 1674              		.thumb
 1675              		.syntax unified
 1676              	.LBE400:
 1677              	.LBE399:
 1678              	.LBE398:
 1679              	.LBE397:
 1680              	.LBE396:
 1681              	.LBE395:
 1682              		.loc 1 318 0
 1683 0078 019A     		ldr	r2, [sp, #4]
 1684 007a 2B68     		ldr	r3, [r5]
 1685 007c 9A42     		cmp	r2, r3
 1686 007e 08D1     		bne	.L195
 1687 0080 03B0     		add	sp, sp, #12
 1688              		.cfi_remember_state
 1689              		.cfi_def_cfa_offset 20
 1690              		@ sp needed
 1691 0082 F0BD     		pop	{r4, r5, r6, r7, pc}
 1692              	.LVL158:
 1693              	.L193:
 1694              		.cfi_restore_state
 1695              		.loc 1 310 0 discriminator 5
 1696 0084 002A     		cmp	r2, #0
 1697 0086 C9D1     		bne	.L175
 1698 0088 C5E7     		b	.L174
 1699              	.LVL159:
 1700              	.L194:
 1701              	.LBB403:
 1702              	.LBB402:
 1703              	.LBB401:
 1704              		.loc 4 367 0
 1705 008a 0648     		ldr	r0, .L196+12
 1706 008c FFF7FEFF 		bl	chSysHalt
 1707              	.LVL160:
 1708 0090 EFE7     		b	.L178
 1709              	.L195:
 1710              	.LBE401:
ARM GAS  C:\Users\25521\AppData\Local\Temp\cccJFQJo.s 			page 31


 1711              	.LBE402:
 1712              	.LBE403:
 1713              		.loc 1 318 0
 1714 0092 FFF7FEFF 		bl	__stack_chk_fail
 1715              	.LVL161:
 1716              	.L197:
 1717 0096 00BF     		.align	2
 1718              	.L196:
 1719 0098 00000000 		.word	__stack_chk_guard
 1720 009c 00000000 		.word	.LANCHOR9
 1721 00a0 00000000 		.word	ch
 1722 00a4 00000000 		.word	.LANCHOR1
 1723              		.cfi_endproc
 1724              	.LFE277:
 1725              		.size	spi3SlaveSend, .-spi3SlaveSend
 1726              		.section	.text.spi3SlaveReceive,"ax",%progbits
 1727              		.align	1
 1728              		.p2align 4,,15
 1729              		.global	spi3SlaveReceive
 1730              		.syntax unified
 1731              		.thumb
 1732              		.thumb_func
 1733              		.fpu fpv4-sp-d16
 1734              		.type	spi3SlaveReceive, %function
 1735              	spi3SlaveReceive:
 1736              	.LFB278:
 1737              		.loc 1 336 0
 1738              		.cfi_startproc
 1739              		@ args = 0, pretend = 0, frame = 8
 1740              		@ frame_needed = 0, uses_anonymous_args = 0
 1741              	.LVL162:
 1742 0000 F0B5     		push	{r4, r5, r6, r7, lr}
 1743              		.cfi_def_cfa_offset 20
 1744              		.cfi_offset 4, -20
 1745              		.cfi_offset 5, -16
 1746              		.cfi_offset 6, -12
 1747              		.cfi_offset 7, -8
 1748              		.cfi_offset 14, -4
 1749 0002 254D     		ldr	r5, .L221
 1750 0004 83B0     		sub	sp, sp, #12
 1751              		.cfi_def_cfa_offset 32
 1752              		.loc 1 336 0
 1753 0006 2B68     		ldr	r3, [r5]
 1754 0008 0193     		str	r3, [sp, #4]
 1755 000a 0E46     		mov	r6, r1
 1756 000c 1746     		mov	r7, r2
 1757              		.loc 1 338 0
 1758 000e 0446     		mov	r4, r0
 1759 0010 08B1     		cbz	r0, .L199
 1760              		.loc 1 338 0 is_stmt 0 discriminator 3
 1761 0012 0029     		cmp	r1, #0
 1762 0014 36D1     		bne	.L218
 1763              	.L199:
 1764              		.loc 1 338 0 discriminator 6
 1765 0016 2148     		ldr	r0, .L221+4
 1766              	.LVL163:
 1767 0018 FFF7FEFF 		bl	chSysHalt
ARM GAS  C:\Users\25521\AppData\Local\Temp\cccJFQJo.s 			page 32


 1768              	.LVL164:
 1769              	.L200:
 1770              	.LBB419:
 1771              	.LBB420:
 1772              	.LBB421:
 1773              	.LBB422:
 1774              	.LBB423:
 1775              	.LBB424:
 1776              		.loc 3 548 0 is_stmt 1
 1777 001c 2023     		movs	r3, #32
 1778              		.syntax unified
 1779              	@ 548 "../e-puck2_main-processor/ChibiOS//os/ext/CMSIS/include/core_cmFunc.h" 1
 1780 001e 83F31188 		MSR basepri, r3
 1781              	@ 0 "" 2
 1782              	.LVL165:
 1783              		.thumb
 1784              		.syntax unified
 1785              	.LBE424:
 1786              	.LBE423:
 1787              	.LBE422:
 1788              		.loc 4 349 0
 1789 0022 FFF7FEFF 		bl	_stats_start_measure_crit_thd
 1790              	.LVL166:
 1791              		.loc 4 350 0
 1792 0026 FFF7FEFF 		bl	_dbg_check_lock
 1793              	.LVL167:
 1794              	.LBE421:
 1795              	.LBE420:
 1796              	.LBE419:
 1797              		.loc 1 341 0
 1798 002a 2378     		ldrb	r3, [r4]	@ zero_extendqisi2
 1799 002c 022B     		cmp	r3, #2
 1800 002e 02D0     		beq	.L201
 1801              		.loc 1 341 0 is_stmt 0 discriminator 2
 1802 0030 1A48     		ldr	r0, .L221+4
 1803 0032 FFF7FEFF 		bl	chSysHalt
 1804              	.LVL168:
 1805              	.L201:
 1806              		.loc 1 342 0 is_stmt 1 discriminator 1
 1807 0036 6368     		ldr	r3, [r4, #4]
 1808 0038 1B68     		ldr	r3, [r3]
 1809 003a 13B1     		cbz	r3, .L202
 1810              		.loc 1 342 0 is_stmt 0 discriminator 2
 1811 003c 1748     		ldr	r0, .L221+4
 1812 003e FFF7FEFF 		bl	chSysHalt
 1813              	.LVL169:
 1814              	.L202:
 1815              		.loc 1 343 0 is_stmt 1
 1816 0042 0323     		movs	r3, #3
 1817 0044 3A46     		mov	r2, r7
 1818 0046 2370     		strb	r3, [r4]
 1819 0048 3146     		mov	r1, r6
 1820 004a 2046     		mov	r0, r4
 1821 004c FFF7FEFF 		bl	spi3_slave_lld_receive
 1822              	.LVL170:
 1823              	.LBB425:
 1824              	.LBB426:
ARM GAS  C:\Users\25521\AppData\Local\Temp\cccJFQJo.s 			page 33


 1825              		.loc 2 688 0
 1826 0050 04F10800 		add	r0, r4, #8
 1827              	.LVL171:
 1828 0054 FFF7FEFF 		bl	chThdSuspendS
 1829              	.LVL172:
 1830              	.LBE426:
 1831              	.LBE425:
 1832              	.LBB427:
 1833              	.LBB428:
 1834              	.LBB429:
 1835              		.loc 4 360 0
 1836 0058 FFF7FEFF 		bl	_dbg_check_unlock
 1837              	.LVL173:
 1838              		.loc 4 361 0
 1839 005c FFF7FEFF 		bl	_stats_stop_measure_crit_thd
 1840              	.LVL174:
 1841              		.loc 4 367 0
 1842 0060 0F4B     		ldr	r3, .L221+8
 1843 0062 1A68     		ldr	r2, [r3]
 1844 0064 9A42     		cmp	r2, r3
 1845 0066 04D0     		beq	.L203
 1846 0068 9969     		ldr	r1, [r3, #24]
 1847 006a 9368     		ldr	r3, [r2, #8]
 1848 006c 8A68     		ldr	r2, [r1, #8]
 1849 006e 9A42     		cmp	r2, r3
 1850 0070 0BD3     		bcc	.L219
 1851              	.L203:
 1852              	.LVL175:
 1853              	.LBB430:
 1854              	.LBB431:
 1855              	.LBB432:
 1856              		.loc 3 548 0
 1857 0072 0023     		movs	r3, #0
 1858              		.syntax unified
 1859              	@ 548 "../e-puck2_main-processor/ChibiOS//os/ext/CMSIS/include/core_cmFunc.h" 1
 1860 0074 83F31188 		MSR basepri, r3
 1861              	@ 0 "" 2
 1862              	.LVL176:
 1863              		.thumb
 1864              		.syntax unified
 1865              	.LBE432:
 1866              	.LBE431:
 1867              	.LBE430:
 1868              	.LBE429:
 1869              	.LBE428:
 1870              	.LBE427:
 1871              		.loc 1 346 0
 1872 0078 019A     		ldr	r2, [sp, #4]
 1873 007a 2B68     		ldr	r3, [r5]
 1874 007c 9A42     		cmp	r2, r3
 1875 007e 08D1     		bne	.L220
 1876 0080 03B0     		add	sp, sp, #12
 1877              		.cfi_remember_state
 1878              		.cfi_def_cfa_offset 20
 1879              		@ sp needed
 1880 0082 F0BD     		pop	{r4, r5, r6, r7, pc}
 1881              	.LVL177:
ARM GAS  C:\Users\25521\AppData\Local\Temp\cccJFQJo.s 			page 34


 1882              	.L218:
 1883              		.cfi_restore_state
 1884              		.loc 1 338 0 discriminator 5
 1885 0084 002A     		cmp	r2, #0
 1886 0086 C9D1     		bne	.L200
 1887 0088 C5E7     		b	.L199
 1888              	.LVL178:
 1889              	.L219:
 1890              	.LBB435:
 1891              	.LBB434:
 1892              	.LBB433:
 1893              		.loc 4 367 0
 1894 008a 0648     		ldr	r0, .L221+12
 1895 008c FFF7FEFF 		bl	chSysHalt
 1896              	.LVL179:
 1897 0090 EFE7     		b	.L203
 1898              	.L220:
 1899              	.LBE433:
 1900              	.LBE434:
 1901              	.LBE435:
 1902              		.loc 1 346 0
 1903 0092 FFF7FEFF 		bl	__stack_chk_fail
 1904              	.LVL180:
 1905              	.L222:
 1906 0096 00BF     		.align	2
 1907              	.L221:
 1908 0098 00000000 		.word	__stack_chk_guard
 1909 009c 00000000 		.word	.LANCHOR10
 1910 00a0 00000000 		.word	ch
 1911 00a4 00000000 		.word	.LANCHOR1
 1912              		.cfi_endproc
 1913              	.LFE278:
 1914              		.size	spi3SlaveReceive, .-spi3SlaveReceive
 1915              		.section	.text.spi3SlaveAcquireBus,"ax",%progbits
 1916              		.align	1
 1917              		.p2align 4,,15
 1918              		.global	spi3SlaveAcquireBus
 1919              		.syntax unified
 1920              		.thumb
 1921              		.thumb_func
 1922              		.fpu fpv4-sp-d16
 1923              		.type	spi3SlaveAcquireBus, %function
 1924              	spi3SlaveAcquireBus:
 1925              	.LFB279:
 1926              		.loc 1 361 0
 1927              		.cfi_startproc
 1928              		@ args = 0, pretend = 0, frame = 8
 1929              		@ frame_needed = 0, uses_anonymous_args = 0
 1930              	.LVL181:
 1931 0000 30B5     		push	{r4, r5, lr}
 1932              		.cfi_def_cfa_offset 12
 1933              		.cfi_offset 4, -12
 1934              		.cfi_offset 5, -8
 1935              		.cfi_offset 14, -4
 1936 0002 0B4C     		ldr	r4, .L230
 1937 0004 83B0     		sub	sp, sp, #12
 1938              		.cfi_def_cfa_offset 24
ARM GAS  C:\Users\25521\AppData\Local\Temp\cccJFQJo.s 			page 35


 1939              		.loc 1 361 0
 1940 0006 2368     		ldr	r3, [r4]
 1941 0008 0193     		str	r3, [sp, #4]
 1942              		.loc 1 363 0
 1943 000a 0546     		mov	r5, r0
 1944 000c 50B1     		cbz	r0, .L228
 1945              	.LVL182:
 1946              	.L224:
 1947              	.LBB436:
 1948              	.LBB437:
 1949              		.loc 2 907 0
 1950 000e 019A     		ldr	r2, [sp, #4]
 1951 0010 2368     		ldr	r3, [r4]
 1952 0012 9A42     		cmp	r2, r3
 1953 0014 0AD1     		bne	.L229
 1954 0016 05F10C00 		add	r0, r5, #12
 1955              	.LVL183:
 1956              	.LBE437:
 1957              	.LBE436:
 1958              		.loc 1 366 0
 1959 001a 03B0     		add	sp, sp, #12
 1960              		.cfi_remember_state
 1961              		.cfi_def_cfa_offset 12
 1962              		@ sp needed
 1963 001c BDE83040 		pop	{r4, r5, lr}
 1964              		.cfi_restore 14
 1965              		.cfi_restore 5
 1966              		.cfi_restore 4
 1967              		.cfi_def_cfa_offset 0
 1968              	.LVL184:
 1969              	.LBB440:
 1970              	.LBB438:
 1971              		.loc 2 907 0
 1972 0020 FFF7FEBF 		b	chMtxLock
 1973              	.LVL185:
 1974              	.L228:
 1975              		.cfi_restore_state
 1976              	.LBE438:
 1977              	.LBE440:
 1978              		.loc 1 363 0 discriminator 2
 1979 0024 0348     		ldr	r0, .L230+4
 1980              	.LVL186:
 1981 0026 FFF7FEFF 		bl	chSysHalt
 1982              	.LVL187:
 1983 002a F0E7     		b	.L224
 1984              	.LVL188:
 1985              	.L229:
 1986              	.LBB441:
 1987              	.LBB439:
 1988              		.loc 2 907 0
 1989 002c FFF7FEFF 		bl	__stack_chk_fail
 1990              	.LVL189:
 1991              	.L231:
 1992              		.align	2
 1993              	.L230:
 1994 0030 00000000 		.word	__stack_chk_guard
 1995 0034 00000000 		.word	.LANCHOR11
ARM GAS  C:\Users\25521\AppData\Local\Temp\cccJFQJo.s 			page 36


 1996              	.LBE439:
 1997              	.LBE441:
 1998              		.cfi_endproc
 1999              	.LFE279:
 2000              		.size	spi3SlaveAcquireBus, .-spi3SlaveAcquireBus
 2001              		.section	.text.spi3SlaveReleaseBus,"ax",%progbits
 2002              		.align	1
 2003              		.p2align 4,,15
 2004              		.global	spi3SlaveReleaseBus
 2005              		.syntax unified
 2006              		.thumb
 2007              		.thumb_func
 2008              		.fpu fpv4-sp-d16
 2009              		.type	spi3SlaveReleaseBus, %function
 2010              	spi3SlaveReleaseBus:
 2011              	.LFB280:
 2012              		.loc 1 377 0
 2013              		.cfi_startproc
 2014              		@ args = 0, pretend = 0, frame = 8
 2015              		@ frame_needed = 0, uses_anonymous_args = 0
 2016              	.LVL190:
 2017 0000 30B5     		push	{r4, r5, lr}
 2018              		.cfi_def_cfa_offset 12
 2019              		.cfi_offset 4, -12
 2020              		.cfi_offset 5, -8
 2021              		.cfi_offset 14, -4
 2022 0002 0B4C     		ldr	r4, .L239
 2023 0004 83B0     		sub	sp, sp, #12
 2024              		.cfi_def_cfa_offset 24
 2025              		.loc 1 377 0
 2026 0006 2368     		ldr	r3, [r4]
 2027 0008 0193     		str	r3, [sp, #4]
 2028              		.loc 1 379 0
 2029 000a 0546     		mov	r5, r0
 2030 000c 50B1     		cbz	r0, .L237
 2031              	.LVL191:
 2032              	.L233:
 2033              	.LBB442:
 2034              	.LBB443:
 2035              		.loc 2 931 0
 2036 000e 019A     		ldr	r2, [sp, #4]
 2037 0010 2368     		ldr	r3, [r4]
 2038 0012 9A42     		cmp	r2, r3
 2039 0014 0AD1     		bne	.L238
 2040 0016 05F10C00 		add	r0, r5, #12
 2041              	.LVL192:
 2042              	.LBE443:
 2043              	.LBE442:
 2044              		.loc 1 382 0
 2045 001a 03B0     		add	sp, sp, #12
 2046              		.cfi_remember_state
 2047              		.cfi_def_cfa_offset 12
 2048              		@ sp needed
 2049 001c BDE83040 		pop	{r4, r5, lr}
 2050              		.cfi_restore 14
 2051              		.cfi_restore 5
 2052              		.cfi_restore 4
ARM GAS  C:\Users\25521\AppData\Local\Temp\cccJFQJo.s 			page 37


 2053              		.cfi_def_cfa_offset 0
 2054              	.LVL193:
 2055              	.LBB446:
 2056              	.LBB444:
 2057              		.loc 2 931 0
 2058 0020 FFF7FEBF 		b	chMtxUnlock
 2059              	.LVL194:
 2060              	.L237:
 2061              		.cfi_restore_state
 2062              	.LBE444:
 2063              	.LBE446:
 2064              		.loc 1 379 0 discriminator 2
 2065 0024 0348     		ldr	r0, .L239+4
 2066              	.LVL195:
 2067 0026 FFF7FEFF 		bl	chSysHalt
 2068              	.LVL196:
 2069 002a F0E7     		b	.L233
 2070              	.LVL197:
 2071              	.L238:
 2072              	.LBB447:
 2073              	.LBB445:
 2074              		.loc 2 931 0
 2075 002c FFF7FEFF 		bl	__stack_chk_fail
 2076              	.LVL198:
 2077              	.L240:
 2078              		.align	2
 2079              	.L239:
 2080 0030 00000000 		.word	__stack_chk_guard
 2081 0034 00000000 		.word	.LANCHOR12
 2082              	.LBE445:
 2083              	.LBE447:
 2084              		.cfi_endproc
 2085              	.LFE280:
 2086              		.size	spi3SlaveReleaseBus, .-spi3SlaveReleaseBus
 2087              		.section	.text.spi3SlaveStopExchange,"ax",%progbits
 2088              		.align	1
 2089              		.p2align 4,,15
 2090              		.global	spi3SlaveStopExchange
 2091              		.syntax unified
 2092              		.thumb
 2093              		.thumb_func
 2094              		.fpu fpv4-sp-d16
 2095              		.type	spi3SlaveStopExchange, %function
 2096              	spi3SlaveStopExchange:
 2097              	.LFB281:
 2098              		.loc 1 393 0
 2099              		.cfi_startproc
 2100              		@ args = 0, pretend = 0, frame = 8
 2101              		@ frame_needed = 0, uses_anonymous_args = 0
 2102              	.LVL199:
 2103 0000 30B5     		push	{r4, r5, lr}
 2104              		.cfi_def_cfa_offset 12
 2105              		.cfi_offset 4, -12
 2106              		.cfi_offset 5, -8
 2107              		.cfi_offset 14, -4
 2108 0002 1C4D     		ldr	r5, .L250
 2109 0004 83B0     		sub	sp, sp, #12
ARM GAS  C:\Users\25521\AppData\Local\Temp\cccJFQJo.s 			page 38


 2110              		.cfi_def_cfa_offset 24
 2111              		.loc 1 393 0
 2112 0006 2B68     		ldr	r3, [r5]
 2113 0008 0193     		str	r3, [sp, #4]
 2114              		.loc 1 394 0
 2115 000a 0446     		mov	r4, r0
 2116 000c 60B3     		cbz	r0, .L247
 2117              	.LVL200:
 2118              	.L242:
 2119              	.LBB461:
 2120              	.LBB462:
 2121              	.LBB463:
 2122              	.LBB464:
 2123              	.LBB465:
 2124              	.LBB466:
 2125              		.loc 3 548 0
 2126 000e 2023     		movs	r3, #32
 2127              		.syntax unified
 2128              	@ 548 "../e-puck2_main-processor/ChibiOS//os/ext/CMSIS/include/core_cmFunc.h" 1
 2129 0010 83F31188 		MSR basepri, r3
 2130              	@ 0 "" 2
 2131              	.LVL201:
 2132              		.thumb
 2133              		.syntax unified
 2134              	.LBE466:
 2135              	.LBE465:
 2136              	.LBE464:
 2137              		.loc 4 349 0
 2138 0014 FFF7FEFF 		bl	_stats_start_measure_crit_thd
 2139              	.LVL202:
 2140              		.loc 4 350 0
 2141 0018 FFF7FEFF 		bl	_dbg_check_lock
 2142              	.LVL203:
 2143              	.LBE463:
 2144              	.LBE462:
 2145              	.LBE461:
 2146              		.loc 1 397 0
 2147 001c 2378     		ldrb	r3, [r4]	@ zero_extendqisi2
 2148 001e 023B     		subs	r3, r3, #2
 2149 0020 022B     		cmp	r3, #2
 2150 0022 02D9     		bls	.L243
 2151              		.loc 1 397 0 is_stmt 0 discriminator 2
 2152 0024 1448     		ldr	r0, .L250+4
 2153 0026 FFF7FEFF 		bl	chSysHalt
 2154              	.LVL204:
 2155              	.L243:
 2156              		.loc 1 401 0 is_stmt 1
 2157 002a 2046     		mov	r0, r4
 2158 002c FFF7FEFF 		bl	spi3_slave_lld_stop_exchange
 2159              	.LVL205:
 2160 0030 0223     		movs	r3, #2
 2161 0032 2370     		strb	r3, [r4]
 2162              	.LBB467:
 2163              	.LBB468:
 2164              	.LBB469:
 2165              		.loc 4 360 0
 2166 0034 FFF7FEFF 		bl	_dbg_check_unlock
ARM GAS  C:\Users\25521\AppData\Local\Temp\cccJFQJo.s 			page 39


 2167              	.LVL206:
 2168              		.loc 4 361 0
 2169 0038 FFF7FEFF 		bl	_stats_stop_measure_crit_thd
 2170              	.LVL207:
 2171              		.loc 4 367 0
 2172 003c 0F4B     		ldr	r3, .L250+8
 2173 003e 1A68     		ldr	r2, [r3]
 2174 0040 9A42     		cmp	r2, r3
 2175 0042 04D0     		beq	.L244
 2176 0044 9969     		ldr	r1, [r3, #24]
 2177 0046 9368     		ldr	r3, [r2, #8]
 2178 0048 8A68     		ldr	r2, [r1, #8]
 2179 004a 9A42     		cmp	r2, r3
 2180 004c 08D3     		bcc	.L248
 2181              	.L244:
 2182              	.LVL208:
 2183              	.LBB470:
 2184              	.LBB471:
 2185              	.LBB472:
 2186              		.loc 3 548 0
 2187 004e 0023     		movs	r3, #0
 2188              		.syntax unified
 2189              	@ 548 "../e-puck2_main-processor/ChibiOS//os/ext/CMSIS/include/core_cmFunc.h" 1
 2190 0050 83F31188 		MSR basepri, r3
 2191              	@ 0 "" 2
 2192              	.LVL209:
 2193              		.thumb
 2194              		.syntax unified
 2195              	.LBE472:
 2196              	.LBE471:
 2197              	.LBE470:
 2198              	.LBE469:
 2199              	.LBE468:
 2200              	.LBE467:
 2201              		.loc 1 403 0
 2202 0054 019A     		ldr	r2, [sp, #4]
 2203 0056 2B68     		ldr	r3, [r5]
 2204 0058 9A42     		cmp	r2, r3
 2205 005a 09D1     		bne	.L249
 2206 005c 03B0     		add	sp, sp, #12
 2207              		.cfi_remember_state
 2208              		.cfi_def_cfa_offset 12
 2209              		@ sp needed
 2210 005e 30BD     		pop	{r4, r5, pc}
 2211              	.LVL210:
 2212              	.L248:
 2213              		.cfi_restore_state
 2214              	.LBB475:
 2215              	.LBB474:
 2216              	.LBB473:
 2217              		.loc 4 367 0
 2218 0060 0748     		ldr	r0, .L250+12
 2219 0062 FFF7FEFF 		bl	chSysHalt
 2220              	.LVL211:
 2221 0066 F2E7     		b	.L244
 2222              	.LVL212:
 2223              	.L247:
ARM GAS  C:\Users\25521\AppData\Local\Temp\cccJFQJo.s 			page 40


 2224              	.LBE473:
 2225              	.LBE474:
 2226              	.LBE475:
 2227              		.loc 1 394 0 discriminator 2
 2228 0068 0348     		ldr	r0, .L250+4
 2229              	.LVL213:
 2230 006a FFF7FEFF 		bl	chSysHalt
 2231              	.LVL214:
 2232 006e CEE7     		b	.L242
 2233              	.L249:
 2234              		.loc 1 403 0
 2235 0070 FFF7FEFF 		bl	__stack_chk_fail
 2236              	.LVL215:
 2237              	.L251:
 2238              		.align	2
 2239              	.L250:
 2240 0074 00000000 		.word	__stack_chk_guard
 2241 0078 00000000 		.word	.LANCHOR13
 2242 007c 00000000 		.word	ch
 2243 0080 00000000 		.word	.LANCHOR1
 2244              		.cfi_endproc
 2245              	.LFE281:
 2246              		.size	spi3SlaveStopExchange, .-spi3SlaveStopExchange
 2247              		.global	SPISLAVED3
 2248              		.section	.bss.SPISLAVED3,"aw",%nobits
 2249              		.align	2
 2250              		.type	SPISLAVED3, %object
 2251              		.size	SPISLAVED3, 52
 2252              	SPISLAVED3:
 2253 0000 00000000 		.space	52
 2253      00000000 
 2253      00000000 
 2253      00000000 
 2253      00000000 
 2254              		.section	.rodata.__func__.10022,"a",%progbits
 2255              		.align	2
 2256              		.set	.LANCHOR0,. + 0
 2257              		.type	__func__.10022, %object
 2258              		.size	__func__.10022, 15
 2259              	__func__.10022:
 2260 0000 73706933 		.ascii	"spi3SlaveStart\000"
 2260      536C6176 
 2260      65537461 
 2260      727400
 2261              		.section	.rodata.__func__.10026,"a",%progbits
 2262              		.align	2
 2263              		.set	.LANCHOR2,. + 0
 2264              		.type	__func__.10026, %object
 2265              		.size	__func__.10026, 14
 2266              	__func__.10026:
 2267 0000 73706933 		.ascii	"spi3SlaveStop\000"
 2267      536C6176 
 2267      6553746F 
 2267      7000
 2268              		.section	.rodata.__func__.10031,"a",%progbits
 2269              		.align	2
 2270              		.set	.LANCHOR3,. + 0
ARM GAS  C:\Users\25521\AppData\Local\Temp\cccJFQJo.s 			page 41


 2271              		.type	__func__.10031, %object
 2272              		.size	__func__.10031, 21
 2273              	__func__.10031:
 2274 0000 73706933 		.ascii	"spi3SlaveStartIgnore\000"
 2274      536C6176 
 2274      65537461 
 2274      72744967 
 2274      6E6F7265 
 2275              		.section	.rodata.__func__.10038,"a",%progbits
 2276              		.align	2
 2277              		.set	.LANCHOR4,. + 0
 2278              		.type	__func__.10038, %object
 2279              		.size	__func__.10038, 23
 2280              	__func__.10038:
 2281 0000 73706933 		.ascii	"spi3SlaveStartExchange\000"
 2281      536C6176 
 2281      65537461 
 2281      72744578 
 2281      6368616E 
 2282              		.section	.rodata.__func__.10044,"a",%progbits
 2283              		.align	2
 2284              		.set	.LANCHOR5,. + 0
 2285              		.type	__func__.10044, %object
 2286              		.size	__func__.10044, 19
 2287              	__func__.10044:
 2288 0000 73706933 		.ascii	"spi3SlaveStartSend\000"
 2288      536C6176 
 2288      65537461 
 2288      72745365 
 2288      6E6400
 2289              		.section	.rodata.__func__.10050,"a",%progbits
 2290              		.align	2
 2291              		.set	.LANCHOR6,. + 0
 2292              		.type	__func__.10050, %object
 2293              		.size	__func__.10050, 22
 2294              	__func__.10050:
 2295 0000 73706933 		.ascii	"spi3SlaveStartReceive\000"
 2295      536C6176 
 2295      65537461 
 2295      72745265 
 2295      63656976 
 2296              		.section	.rodata.__func__.10055,"a",%progbits
 2297              		.align	2
 2298              		.set	.LANCHOR7,. + 0
 2299              		.type	__func__.10055, %object
 2300              		.size	__func__.10055, 16
 2301              	__func__.10055:
 2302 0000 73706933 		.ascii	"spi3SlaveIgnore\000"
 2302      536C6176 
 2302      6549676E 
 2302      6F726500 
 2303              		.section	.rodata.__func__.10062,"a",%progbits
 2304              		.align	2
 2305              		.set	.LANCHOR8,. + 0
 2306              		.type	__func__.10062, %object
 2307              		.size	__func__.10062, 18
 2308              	__func__.10062:
ARM GAS  C:\Users\25521\AppData\Local\Temp\cccJFQJo.s 			page 42


 2309 0000 73706933 		.ascii	"spi3SlaveExchange\000"
 2309      536C6176 
 2309      65457863 
 2309      68616E67 
 2309      6500
 2310              		.section	.rodata.__func__.10068,"a",%progbits
 2311              		.align	2
 2312              		.set	.LANCHOR9,. + 0
 2313              		.type	__func__.10068, %object
 2314              		.size	__func__.10068, 14
 2315              	__func__.10068:
 2316 0000 73706933 		.ascii	"spi3SlaveSend\000"
 2316      536C6176 
 2316      6553656E 
 2316      6400
 2317              		.section	.rodata.__func__.10074,"a",%progbits
 2318              		.align	2
 2319              		.set	.LANCHOR10,. + 0
 2320              		.type	__func__.10074, %object
 2321              		.size	__func__.10074, 17
 2322              	__func__.10074:
 2323 0000 73706933 		.ascii	"spi3SlaveReceive\000"
 2323      536C6176 
 2323      65526563 
 2323      65697665 
 2323      00
 2324              		.section	.rodata.__func__.10078,"a",%progbits
 2325              		.align	2
 2326              		.set	.LANCHOR11,. + 0
 2327              		.type	__func__.10078, %object
 2328              		.size	__func__.10078, 20
 2329              	__func__.10078:
 2330 0000 73706933 		.ascii	"spi3SlaveAcquireBus\000"
 2330      536C6176 
 2330      65416371 
 2330      75697265 
 2330      42757300 
 2331              		.section	.rodata.__func__.10082,"a",%progbits
 2332              		.align	2
 2333              		.set	.LANCHOR12,. + 0
 2334              		.type	__func__.10082, %object
 2335              		.size	__func__.10082, 20
 2336              	__func__.10082:
 2337 0000 73706933 		.ascii	"spi3SlaveReleaseBus\000"
 2337      536C6176 
 2337      6552656C 
 2337      65617365 
 2337      42757300 
 2338              		.section	.rodata.__func__.10086,"a",%progbits
 2339              		.align	2
 2340              		.set	.LANCHOR13,. + 0
 2341              		.type	__func__.10086, %object
 2342              		.size	__func__.10086, 22
 2343              	__func__.10086:
 2344 0000 73706933 		.ascii	"spi3SlaveStopExchange\000"
 2344      536C6176 
 2344      6553746F 
ARM GAS  C:\Users\25521\AppData\Local\Temp\cccJFQJo.s 			page 43


 2344      70457863 
 2344      68616E67 
 2345              		.section	.rodata.__func__.7216,"a",%progbits
 2346              		.align	2
 2347              		.set	.LANCHOR1,. + 0
 2348              		.type	__func__.7216, %object
 2349              		.size	__func__.7216, 12
 2350              	__func__.7216:
 2351 0000 63685379 		.ascii	"chSysUnlock\000"
 2351      73556E6C 
 2351      6F636B00 
 2352              		.text
 2353              	.Letext0:
 2354              		.file 5 "d:\\eclipse_e-puck2_win32_11_apr_2018\\eclipse_e-puck2\\tools\\gcc-arm-none-eabi-7-2017-q
 2355              		.file 6 "d:\\eclipse_e-puck2_win32_11_apr_2018\\eclipse_e-puck2\\tools\\gcc-arm-none-eabi-7-2017-q
 2356              		.file 7 "d:\\eclipse_e-puck2_win32_11_apr_2018\\eclipse_e-puck2\\tools\\gcc-arm-none-eabi-7-2017-q
 2357              		.file 8 "../e-puck2_main-processor/ChibiOS//os/rt/ports/ARMCMx/compilers/GCC/chtypes.h"
 2358              		.file 9 "../e-puck2_main-processor/ChibiOS//os/rt/include/chsystypes.h"
 2359              		.file 10 "../e-puck2_main-processor/ChibiOS//os/rt/include/chschd.h"
 2360              		.file 11 "../e-puck2_main-processor/ChibiOS//os/ext/CMSIS/include/core_cm4.h"
 2361              		.file 12 "../e-puck2_main-processor/ChibiOS//os/ext/CMSIS/ST/system_stm32f4xx.h"
 2362              		.file 13 "../e-puck2_main-processor/ChibiOS//os/ext/CMSIS/ST/stm32f407xx.h"
 2363              		.file 14 "../e-puck2_main-processor/ChibiOS//os/rt/ports/ARMCMx/chcore.h"
 2364              		.file 15 "../e-puck2_main-processor/ChibiOS//os/rt/ports/ARMCMx/chcore_v7m.h"
 2365              		.file 16 "../e-puck2_main-processor/ChibiOS//os/rt/include/chdebug.h"
 2366              		.file 17 "../e-puck2_main-processor/ChibiOS//os/rt/include/chtm.h"
 2367              		.file 18 "../e-puck2_main-processor/ChibiOS//os/rt/include/chstats.h"
 2368              		.file 19 "../e-puck2_main-processor/ChibiOS//os/rt/include/chsem.h"
 2369              		.file 20 "../e-puck2_main-processor/ChibiOS//os/rt/include/chmtx.h"
 2370              		.file 21 "../e-puck2_main-processor/ChibiOS//os/rt/include/chregistry.h"
 2371              		.file 22 "../e-puck2_main-processor/ChibiOS//os/rt/include/chevents.h"
 2372              		.file 23 "../e-puck2_main-processor/ChibiOS//os/rt/include/chqueues.h"
 2373              		.file 24 "../e-puck2_main-processor/ChibiOS//os/hal/ports/STM32/LLD/DMAv2/stm32_dma.h"
 2374              		.file 25 "../e-puck2_main-processor/ChibiOS//os/hal/include/hal_ioblock.h"
 2375              		.file 26 "../e-puck2_main-processor/ChibiOS//os/hal/ports/STM32/LLD/GPIOv2/pal_lld.h"
 2376              		.file 27 "../e-puck2_main-processor/ChibiOS//os/hal/include/adc.h"
 2377              		.file 28 "../e-puck2_main-processor/ChibiOS//os/hal/ports/STM32/LLD/ADCv2/adc_lld.h"
 2378              		.file 29 "../e-puck2_main-processor/ChibiOS//os/hal/include/can.h"
 2379              		.file 30 "../e-puck2_main-processor/ChibiOS//os/hal/ports/STM32/LLD/CANv1/can_lld.h"
 2380              		.file 31 "../e-puck2_main-processor/ChibiOS//os/hal/include/dac.h"
 2381              		.file 32 "../e-puck2_main-processor/ChibiOS//os/hal/ports/STM32/LLD/DACv1/dac_lld.h"
 2382              		.file 33 "../e-puck2_main-processor/ChibiOS//os/hal/include/ext.h"
 2383              		.file 34 "../e-puck2_main-processor/ChibiOS//os/hal/ports/STM32/LLD/EXTIv1/ext_lld.h"
 2384              		.file 35 "../e-puck2_main-processor/ChibiOS//os/hal/include/gpt.h"
 2385              		.file 36 "../e-puck2_main-processor/ChibiOS//os/hal/ports/STM32/LLD/TIMv1/gpt_lld.h"
 2386              		.file 37 "../e-puck2_main-processor/ChibiOS//os/hal/ports/STM32/LLD/TIMv1/stm32_tim.h"
 2387              		.file 38 "../e-puck2_main-processor/ChibiOS//os/hal/include/i2c.h"
 2388              		.file 39 "../e-puck2_main-processor/ChibiOS//os/hal/ports/STM32/LLD/I2Cv1/i2c_lld.h"
 2389              		.file 40 "../e-puck2_main-processor/ChibiOS//os/hal/include/i2s.h"
 2390              		.file 41 "../e-puck2_main-processor/ChibiOS//os/hal/ports/STM32/LLD/SPIv1/i2s_lld.h"
 2391              		.file 42 "../e-puck2_main-processor/ChibiOS//os/hal/include/pwm.h"
 2392              		.file 43 "../e-puck2_main-processor/ChibiOS//os/hal/ports/STM32/LLD/TIMv1/pwm_lld.h"
 2393              		.file 44 "../e-puck2_main-processor/ChibiOS//os/hal/include/serial.h"
 2394              		.file 45 "../e-puck2_main-processor/ChibiOS//os/hal/ports/STM32/LLD/USARTv1/serial_lld.h"
 2395              		.file 46 "../e-puck2_main-processor/ChibiOS//os/hal/include/sdc.h"
 2396              		.file 47 "../e-puck2_main-processor/ChibiOS//os/hal/ports/STM32/LLD/SDIOv1/sdc_lld.h"
 2397              		.file 48 "../e-puck2_main-processor/ChibiOS//os/hal/include/spi.h"
ARM GAS  C:\Users\25521\AppData\Local\Temp\cccJFQJo.s 			page 44


 2398              		.file 49 "../e-puck2_main-processor/ChibiOS//os/hal/ports/STM32/LLD/SPIv1/spi_lld.h"
 2399              		.file 50 "../e-puck2_main-processor/ChibiOS//os/hal/include/usb.h"
 2400              		.file 51 "../e-puck2_main-processor/ChibiOS//os/hal/ports/STM32/LLD/OTGv1/usb_lld.h"
 2401              		.file 52 "../e-puck2_main-processor/ChibiOS//os/hal/ports/STM32/LLD/OTGv1/stm32_otg.h"
 2402              		.file 53 "../e-puck2_main-processor/ChibiOS_ext/os/hal/include/spi3_slave.h"
 2403              		.file 54 "../e-puck2_main-processor/ChibiOS_ext/os/hal/src/../ports/STM32/LLD/SPIv1/spi3_slave_lld
 2404              		.file 55 "../e-puck2_main-processor/ChibiOS//os/rt/include/chthreads.h"