ARM GAS  C:\Users\25521\AppData\Local\Temp\ccZMS30B.s 			page 1


   1              		.cpu cortex-m4
   2              		.eabi_attribute 27, 1
   3              		.eabi_attribute 28, 1
   4              		.eabi_attribute 20, 1
   5              		.eabi_attribute 21, 1
   6              		.eabi_attribute 23, 3
   7              		.eabi_attribute 24, 1
   8              		.eabi_attribute 25, 1
   9              		.eabi_attribute 26, 1
  10              		.eabi_attribute 30, 2
  11              		.eabi_attribute 34, 1
  12              		.eabi_attribute 18, 4
  13              		.file	"testsem.c"
  14              		.text
  15              	.Ltext0:
  16              		.cfi_sections	.debug_frame
  17              		.section	.text.thread3,"ax",%progbits
  18              		.align	1
  19              		.p2align 4,,15
  20              		.syntax unified
  21              		.thumb
  22              		.thumb_func
  23              		.fpu fpv4-sp-d16
  24              		.type	thread3, %function
  25              	thread3:
  26              	.LFB237:
  27              		.file 1 "../e-puck2_main-processor/ChibiOS//test/rt/testsem.c"
  28              		.loc 1 207 0
  29              		.cfi_startproc
  30              		@ args = 0, pretend = 0, frame = 8
  31              		@ frame_needed = 0, uses_anonymous_args = 0
  32              	.LVL0:
  33 0000 10B5     		push	{r4, lr}
  34              		.cfi_def_cfa_offset 8
  35              		.cfi_offset 4, -8
  36              		.cfi_offset 14, -4
  37 0002 094C     		ldr	r4, .L7
  38              		.loc 1 210 0
  39 0004 0948     		ldr	r0, .L7+4
  40              	.LVL1:
  41              		.loc 1 207 0
  42 0006 2368     		ldr	r3, [r4]
  43 0008 82B0     		sub	sp, sp, #8
  44              		.cfi_def_cfa_offset 16
  45              		.loc 1 207 0
  46 000a 0193     		str	r3, [sp, #4]
  47              		.loc 1 210 0
  48 000c FFF7FEFF 		bl	chSemWait
  49              	.LVL2:
  50              		.loc 1 211 0
  51 0010 019A     		ldr	r2, [sp, #4]
  52 0012 2368     		ldr	r3, [r4]
  53 0014 9A42     		cmp	r2, r3
  54 0016 05D1     		bne	.L6
  55 0018 0448     		ldr	r0, .L7+4
  56              		.loc 1 212 0
  57 001a 02B0     		add	sp, sp, #8
ARM GAS  C:\Users\25521\AppData\Local\Temp\ccZMS30B.s 			page 2


  58              		.cfi_remember_state
  59              		.cfi_def_cfa_offset 8
  60              		@ sp needed
  61 001c BDE81040 		pop	{r4, lr}
  62              		.cfi_restore 14
  63              		.cfi_restore 4
  64              		.cfi_def_cfa_offset 0
  65              		.loc 1 211 0
  66 0020 FFF7FEBF 		b	chSemSignal
  67              	.LVL3:
  68              	.L6:
  69              		.cfi_restore_state
  70 0024 FFF7FEFF 		bl	__stack_chk_fail
  71              	.LVL4:
  72              	.L8:
  73              		.align	2
  74              	.L7:
  75 0028 00000000 		.word	__stack_chk_guard
  76 002c 00000000 		.word	.LANCHOR0
  77              		.cfi_endproc
  78              	.LFE237:
  79              		.size	thread3, .-thread3
  80              		.section	.text.thread1,"ax",%progbits
  81              		.align	1
  82              		.p2align 4,,15
  83              		.syntax unified
  84              		.thumb
  85              		.thumb_func
  86              		.fpu fpv4-sp-d16
  87              		.type	thread1, %function
  88              	thread1:
  89              	.LFB231:
  90              		.loc 1 77 0
  91              		.cfi_startproc
  92              		@ args = 0, pretend = 0, frame = 8
  93              		@ frame_needed = 0, uses_anonymous_args = 0
  94              	.LVL5:
  95 0000 30B5     		push	{r4, r5, lr}
  96              		.cfi_def_cfa_offset 12
  97              		.cfi_offset 4, -12
  98              		.cfi_offset 5, -8
  99              		.cfi_offset 14, -4
 100 0002 0A4C     		ldr	r4, .L14
 101 0004 83B0     		sub	sp, sp, #12
 102              		.cfi_def_cfa_offset 24
 103              		.loc 1 77 0
 104 0006 2368     		ldr	r3, [r4]
 105 0008 0193     		str	r3, [sp, #4]
 106 000a 0546     		mov	r5, r0
 107              		.loc 1 79 0
 108 000c 0848     		ldr	r0, .L14+4
 109              	.LVL6:
 110 000e FFF7FEFF 		bl	chSemWait
 111              	.LVL7:
 112              		.loc 1 80 0
 113 0012 019A     		ldr	r2, [sp, #4]
 114 0014 2368     		ldr	r3, [r4]
ARM GAS  C:\Users\25521\AppData\Local\Temp\ccZMS30B.s 			page 3


 115 0016 9A42     		cmp	r2, r3
 116 0018 05D1     		bne	.L13
 117 001a 2878     		ldrb	r0, [r5]	@ zero_extendqisi2
 118              		.loc 1 81 0
 119 001c 03B0     		add	sp, sp, #12
 120              		.cfi_remember_state
 121              		.cfi_def_cfa_offset 12
 122              		@ sp needed
 123 001e BDE83040 		pop	{r4, r5, lr}
 124              		.cfi_restore 14
 125              		.cfi_restore 5
 126              		.cfi_restore 4
 127              		.cfi_def_cfa_offset 0
 128              	.LVL8:
 129              		.loc 1 80 0
 130 0022 FFF7FEBF 		b	test_emit_token
 131              	.LVL9:
 132              	.L13:
 133              		.cfi_restore_state
 134 0026 FFF7FEFF 		bl	__stack_chk_fail
 135              	.LVL10:
 136              	.L15:
 137 002a 00BF     		.align	2
 138              	.L14:
 139 002c 00000000 		.word	__stack_chk_guard
 140 0030 00000000 		.word	.LANCHOR0
 141              		.cfi_endproc
 142              	.LFE231:
 143              		.size	thread1, .-thread1
 144              		.section	.text.sem1_setup,"ax",%progbits
 145              		.align	1
 146              		.p2align 4,,15
 147              		.syntax unified
 148              		.thumb
 149              		.thumb_func
 150              		.fpu fpv4-sp-d16
 151              		.type	sem1_setup, %function
 152              	sem1_setup:
 153              	.LFB230:
 154              		.loc 1 72 0
 155              		.cfi_startproc
 156              		@ args = 0, pretend = 0, frame = 8
 157              		@ frame_needed = 0, uses_anonymous_args = 0
 158 0000 00B5     		push	{lr}
 159              		.cfi_def_cfa_offset 4
 160              		.cfi_offset 14, -4
 161 0002 084B     		ldr	r3, .L21
 162 0004 83B0     		sub	sp, sp, #12
 163              		.cfi_def_cfa_offset 16
 164              		.loc 1 72 0
 165 0006 1A68     		ldr	r2, [r3]
 166 0008 0192     		str	r2, [sp, #4]
 167              		.loc 1 74 0
 168 000a 019A     		ldr	r2, [sp, #4]
 169 000c 1B68     		ldr	r3, [r3]
 170 000e 9A42     		cmp	r2, r3
 171 0010 06D1     		bne	.L20
ARM GAS  C:\Users\25521\AppData\Local\Temp\ccZMS30B.s 			page 4


 172 0012 0548     		ldr	r0, .L21+4
 173 0014 0021     		movs	r1, #0
 174              		.loc 1 75 0
 175 0016 03B0     		add	sp, sp, #12
 176              		.cfi_remember_state
 177              		.cfi_def_cfa_offset 4
 178              		@ sp needed
 179 0018 5DF804EB 		ldr	lr, [sp], #4
 180              		.cfi_restore 14
 181              		.cfi_def_cfa_offset 0
 182              		.loc 1 74 0
 183 001c FFF7FEBF 		b	chSemObjectInit
 184              	.LVL11:
 185              	.L20:
 186              		.cfi_restore_state
 187 0020 FFF7FEFF 		bl	__stack_chk_fail
 188              	.LVL12:
 189              	.L22:
 190              		.align	2
 191              	.L21:
 192 0024 00000000 		.word	__stack_chk_guard
 193 0028 00000000 		.word	.LANCHOR0
 194              		.cfi_endproc
 195              	.LFE230:
 196              		.size	sem1_setup, .-sem1_setup
 197              		.section	.text.sem2_setup,"ax",%progbits
 198              		.align	1
 199              		.p2align 4,,15
 200              		.syntax unified
 201              		.thumb
 202              		.thumb_func
 203              		.fpu fpv4-sp-d16
 204              		.type	sem2_setup, %function
 205              	sem2_setup:
 206              	.LFB246:
 207              		.cfi_startproc
 208              		@ args = 0, pretend = 0, frame = 8
 209              		@ frame_needed = 0, uses_anonymous_args = 0
 210 0000 00B5     		push	{lr}
 211              		.cfi_def_cfa_offset 4
 212              		.cfi_offset 14, -4
 213 0002 074B     		ldr	r3, .L28
 214 0004 83B0     		sub	sp, sp, #12
 215              		.cfi_def_cfa_offset 16
 216 0006 1A68     		ldr	r2, [r3]
 217 0008 0192     		str	r2, [sp, #4]
 218 000a 019A     		ldr	r2, [sp, #4]
 219 000c 1B68     		ldr	r3, [r3]
 220 000e 9A42     		cmp	r2, r3
 221 0010 04D1     		bne	.L27
 222 0012 03B0     		add	sp, sp, #12
 223              		.cfi_remember_state
 224              		.cfi_def_cfa_offset 4
 225              		@ sp needed
 226 0014 5DF804EB 		ldr	lr, [sp], #4
 227              		.cfi_restore 14
 228              		.cfi_def_cfa_offset 0
ARM GAS  C:\Users\25521\AppData\Local\Temp\ccZMS30B.s 			page 5


 229 0018 FFF7FEBF 		b	sem1_setup
 230              	.L27:
 231              		.cfi_restore_state
 232 001c FFF7FEFF 		bl	__stack_chk_fail
 233              	.L29:
 234              		.align	2
 235              	.L28:
 236 0020 00000000 		.word	__stack_chk_guard
 237              		.cfi_endproc
 238              	.LFE246:
 239              		.size	sem2_setup, .-sem2_setup
 240              		.section	.text.sem3_setup,"ax",%progbits
 241              		.align	1
 242              		.p2align 4,,15
 243              		.syntax unified
 244              		.thumb
 245              		.thumb_func
 246              		.fpu fpv4-sp-d16
 247              		.type	sem3_setup, %function
 248              	sem3_setup:
 249              	.LFB248:
 250              		.cfi_startproc
 251              		@ args = 0, pretend = 0, frame = 8
 252              		@ frame_needed = 0, uses_anonymous_args = 0
 253 0000 00B5     		push	{lr}
 254              		.cfi_def_cfa_offset 4
 255              		.cfi_offset 14, -4
 256 0002 074B     		ldr	r3, .L35
 257 0004 83B0     		sub	sp, sp, #12
 258              		.cfi_def_cfa_offset 16
 259 0006 1A68     		ldr	r2, [r3]
 260 0008 0192     		str	r2, [sp, #4]
 261 000a 019A     		ldr	r2, [sp, #4]
 262 000c 1B68     		ldr	r3, [r3]
 263 000e 9A42     		cmp	r2, r3
 264 0010 04D1     		bne	.L34
 265 0012 03B0     		add	sp, sp, #12
 266              		.cfi_remember_state
 267              		.cfi_def_cfa_offset 4
 268              		@ sp needed
 269 0014 5DF804EB 		ldr	lr, [sp], #4
 270              		.cfi_restore 14
 271              		.cfi_def_cfa_offset 0
 272 0018 FFF7FEBF 		b	sem1_setup
 273              	.L34:
 274              		.cfi_restore_state
 275 001c FFF7FEFF 		bl	__stack_chk_fail
 276              	.L36:
 277              		.align	2
 278              	.L35:
 279 0020 00000000 		.word	__stack_chk_guard
 280              		.cfi_endproc
 281              	.LFE248:
 282              		.size	sem3_setup, .-sem3_setup
 283              		.section	.text.sem2_execute,"ax",%progbits
 284              		.align	1
 285              		.p2align 4,,15
ARM GAS  C:\Users\25521\AppData\Local\Temp\ccZMS30B.s 			page 6


 286              		.syntax unified
 287              		.thumb
 288              		.thumb_func
 289              		.fpu fpv4-sp-d16
 290              		.type	sem2_execute, %function
 291              	sem2_execute:
 292              	.LFB235:
 293              		.loc 1 143 0
 294              		.cfi_startproc
 295              		@ args = 0, pretend = 0, frame = 8
 296              		@ frame_needed = 0, uses_anonymous_args = 0
 297              		.loc 1 143 0
 298 0000 2DE9F041 		push	{r4, r5, r6, r7, r8, lr}
 299              		.cfi_def_cfa_offset 24
 300              		.cfi_offset 4, -24
 301              		.cfi_offset 5, -20
 302              		.cfi_offset 6, -16
 303              		.cfi_offset 7, -12
 304              		.cfi_offset 8, -8
 305              		.cfi_offset 14, -4
 306 0004 5F4C     		ldr	r4, .L49
 307              		.loc 1 151 0
 308 0006 604D     		ldr	r5, .L49+4
 309              		.loc 1 143 0
 310 0008 2368     		ldr	r3, [r4]
 311 000a 84B0     		sub	sp, sp, #16
 312              		.cfi_def_cfa_offset 40
 313              		.loc 1 151 0
 314 000c 0021     		movs	r1, #0
 315 000e 2846     		mov	r0, r5
 316              		.loc 1 143 0
 317 0010 0393     		str	r3, [sp, #12]
 318              		.loc 1 151 0
 319 0012 FFF7FEFF 		bl	chSemWaitTimeout
 320              	.LVL13:
 321              		.loc 1 152 0
 322 0016 A0F1FF31 		sub	r1, r0, #-1
 323 001a B1FA81F1 		clz	r1, r1
 324 001e 4909     		lsrs	r1, r1, #5
 325 0020 0120     		movs	r0, #1
 326              	.LVL14:
 327 0022 FFF7FEFF 		bl	_test_assert
 328              	.LVL15:
 329 0026 38B1     		cbz	r0, .L48
 330              	.L37:
 331              		.loc 1 181 0
 332 0028 039A     		ldr	r2, [sp, #12]
 333 002a 2368     		ldr	r3, [r4]
 334 002c 9A42     		cmp	r2, r3
 335 002e 40F0A680 		bne	.L47
 336 0032 04B0     		add	sp, sp, #16
 337              		.cfi_remember_state
 338              		.cfi_def_cfa_offset 24
 339              		@ sp needed
 340 0034 BDE8F081 		pop	{r4, r5, r6, r7, r8, pc}
 341              	.L48:
 342              		.cfi_restore_state
ARM GAS  C:\Users\25521\AppData\Local\Temp\ccZMS30B.s 			page 7


 343              	.LBB205:
 344              	.LBB206:
 345              		.file 2 "../e-puck2_main-processor/ChibiOS//os/rt/include/chschd.h"
 346              		.loc 2 618 0
 347 0038 2968     		ldr	r1, [r5]
 348              	.LBE206:
 349              	.LBE205:
 350              		.loc 1 153 0
 351 003a 491B     		subs	r1, r1, r5
 352 003c B1FA81F1 		clz	r1, r1
 353 0040 0220     		movs	r0, #2
 354 0042 4909     		lsrs	r1, r1, #5
 355 0044 FFF7FEFF 		bl	_test_assert
 356              	.LVL16:
 357 0048 0028     		cmp	r0, #0
 358 004a EDD1     		bne	.L37
 359              		.loc 1 154 0
 360 004c A968     		ldr	r1, [r5, #8]
 361 004e B1FA81F1 		clz	r1, r1
 362 0052 4909     		lsrs	r1, r1, #5
 363 0054 0320     		movs	r0, #3
 364 0056 FFF7FEFF 		bl	_test_assert
 365              	.LVL17:
 366 005a 0028     		cmp	r0, #0
 367 005c E4D1     		bne	.L37
 368              	.LBB207:
 369              	.LBB208:
 370              	.LBB209:
 371              	.LBB210:
 372              	.LBB211:
 373              	.LBB212:
 374              		.file 3 "../e-puck2_main-processor/ChibiOS//os/rt/include/chthreads.h"
 375              		.loc 3 176 0
 376 005e 4B4E     		ldr	r6, .L49+8
 377              	.LBE212:
 378              	.LBE211:
 379              	.LBE210:
 380              	.LBE209:
 381              		.loc 1 159 0
 382 0060 4B4A     		ldr	r2, .L49+12
 383              	.LBB214:
 384              	.LBB213:
 385              		.loc 3 189 0
 386 0062 B369     		ldr	r3, [r6, #24]
 387              	.LBE213:
 388              	.LBE214:
 389              		.loc 1 159 0
 390 0064 1168     		ldr	r1, [r2]
 391 0066 9A68     		ldr	r2, [r3, #8]
 392 0068 4A4B     		ldr	r3, .L49+16
 393 006a 0090     		str	r0, [sp]
 394 006c 013A     		subs	r2, r2, #1
 395 006e 0846     		mov	r0, r1
 396 0070 4FF4FC71 		mov	r1, #504
 397 0074 FFF7FEFF 		bl	chThdCreateStatic
 398              	.LVL18:
 399 0078 474B     		ldr	r3, .L49+20
ARM GAS  C:\Users\25521\AppData\Local\Temp\ccZMS30B.s 			page 8


 400              		.loc 1 161 0
 401 007a 4FF4FA71 		mov	r1, #500
 402              		.loc 1 159 0
 403 007e 1860     		str	r0, [r3]
 404              		.loc 1 161 0
 405 0080 2846     		mov	r0, r5
 406 0082 FFF7FEFF 		bl	chSemWaitTimeout
 407              	.LVL19:
 408 0086 0746     		mov	r7, r0
 409              	.LVL20:
 410              		.loc 1 162 0
 411 0088 FFF7FEFF 		bl	test_wait_threads
 412              	.LVL21:
 413              		.loc 1 163 0
 414 008c B7FA87F1 		clz	r1, r7
 415 0090 4909     		lsrs	r1, r1, #5
 416 0092 0420     		movs	r0, #4
 417 0094 FFF7FEFF 		bl	_test_assert
 418              	.LVL22:
 419 0098 0028     		cmp	r0, #0
 420 009a C5D1     		bne	.L37
 421              	.LBB215:
 422              	.LBB216:
 423              		.loc 2 618 0
 424 009c 2968     		ldr	r1, [r5]
 425              	.LBE216:
 426              	.LBE215:
 427              		.loc 1 164 0
 428 009e 491B     		subs	r1, r1, r5
 429 00a0 B1FA81F1 		clz	r1, r1
 430 00a4 0520     		movs	r0, #5
 431 00a6 4909     		lsrs	r1, r1, #5
 432 00a8 FFF7FEFF 		bl	_test_assert
 433              	.LVL23:
 434 00ac 0028     		cmp	r0, #0
 435 00ae BBD1     		bne	.L37
 436              		.loc 1 165 0
 437 00b0 A968     		ldr	r1, [r5, #8]
 438 00b2 B1FA81F1 		clz	r1, r1
 439 00b6 4909     		lsrs	r1, r1, #5
 440 00b8 0620     		movs	r0, #6
 441 00ba FFF7FEFF 		bl	_test_assert
 442              	.LVL24:
 443 00be 0028     		cmp	r0, #0
 444 00c0 B2D1     		bne	.L37
 445              		.loc 1 170 0
 446 00c2 FFF7FEFF 		bl	test_wait_tick
 447              	.LVL25:
 448              	.LBB217:
 449              	.LBB218:
 450              	.LBB219:
 451              	.LBB220:
 452              	.LBB221:
 453              	.LBB222:
 454              	.LBB223:
 455              		.file 4 "../e-puck2_main-processor/ChibiOS//os/ext/CMSIS/include/core_cmFunc.h"
 456              		.loc 4 548 0
ARM GAS  C:\Users\25521\AppData\Local\Temp\ccZMS30B.s 			page 9


 457 00c6 2023     		movs	r3, #32
 458              		.syntax unified
 459              	@ 548 "../e-puck2_main-processor/ChibiOS//os/ext/CMSIS/include/core_cmFunc.h" 1
 460 00c8 83F31188 		MSR basepri, r3
 461              	@ 0 "" 2
 462              	.LVL26:
 463              		.thumb
 464              		.syntax unified
 465              	.LBE223:
 466              	.LBE222:
 467              	.LBE221:
 468              		.file 5 "../e-puck2_main-processor/ChibiOS//os/rt/include/chsys.h"
 469              		.loc 5 349 0
 470 00cc FFF7FEFF 		bl	_stats_start_measure_crit_thd
 471              	.LVL27:
 472              		.loc 5 350 0
 473 00d0 FFF7FEFF 		bl	_dbg_check_lock
 474              	.LVL28:
 475              	.LBE220:
 476              	.LBE219:
 477              	.LBB224:
 478              	.LBB225:
 479              		.file 6 "../e-puck2_main-processor/ChibiOS//os/rt/include/chvt.h"
 480              		.loc 6 229 0
 481 00d4 B76A     		ldr	r7, [r6, #40]
 482              	.LVL29:
 483              	.LBE225:
 484              	.LBE224:
 485              	.LBB226:
 486              	.LBB227:
 487              		.loc 5 360 0
 488 00d6 FFF7FEFF 		bl	_dbg_check_unlock
 489              	.LVL30:
 490              		.loc 5 361 0
 491 00da FFF7FEFF 		bl	_stats_stop_measure_crit_thd
 492              	.LVL31:
 493              		.loc 5 367 0
 494 00de 3368     		ldr	r3, [r6]
 495 00e0 B342     		cmp	r3, r6
 496 00e2 07D0     		beq	.L41
 497 00e4 B269     		ldr	r2, [r6, #24]
 498 00e6 9B68     		ldr	r3, [r3, #8]
 499 00e8 9268     		ldr	r2, [r2, #8]
 500 00ea 9A42     		cmp	r2, r3
 501 00ec 02D2     		bcs	.L41
 502 00ee 2B48     		ldr	r0, .L49+24
 503 00f0 FFF7FEFF 		bl	chSysHalt
 504              	.LVL32:
 505              	.L41:
 506              	.LBB228:
 507              	.LBB229:
 508              	.LBB230:
 509              		.loc 4 548 0
 510 00f4 0023     		movs	r3, #0
 511              		.syntax unified
 512              	@ 548 "../e-puck2_main-processor/ChibiOS//os/ext/CMSIS/include/core_cmFunc.h" 1
 513 00f6 83F31188 		MSR basepri, r3
ARM GAS  C:\Users\25521\AppData\Local\Temp\ccZMS30B.s 			page 10


 514              	@ 0 "" 2
 515              	.LVL33:
 516              		.thumb
 517              		.syntax unified
 518              	.LBE230:
 519              	.LBE229:
 520              	.LBE228:
 521              	.LBE227:
 522              	.LBE226:
 523              	.LBE218:
 524              	.LBE217:
 525              		.loc 1 174 0
 526 00fa DFF88C80 		ldr	r8, .L49+4
 527              	.LBB237:
 528              	.LBB236:
 529              	.LBB235:
 530              	.LBB234:
 531              	.LBB233:
 532              	.LBB232:
 533              	.LBB231:
 534              		.loc 4 548 0
 535 00fe 4126     		movs	r6, #65
 536              	.LVL34:
 537              	.L42:
 538              	.LBE231:
 539              	.LBE232:
 540              	.LBE233:
 541              	.LBE234:
 542              	.LBE235:
 543              	.LBE236:
 544              	.LBE237:
 545              		.loc 1 173 0
 546 0100 3046     		mov	r0, r6
 547 0102 FFF7FEFF 		bl	test_emit_token
 548              	.LVL35:
 549              		.loc 1 174 0
 550 0106 3221     		movs	r1, #50
 551 0108 4046     		mov	r0, r8
 552 010a FFF7FEFF 		bl	chSemWaitTimeout
 553              	.LVL36:
 554              		.loc 1 175 0
 555 010e A0F1FF31 		sub	r1, r0, #-1
 556 0112 B1FA81F1 		clz	r1, r1
 557 0116 4909     		lsrs	r1, r1, #5
 558 0118 0720     		movs	r0, #7
 559              	.LVL37:
 560 011a FFF7FEFF 		bl	_test_assert
 561              	.LVL38:
 562 011e 0028     		cmp	r0, #0
 563 0120 82D1     		bne	.L37
 564              	.LBB238:
 565              	.LBB239:
 566              		.loc 2 618 0
 567 0122 2968     		ldr	r1, [r5]
 568              	.LBE239:
 569              	.LBE238:
 570              		.loc 1 176 0
ARM GAS  C:\Users\25521\AppData\Local\Temp\ccZMS30B.s 			page 11


 571 0124 491B     		subs	r1, r1, r5
 572 0126 B1FA81F1 		clz	r1, r1
 573 012a 0820     		movs	r0, #8
 574 012c 4909     		lsrs	r1, r1, #5
 575 012e FFF7FEFF 		bl	_test_assert
 576              	.LVL39:
 577 0132 0028     		cmp	r0, #0
 578 0134 7FF478AF 		bne	.L37
 579              		.loc 1 177 0
 580 0138 A968     		ldr	r1, [r5, #8]
 581 013a B1FA81F1 		clz	r1, r1
 582 013e 4909     		lsrs	r1, r1, #5
 583 0140 0920     		movs	r0, #9
 584 0142 FFF7FEFF 		bl	_test_assert
 585              	.LVL40:
 586 0146 0028     		cmp	r0, #0
 587 0148 7FF46EAF 		bne	.L37
 588 014c 0136     		adds	r6, r6, #1
 589 014e F6B2     		uxtb	r6, r6
 590              		.loc 1 172 0
 591 0150 462E     		cmp	r6, #70
 592 0152 D5D1     		bne	.L42
 593              		.loc 1 179 0
 594 0154 1249     		ldr	r1, .L49+28
 595 0156 0A20     		movs	r0, #10
 596 0158 FFF7FEFF 		bl	_test_assert_sequence
 597              	.LVL41:
 598 015c 0028     		cmp	r0, #0
 599 015e 7FF463AF 		bne	.L37
 600              		.loc 1 180 0
 601 0162 039A     		ldr	r2, [sp, #12]
 602 0164 2368     		ldr	r3, [r4]
 603 0166 9A42     		cmp	r2, r3
 604 0168 09D1     		bne	.L47
 605 016a 07F1FC02 		add	r2, r7, #252
 606 016e 07F1FA01 		add	r1, r7, #250
 607 0172 0B20     		movs	r0, #11
 608              	.LBE208:
 609              	.LBE207:
 610              		.loc 1 181 0
 611 0174 04B0     		add	sp, sp, #16
 612              		.cfi_remember_state
 613              		.cfi_def_cfa_offset 24
 614              		@ sp needed
 615 0176 BDE8F041 		pop	{r4, r5, r6, r7, r8, lr}
 616              		.cfi_restore 14
 617              		.cfi_restore 8
 618              		.cfi_restore 7
 619              		.cfi_restore 6
 620              		.cfi_restore 5
 621              		.cfi_restore 4
 622              		.cfi_def_cfa_offset 0
 623              	.LVL42:
 624              	.LBB241:
 625              	.LBB240:
 626              		.loc 1 180 0
 627 017a FFF7FEBF 		b	_test_assert_time_window
ARM GAS  C:\Users\25521\AppData\Local\Temp\ccZMS30B.s 			page 12


 628              	.LVL43:
 629              	.L47:
 630              		.cfi_restore_state
 631              	.LBE240:
 632              	.LBE241:
 633              		.loc 1 181 0
 634 017e FFF7FEFF 		bl	__stack_chk_fail
 635              	.LVL44:
 636              	.L50:
 637 0182 00BF     		.align	2
 638              	.L49:
 639 0184 00000000 		.word	__stack_chk_guard
 640 0188 00000000 		.word	.LANCHOR0
 641 018c 00000000 		.word	ch
 642 0190 00000000 		.word	wa
 643 0194 00000000 		.word	thread2
 644 0198 00000000 		.word	threads
 645 019c 00000000 		.word	.LANCHOR1
 646 01a0 00000000 		.word	.LC0
 647              		.cfi_endproc
 648              	.LFE235:
 649              		.size	sem2_execute, .-sem2_execute
 650              		.section	.text.sem3_execute,"ax",%progbits
 651              		.align	1
 652              		.p2align 4,,15
 653              		.syntax unified
 654              		.thumb
 655              		.thumb_func
 656              		.fpu fpv4-sp-d16
 657              		.type	sem3_execute, %function
 658              	sem3_execute:
 659              	.LFB238:
 660              		.loc 1 214 0
 661              		.cfi_startproc
 662              		@ args = 0, pretend = 0, frame = 8
 663              		@ frame_needed = 0, uses_anonymous_args = 0
 664 0000 30B5     		push	{r4, r5, lr}
 665              		.cfi_def_cfa_offset 12
 666              		.cfi_offset 4, -12
 667              		.cfi_offset 5, -8
 668              		.cfi_offset 14, -4
 669              	.LBB258:
 670              	.LBB259:
 671              	.LBB260:
 672              	.LBB261:
 673              		.loc 3 176 0
 674 0002 274B     		ldr	r3, .L60
 675              	.LBE261:
 676              	.LBE260:
 677              	.LBE259:
 678              	.LBE258:
 679              		.loc 1 216 0
 680 0004 274A     		ldr	r2, .L60+4
 681              	.LBB263:
 682              	.LBB262:
 683              		.loc 3 189 0
 684 0006 9B69     		ldr	r3, [r3, #24]
ARM GAS  C:\Users\25521\AppData\Local\Temp\ccZMS30B.s 			page 13


 685              	.LBE262:
 686              	.LBE263:
 687              		.loc 1 214 0
 688 0008 274D     		ldr	r5, .L60+8
 689              		.loc 1 216 0
 690 000a 1068     		ldr	r0, [r2]
 691              		.loc 1 214 0
 692 000c 2968     		ldr	r1, [r5]
 693              		.loc 1 216 0
 694 000e 9A68     		ldr	r2, [r3, #8]
 695 0010 264B     		ldr	r3, .L60+12
 696              		.loc 1 217 0
 697 0012 274C     		ldr	r4, .L60+16
 698              		.loc 1 214 0
 699 0014 85B0     		sub	sp, sp, #20
 700              		.cfi_def_cfa_offset 32
 701              		.loc 1 216 0
 702 0016 0132     		adds	r2, r2, #1
 703              		.loc 1 214 0
 704 0018 0391     		str	r1, [sp, #12]
 705              		.loc 1 216 0
 706 001a 0021     		movs	r1, #0
 707 001c 0091     		str	r1, [sp]
 708 001e 4FF4FC71 		mov	r1, #504
 709 0022 FFF7FEFF 		bl	chThdCreateStatic
 710              	.LVL45:
 711 0026 234B     		ldr	r3, .L60+20
 712              		.loc 1 217 0
 713 0028 2146     		mov	r1, r4
 714              		.loc 1 216 0
 715 002a 1860     		str	r0, [r3]
 716              		.loc 1 217 0
 717 002c 2046     		mov	r0, r4
 718 002e FFF7FEFF 		bl	chSemSignalWait
 719              	.LVL46:
 720              	.LBB264:
 721              	.LBB265:
 722              		.loc 2 618 0
 723 0032 2168     		ldr	r1, [r4]
 724              	.LBE265:
 725              	.LBE264:
 726              		.loc 1 218 0
 727 0034 091B     		subs	r1, r1, r4
 728 0036 B1FA81F1 		clz	r1, r1
 729 003a 0120     		movs	r0, #1
 730 003c 4909     		lsrs	r1, r1, #5
 731 003e FFF7FEFF 		bl	_test_assert
 732              	.LVL47:
 733 0042 28B1     		cbz	r0, .L59
 734              	.L51:
 735              		.loc 1 224 0
 736 0044 039A     		ldr	r2, [sp, #12]
 737 0046 2B68     		ldr	r3, [r5]
 738 0048 9A42     		cmp	r2, r3
 739 004a 26D1     		bne	.L58
 740 004c 05B0     		add	sp, sp, #20
 741              		.cfi_remember_state
ARM GAS  C:\Users\25521\AppData\Local\Temp\ccZMS30B.s 			page 14


 742              		.cfi_def_cfa_offset 12
 743              		@ sp needed
 744 004e 30BD     		pop	{r4, r5, pc}
 745              	.L59:
 746              		.cfi_restore_state
 747              		.loc 1 219 0
 748 0050 A168     		ldr	r1, [r4, #8]
 749 0052 B1FA81F1 		clz	r1, r1
 750 0056 4909     		lsrs	r1, r1, #5
 751 0058 0220     		movs	r0, #2
 752 005a FFF7FEFF 		bl	_test_assert
 753              	.LVL48:
 754 005e 0028     		cmp	r0, #0
 755 0060 F0D1     		bne	.L51
 756              	.LBB266:
 757              	.LBB267:
 758              		.loc 1 221 0
 759 0062 2146     		mov	r1, r4
 760 0064 2046     		mov	r0, r4
 761 0066 FFF7FEFF 		bl	chSemSignalWait
 762              	.LVL49:
 763              	.LBB268:
 764              	.LBB269:
 765              		.loc 2 618 0
 766 006a 2168     		ldr	r1, [r4]
 767              	.LBE269:
 768              	.LBE268:
 769              		.loc 1 222 0
 770 006c 091B     		subs	r1, r1, r4
 771 006e B1FA81F1 		clz	r1, r1
 772 0072 0320     		movs	r0, #3
 773 0074 4909     		lsrs	r1, r1, #5
 774 0076 FFF7FEFF 		bl	_test_assert
 775              	.LVL50:
 776 007a 0028     		cmp	r0, #0
 777 007c E2D1     		bne	.L51
 778              		.loc 1 223 0
 779 007e 039A     		ldr	r2, [sp, #12]
 780 0080 2B68     		ldr	r3, [r5]
 781 0082 9A42     		cmp	r2, r3
 782 0084 09D1     		bne	.L58
 783 0086 A168     		ldr	r1, [r4, #8]
 784 0088 B1FA81F1 		clz	r1, r1
 785 008c 4909     		lsrs	r1, r1, #5
 786 008e 0420     		movs	r0, #4
 787              	.LBE267:
 788              	.LBE266:
 789              		.loc 1 224 0
 790 0090 05B0     		add	sp, sp, #20
 791              		.cfi_remember_state
 792              		.cfi_def_cfa_offset 12
 793              		@ sp needed
 794 0092 BDE83040 		pop	{r4, r5, lr}
 795              		.cfi_restore 14
 796              		.cfi_restore 5
 797              		.cfi_restore 4
 798              		.cfi_def_cfa_offset 0
ARM GAS  C:\Users\25521\AppData\Local\Temp\ccZMS30B.s 			page 15


 799              	.LBB271:
 800              	.LBB270:
 801              		.loc 1 223 0
 802 0096 FFF7FEBF 		b	_test_assert
 803              	.LVL51:
 804              	.L58:
 805              		.cfi_restore_state
 806              	.LBE270:
 807              	.LBE271:
 808              		.loc 1 224 0
 809 009a FFF7FEFF 		bl	__stack_chk_fail
 810              	.LVL52:
 811              	.L61:
 812 009e 00BF     		.align	2
 813              	.L60:
 814 00a0 00000000 		.word	ch
 815 00a4 00000000 		.word	wa
 816 00a8 00000000 		.word	__stack_chk_guard
 817 00ac 00000000 		.word	thread3
 818 00b0 00000000 		.word	.LANCHOR0
 819 00b4 00000000 		.word	threads
 820              		.cfi_endproc
 821              	.LFE238:
 822              		.size	sem3_execute, .-sem3_execute
 823              		.section	.text.thread4,"ax",%progbits
 824              		.align	1
 825              		.p2align 4,,15
 826              		.syntax unified
 827              		.thumb
 828              		.thumb_func
 829              		.fpu fpv4-sp-d16
 830              		.type	thread4, %function
 831              	thread4:
 832              	.LFB239:
 833              		.loc 1 241 0
 834              		.cfi_startproc
 835              		@ args = 0, pretend = 0, frame = 8
 836              		@ frame_needed = 0, uses_anonymous_args = 0
 837              	.LVL53:
 838 0000 30B5     		push	{r4, r5, lr}
 839              		.cfi_def_cfa_offset 12
 840              		.cfi_offset 4, -12
 841              		.cfi_offset 5, -8
 842              		.cfi_offset 14, -4
 843 0002 194C     		ldr	r4, .L70
 844 0004 83B0     		sub	sp, sp, #12
 845              		.cfi_def_cfa_offset 24
 846              		.loc 1 241 0
 847 0006 2368     		ldr	r3, [r4]
 848 0008 0193     		str	r3, [sp, #4]
 849 000a 0546     		mov	r5, r0
 850              	.LVL54:
 851              	.LBB286:
 852              	.LBB287:
 853              	.LBB288:
 854              	.LBB289:
 855              	.LBB290:
ARM GAS  C:\Users\25521\AppData\Local\Temp\ccZMS30B.s 			page 16


 856              	.LBB291:
 857              	.LBB292:
 858              		.loc 4 548 0
 859 000c 2023     		movs	r3, #32
 860              		.syntax unified
 861              	@ 548 "../e-puck2_main-processor/ChibiOS//os/ext/CMSIS/include/core_cmFunc.h" 1
 862 000e 83F31188 		MSR basepri, r3
 863              	@ 0 "" 2
 864              	.LVL55:
 865              		.thumb
 866              		.syntax unified
 867              	.LBE292:
 868              	.LBE291:
 869              	.LBE290:
 870              		.loc 5 349 0
 871 0012 FFF7FEFF 		bl	_stats_start_measure_crit_thd
 872              	.LVL56:
 873              		.loc 5 350 0
 874 0016 FFF7FEFF 		bl	_dbg_check_lock
 875              	.LVL57:
 876              	.LBE289:
 877              	.LBE288:
 878              	.LBB293:
 879              	.LBB294:
 880              		.file 7 "../e-puck2_main-processor/ChibiOS//os/rt/include/chbsem.h"
 881              		.loc 7 268 0
 882 001a FFF7FEFF 		bl	chDbgCheckClassI
 883              	.LVL58:
 884              		.loc 7 270 0
 885 001e AB68     		ldr	r3, [r5, #8]
 886 0020 002B     		cmp	r3, #0
 887 0022 1BDD     		ble	.L67
 888              	.L63:
 889              	.LVL59:
 890              	.LBE294:
 891              	.LBE293:
 892              		.loc 7 286 0
 893 0024 FFF7FEFF 		bl	chSchRescheduleS
 894              	.LVL60:
 895              	.LBB296:
 896              	.LBB297:
 897              		.loc 5 360 0
 898 0028 FFF7FEFF 		bl	_dbg_check_unlock
 899              	.LVL61:
 900              		.loc 5 361 0
 901 002c FFF7FEFF 		bl	_stats_stop_measure_crit_thd
 902              	.LVL62:
 903              		.loc 5 367 0
 904 0030 0E4B     		ldr	r3, .L70+4
 905 0032 1A68     		ldr	r2, [r3]
 906 0034 9A42     		cmp	r2, r3
 907 0036 04D0     		beq	.L64
 908 0038 9969     		ldr	r1, [r3, #24]
 909 003a 9368     		ldr	r3, [r2, #8]
 910 003c 8A68     		ldr	r2, [r1, #8]
 911 003e 9A42     		cmp	r2, r3
 912 0040 08D3     		bcc	.L68
ARM GAS  C:\Users\25521\AppData\Local\Temp\ccZMS30B.s 			page 17


 913              	.L64:
 914              	.LVL63:
 915              	.LBB298:
 916              	.LBB299:
 917              	.LBB300:
 918              		.loc 4 548 0
 919 0042 0023     		movs	r3, #0
 920              		.syntax unified
 921              	@ 548 "../e-puck2_main-processor/ChibiOS//os/ext/CMSIS/include/core_cmFunc.h" 1
 922 0044 83F31188 		MSR basepri, r3
 923              	@ 0 "" 2
 924              	.LVL64:
 925              		.thumb
 926              		.syntax unified
 927              	.LBE300:
 928              	.LBE299:
 929              	.LBE298:
 930              	.LBE297:
 931              	.LBE296:
 932              	.LBE287:
 933              	.LBE286:
 934              		.loc 1 244 0
 935 0048 019A     		ldr	r2, [sp, #4]
 936 004a 2368     		ldr	r3, [r4]
 937 004c 9A42     		cmp	r2, r3
 938 004e 09D1     		bne	.L69
 939 0050 03B0     		add	sp, sp, #12
 940              		.cfi_remember_state
 941              		.cfi_def_cfa_offset 12
 942              		@ sp needed
 943 0052 30BD     		pop	{r4, r5, pc}
 944              	.LVL65:
 945              	.L68:
 946              		.cfi_restore_state
 947              	.LBB305:
 948              	.LBB304:
 949              	.LBB302:
 950              	.LBB301:
 951              		.loc 5 367 0
 952 0054 0648     		ldr	r0, .L70+8
 953 0056 FFF7FEFF 		bl	chSysHalt
 954              	.LVL66:
 955 005a F2E7     		b	.L64
 956              	.LVL67:
 957              	.L67:
 958              	.LBE301:
 959              	.LBE302:
 960              	.LBB303:
 961              	.LBB295:
 962              		.loc 7 271 0
 963 005c 2846     		mov	r0, r5
 964 005e FFF7FEFF 		bl	chSemSignalI
 965              	.LVL68:
 966 0062 DFE7     		b	.L63
 967              	.LVL69:
 968              	.L69:
 969              	.LBE295:
ARM GAS  C:\Users\25521\AppData\Local\Temp\ccZMS30B.s 			page 18


 970              	.LBE303:
 971              	.LBE304:
 972              	.LBE305:
 973              		.loc 1 244 0
 974 0064 FFF7FEFF 		bl	__stack_chk_fail
 975              	.LVL70:
 976              	.L71:
 977              		.align	2
 978              	.L70:
 979 0068 00000000 		.word	__stack_chk_guard
 980 006c 00000000 		.word	ch
 981 0070 00000000 		.word	.LANCHOR1
 982              		.cfi_endproc
 983              	.LFE239:
 984              		.size	thread4, .-thread4
 985              		.section	.text.thread2,"ax",%progbits
 986              		.align	1
 987              		.p2align 4,,15
 988              		.syntax unified
 989              		.thumb
 990              		.thumb_func
 991              		.fpu fpv4-sp-d16
 992              		.type	thread2, %function
 993              	thread2:
 994              	.LFB234:
 995              		.loc 1 133 0
 996              		.cfi_startproc
 997              		@ args = 0, pretend = 0, frame = 8
 998              		@ frame_needed = 0, uses_anonymous_args = 0
 999              	.LVL71:
 1000 0000 10B5     		push	{r4, lr}
 1001              		.cfi_def_cfa_offset 8
 1002              		.cfi_offset 4, -8
 1003              		.cfi_offset 14, -4
 1004 0002 174C     		ldr	r4, .L78
 1005 0004 82B0     		sub	sp, sp, #8
 1006              		.cfi_def_cfa_offset 16
 1007              		.loc 1 133 0
 1008 0006 2368     		ldr	r3, [r4]
 1009 0008 0193     		str	r3, [sp, #4]
 1010              		.loc 1 136 0
 1011 000a 3220     		movs	r0, #50
 1012              	.LVL72:
 1013 000c FFF7FEFF 		bl	chThdSleep
 1014              	.LVL73:
 1015              	.LBB316:
 1016              	.LBB317:
 1017              	.LBB318:
 1018              	.LBB319:
 1019              	.LBB320:
 1020              		.loc 4 548 0
 1021 0010 2023     		movs	r3, #32
 1022              		.syntax unified
 1023              	@ 548 "../e-puck2_main-processor/ChibiOS//os/ext/CMSIS/include/core_cmFunc.h" 1
 1024 0012 83F31188 		MSR basepri, r3
 1025              	@ 0 "" 2
 1026              	.LVL74:
ARM GAS  C:\Users\25521\AppData\Local\Temp\ccZMS30B.s 			page 19


 1027              		.thumb
 1028              		.syntax unified
 1029              	.LBE320:
 1030              	.LBE319:
 1031              	.LBE318:
 1032              		.loc 5 349 0
 1033 0016 FFF7FEFF 		bl	_stats_start_measure_crit_thd
 1034              	.LVL75:
 1035              		.loc 5 350 0
 1036 001a FFF7FEFF 		bl	_dbg_check_lock
 1037              	.LVL76:
 1038              	.LBE317:
 1039              	.LBE316:
 1040              		.loc 1 138 0
 1041 001e 1148     		ldr	r0, .L78+4
 1042 0020 FFF7FEFF 		bl	chSemSignalI
 1043              	.LVL77:
 1044              		.loc 1 139 0
 1045 0024 FFF7FEFF 		bl	chSchRescheduleS
 1046              	.LVL78:
 1047              	.LBB321:
 1048              	.LBB322:
 1049              		.loc 5 360 0
 1050 0028 FFF7FEFF 		bl	_dbg_check_unlock
 1051              	.LVL79:
 1052              		.loc 5 361 0
 1053 002c FFF7FEFF 		bl	_stats_stop_measure_crit_thd
 1054              	.LVL80:
 1055              		.loc 5 367 0
 1056 0030 0D4B     		ldr	r3, .L78+8
 1057 0032 1A68     		ldr	r2, [r3]
 1058 0034 9A42     		cmp	r2, r3
 1059 0036 04D0     		beq	.L73
 1060 0038 9969     		ldr	r1, [r3, #24]
 1061 003a 9368     		ldr	r3, [r2, #8]
 1062 003c 8A68     		ldr	r2, [r1, #8]
 1063 003e 9A42     		cmp	r2, r3
 1064 0040 08D3     		bcc	.L76
 1065              	.L73:
 1066              	.LVL81:
 1067              	.LBB323:
 1068              	.LBB324:
 1069              	.LBB325:
 1070              		.loc 4 548 0
 1071 0042 0023     		movs	r3, #0
 1072              		.syntax unified
 1073              	@ 548 "../e-puck2_main-processor/ChibiOS//os/ext/CMSIS/include/core_cmFunc.h" 1
 1074 0044 83F31188 		MSR basepri, r3
 1075              	@ 0 "" 2
 1076              	.LVL82:
 1077              		.thumb
 1078              		.syntax unified
 1079              	.LBE325:
 1080              	.LBE324:
 1081              	.LBE323:
 1082              	.LBE322:
 1083              	.LBE321:
ARM GAS  C:\Users\25521\AppData\Local\Temp\ccZMS30B.s 			page 20


 1084              		.loc 1 141 0
 1085 0048 019A     		ldr	r2, [sp, #4]
 1086 004a 2368     		ldr	r3, [r4]
 1087 004c 9A42     		cmp	r2, r3
 1088 004e 05D1     		bne	.L77
 1089 0050 02B0     		add	sp, sp, #8
 1090              		.cfi_remember_state
 1091              		.cfi_def_cfa_offset 8
 1092              		@ sp needed
 1093 0052 10BD     		pop	{r4, pc}
 1094              	.L76:
 1095              		.cfi_restore_state
 1096              	.LBB327:
 1097              	.LBB326:
 1098              		.loc 5 367 0
 1099 0054 0548     		ldr	r0, .L78+12
 1100 0056 FFF7FEFF 		bl	chSysHalt
 1101              	.LVL83:
 1102 005a F2E7     		b	.L73
 1103              	.L77:
 1104              	.LBE326:
 1105              	.LBE327:
 1106              		.loc 1 141 0
 1107 005c FFF7FEFF 		bl	__stack_chk_fail
 1108              	.LVL84:
 1109              	.L79:
 1110              		.align	2
 1111              	.L78:
 1112 0060 00000000 		.word	__stack_chk_guard
 1113 0064 00000000 		.word	.LANCHOR0
 1114 0068 00000000 		.word	ch
 1115 006c 00000000 		.word	.LANCHOR1
 1116              		.cfi_endproc
 1117              	.LFE234:
 1118              		.size	thread2, .-thread2
 1119              		.section	.text.sem1_execute,"ax",%progbits
 1120              		.align	1
 1121              		.p2align 4,,15
 1122              		.syntax unified
 1123              		.thumb
 1124              		.thumb_func
 1125              		.fpu fpv4-sp-d16
 1126              		.type	sem1_execute, %function
 1127              	sem1_execute:
 1128              	.LFB232:
 1129              		.loc 1 83 0
 1130              		.cfi_startproc
 1131              		@ args = 0, pretend = 0, frame = 8
 1132              		@ frame_needed = 0, uses_anonymous_args = 0
 1133 0000 2DE9F047 		push	{r4, r5, r6, r7, r8, r9, r10, lr}
 1134              		.cfi_def_cfa_offset 32
 1135              		.cfi_offset 4, -32
 1136              		.cfi_offset 5, -28
 1137              		.cfi_offset 6, -24
 1138              		.cfi_offset 7, -20
 1139              		.cfi_offset 8, -16
 1140              		.cfi_offset 9, -12
ARM GAS  C:\Users\25521\AppData\Local\Temp\ccZMS30B.s 			page 21


 1141              		.cfi_offset 10, -8
 1142              		.cfi_offset 14, -4
 1143              	.LBB379:
 1144              	.LBB380:
 1145              	.LBB381:
 1146              	.LBB382:
 1147              		.loc 3 176 0
 1148 0004 5E4C     		ldr	r4, .L96
 1149              	.LBE382:
 1150              	.LBE381:
 1151              	.LBE380:
 1152              	.LBE379:
 1153              		.loc 1 85 0
 1154 0006 5F4F     		ldr	r7, .L96+4
 1155              	.LBB384:
 1156              	.LBB383:
 1157              		.loc 3 189 0
 1158 0008 A369     		ldr	r3, [r4, #24]
 1159              	.LBE383:
 1160              	.LBE384:
 1161              		.loc 1 83 0
 1162 000a DFF8A081 		ldr	r8, .L96+44
 1163              		.loc 1 85 0
 1164 000e 9A68     		ldr	r2, [r3, #8]
 1165 0010 D7F80090 		ldr	r9, [r7]
 1166              		.loc 1 83 0
 1167 0014 D8F80010 		ldr	r1, [r8]
 1168              		.loc 1 85 0
 1169 0018 DFF894A1 		ldr	r10, .L96+48
 1170 001c 5A4B     		ldr	r3, .L96+8
 1171 001e 5B4E     		ldr	r6, .L96+12
 1172              		.loc 1 90 0
 1173 0020 5B4D     		ldr	r5, .L96+16
 1174              		.loc 1 83 0
 1175 0022 84B0     		sub	sp, sp, #16
 1176              		.cfi_def_cfa_offset 48
 1177              		.loc 1 85 0
 1178 0024 0532     		adds	r2, r2, #5
 1179              		.loc 1 83 0
 1180 0026 0391     		str	r1, [sp, #12]
 1181              		.loc 1 85 0
 1182 0028 CDF800A0 		str	r10, [sp]
 1183 002c 4FF4FC71 		mov	r1, #504
 1184 0030 4846     		mov	r0, r9
 1185 0032 FFF7FEFF 		bl	chThdCreateStatic
 1186              	.LVL85:
 1187              	.LBB385:
 1188              	.LBB386:
 1189              		.loc 3 189 0
 1190 0036 A369     		ldr	r3, [r4, #24]
 1191              	.LBE386:
 1192              	.LBE385:
 1193              		.loc 1 85 0
 1194 0038 3060     		str	r0, [r6]
 1195              		.loc 1 86 0
 1196 003a 9A68     		ldr	r2, [r3, #8]
 1197 003c 554B     		ldr	r3, .L96+20
ARM GAS  C:\Users\25521\AppData\Local\Temp\ccZMS30B.s 			page 22


 1198 003e 0093     		str	r3, [sp]
 1199 0040 0132     		adds	r2, r2, #1
 1200 0042 514B     		ldr	r3, .L96+8
 1201 0044 7868     		ldr	r0, [r7, #4]
 1202 0046 4FF4FC71 		mov	r1, #504
 1203 004a FFF7FEFF 		bl	chThdCreateStatic
 1204              	.LVL86:
 1205              	.LBB387:
 1206              	.LBB388:
 1207              		.loc 3 189 0
 1208 004e A369     		ldr	r3, [r4, #24]
 1209              	.LBE388:
 1210              	.LBE387:
 1211              		.loc 1 86 0
 1212 0050 7060     		str	r0, [r6, #4]
 1213              		.loc 1 87 0
 1214 0052 9A68     		ldr	r2, [r3, #8]
 1215 0054 504B     		ldr	r3, .L96+24
 1216 0056 0093     		str	r3, [sp]
 1217 0058 0332     		adds	r2, r2, #3
 1218 005a 4B4B     		ldr	r3, .L96+8
 1219 005c B868     		ldr	r0, [r7, #8]
 1220 005e 4FF4FC71 		mov	r1, #504
 1221 0062 FFF7FEFF 		bl	chThdCreateStatic
 1222              	.LVL87:
 1223              	.LBB389:
 1224              	.LBB390:
 1225              		.loc 3 189 0
 1226 0066 A369     		ldr	r3, [r4, #24]
 1227              	.LBE390:
 1228              	.LBE389:
 1229              		.loc 1 87 0
 1230 0068 B060     		str	r0, [r6, #8]
 1231              		.loc 1 88 0
 1232 006a 9A68     		ldr	r2, [r3, #8]
 1233 006c 4B4B     		ldr	r3, .L96+28
 1234 006e 0093     		str	r3, [sp]
 1235 0070 0432     		adds	r2, r2, #4
 1236 0072 454B     		ldr	r3, .L96+8
 1237 0074 F868     		ldr	r0, [r7, #12]
 1238 0076 4FF4FC71 		mov	r1, #504
 1239 007a FFF7FEFF 		bl	chThdCreateStatic
 1240              	.LVL88:
 1241              	.LBB391:
 1242              	.LBB392:
 1243              		.loc 3 189 0
 1244 007e A369     		ldr	r3, [r4, #24]
 1245              	.LBE392:
 1246              	.LBE391:
 1247              		.loc 1 88 0
 1248 0080 F060     		str	r0, [r6, #12]
 1249              		.loc 1 89 0
 1250 0082 9A68     		ldr	r2, [r3, #8]
 1251 0084 464B     		ldr	r3, .L96+32
 1252 0086 0093     		str	r3, [sp]
 1253 0088 4FF4FC71 		mov	r1, #504
 1254 008c 0232     		adds	r2, r2, #2
ARM GAS  C:\Users\25521\AppData\Local\Temp\ccZMS30B.s 			page 23


 1255 008e 3E4B     		ldr	r3, .L96+8
 1256 0090 3869     		ldr	r0, [r7, #16]
 1257 0092 FFF7FEFF 		bl	chThdCreateStatic
 1258              	.LVL89:
 1259 0096 3061     		str	r0, [r6, #16]
 1260              		.loc 1 90 0
 1261 0098 2846     		mov	r0, r5
 1262 009a FFF7FEFF 		bl	chSemSignal
 1263              	.LVL90:
 1264              		.loc 1 91 0
 1265 009e 2846     		mov	r0, r5
 1266 00a0 FFF7FEFF 		bl	chSemSignal
 1267              	.LVL91:
 1268              		.loc 1 92 0
 1269 00a4 2846     		mov	r0, r5
 1270 00a6 FFF7FEFF 		bl	chSemSignal
 1271              	.LVL92:
 1272              		.loc 1 93 0
 1273 00aa 2846     		mov	r0, r5
 1274 00ac FFF7FEFF 		bl	chSemSignal
 1275              	.LVL93:
 1276              		.loc 1 94 0
 1277 00b0 2846     		mov	r0, r5
 1278 00b2 FFF7FEFF 		bl	chSemSignal
 1279              	.LVL94:
 1280              		.loc 1 95 0
 1281 00b6 FFF7FEFF 		bl	test_wait_threads
 1282              	.LVL95:
 1283              		.loc 1 99 0
 1284 00ba 3A49     		ldr	r1, .L96+36
 1285 00bc 0120     		movs	r0, #1
 1286 00be FFF7FEFF 		bl	_test_assert_sequence
 1287              	.LVL96:
 1288 00c2 38B1     		cbz	r0, .L92
 1289              	.L80:
 1290              		.loc 1 108 0
 1291 00c4 039A     		ldr	r2, [sp, #12]
 1292 00c6 D8F80030 		ldr	r3, [r8]
 1293 00ca 9A42     		cmp	r2, r3
 1294 00cc 56D1     		bne	.L93
 1295 00ce 04B0     		add	sp, sp, #16
 1296              		.cfi_remember_state
 1297              		.cfi_def_cfa_offset 32
 1298              		@ sp needed
 1299 00d0 BDE8F087 		pop	{r4, r5, r6, r7, r8, r9, r10, pc}
 1300              	.L92:
 1301              		.cfi_restore_state
 1302              	.LBB393:
 1303              	.LBB394:
 1304              		.loc 3 189 0
 1305 00d4 A269     		ldr	r2, [r4, #24]
 1306              	.LBE394:
 1307              	.LBE393:
 1308              		.loc 1 101 0
 1309 00d6 2C4B     		ldr	r3, .L96+8
 1310 00d8 9268     		ldr	r2, [r2, #8]
 1311 00da CDF800A0 		str	r10, [sp]
ARM GAS  C:\Users\25521\AppData\Local\Temp\ccZMS30B.s 			page 24


 1312 00de 4846     		mov	r0, r9
 1313 00e0 0532     		adds	r2, r2, #5
 1314 00e2 4FF4FC71 		mov	r1, #504
 1315 00e6 FFF7FEFF 		bl	chThdCreateStatic
 1316              	.LVL97:
 1317              	.LBB395:
 1318              	.LBB396:
 1319              	.LBB397:
 1320              	.LBB398:
 1321              	.LBB399:
 1322              		.loc 4 548 0
 1323 00ea 2023     		movs	r3, #32
 1324              	.LBE399:
 1325              	.LBE398:
 1326              	.LBE397:
 1327              	.LBE396:
 1328              	.LBE395:
 1329              		.loc 1 101 0
 1330 00ec 3060     		str	r0, [r6]
 1331              	.LVL98:
 1332              	.LBB404:
 1333              	.LBB403:
 1334              	.LBB402:
 1335              	.LBB401:
 1336              	.LBB400:
 1337              		.loc 4 548 0
 1338              		.syntax unified
 1339              	@ 548 "../e-puck2_main-processor/ChibiOS//os/ext/CMSIS/include/core_cmFunc.h" 1
 1340 00ee 83F31188 		MSR basepri, r3
 1341              	@ 0 "" 2
 1342              	.LVL99:
 1343              		.thumb
 1344              		.syntax unified
 1345              	.LBE400:
 1346              	.LBE401:
 1347              	.LBE402:
 1348              		.loc 5 349 0
 1349 00f2 FFF7FEFF 		bl	_stats_start_measure_crit_thd
 1350              	.LVL100:
 1351              		.loc 5 350 0
 1352 00f6 FFF7FEFF 		bl	_dbg_check_lock
 1353              	.LVL101:
 1354              	.LBE403:
 1355              	.LBE404:
 1356              		.loc 1 103 0
 1357 00fa 2846     		mov	r0, r5
 1358 00fc 0221     		movs	r1, #2
 1359 00fe FFF7FEFF 		bl	chSemAddCounterI
 1360              	.LVL102:
 1361              		.loc 1 104 0
 1362 0102 FFF7FEFF 		bl	chSchRescheduleS
 1363              	.LVL103:
 1364              	.LBB405:
 1365              	.LBB406:
 1366              		.loc 5 360 0
 1367 0106 FFF7FEFF 		bl	_dbg_check_unlock
 1368              	.LVL104:
ARM GAS  C:\Users\25521\AppData\Local\Temp\ccZMS30B.s 			page 25


 1369              		.loc 5 361 0
 1370 010a FFF7FEFF 		bl	_stats_stop_measure_crit_thd
 1371              	.LVL105:
 1372              		.loc 5 367 0
 1373 010e 2368     		ldr	r3, [r4]
 1374 0110 A342     		cmp	r3, r4
 1375 0112 04D0     		beq	.L82
 1376 0114 A269     		ldr	r2, [r4, #24]
 1377 0116 9B68     		ldr	r3, [r3, #8]
 1378 0118 9268     		ldr	r2, [r2, #8]
 1379 011a 9A42     		cmp	r2, r3
 1380 011c 26D3     		bcc	.L94
 1381              	.L82:
 1382              	.LVL106:
 1383              	.LBB407:
 1384              	.LBB408:
 1385              	.LBB409:
 1386              		.loc 4 548 0
 1387 011e 0023     		movs	r3, #0
 1388              		.syntax unified
 1389              	@ 548 "../e-puck2_main-processor/ChibiOS//os/ext/CMSIS/include/core_cmFunc.h" 1
 1390 0120 83F31188 		MSR basepri, r3
 1391              	@ 0 "" 2
 1392              	.LVL107:
 1393              		.thumb
 1394              		.syntax unified
 1395              	.LBE409:
 1396              	.LBE408:
 1397              	.LBE407:
 1398              	.LBE406:
 1399              	.LBE405:
 1400              		.loc 1 106 0
 1401 0124 FFF7FEFF 		bl	test_wait_threads
 1402              	.LVL108:
 1403              	.LBB411:
 1404              	.LBB412:
 1405              	.LBB413:
 1406              	.LBB414:
 1407              	.LBB415:
 1408              		.loc 4 548 0
 1409 0128 2023     		movs	r3, #32
 1410              		.syntax unified
 1411              	@ 548 "../e-puck2_main-processor/ChibiOS//os/ext/CMSIS/include/core_cmFunc.h" 1
 1412 012a 83F31188 		MSR basepri, r3
 1413              	@ 0 "" 2
 1414              	.LVL109:
 1415              		.thumb
 1416              		.syntax unified
 1417              	.LBE415:
 1418              	.LBE414:
 1419              	.LBE413:
 1420              		.loc 5 349 0
 1421 012e FFF7FEFF 		bl	_stats_start_measure_crit_thd
 1422              	.LVL110:
 1423              		.loc 5 350 0
 1424 0132 FFF7FEFF 		bl	_dbg_check_lock
 1425              	.LVL111:
ARM GAS  C:\Users\25521\AppData\Local\Temp\ccZMS30B.s 			page 26


 1426              	.LBE412:
 1427              	.LBE411:
 1428              	.LBB416:
 1429              	.LBB417:
 1430              		.file 8 "../e-puck2_main-processor/ChibiOS//os/rt/include/chsem.h"
 1431              		.loc 8 151 0
 1432 0136 FFF7FEFF 		bl	chDbgCheckClassI
 1433              	.LVL112:
 1434              	.LBE417:
 1435              	.LBE416:
 1436              		.loc 1 107 0
 1437 013a A968     		ldr	r1, [r5, #8]
 1438 013c A1F10101 		sub	r1, #1
 1439 0140 B1FA81F1 		clz	r1, r1
 1440 0144 4909     		lsrs	r1, r1, #5
 1441 0146 0220     		movs	r0, #2
 1442 0148 FFF7FEFF 		bl	_test_assert
 1443              	.LVL113:
 1444              	.LBB418:
 1445              	.LBB419:
 1446              		.loc 5 360 0
 1447 014c FFF7FEFF 		bl	_dbg_check_unlock
 1448              	.LVL114:
 1449              		.loc 5 361 0
 1450 0150 FFF7FEFF 		bl	_stats_stop_measure_crit_thd
 1451              	.LVL115:
 1452              		.loc 5 367 0
 1453 0154 2368     		ldr	r3, [r4]
 1454 0156 A342     		cmp	r3, r4
 1455 0158 04D0     		beq	.L85
 1456 015a A269     		ldr	r2, [r4, #24]
 1457 015c 9B68     		ldr	r3, [r3, #8]
 1458 015e 9268     		ldr	r2, [r2, #8]
 1459 0160 9A42     		cmp	r2, r3
 1460 0162 07D3     		bcc	.L95
 1461              	.L85:
 1462              	.LVL116:
 1463              	.LBB420:
 1464              	.LBB421:
 1465              	.LBB422:
 1466              		.loc 4 548 0
 1467 0164 0023     		movs	r3, #0
 1468              		.syntax unified
 1469              	@ 548 "../e-puck2_main-processor/ChibiOS//os/ext/CMSIS/include/core_cmFunc.h" 1
 1470 0166 83F31188 		MSR basepri, r3
 1471              	@ 0 "" 2
 1472              	.LVL117:
 1473              		.thumb
 1474              		.syntax unified
 1475 016a ABE7     		b	.L80
 1476              	.LVL118:
 1477              	.L94:
 1478              	.LBE422:
 1479              	.LBE421:
 1480              	.LBE420:
 1481              	.LBE419:
 1482              	.LBE418:
ARM GAS  C:\Users\25521\AppData\Local\Temp\ccZMS30B.s 			page 27


 1483              	.LBB424:
 1484              	.LBB410:
 1485              		.loc 5 367 0
 1486 016c 0E48     		ldr	r0, .L96+40
 1487 016e FFF7FEFF 		bl	chSysHalt
 1488              	.LVL119:
 1489 0172 D4E7     		b	.L82
 1490              	.LVL120:
 1491              	.L95:
 1492              	.LBE410:
 1493              	.LBE424:
 1494              	.LBB425:
 1495              	.LBB423:
 1496 0174 0C48     		ldr	r0, .L96+40
 1497 0176 FFF7FEFF 		bl	chSysHalt
 1498              	.LVL121:
 1499 017a F3E7     		b	.L85
 1500              	.LVL122:
 1501              	.L93:
 1502              	.LBE423:
 1503              	.LBE425:
 1504              		.loc 1 108 0
 1505 017c FFF7FEFF 		bl	__stack_chk_fail
 1506              	.LVL123:
 1507              	.L97:
 1508              		.align	2
 1509              	.L96:
 1510 0180 00000000 		.word	ch
 1511 0184 00000000 		.word	wa
 1512 0188 00000000 		.word	thread1
 1513 018c 00000000 		.word	threads
 1514 0190 00000000 		.word	.LANCHOR0
 1515 0194 04000000 		.word	.LC2
 1516 0198 08000000 		.word	.LC3
 1517 019c 0C000000 		.word	.LC4
 1518 01a0 10000000 		.word	.LC5
 1519 01a4 00000000 		.word	.LC0
 1520 01a8 00000000 		.word	.LANCHOR1
 1521 01ac 00000000 		.word	__stack_chk_guard
 1522 01b0 00000000 		.word	.LC1
 1523              		.cfi_endproc
 1524              	.LFE232:
 1525              		.size	sem1_execute, .-sem1_execute
 1526              		.section	.text.sem4_execute,"ax",%progbits
 1527              		.align	1
 1528              		.p2align 4,,15
 1529              		.syntax unified
 1530              		.thumb
 1531              		.thumb_func
 1532              		.fpu fpv4-sp-d16
 1533              		.type	sem4_execute, %function
 1534              	sem4_execute:
 1535              	.LFB240:
 1536              		.loc 1 246 0
 1537              		.cfi_startproc
 1538              		@ args = 0, pretend = 0, frame = 16
 1539              		@ frame_needed = 0, uses_anonymous_args = 0
ARM GAS  C:\Users\25521\AppData\Local\Temp\ccZMS30B.s 			page 28


 1540 0000 30B5     		push	{r4, r5, lr}
 1541              		.cfi_def_cfa_offset 12
 1542              		.cfi_offset 4, -12
 1543              		.cfi_offset 5, -8
 1544              		.cfi_offset 14, -4
 1545 0002 AF4D     		ldr	r5, .L141
 1546 0004 87B0     		sub	sp, sp, #28
 1547              		.cfi_def_cfa_offset 40
 1548              		.loc 1 246 0
 1549 0006 2B68     		ldr	r3, [r5]
 1550 0008 0593     		str	r3, [sp, #20]
 1551              	.LVL124:
 1552              	.LBB566:
 1553              	.LBB567:
 1554              		.loc 7 126 0
 1555 000a 02A8     		add	r0, sp, #8
 1556              	.LVL125:
 1557 000c 0021     		movs	r1, #0
 1558 000e FFF7FEFF 		bl	chSemObjectInit
 1559              	.LVL126:
 1560              	.LBE567:
 1561              	.LBE566:
 1562              	.LBB568:
 1563              	.LBB569:
 1564              		.loc 7 255 0
 1565 0012 02A8     		add	r0, sp, #8
 1566              	.LVL127:
 1567 0014 0021     		movs	r1, #0
 1568 0016 FFF7FEFF 		bl	chSemReset
 1569              	.LVL128:
 1570              	.LBE569:
 1571              	.LBE568:
 1572              	.LBB570:
 1573              	.LBB571:
 1574              	.LBB572:
 1575              	.LBB573:
 1576              	.LBB574:
 1577              		.loc 4 548 0
 1578 001a 2023     		movs	r3, #32
 1579              		.syntax unified
 1580              	@ 548 "../e-puck2_main-processor/ChibiOS//os/ext/CMSIS/include/core_cmFunc.h" 1
 1581 001c 83F31188 		MSR basepri, r3
 1582              	@ 0 "" 2
 1583              	.LVL129:
 1584              		.thumb
 1585              		.syntax unified
 1586              	.LBE574:
 1587              	.LBE573:
 1588              	.LBE572:
 1589              		.loc 5 349 0
 1590 0020 FFF7FEFF 		bl	_stats_start_measure_crit_thd
 1591              	.LVL130:
 1592              		.loc 5 350 0
 1593 0024 FFF7FEFF 		bl	_dbg_check_lock
 1594              	.LVL131:
 1595              	.LBE571:
 1596              	.LBE570:
ARM GAS  C:\Users\25521\AppData\Local\Temp\ccZMS30B.s 			page 29


 1597              	.LBB575:
 1598              	.LBB576:
 1599              		.loc 7 302 0
 1600 0028 FFF7FEFF 		bl	chDbgCheckClassI
 1601              	.LVL132:
 1602              		.loc 7 304 0
 1603 002c 0499     		ldr	r1, [sp, #16]
 1604              	.LBE576:
 1605              	.LBE575:
 1606              		.loc 1 252 0
 1607 002e 0029     		cmp	r1, #0
 1608 0030 CCBF     		ite	gt
 1609 0032 0021     		movgt	r1, #0
 1610 0034 0121     		movle	r1, #1
 1611 0036 0120     		movs	r0, #1
 1612 0038 FFF7FEFF 		bl	_test_assert
 1613              	.LVL133:
 1614 003c B0B1     		cbz	r0, .L99
 1615              	.LBB577:
 1616              	.LBB578:
 1617              		.loc 5 360 0
 1618 003e FFF7FEFF 		bl	_dbg_check_unlock
 1619              	.LVL134:
 1620              		.loc 5 361 0
 1621 0042 FFF7FEFF 		bl	_stats_stop_measure_crit_thd
 1622              	.LVL135:
 1623              		.loc 5 367 0
 1624 0046 9F4B     		ldr	r3, .L141+4
 1625 0048 1A68     		ldr	r2, [r3]
 1626 004a 9A42     		cmp	r2, r3
 1627 004c 04D0     		beq	.L121
 1628 004e 9969     		ldr	r1, [r3, #24]
 1629 0050 9368     		ldr	r3, [r2, #8]
 1630 0052 8A68     		ldr	r2, [r1, #8]
 1631 0054 9A42     		cmp	r2, r3
 1632 0056 49D3     		bcc	.L125
 1633              	.L121:
 1634              	.LVL136:
 1635              	.LBE578:
 1636              	.LBE577:
 1637              	.LBB579:
 1638              	.LBB580:
 1639              	.LBB581:
 1640              	.LBB582:
 1641              	.LBB583:
 1642              		.loc 4 548 0
 1643 0058 0023     		movs	r3, #0
 1644              		.syntax unified
 1645              	@ 548 "../e-puck2_main-processor/ChibiOS//os/ext/CMSIS/include/core_cmFunc.h" 1
 1646 005a 83F31188 		MSR basepri, r3
 1647              	@ 0 "" 2
 1648              	.LVL137:
 1649              		.thumb
 1650              		.syntax unified
 1651              	.LBE583:
 1652              	.LBE582:
 1653              	.LBE581:
ARM GAS  C:\Users\25521\AppData\Local\Temp\ccZMS30B.s 			page 30


 1654              	.LBE580:
 1655              	.LBE579:
 1656              		.loc 1 274 0
 1657 005e 059A     		ldr	r2, [sp, #20]
 1658 0060 2B68     		ldr	r3, [r5]
 1659 0062 9A42     		cmp	r2, r3
 1660 0064 40F02981 		bne	.L137
 1661 0068 07B0     		add	sp, sp, #28
 1662              		.cfi_remember_state
 1663              		.cfi_def_cfa_offset 12
 1664              		@ sp needed
 1665 006a 30BD     		pop	{r4, r5, pc}
 1666              	.LVL138:
 1667              	.L99:
 1668              		.cfi_restore_state
 1669              	.LBB585:
 1670              	.LBB586:
 1671              		.loc 5 367 0
 1672 006c 954C     		ldr	r4, .L141+4
 1673              		.loc 5 360 0
 1674 006e FFF7FEFF 		bl	_dbg_check_unlock
 1675              	.LVL139:
 1676              		.loc 5 361 0
 1677 0072 FFF7FEFF 		bl	_stats_stop_measure_crit_thd
 1678              	.LVL140:
 1679              		.loc 5 367 0
 1680 0076 2368     		ldr	r3, [r4]
 1681 0078 A342     		cmp	r3, r4
 1682 007a 05D0     		beq	.L102
 1683 007c A269     		ldr	r2, [r4, #24]
 1684 007e 9B68     		ldr	r3, [r3, #8]
 1685 0080 9268     		ldr	r2, [r2, #8]
 1686 0082 9A42     		cmp	r2, r3
 1687 0084 C0F00D81 		bcc	.L138
 1688              	.L102:
 1689              	.LVL141:
 1690              	.LBB587:
 1691              	.LBB588:
 1692              	.LBB589:
 1693              		.loc 4 548 0
 1694 0088 0023     		movs	r3, #0
 1695              		.syntax unified
 1696              	@ 548 "../e-puck2_main-processor/ChibiOS//os/ext/CMSIS/include/core_cmFunc.h" 1
 1697 008a 83F31188 		MSR basepri, r3
 1698              	@ 0 "" 2
 1699              	.LVL142:
 1700              		.thumb
 1701              		.syntax unified
 1702              	.LBE589:
 1703              	.LBE588:
 1704              	.LBE587:
 1705              	.LBE586:
 1706              	.LBE585:
 1707              		.loc 1 255 0
 1708 008e 8E4A     		ldr	r2, .L141+8
 1709              	.LBB591:
 1710              	.LBB592:
ARM GAS  C:\Users\25521\AppData\Local\Temp\ccZMS30B.s 			page 31


 1711              		.loc 3 189 0
 1712 0090 A369     		ldr	r3, [r4, #24]
 1713              	.LBE592:
 1714              	.LBE591:
 1715              		.loc 1 255 0
 1716 0092 1068     		ldr	r0, [r2]
 1717 0094 9A68     		ldr	r2, [r3, #8]
 1718 0096 8D4B     		ldr	r3, .L141+12
 1719 0098 02A9     		add	r1, sp, #8
 1720              	.LVL143:
 1721 009a 0091     		str	r1, [sp]
 1722 009c 013A     		subs	r2, r2, #1
 1723 009e 4FF4FC71 		mov	r1, #504
 1724              	.LVL144:
 1725 00a2 FFF7FEFF 		bl	chThdCreateStatic
 1726              	.LVL145:
 1727 00a6 8A4B     		ldr	r3, .L141+16
 1728 00a8 1860     		str	r0, [r3]
 1729              	.LVL146:
 1730              	.LBB593:
 1731              	.LBB594:
 1732              		.loc 7 143 0
 1733 00aa 02A8     		add	r0, sp, #8
 1734              	.LVL147:
 1735 00ac FFF7FEFF 		bl	chSemWait
 1736              	.LVL148:
 1737              	.LBE594:
 1738              	.LBE593:
 1739              	.LBB595:
 1740              	.LBB596:
 1741              	.LBB597:
 1742              	.LBB598:
 1743              	.LBB599:
 1744              		.loc 4 548 0
 1745 00b0 2023     		movs	r3, #32
 1746              		.syntax unified
 1747              	@ 548 "../e-puck2_main-processor/ChibiOS//os/ext/CMSIS/include/core_cmFunc.h" 1
 1748 00b2 83F31188 		MSR basepri, r3
 1749              	@ 0 "" 2
 1750              	.LVL149:
 1751              		.thumb
 1752              		.syntax unified
 1753              	.LBE599:
 1754              	.LBE598:
 1755              	.LBE597:
 1756              		.loc 5 349 0
 1757 00b6 FFF7FEFF 		bl	_stats_start_measure_crit_thd
 1758              	.LVL150:
 1759              		.loc 5 350 0
 1760 00ba FFF7FEFF 		bl	_dbg_check_lock
 1761              	.LVL151:
 1762              	.LBE596:
 1763              	.LBE595:
 1764              	.LBB600:
 1765              	.LBB601:
 1766              		.loc 7 302 0
 1767 00be FFF7FEFF 		bl	chDbgCheckClassI
ARM GAS  C:\Users\25521\AppData\Local\Temp\ccZMS30B.s 			page 32


 1768              	.LVL152:
 1769              		.loc 7 304 0
 1770 00c2 0499     		ldr	r1, [sp, #16]
 1771              	.LBE601:
 1772              	.LBE600:
 1773              		.loc 1 262 0
 1774 00c4 0029     		cmp	r1, #0
 1775 00c6 CCBF     		ite	gt
 1776 00c8 0021     		movgt	r1, #0
 1777 00ca 0121     		movle	r1, #1
 1778 00cc 0220     		movs	r0, #2
 1779 00ce FFF7FEFF 		bl	_test_assert
 1780              	.LVL153:
 1781 00d2 78B1     		cbz	r0, .L103
 1782              	.L119:
 1783              	.LBB602:
 1784              	.LBB584:
 1785              		.loc 5 360 0
 1786 00d4 FFF7FEFF 		bl	_dbg_check_unlock
 1787              	.LVL154:
 1788              		.loc 5 361 0
 1789 00d8 FFF7FEFF 		bl	_stats_stop_measure_crit_thd
 1790              	.LVL155:
 1791              		.loc 5 367 0
 1792 00dc 2368     		ldr	r3, [r4]
 1793 00de A342     		cmp	r3, r4
 1794 00e0 BAD0     		beq	.L121
 1795 00e2 A269     		ldr	r2, [r4, #24]
 1796 00e4 9B68     		ldr	r3, [r3, #8]
 1797 00e6 9268     		ldr	r2, [r2, #8]
 1798 00e8 9A42     		cmp	r2, r3
 1799 00ea B5D2     		bcs	.L121
 1800              	.LVL156:
 1801              	.L125:
 1802 00ec 7948     		ldr	r0, .L141+20
 1803 00ee FFF7FEFF 		bl	chSysHalt
 1804              	.LVL157:
 1805 00f2 B1E7     		b	.L121
 1806              	.LVL158:
 1807              	.L103:
 1808              	.LBE584:
 1809              	.LBE602:
 1810              	.LBB603:
 1811              	.LBB604:
 1812              		.loc 5 360 0
 1813 00f4 FFF7FEFF 		bl	_dbg_check_unlock
 1814              	.LVL159:
 1815              		.loc 5 361 0
 1816 00f8 FFF7FEFF 		bl	_stats_stop_measure_crit_thd
 1817              	.LVL160:
 1818              		.loc 5 367 0
 1819 00fc 2368     		ldr	r3, [r4]
 1820 00fe A342     		cmp	r3, r4
 1821 0100 07D0     		beq	.L105
 1822 0102 A269     		ldr	r2, [r4, #24]
 1823 0104 9B68     		ldr	r3, [r3, #8]
 1824 0106 9268     		ldr	r2, [r2, #8]
ARM GAS  C:\Users\25521\AppData\Local\Temp\ccZMS30B.s 			page 33


 1825 0108 9A42     		cmp	r2, r3
 1826 010a 02D2     		bcs	.L105
 1827 010c 7148     		ldr	r0, .L141+20
 1828 010e FFF7FEFF 		bl	chSysHalt
 1829              	.LVL161:
 1830              	.L105:
 1831              	.LBB605:
 1832              	.LBB606:
 1833              	.LBB607:
 1834              		.loc 4 548 0
 1835 0112 0023     		movs	r3, #0
 1836              		.syntax unified
 1837              	@ 548 "../e-puck2_main-processor/ChibiOS//os/ext/CMSIS/include/core_cmFunc.h" 1
 1838 0114 83F31188 		MSR basepri, r3
 1839              	@ 0 "" 2
 1840              	.LVL162:
 1841              		.thumb
 1842              		.syntax unified
 1843              	.LBE607:
 1844              	.LBE606:
 1845              	.LBE605:
 1846              	.LBE604:
 1847              	.LBE603:
 1848              	.LBB608:
 1849              	.LBB609:
 1850              	.LBB610:
 1851              	.LBB611:
 1852              	.LBB612:
 1853              	.LBB613:
 1854              	.LBB614:
 1855 0118 2023     		movs	r3, #32
 1856              		.syntax unified
 1857              	@ 548 "../e-puck2_main-processor/ChibiOS//os/ext/CMSIS/include/core_cmFunc.h" 1
 1858 011a 83F31188 		MSR basepri, r3
 1859              	@ 0 "" 2
 1860              	.LVL163:
 1861              		.thumb
 1862              		.syntax unified
 1863              	.LBE614:
 1864              	.LBE613:
 1865              	.LBE612:
 1866              		.loc 5 349 0
 1867 011e FFF7FEFF 		bl	_stats_start_measure_crit_thd
 1868              	.LVL164:
 1869              		.loc 5 350 0
 1870 0122 FFF7FEFF 		bl	_dbg_check_lock
 1871              	.LVL165:
 1872              	.LBE611:
 1873              	.LBE610:
 1874              	.LBB615:
 1875              	.LBB616:
 1876              		.loc 7 268 0
 1877 0126 FFF7FEFF 		bl	chDbgCheckClassI
 1878              	.LVL166:
 1879              		.loc 7 270 0
 1880 012a 049B     		ldr	r3, [sp, #16]
 1881 012c 002B     		cmp	r3, #0
ARM GAS  C:\Users\25521\AppData\Local\Temp\ccZMS30B.s 			page 34


 1882 012e 40F3BC80 		ble	.L139
 1883              	.L106:
 1884              	.LVL167:
 1885              	.LBE616:
 1886              	.LBE615:
 1887              		.loc 7 286 0
 1888 0132 FFF7FEFF 		bl	chSchRescheduleS
 1889              	.LVL168:
 1890              	.LBB618:
 1891              	.LBB619:
 1892              		.loc 5 360 0
 1893 0136 FFF7FEFF 		bl	_dbg_check_unlock
 1894              	.LVL169:
 1895              		.loc 5 361 0
 1896 013a FFF7FEFF 		bl	_stats_stop_measure_crit_thd
 1897              	.LVL170:
 1898              		.loc 5 367 0
 1899 013e 2368     		ldr	r3, [r4]
 1900 0140 A342     		cmp	r3, r4
 1901 0142 07D0     		beq	.L107
 1902 0144 A269     		ldr	r2, [r4, #24]
 1903 0146 9B68     		ldr	r3, [r3, #8]
 1904 0148 9268     		ldr	r2, [r2, #8]
 1905 014a 9A42     		cmp	r2, r3
 1906 014c 02D2     		bcs	.L107
 1907 014e 6148     		ldr	r0, .L141+20
 1908 0150 FFF7FEFF 		bl	chSysHalt
 1909              	.LVL171:
 1910              	.L107:
 1911              	.LBB620:
 1912              	.LBB621:
 1913              	.LBB622:
 1914              		.loc 4 548 0
 1915 0154 0023     		movs	r3, #0
 1916              		.syntax unified
 1917              	@ 548 "../e-puck2_main-processor/ChibiOS//os/ext/CMSIS/include/core_cmFunc.h" 1
 1918 0156 83F31188 		MSR basepri, r3
 1919              	@ 0 "" 2
 1920              	.LVL172:
 1921              		.thumb
 1922              		.syntax unified
 1923              	.LBE622:
 1924              	.LBE621:
 1925              	.LBE620:
 1926              	.LBE619:
 1927              	.LBE618:
 1928              	.LBE609:
 1929              	.LBE608:
 1930              	.LBB625:
 1931              	.LBB626:
 1932              	.LBB627:
 1933              	.LBB628:
 1934              	.LBB629:
 1935 015a 2023     		movs	r3, #32
 1936              		.syntax unified
 1937              	@ 548 "../e-puck2_main-processor/ChibiOS//os/ext/CMSIS/include/core_cmFunc.h" 1
 1938 015c 83F31188 		MSR basepri, r3
ARM GAS  C:\Users\25521\AppData\Local\Temp\ccZMS30B.s 			page 35


 1939              	@ 0 "" 2
 1940              	.LVL173:
 1941              		.thumb
 1942              		.syntax unified
 1943              	.LBE629:
 1944              	.LBE628:
 1945              	.LBE627:
 1946              		.loc 5 349 0
 1947 0160 FFF7FEFF 		bl	_stats_start_measure_crit_thd
 1948              	.LVL174:
 1949              		.loc 5 350 0
 1950 0164 FFF7FEFF 		bl	_dbg_check_lock
 1951              	.LVL175:
 1952              	.LBE626:
 1953              	.LBE625:
 1954              	.LBB630:
 1955              	.LBB631:
 1956              		.loc 7 302 0
 1957 0168 FFF7FEFF 		bl	chDbgCheckClassI
 1958              	.LVL176:
 1959              	.LBE631:
 1960              	.LBE630:
 1961              		.loc 1 267 0
 1962 016c 0499     		ldr	r1, [sp, #16]
 1963 016e 0029     		cmp	r1, #0
 1964 0170 D4BF     		ite	le
 1965 0172 0021     		movle	r1, #0
 1966 0174 0121     		movgt	r1, #1
 1967 0176 0320     		movs	r0, #3
 1968 0178 FFF7FEFF 		bl	_test_assert
 1969              	.LVL177:
 1970 017c 0028     		cmp	r0, #0
 1971 017e A9D1     		bne	.L119
 1972              	.LBB632:
 1973              	.LBB633:
 1974              		.loc 5 360 0
 1975 0180 FFF7FEFF 		bl	_dbg_check_unlock
 1976              	.LVL178:
 1977              		.loc 5 361 0
 1978 0184 FFF7FEFF 		bl	_stats_stop_measure_crit_thd
 1979              	.LVL179:
 1980              		.loc 5 367 0
 1981 0188 2368     		ldr	r3, [r4]
 1982 018a A342     		cmp	r3, r4
 1983 018c 07D0     		beq	.L110
 1984 018e A269     		ldr	r2, [r4, #24]
 1985 0190 9B68     		ldr	r3, [r3, #8]
 1986 0192 9268     		ldr	r2, [r2, #8]
 1987 0194 9A42     		cmp	r2, r3
 1988 0196 02D2     		bcs	.L110
 1989 0198 4E48     		ldr	r0, .L141+20
 1990 019a FFF7FEFF 		bl	chSysHalt
 1991              	.LVL180:
 1992              	.L110:
 1993              	.LBB634:
 1994              	.LBB635:
 1995              	.LBB636:
ARM GAS  C:\Users\25521\AppData\Local\Temp\ccZMS30B.s 			page 36


 1996              		.loc 4 548 0
 1997 019e 0023     		movs	r3, #0
 1998              		.syntax unified
 1999              	@ 548 "../e-puck2_main-processor/ChibiOS//os/ext/CMSIS/include/core_cmFunc.h" 1
 2000 01a0 83F31188 		MSR basepri, r3
 2001              	@ 0 "" 2
 2002              	.LVL181:
 2003              		.thumb
 2004              		.syntax unified
 2005              	.LBE636:
 2006              	.LBE635:
 2007              	.LBE634:
 2008              	.LBE633:
 2009              	.LBE632:
 2010              	.LBB637:
 2011              	.LBB638:
 2012              	.LBB639:
 2013              	.LBB640:
 2014              	.LBB641:
 2015 01a4 2023     		movs	r3, #32
 2016              		.syntax unified
 2017              	@ 548 "../e-puck2_main-processor/ChibiOS//os/ext/CMSIS/include/core_cmFunc.h" 1
 2018 01a6 83F31188 		MSR basepri, r3
 2019              	@ 0 "" 2
 2020              	.LVL182:
 2021              		.thumb
 2022              		.syntax unified
 2023              	.LBE641:
 2024              	.LBE640:
 2025              	.LBE639:
 2026              		.loc 5 349 0
 2027 01aa FFF7FEFF 		bl	_stats_start_measure_crit_thd
 2028              	.LVL183:
 2029              		.loc 5 350 0
 2030 01ae FFF7FEFF 		bl	_dbg_check_lock
 2031              	.LVL184:
 2032              	.LBE638:
 2033              	.LBE637:
 2034              	.LBB642:
 2035              	.LBB643:
 2036              		.loc 8 151 0
 2037 01b2 FFF7FEFF 		bl	chDbgCheckClassI
 2038              	.LVL185:
 2039              	.LBE643:
 2040              	.LBE642:
 2041              		.loc 1 268 0
 2042 01b6 0499     		ldr	r1, [sp, #16]
 2043 01b8 A1F10101 		sub	r1, #1
 2044 01bc B1FA81F1 		clz	r1, r1
 2045 01c0 0420     		movs	r0, #4
 2046 01c2 4909     		lsrs	r1, r1, #5
 2047 01c4 FFF7FEFF 		bl	_test_assert
 2048              	.LVL186:
 2049 01c8 0028     		cmp	r0, #0
 2050 01ca 83D1     		bne	.L119
 2051              	.LBB644:
 2052              	.LBB645:
ARM GAS  C:\Users\25521\AppData\Local\Temp\ccZMS30B.s 			page 37


 2053              		.loc 5 360 0
 2054 01cc FFF7FEFF 		bl	_dbg_check_unlock
 2055              	.LVL187:
 2056              		.loc 5 361 0
 2057 01d0 FFF7FEFF 		bl	_stats_stop_measure_crit_thd
 2058              	.LVL188:
 2059              		.loc 5 367 0
 2060 01d4 2368     		ldr	r3, [r4]
 2061 01d6 A342     		cmp	r3, r4
 2062 01d8 07D0     		beq	.L113
 2063 01da A269     		ldr	r2, [r4, #24]
 2064 01dc 9B68     		ldr	r3, [r3, #8]
 2065 01de 9268     		ldr	r2, [r2, #8]
 2066 01e0 9A42     		cmp	r2, r3
 2067 01e2 02D2     		bcs	.L113
 2068 01e4 3B48     		ldr	r0, .L141+20
 2069 01e6 FFF7FEFF 		bl	chSysHalt
 2070              	.LVL189:
 2071              	.L113:
 2072              	.LBB646:
 2073              	.LBB647:
 2074              	.LBB648:
 2075              		.loc 4 548 0
 2076 01ea 0023     		movs	r3, #0
 2077              		.syntax unified
 2078              	@ 548 "../e-puck2_main-processor/ChibiOS//os/ext/CMSIS/include/core_cmFunc.h" 1
 2079 01ec 83F31188 		MSR basepri, r3
 2080              	@ 0 "" 2
 2081              	.LVL190:
 2082              		.thumb
 2083              		.syntax unified
 2084              	.LBE648:
 2085              	.LBE647:
 2086              	.LBE646:
 2087              	.LBE645:
 2088              	.LBE644:
 2089              	.LBB649:
 2090              	.LBB650:
 2091              	.LBB651:
 2092              	.LBB652:
 2093              	.LBB653:
 2094              	.LBB654:
 2095              	.LBB655:
 2096 01f0 2023     		movs	r3, #32
 2097              		.syntax unified
 2098              	@ 548 "../e-puck2_main-processor/ChibiOS//os/ext/CMSIS/include/core_cmFunc.h" 1
 2099 01f2 83F31188 		MSR basepri, r3
 2100              	@ 0 "" 2
 2101              	.LVL191:
 2102              		.thumb
 2103              		.syntax unified
 2104              	.LBE655:
 2105              	.LBE654:
 2106              	.LBE653:
 2107              		.loc 5 349 0
 2108 01f6 FFF7FEFF 		bl	_stats_start_measure_crit_thd
 2109              	.LVL192:
ARM GAS  C:\Users\25521\AppData\Local\Temp\ccZMS30B.s 			page 38


 2110              		.loc 5 350 0
 2111 01fa FFF7FEFF 		bl	_dbg_check_lock
 2112              	.LVL193:
 2113              	.LBE652:
 2114              	.LBE651:
 2115              	.LBB656:
 2116              	.LBB657:
 2117              		.loc 7 268 0
 2118 01fe FFF7FEFF 		bl	chDbgCheckClassI
 2119              	.LVL194:
 2120              		.loc 7 270 0
 2121 0202 049B     		ldr	r3, [sp, #16]
 2122 0204 002B     		cmp	r3, #0
 2123 0206 54DD     		ble	.L140
 2124              	.L114:
 2125              	.LVL195:
 2126              	.LBE657:
 2127              	.LBE656:
 2128              		.loc 7 286 0
 2129 0208 FFF7FEFF 		bl	chSchRescheduleS
 2130              	.LVL196:
 2131              	.LBB659:
 2132              	.LBB660:
 2133              		.loc 5 360 0
 2134 020c FFF7FEFF 		bl	_dbg_check_unlock
 2135              	.LVL197:
 2136              		.loc 5 361 0
 2137 0210 FFF7FEFF 		bl	_stats_stop_measure_crit_thd
 2138              	.LVL198:
 2139              		.loc 5 367 0
 2140 0214 2368     		ldr	r3, [r4]
 2141 0216 A342     		cmp	r3, r4
 2142 0218 07D0     		beq	.L115
 2143 021a A269     		ldr	r2, [r4, #24]
 2144 021c 9B68     		ldr	r3, [r3, #8]
 2145 021e 9268     		ldr	r2, [r2, #8]
 2146 0220 9A42     		cmp	r2, r3
 2147 0222 02D2     		bcs	.L115
 2148 0224 2B48     		ldr	r0, .L141+20
 2149 0226 FFF7FEFF 		bl	chSysHalt
 2150              	.LVL199:
 2151              	.L115:
 2152              	.LBB661:
 2153              	.LBB662:
 2154              	.LBB663:
 2155              		.loc 4 548 0
 2156 022a 0023     		movs	r3, #0
 2157              		.syntax unified
 2158              	@ 548 "../e-puck2_main-processor/ChibiOS//os/ext/CMSIS/include/core_cmFunc.h" 1
 2159 022c 83F31188 		MSR basepri, r3
 2160              	@ 0 "" 2
 2161              	.LVL200:
 2162              		.thumb
 2163              		.syntax unified
 2164              	.LBE663:
 2165              	.LBE662:
 2166              	.LBE661:
ARM GAS  C:\Users\25521\AppData\Local\Temp\ccZMS30B.s 			page 39


 2167              	.LBE660:
 2168              	.LBE659:
 2169              	.LBE650:
 2170              	.LBE649:
 2171              	.LBB666:
 2172              	.LBB667:
 2173              	.LBB668:
 2174              	.LBB669:
 2175              	.LBB670:
 2176 0230 2023     		movs	r3, #32
 2177              		.syntax unified
 2178              	@ 548 "../e-puck2_main-processor/ChibiOS//os/ext/CMSIS/include/core_cmFunc.h" 1
 2179 0232 83F31188 		MSR basepri, r3
 2180              	@ 0 "" 2
 2181              	.LVL201:
 2182              		.thumb
 2183              		.syntax unified
 2184              	.LBE670:
 2185              	.LBE669:
 2186              	.LBE668:
 2187              		.loc 5 349 0
 2188 0236 FFF7FEFF 		bl	_stats_start_measure_crit_thd
 2189              	.LVL202:
 2190              		.loc 5 350 0
 2191 023a FFF7FEFF 		bl	_dbg_check_lock
 2192              	.LVL203:
 2193              	.LBE667:
 2194              	.LBE666:
 2195              	.LBB671:
 2196              	.LBB672:
 2197              		.loc 7 302 0
 2198 023e FFF7FEFF 		bl	chDbgCheckClassI
 2199              	.LVL204:
 2200              	.LBE672:
 2201              	.LBE671:
 2202              		.loc 1 272 0
 2203 0242 0499     		ldr	r1, [sp, #16]
 2204 0244 0029     		cmp	r1, #0
 2205 0246 D4BF     		ite	le
 2206 0248 0021     		movle	r1, #0
 2207 024a 0121     		movgt	r1, #1
 2208 024c 0320     		movs	r0, #3
 2209 024e FFF7FEFF 		bl	_test_assert
 2210              	.LVL205:
 2211 0252 0028     		cmp	r0, #0
 2212 0254 7FF43EAF 		bne	.L119
 2213              	.LBB673:
 2214              	.LBB674:
 2215              		.loc 5 360 0
 2216 0258 FFF7FEFF 		bl	_dbg_check_unlock
 2217              	.LVL206:
 2218              		.loc 5 361 0
 2219 025c FFF7FEFF 		bl	_stats_stop_measure_crit_thd
 2220              	.LVL207:
 2221              		.loc 5 367 0
 2222 0260 2368     		ldr	r3, [r4]
 2223 0262 A342     		cmp	r3, r4
ARM GAS  C:\Users\25521\AppData\Local\Temp\ccZMS30B.s 			page 40


 2224 0264 07D0     		beq	.L118
 2225 0266 A269     		ldr	r2, [r4, #24]
 2226 0268 9B68     		ldr	r3, [r3, #8]
 2227 026a 9268     		ldr	r2, [r2, #8]
 2228 026c 9A42     		cmp	r2, r3
 2229 026e 02D2     		bcs	.L118
 2230 0270 1848     		ldr	r0, .L141+20
 2231 0272 FFF7FEFF 		bl	chSysHalt
 2232              	.LVL208:
 2233              	.L118:
 2234              	.LBB675:
 2235              	.LBB676:
 2236              	.LBB677:
 2237              		.loc 4 548 0
 2238 0276 0023     		movs	r3, #0
 2239              		.syntax unified
 2240              	@ 548 "../e-puck2_main-processor/ChibiOS//os/ext/CMSIS/include/core_cmFunc.h" 1
 2241 0278 83F31188 		MSR basepri, r3
 2242              	@ 0 "" 2
 2243              	.LVL209:
 2244              		.thumb
 2245              		.syntax unified
 2246              	.LBE677:
 2247              	.LBE676:
 2248              	.LBE675:
 2249              	.LBE674:
 2250              	.LBE673:
 2251              	.LBB678:
 2252              	.LBB679:
 2253              	.LBB680:
 2254              	.LBB681:
 2255              	.LBB682:
 2256 027c 2023     		movs	r3, #32
 2257              		.syntax unified
 2258              	@ 548 "../e-puck2_main-processor/ChibiOS//os/ext/CMSIS/include/core_cmFunc.h" 1
 2259 027e 83F31188 		MSR basepri, r3
 2260              	@ 0 "" 2
 2261              	.LVL210:
 2262              		.thumb
 2263              		.syntax unified
 2264              	.LBE682:
 2265              	.LBE681:
 2266              	.LBE680:
 2267              		.loc 5 349 0
 2268 0282 FFF7FEFF 		bl	_stats_start_measure_crit_thd
 2269              	.LVL211:
 2270              		.loc 5 350 0
 2271 0286 FFF7FEFF 		bl	_dbg_check_lock
 2272              	.LVL212:
 2273              	.LBE679:
 2274              	.LBE678:
 2275              	.LBB683:
 2276              	.LBB684:
 2277              		.loc 8 151 0
 2278 028a FFF7FEFF 		bl	chDbgCheckClassI
 2279              	.LVL213:
 2280              	.LBE684:
ARM GAS  C:\Users\25521\AppData\Local\Temp\ccZMS30B.s 			page 41


 2281              	.LBE683:
 2282              		.loc 1 273 0
 2283 028e 0499     		ldr	r1, [sp, #16]
 2284 0290 A1F10101 		sub	r1, #1
 2285 0294 B1FA81F1 		clz	r1, r1
 2286 0298 4909     		lsrs	r1, r1, #5
 2287 029a 0520     		movs	r0, #5
 2288 029c FFF7FEFF 		bl	_test_assert
 2289              	.LVL214:
 2290 02a0 18E7     		b	.L119
 2291              	.LVL215:
 2292              	.L138:
 2293              	.LBB685:
 2294              	.LBB590:
 2295              		.loc 5 367 0
 2296 02a2 0C48     		ldr	r0, .L141+20
 2297 02a4 FFF7FEFF 		bl	chSysHalt
 2298              	.LVL216:
 2299 02a8 EEE6     		b	.L102
 2300              	.LVL217:
 2301              	.L139:
 2302              	.LBE590:
 2303              	.LBE685:
 2304              	.LBB686:
 2305              	.LBB624:
 2306              	.LBB623:
 2307              	.LBB617:
 2308              		.loc 7 271 0
 2309 02aa 02A8     		add	r0, sp, #8
 2310              	.LVL218:
 2311 02ac FFF7FEFF 		bl	chSemSignalI
 2312              	.LVL219:
 2313 02b0 3FE7     		b	.L106
 2314              	.LVL220:
 2315              	.L140:
 2316              	.LBE617:
 2317              	.LBE623:
 2318              	.LBE624:
 2319              	.LBE686:
 2320              	.LBB687:
 2321              	.LBB665:
 2322              	.LBB664:
 2323              	.LBB658:
 2324 02b2 02A8     		add	r0, sp, #8
 2325              	.LVL221:
 2326 02b4 FFF7FEFF 		bl	chSemSignalI
 2327              	.LVL222:
 2328 02b8 A6E7     		b	.L114
 2329              	.LVL223:
 2330              	.L137:
 2331              	.LBE658:
 2332              	.LBE664:
 2333              	.LBE665:
 2334              	.LBE687:
 2335              		.loc 1 274 0
 2336 02ba FFF7FEFF 		bl	__stack_chk_fail
 2337              	.LVL224:
ARM GAS  C:\Users\25521\AppData\Local\Temp\ccZMS30B.s 			page 42


 2338              	.L142:
 2339 02be 00BF     		.align	2
 2340              	.L141:
 2341 02c0 00000000 		.word	__stack_chk_guard
 2342 02c4 00000000 		.word	ch
 2343 02c8 00000000 		.word	wa
 2344 02cc 00000000 		.word	thread4
 2345 02d0 00000000 		.word	threads
 2346 02d4 00000000 		.word	.LANCHOR1
 2347              		.cfi_endproc
 2348              	.LFE240:
 2349              		.size	sem4_execute, .-sem4_execute
 2350              		.global	patternsem
 2351              		.global	testsem4
 2352              		.global	testsem3
 2353              		.global	testsem2
 2354              		.global	testsem1
 2355              		.section	.data.sem1,"aw",%progbits
 2356              		.align	2
 2357              		.set	.LANCHOR0,. + 0
 2358              		.type	sem1, %object
 2359              		.size	sem1, 12
 2360              	sem1:
 2361 0000 00000000 		.word	sem1
 2362 0004 00000000 		.word	sem1
 2363 0008 00000000 		.word	0
 2364              		.section	.rodata.__func__.7216,"a",%progbits
 2365              		.align	2
 2366              		.set	.LANCHOR1,. + 0
 2367              		.type	__func__.7216, %object
 2368              		.size	__func__.7216, 12
 2369              	__func__.7216:
 2370 0000 63685379 		.ascii	"chSysUnlock\000"
 2370      73556E6C 
 2370      6F636B00 
 2371              		.section	.rodata.patternsem,"a",%progbits
 2372              		.align	2
 2373              		.type	patternsem, %object
 2374              		.size	patternsem, 20
 2375              	patternsem:
 2376 0000 00000000 		.word	testsem1
 2377 0004 00000000 		.word	testsem2
 2378 0008 00000000 		.word	testsem3
 2379 000c 00000000 		.word	testsem4
 2380 0010 00000000 		.word	0
 2381              		.section	.rodata.sem1_execute.str1.4,"aMS",%progbits,1
 2382              		.align	2
 2383              	.LC1:
 2384 0000 4100     		.ascii	"A\000"
 2385 0002 0000     		.space	2
 2386              	.LC2:
 2387 0004 4200     		.ascii	"B\000"
 2388 0006 0000     		.space	2
 2389              	.LC3:
 2390 0008 4300     		.ascii	"C\000"
 2391 000a 0000     		.space	2
 2392              	.LC4:
ARM GAS  C:\Users\25521\AppData\Local\Temp\ccZMS30B.s 			page 43


 2393 000c 4400     		.ascii	"D\000"
 2394 000e 0000     		.space	2
 2395              	.LC5:
 2396 0010 4500     		.ascii	"E\000"
 2397              		.section	.rodata.sem2_execute.str1.4,"aMS",%progbits,1
 2398              		.align	2
 2399              	.LC0:
 2400 0000 41424344 		.ascii	"ABCDE\000"
 2400      4500
 2401              		.section	.rodata.str1.4,"aMS",%progbits,1
 2402              		.align	2
 2403              	.LC6:
 2404 0000 42696E61 		.ascii	"Binary Semaphores, functionality\000"
 2404      72792053 
 2404      656D6170 
 2404      686F7265 
 2404      732C2066 
 2405 0021 000000   		.space	3
 2406              	.LC7:
 2407 0024 53656D61 		.ascii	"Semaphores, atomic signal-wait\000"
 2407      70686F72 
 2407      65732C20 
 2407      61746F6D 
 2407      69632073 
 2408 0043 00       		.space	1
 2409              	.LC8:
 2410 0044 53656D61 		.ascii	"Semaphores, timeout\000"
 2410      70686F72 
 2410      65732C20 
 2410      74696D65 
 2410      6F757400 
 2411              	.LC9:
 2412 0058 53656D61 		.ascii	"Semaphores, enqueuing\000"
 2412      70686F72 
 2412      65732C20 
 2412      656E7175 
 2412      6575696E 
 2413              		.section	.rodata.testsem1,"a",%progbits
 2414              		.align	2
 2415              		.type	testsem1, %object
 2416              		.size	testsem1, 16
 2417              	testsem1:
 2418 0000 58000000 		.word	.LC9
 2419 0004 00000000 		.word	sem1_setup
 2420 0008 00000000 		.word	0
 2421 000c 00000000 		.word	sem1_execute
 2422              		.section	.rodata.testsem2,"a",%progbits
 2423              		.align	2
 2424              		.type	testsem2, %object
 2425              		.size	testsem2, 16
 2426              	testsem2:
 2427 0000 44000000 		.word	.LC8
 2428 0004 00000000 		.word	sem2_setup
 2429 0008 00000000 		.word	0
 2430 000c 00000000 		.word	sem2_execute
 2431              		.section	.rodata.testsem3,"a",%progbits
 2432              		.align	2
ARM GAS  C:\Users\25521\AppData\Local\Temp\ccZMS30B.s 			page 44


 2433              		.type	testsem3, %object
 2434              		.size	testsem3, 16
 2435              	testsem3:
 2436 0000 24000000 		.word	.LC7
 2437 0004 00000000 		.word	sem3_setup
 2438 0008 00000000 		.word	0
 2439 000c 00000000 		.word	sem3_execute
 2440              		.section	.rodata.testsem4,"a",%progbits
 2441              		.align	2
 2442              		.type	testsem4, %object
 2443              		.size	testsem4, 16
 2444              	testsem4:
 2445 0000 00000000 		.word	.LC6
 2446 0004 00000000 		.word	0
 2447 0008 00000000 		.word	0
 2448 000c 00000000 		.word	sem4_execute
 2449              		.text
 2450              	.Letext0:
 2451              		.file 9 "d:\\eclipse_e-puck2_win32_11_apr_2018\\eclipse_e-puck2\\tools\\gcc-arm-none-eabi-7-2017-q
 2452              		.file 10 "d:\\eclipse_e-puck2_win32_11_apr_2018\\eclipse_e-puck2\\tools\\gcc-arm-none-eabi-7-2017-
 2453              		.file 11 "d:\\eclipse_e-puck2_win32_11_apr_2018\\eclipse_e-puck2\\tools\\gcc-arm-none-eabi-7-2017-
 2454              		.file 12 "../e-puck2_main-processor/ChibiOS//os/rt/ports/ARMCMx/compilers/GCC/chtypes.h"
 2455              		.file 13 "../e-puck2_main-processor/ChibiOS//os/rt/include/chsystypes.h"
 2456              		.file 14 "../e-puck2_main-processor/ChibiOS//os/ext/CMSIS/include/core_cm4.h"
 2457              		.file 15 "../e-puck2_main-processor/ChibiOS//os/ext/CMSIS/ST/system_stm32f4xx.h"
 2458              		.file 16 "../e-puck2_main-processor/ChibiOS//os/rt/ports/ARMCMx/chcore.h"
 2459              		.file 17 "../e-puck2_main-processor/ChibiOS//os/rt/ports/ARMCMx/chcore_v7m.h"
 2460              		.file 18 "../e-puck2_main-processor/ChibiOS//os/rt/include/chdebug.h"
 2461              		.file 19 "../e-puck2_main-processor/ChibiOS//os/rt/include/chtm.h"
 2462              		.file 20 "../e-puck2_main-processor/ChibiOS//os/rt/include/chstats.h"
 2463              		.file 21 "../e-puck2_main-processor/ChibiOS//os/rt/include/chmtx.h"
 2464              		.file 22 "../e-puck2_main-processor/ChibiOS//os/rt/include/chregistry.h"
 2465              		.file 23 "../e-puck2_main-processor/ChibiOS//test/rt/test.h"