ARM GAS  C:\Users\25521\AppData\Local\Temp\ccUo49GN.s 			page 1


   1              		.cpu cortex-m4
   2              		.eabi_attribute 27, 1
   3              		.eabi_attribute 28, 1
   4              		.eabi_attribute 20, 1
   5              		.eabi_attribute 21, 1
   6              		.eabi_attribute 23, 3
   7              		.eabi_attribute 24, 1
   8              		.eabi_attribute 25, 1
   9              		.eabi_attribute 26, 1
  10              		.eabi_attribute 30, 2
  11              		.eabi_attribute 34, 1
  12              		.eabi_attribute 18, 4
  13              		.file	"board.c"
  14              		.text
  15              	.Ltext0:
  16              		.cfi_sections	.debug_frame
  17              		.section	.text.__early_init,"ax",%progbits
  18              		.align	1
  19              		.p2align 4,,15
  20              		.global	__early_init
  21              		.syntax unified
  22              		.thumb
  23              		.thumb_func
  24              		.fpu fpv4-sp-d16
  25              		.type	__early_init, %function
  26              	__early_init:
  27              	.LFB267:
  28              		.file 1 ".//ChibiOS_ext//os/hal/boards/epuck2/board.c"
  29              		.loc 1 75 0
  30              		.cfi_startproc
  31              		@ args = 0, pretend = 0, frame = 8
  32              		@ frame_needed = 0, uses_anonymous_args = 0
  33 0000 00B5     		push	{lr}
  34              		.cfi_def_cfa_offset 4
  35              		.cfi_offset 14, -4
  36 0002 074B     		ldr	r3, .L7
  37 0004 83B0     		sub	sp, sp, #12
  38              		.cfi_def_cfa_offset 16
  39              		.loc 1 75 0
  40 0006 1A68     		ldr	r2, [r3]
  41 0008 0192     		str	r2, [sp, #4]
  42              		.loc 1 77 0
  43 000a 019A     		ldr	r2, [sp, #4]
  44 000c 1B68     		ldr	r3, [r3]
  45 000e 9A42     		cmp	r2, r3
  46 0010 04D1     		bne	.L6
  47              		.loc 1 78 0
  48 0012 03B0     		add	sp, sp, #12
  49              		.cfi_remember_state
  50              		.cfi_def_cfa_offset 4
  51              		@ sp needed
  52 0014 5DF804EB 		ldr	lr, [sp], #4
  53              		.cfi_restore 14
  54              		.cfi_def_cfa_offset 0
  55              		.loc 1 77 0
  56 0018 FFF7FEBF 		b	stm32_clock_init
  57              	.LVL0:
ARM GAS  C:\Users\25521\AppData\Local\Temp\ccUo49GN.s 			page 2


  58              	.L6:
  59              		.cfi_restore_state
  60 001c FFF7FEFF 		bl	__stack_chk_fail
  61              	.LVL1:
  62              	.L8:
  63              		.align	2
  64              	.L7:
  65 0020 00000000 		.word	__stack_chk_guard
  66              		.cfi_endproc
  67              	.LFE267:
  68              		.size	__early_init, .-__early_init
  69              		.section	.text.sdc_lld_is_card_inserted,"ax",%progbits
  70              		.align	1
  71              		.p2align 4,,15
  72              		.global	sdc_lld_is_card_inserted
  73              		.syntax unified
  74              		.thumb
  75              		.thumb_func
  76              		.fpu fpv4-sp-d16
  77              		.type	sdc_lld_is_card_inserted, %function
  78              	sdc_lld_is_card_inserted:
  79              	.LFB268:
  80              		.loc 1 84 0
  81              		.cfi_startproc
  82              		@ args = 0, pretend = 0, frame = 8
  83              		@ frame_needed = 0, uses_anonymous_args = 0
  84              	.LVL2:
  85 0000 00B5     		push	{lr}
  86              		.cfi_def_cfa_offset 4
  87              		.cfi_offset 14, -4
  88 0002 094B     		ldr	r3, .L13
  89              		.loc 1 87 0
  90 0004 094A     		ldr	r2, .L13+4
  91              		.loc 1 84 0
  92 0006 1968     		ldr	r1, [r3]
  93 0008 83B0     		sub	sp, sp, #12
  94              		.cfi_def_cfa_offset 16
  95              		.loc 1 84 0
  96 000a 0191     		str	r1, [sp, #4]
  97              		.loc 1 87 0
  98 000c 1069     		ldr	r0, [r2, #16]
  99              	.LVL3:
 100              		.loc 1 88 0
 101 000e 019A     		ldr	r2, [sp, #4]
 102 0010 1B68     		ldr	r3, [r3]
 103 0012 9A42     		cmp	r2, r3
 104 0014 06D1     		bne	.L12
 105 0016 6FEAD010 		mvn	r0, r0, lsr #7
 106 001a 00F00100 		and	r0, r0, #1
 107 001e 03B0     		add	sp, sp, #12
 108              		.cfi_remember_state
 109              		.cfi_def_cfa_offset 4
 110              		@ sp needed
 111 0020 5DF804FB 		ldr	pc, [sp], #4
 112              	.L12:
 113              		.cfi_restore_state
 114 0024 FFF7FEFF 		bl	__stack_chk_fail
ARM GAS  C:\Users\25521\AppData\Local\Temp\ccUo49GN.s 			page 3


 115              	.LVL4:
 116              	.L14:
 117              		.align	2
 118              	.L13:
 119 0028 00000000 		.word	__stack_chk_guard
 120 002c 00100240 		.word	1073876992
 121              		.cfi_endproc
 122              	.LFE268:
 123              		.size	sdc_lld_is_card_inserted, .-sdc_lld_is_card_inserted
 124              		.section	.text.sdc_lld_is_write_protected,"ax",%progbits
 125              		.align	1
 126              		.p2align 4,,15
 127              		.global	sdc_lld_is_write_protected
 128              		.syntax unified
 129              		.thumb
 130              		.thumb_func
 131              		.fpu fpv4-sp-d16
 132              		.type	sdc_lld_is_write_protected, %function
 133              	sdc_lld_is_write_protected:
 134              	.LFB269:
 135              		.loc 1 93 0
 136              		.cfi_startproc
 137              		@ args = 0, pretend = 0, frame = 8
 138              		@ frame_needed = 0, uses_anonymous_args = 0
 139              	.LVL5:
 140 0000 00B5     		push	{lr}
 141              		.cfi_def_cfa_offset 4
 142              		.cfi_offset 14, -4
 143 0002 074B     		ldr	r3, .L19
 144 0004 83B0     		sub	sp, sp, #12
 145              		.cfi_def_cfa_offset 16
 146              		.loc 1 93 0
 147 0006 1A68     		ldr	r2, [r3]
 148 0008 0192     		str	r2, [sp, #4]
 149              		.loc 1 98 0
 150 000a 019A     		ldr	r2, [sp, #4]
 151 000c 1B68     		ldr	r3, [r3]
 152 000e 9A42     		cmp	r2, r3
 153 0010 03D1     		bne	.L18
 154 0012 0020     		movs	r0, #0
 155              	.LVL6:
 156 0014 03B0     		add	sp, sp, #12
 157              		.cfi_remember_state
 158              		.cfi_def_cfa_offset 4
 159              		@ sp needed
 160 0016 5DF804FB 		ldr	pc, [sp], #4
 161              	.LVL7:
 162              	.L18:
 163              		.cfi_restore_state
 164 001a FFF7FEFF 		bl	__stack_chk_fail
 165              	.LVL8:
 166              	.L20:
 167 001e 00BF     		.align	2
 168              	.L19:
 169 0020 00000000 		.word	__stack_chk_guard
 170              		.cfi_endproc
 171              	.LFE269:
ARM GAS  C:\Users\25521\AppData\Local\Temp\ccUo49GN.s 			page 4


 172              		.size	sdc_lld_is_write_protected, .-sdc_lld_is_write_protected
 173              		.section	.text.boardInit,"ax",%progbits
 174              		.align	1
 175              		.p2align 4,,15
 176              		.global	boardInit
 177              		.syntax unified
 178              		.thumb
 179              		.thumb_func
 180              		.fpu fpv4-sp-d16
 181              		.type	boardInit, %function
 182              	boardInit:
 183              	.LFB270:
 184              		.loc 1 127 0
 185              		.cfi_startproc
 186              		@ args = 0, pretend = 0, frame = 8
 187              		@ frame_needed = 0, uses_anonymous_args = 0
 188 0000 00B5     		push	{lr}
 189              		.cfi_def_cfa_offset 4
 190              		.cfi_offset 14, -4
 191 0002 064B     		ldr	r3, .L25
 192 0004 83B0     		sub	sp, sp, #12
 193              		.cfi_def_cfa_offset 16
 194              		.loc 1 127 0
 195 0006 1A68     		ldr	r2, [r3]
 196 0008 0192     		str	r2, [sp, #4]
 197              		.loc 1 128 0
 198 000a 019A     		ldr	r2, [sp, #4]
 199 000c 1B68     		ldr	r3, [r3]
 200 000e 9A42     		cmp	r2, r3
 201 0010 02D1     		bne	.L24
 202 0012 03B0     		add	sp, sp, #12
 203              		.cfi_remember_state
 204              		.cfi_def_cfa_offset 4
 205              		@ sp needed
 206 0014 5DF804FB 		ldr	pc, [sp], #4
 207              	.L24:
 208              		.cfi_restore_state
 209 0018 FFF7FEFF 		bl	__stack_chk_fail
 210              	.LVL9:
 211              	.L26:
 212              		.align	2
 213              	.L25:
 214 001c 00000000 		.word	__stack_chk_guard
 215              		.cfi_endproc
 216              	.LFE270:
 217              		.size	boardInit, .-boardInit
 218              		.global	pal_default_config
 219              		.section	.rodata.pal_default_config,"a",%progbits
 220              		.align	2
 221              		.type	pal_default_config, %object
 222              		.size	pal_default_config, 252
 223              	pal_default_config:
 224 0000 AEAE806A 		.word	1786818222
 225 0004 00000000 		.word	0
 226 0008 FFFFFFFF 		.word	-1
 227 000c 01110100 		.word	69889
 228 0010 FFFF0000 		.word	65535
ARM GAS  C:\Users\25521\AppData\Local\Temp\ccUo49GN.s 			page 5


 229 0014 02330D5D 		.word	1561146114
 230 0018 00A00A00 		.word	696320
 231 001c 9FAA1A99 		.word	-1726305633
 232 0020 03030000 		.word	771
 233 0024 FFFFFFFF 		.word	-1
 234 0028 40554040 		.word	1077957952
 235 002c F8AF0000 		.word	45048
 236 0030 005065DD 		.word	-580562944
 237 0034 44005050 		.word	1347420228
 238 0038 FFAFAA02 		.word	44740607
 239 003c 3F000000 		.word	63
 240 0040 FFFFFFFF 		.word	-1
 241 0044 005055A9 		.word	-1454026752
 242 0048 C01F0000 		.word	8128
 243 004c 000000DD 		.word	-587202560
 244 0050 CCC60C00 		.word	837324
 245 0054 2A545A11 		.word	291132458
 246 0058 00000000 		.word	0
 247 005c FFFFFFFF 		.word	-1
 248 0060 55420504 		.word	67453525
 249 0064 6FBF0000 		.word	49007
 250 0068 990C0000 		.word	3225
 251 006c 77000000 		.word	119
 252 0070 5A2A5555 		.word	1431644762
 253 0074 00000000 		.word	0
 254 0078 FFFFFFFF 		.word	-1
 255 007c 05150000 		.word	5381
 256 0080 F3000000 		.word	243
 257 0084 DD00DD0D 		.word	232587485
 258 0088 00000000 		.word	0
 259 008c 00000000 		.word	0
 260 0090 00000000 		.word	0
 261 0094 FFFFFFFF 		.word	-1
 262 0098 00000000 		.word	0
 263 009c FFFF0000 		.word	65535
 264 00a0 00000000 		.word	0
 265 00a4 00000000 		.word	0
 266 00a8 00000000 		.word	0
 267 00ac 00000000 		.word	0
 268 00b0 FFFFFFFF 		.word	-1
 269 00b4 00000000 		.word	0
 270 00b8 FFFF0000 		.word	65535
 271 00bc 00000000 		.word	0
 272 00c0 00000000 		.word	0
 273 00c4 00000000 		.word	0
 274 00c8 00000000 		.word	0
 275 00cc FFFFFFFF 		.word	-1
 276 00d0 00000000 		.word	0
 277 00d4 FFFF0000 		.word	65535
 278 00d8 00000000 		.word	0
 279 00dc 00000000 		.word	0
 280 00e0 00000000 		.word	0
 281 00e4 00000000 		.word	0
 282 00e8 FFFFFFFF 		.word	-1
 283 00ec 00000000 		.word	0
 284 00f0 FFFF0000 		.word	65535
 285 00f4 00000000 		.word	0
ARM GAS  C:\Users\25521\AppData\Local\Temp\ccUo49GN.s 			page 6


 286 00f8 00000000 		.word	0
 287              		.text
 288              	.Letext0:
 289              		.file 2 "d:\\eclipse_e-puck2_win32_11_apr_2018\\eclipse_e-puck2\\tools\\gcc-arm-none-eabi-7-2017-q
 290              		.file 3 "d:\\eclipse_e-puck2_win32_11_apr_2018\\eclipse_e-puck2\\tools\\gcc-arm-none-eabi-7-2017-q
 291              		.file 4 "d:\\eclipse_e-puck2_win32_11_apr_2018\\eclipse_e-puck2\\tools\\gcc-arm-none-eabi-7-2017-q
 292              		.file 5 ".//ChibiOS//os/rt/ports/ARMCMx/compilers/GCC/chtypes.h"
 293              		.file 6 ".//ChibiOS//os/rt/include/chsystypes.h"
 294              		.file 7 ".//ChibiOS//os/rt/include/chschd.h"
 295              		.file 8 ".//ChibiOS//os/ext/CMSIS/include/core_cm4.h"
 296              		.file 9 ".//ChibiOS//os/ext/CMSIS/ST/system_stm32f4xx.h"
 297              		.file 10 ".//ChibiOS//os/ext/CMSIS/ST/stm32f407xx.h"
 298              		.file 11 ".//ChibiOS//os/rt/ports/ARMCMx/chcore.h"
 299              		.file 12 ".//ChibiOS//os/rt/ports/ARMCMx/chcore_v7m.h"
 300              		.file 13 ".//ChibiOS//os/rt/include/chdebug.h"
 301              		.file 14 ".//ChibiOS//os/rt/include/chtm.h"
 302              		.file 15 ".//ChibiOS//os/rt/include/chstats.h"
 303              		.file 16 ".//ChibiOS//os/rt/include/chsem.h"
 304              		.file 17 ".//ChibiOS//os/rt/include/chmtx.h"
 305              		.file 18 ".//ChibiOS//os/rt/include/chregistry.h"
 306              		.file 19 ".//ChibiOS//os/rt/include/chevents.h"
 307              		.file 20 ".//ChibiOS//os/rt/include/chqueues.h"
 308              		.file 21 ".//ChibiOS//os/hal/ports/STM32/LLD/DMAv2/stm32_dma.h"
 309              		.file 22 ".//ChibiOS//os/hal/include/hal_ioblock.h"
 310              		.file 23 ".//ChibiOS//os/hal/ports/STM32/LLD/GPIOv2/pal_lld.h"
 311              		.file 24 ".//ChibiOS//os/hal/include/adc.h"
 312              		.file 25 ".//ChibiOS//os/hal/ports/STM32/LLD/ADCv2/adc_lld.h"
 313              		.file 26 ".//ChibiOS//os/hal/include/can.h"
 314              		.file 27 ".//ChibiOS//os/hal/ports/STM32/LLD/CANv1/can_lld.h"
 315              		.file 28 ".//ChibiOS//os/hal/include/dac.h"
 316              		.file 29 ".//ChibiOS//os/hal/ports/STM32/LLD/DACv1/dac_lld.h"
 317              		.file 30 ".//ChibiOS//os/hal/include/ext.h"
 318              		.file 31 ".//ChibiOS//os/hal/ports/STM32/LLD/EXTIv1/ext_lld.h"
 319              		.file 32 ".//ChibiOS//os/hal/include/gpt.h"
 320              		.file 33 ".//ChibiOS//os/hal/ports/STM32/LLD/TIMv1/gpt_lld.h"
 321              		.file 34 ".//ChibiOS//os/hal/ports/STM32/LLD/TIMv1/stm32_tim.h"
 322              		.file 35 ".//ChibiOS//os/hal/include/i2c.h"
 323              		.file 36 ".//ChibiOS//os/hal/ports/STM32/LLD/I2Cv1/i2c_lld.h"
 324              		.file 37 ".//ChibiOS//os/hal/include/i2s.h"
 325              		.file 38 ".//ChibiOS//os/hal/ports/STM32/LLD/SPIv1/i2s_lld.h"
 326              		.file 39 ".//ChibiOS//os/hal/include/pwm.h"
 327              		.file 40 ".//ChibiOS//os/hal/ports/STM32/LLD/TIMv1/pwm_lld.h"
 328              		.file 41 ".//ChibiOS//os/hal/include/serial.h"
 329              		.file 42 ".//ChibiOS//os/hal/ports/STM32/LLD/USARTv1/serial_lld.h"
 330              		.file 43 ".//ChibiOS//os/hal/include/sdc.h"
 331              		.file 44 ".//ChibiOS//os/hal/ports/STM32/LLD/SDIOv1/sdc_lld.h"
 332              		.file 45 ".//ChibiOS//os/hal/include/spi.h"
 333              		.file 46 ".//ChibiOS//os/hal/ports/STM32/LLD/SPIv1/spi_lld.h"
 334              		.file 47 ".//ChibiOS//os/hal/include/usb.h"
 335              		.file 48 ".//ChibiOS//os/hal/ports/STM32/LLD/OTGv1/usb_lld.h"
 336              		.file 49 ".//ChibiOS//os/hal/ports/STM32/LLD/OTGv1/stm32_otg.h"
 337              		.file 50 ".//ChibiOS//os/hal/ports/STM32/STM32F4xx/hal_lld.h"