ARM GAS  C:\Users\25521\AppData\Local\Temp\ccWqjK7b.s 			page 1


   1              		.cpu cortex-m4
   2              		.eabi_attribute 27, 1
   3              		.eabi_attribute 28, 1
   4              		.eabi_attribute 20, 1
   5              		.eabi_attribute 21, 1
   6              		.eabi_attribute 23, 3
   7              		.eabi_attribute 24, 1
   8              		.eabi_attribute 25, 1
   9              		.eabi_attribute 26, 1
  10              		.eabi_attribute 30, 2
  11              		.eabi_attribute 34, 1
  12              		.eabi_attribute 18, 4
  13              		.file	"can_lld.c"
  14              		.text
  15              	.Ltext0:
  16              		.cfi_sections	.debug_frame
  17              		.section	.text.can_lld_set_filters,"ax",%progbits
  18              		.align	1
  19              		.p2align 4,,15
  20              		.syntax unified
  21              		.thumb
  22              		.thumb_func
  23              		.fpu fpv4-sp-d16
  24              		.type	can_lld_set_filters, %function
  25              	can_lld_set_filters:
  26              	.LFB267:
  27              		.file 1 ".//ChibiOS//os/hal/ports/STM32/LLD/CANv1/can_lld.c"
  28              		.loc 1 77 0
  29              		.cfi_startproc
  30              		@ args = 0, pretend = 0, frame = 8
  31              		@ frame_needed = 0, uses_anonymous_args = 0
  32              	.LVL0:
  33 0000 F0B5     		push	{r4, r5, r6, r7, lr}
  34              		.cfi_def_cfa_offset 20
  35              		.cfi_offset 4, -20
  36              		.cfi_offset 5, -16
  37              		.cfi_offset 6, -12
  38              		.cfi_offset 7, -8
  39              		.cfi_offset 14, -4
  40 0002 4D4D     		ldr	r5, .L24
  41              		.loc 1 80 0
  42 0004 4D4E     		ldr	r6, .L24+4
  43              		.loc 1 77 0
  44 0006 2B68     		ldr	r3, [r5]
  45              		.loc 1 83 0
  46 0008 4D4C     		ldr	r4, .L24+8
  47              		.loc 1 77 0
  48 000a 83B0     		sub	sp, sp, #12
  49              		.cfi_def_cfa_offset 32
  50              		.loc 1 77 0
  51 000c 0193     		str	r3, [sp, #4]
  52              		.loc 1 80 0
  53 000e 336C     		ldr	r3, [r6, #64]
  54 0010 43F00073 		orr	r3, r3, #33554432
  55 0014 3364     		str	r3, [r6, #64]
  56              		.loc 1 83 0
  57 0016 D4F80032 		ldr	r3, [r4, #512]
ARM GAS  C:\Users\25521\AppData\Local\Temp\ccWqjK7b.s 			page 2


  58 001a 1B0C     		lsrs	r3, r3, #16
  59 001c 1B04     		lsls	r3, r3, #16
  60 001e 43F00103 		orr	r3, r3, #1
  61 0022 43EA0023 		orr	r3, r3, r0, lsl #8
  62 0026 C4F80032 		str	r3, [r4, #512]
  63              		.loc 1 84 0
  64 002a 0029     		cmp	r1, #0
  65 002c 67D0     		beq	.L2
  66              	.LBB290:
  67              		.loc 1 88 0
  68 002e 0023     		movs	r3, #0
  69 0030 C4F81C32 		str	r3, [r4, #540]
  70              		.loc 1 92 0
  71 0034 1846     		mov	r0, r3
  72              	.LVL1:
  73              		.loc 1 89 0
  74 0036 C4F80432 		str	r3, [r4, #516]
  75              		.loc 1 90 0
  76 003a C4F80C32 		str	r3, [r4, #524]
  77              		.loc 1 91 0
  78 003e C4F81432 		str	r3, [r4, #532]
  79              	.LVL2:
  80              		.loc 1 93 0
  81 0042 1C46     		mov	r4, r3
  82              	.LVL3:
  83              	.L3:
  84 0044 C300     		lsls	r3, r0, #3
  85 0046 03F18043 		add	r3, r3, #1073741824
  86 004a 03F5C843 		add	r3, r3, #25600
  87              		.loc 1 92 0 discriminator 3
  88 004e 0130     		adds	r0, r0, #1
  89              	.LVL4:
  90 0050 1C28     		cmp	r0, #28
  91              		.loc 1 93 0 discriminator 3
  92 0052 C3F84042 		str	r4, [r3, #576]
  93              		.loc 1 94 0 discriminator 3
  94 0056 C3F84442 		str	r4, [r3, #580]
  95              		.loc 1 92 0 discriminator 3
  96 005a F3D1     		bne	.L3
  97              		.loc 1 101 0
  98 005c 384B     		ldr	r3, .L24+8
  99 005e 1032     		adds	r2, r2, #16
 100              	.LVL5:
 101              		.loc 1 98 0
 102 0060 0026     		movs	r6, #0
 103              		.loc 1 99 0
 104 0062 4FF0010C 		mov	ip, #1
 105              	.LVL6:
 106              	.L7:
 107 0066 A2F11007 		sub	r7, r2, #16
 108              	.LVL7:
 109              		.loc 1 100 0
 110 006a 3879     		ldrb	r0, [r7, #4]	@ zero_extendqisi2
 111              		.loc 1 99 0
 112 006c 52F8104C 		ldr	r4, [r2, #-16]
 113              		.loc 1 100 0
 114 0070 10F0010F 		tst	r0, #1
ARM GAS  C:\Users\25521\AppData\Local\Temp\ccWqjK7b.s 			page 3


 115              		.loc 1 99 0
 116 0074 0CFA04F4 		lsl	r4, ip, r4
 117              	.LVL8:
 118              		.loc 1 100 0
 119 0078 05D0     		beq	.L4
 120              		.loc 1 101 0
 121 007a D3F80402 		ldr	r0, [r3, #516]
 122 007e 2043     		orrs	r0, r0, r4
 123 0080 C3F80402 		str	r0, [r3, #516]
 124 0084 3879     		ldrb	r0, [r7, #4]	@ zero_extendqisi2
 125              	.L4:
 126              		.loc 1 102 0
 127 0086 10F0020F 		tst	r0, #2
 128 008a 05D0     		beq	.L5
 129              		.loc 1 103 0
 130 008c D3F80C02 		ldr	r0, [r3, #524]
 131 0090 2043     		orrs	r0, r0, r4
 132 0092 C3F80C02 		str	r0, [r3, #524]
 133 0096 3879     		ldrb	r0, [r7, #4]	@ zero_extendqisi2
 134              	.L5:
 135              		.loc 1 104 0
 136 0098 4007     		lsls	r0, r0, #29
 137 009a 04D5     		bpl	.L6
 138              		.loc 1 105 0
 139 009c D3F81402 		ldr	r0, [r3, #532]
 140 00a0 2043     		orrs	r0, r0, r4
 141 00a2 C3F81402 		str	r0, [r3, #532]
 142              	.L6:
 143              		.loc 1 106 0 discriminator 2
 144 00a6 52F8100C 		ldr	r0, [r2, #-16]
 145 00aa 52F8087C 		ldr	r7, [r2, #-8]
 146              	.LVL9:
 147 00ae 4830     		adds	r0, r0, #72
 148              		.loc 1 98 0 discriminator 2
 149 00b0 0136     		adds	r6, r6, #1
 150              	.LVL10:
 151              		.loc 1 106 0 discriminator 2
 152 00b2 43F83070 		str	r7, [r3, r0, lsl #3]
 153              		.loc 1 107 0 discriminator 2
 154 00b6 52F8100C 		ldr	r0, [r2, #-16]
 155 00ba 52F8047C 		ldr	r7, [r2, #-4]
 156 00be 4830     		adds	r0, r0, #72
 157 00c0 03EBC000 		add	r0, r3, r0, lsl #3
 158              		.loc 1 98 0 discriminator 2
 159 00c4 B142     		cmp	r1, r6
 160              		.loc 1 107 0 discriminator 2
 161 00c6 4760     		str	r7, [r0, #4]
 162              		.loc 1 108 0 discriminator 2
 163 00c8 D3F81C02 		ldr	r0, [r3, #540]
 164 00cc 44EA0004 		orr	r4, r4, r0
 165              	.LVL11:
 166 00d0 02F11002 		add	r2, r2, #16
 167              	.LVL12:
 168 00d4 C3F81C42 		str	r4, [r3, #540]
 169              	.LVL13:
 170              		.loc 1 98 0 discriminator 2
 171 00d8 C5D1     		bne	.L7
ARM GAS  C:\Users\25521\AppData\Local\Temp\ccWqjK7b.s 			page 4


 172              	.LVL14:
 173              	.L8:
 174              	.LBE290:
 175              		.loc 1 131 0
 176 00da 1949     		ldr	r1, .L24+8
 177              	.LVL15:
 178              		.loc 1 134 0
 179 00dc 174A     		ldr	r2, .L24+4
 180              		.loc 1 131 0
 181 00de D1F80032 		ldr	r3, [r1, #512]
 182 00e2 23F00103 		bic	r3, r3, #1
 183 00e6 C1F80032 		str	r3, [r1, #512]
 184              		.loc 1 134 0
 185 00ea 136C     		ldr	r3, [r2, #64]
 186 00ec 23F00073 		bic	r3, r3, #33554432
 187 00f0 1364     		str	r3, [r2, #64]
 188              		.loc 1 135 0
 189 00f2 019A     		ldr	r2, [sp, #4]
 190 00f4 2B68     		ldr	r3, [r5]
 191 00f6 9A42     		cmp	r2, r3
 192 00f8 1BD1     		bne	.L23
 193 00fa 03B0     		add	sp, sp, #12
 194              		.cfi_remember_state
 195              		.cfi_def_cfa_offset 20
 196              		@ sp needed
 197 00fc F0BD     		pop	{r4, r5, r6, r7, pc}
 198              	.LVL16:
 199              	.L2:
 200              		.cfi_restore_state
 201 00fe C200     		lsls	r2, r0, #3
 202              	.LVL17:
 203 0100 02F18042 		add	r2, r2, #1073741824
 204              		.loc 1 124 0
 205 0104 0123     		movs	r3, #1
 206 0106 02F5C842 		add	r2, r2, #25600
 207 010a 8340     		lsls	r3, r3, r0
 208 010c 43F00103 		orr	r3, r3, #1
 209              		.loc 1 115 0
 210 0110 C4F84012 		str	r1, [r4, #576]
 211              		.loc 1 116 0
 212 0114 C4F84412 		str	r1, [r4, #580]
 213              		.loc 1 118 0
 214 0118 C2F84012 		str	r1, [r2, #576]
 215              		.loc 1 119 0
 216 011c C2F84412 		str	r1, [r2, #580]
 217              		.loc 1 121 0
 218 0120 C4F80412 		str	r1, [r4, #516]
 219              		.loc 1 122 0
 220 0124 C4F81412 		str	r1, [r4, #532]
 221              		.loc 1 124 0
 222 0128 C4F80C32 		str	r3, [r4, #524]
 223              		.loc 1 125 0
 224 012c C4F81C32 		str	r3, [r4, #540]
 225 0130 D3E7     		b	.L8
 226              	.LVL18:
 227              	.L23:
 228              		.loc 1 135 0
ARM GAS  C:\Users\25521\AppData\Local\Temp\ccWqjK7b.s 			page 5


 229 0132 FFF7FEFF 		bl	__stack_chk_fail
 230              	.LVL19:
 231              	.L25:
 232 0136 00BF     		.align	2
 233              	.L24:
 234 0138 00000000 		.word	__stack_chk_guard
 235 013c 00380240 		.word	1073887232
 236 0140 00640040 		.word	1073767424
 237              		.cfi_endproc
 238              	.LFE267:
 239              		.size	can_lld_set_filters, .-can_lld_set_filters
 240              		.section	.text.Vector8C,"ax",%progbits
 241              		.align	1
 242              		.p2align 4,,15
 243              		.global	Vector8C
 244              		.syntax unified
 245              		.thumb
 246              		.thumb_func
 247              		.fpu fpv4-sp-d16
 248              		.type	Vector8C, %function
 249              	Vector8C:
 250              	.LFB272:
 251              		.loc 1 292 0
 252              		.cfi_startproc
 253              		@ args = 0, pretend = 0, frame = 8
 254              		@ frame_needed = 0, uses_anonymous_args = 0
 255 0000 30B5     		push	{r4, r5, lr}
 256              		.cfi_def_cfa_offset 12
 257              		.cfi_offset 4, -12
 258              		.cfi_offset 5, -8
 259              		.cfi_offset 14, -4
 260 0002 184D     		ldr	r5, .L31
 261              	.LBB311:
 262              	.LBB312:
 263              		.loc 1 147 0
 264 0004 184C     		ldr	r4, .L31+4
 265              	.LBE312:
 266              	.LBE311:
 267              		.loc 1 292 0
 268 0006 2B68     		ldr	r3, [r5]
 269 0008 83B0     		sub	sp, sp, #12
 270              		.cfi_def_cfa_offset 24
 271              		.loc 1 292 0
 272 000a 0193     		str	r3, [sp, #4]
 273              		.loc 1 294 0
 274 000c FFF7FEFF 		bl	_stats_increase_irq
 275              	.LVL20:
 276 0010 FFF7FEFF 		bl	_dbg_check_enter_isr
 277              	.LVL21:
 278              	.LBB332:
 279              	.LBB331:
 280              		.loc 1 147 0
 281 0014 E36A     		ldr	r3, [r4, #44]
 282 0016 154A     		ldr	r2, .L31+8
 283 0018 9A60     		str	r2, [r3, #8]
 284              	.LVL22:
 285              	.LBB313:
ARM GAS  C:\Users\25521\AppData\Local\Temp\ccWqjK7b.s 			page 6


 286              	.LBB314:
 287              	.LBB315:
 288              	.LBB316:
 289              	.LBB317:
 290              	.LBB318:
 291              	.LBB319:
 292              		.file 2 ".//ChibiOS//os/ext/CMSIS/include/core_cmFunc.h"
 293              		.loc 2 548 0
 294 001a 2023     		movs	r3, #32
 295              		.syntax unified
 296              	@ 548 ".//ChibiOS//os/ext/CMSIS/include/core_cmFunc.h" 1
 297 001c 83F31188 		MSR basepri, r3
 298              	@ 0 "" 2
 299              	.LVL23:
 300              		.thumb
 301              		.syntax unified
 302              	.LBE319:
 303              	.LBE318:
 304              	.LBE317:
 305              	.LBE316:
 306              		.file 3 ".//ChibiOS//os/rt/include/chsys.h"
 307              		.loc 3 389 0
 308 0020 FFF7FEFF 		bl	_stats_start_measure_crit_isr
 309              	.LVL24:
 310              		.loc 3 390 0
 311 0024 FFF7FEFF 		bl	_dbg_check_lock_from_isr
 312              	.LVL25:
 313              	.LBE315:
 314              	.LBE314:
 315              	.LBE313:
 316              	.LBB320:
 317              	.LBB321:
 318              		.file 4 ".//ChibiOS//os/hal/osal/rt/osal.h"
 319              		.loc 4 810 0
 320 0028 04F10800 		add	r0, r4, #8
 321 002c 0021     		movs	r1, #0
 322 002e FFF7FEFF 		bl	chThdDequeueAllI
 323              	.LVL26:
 324              	.LBE321:
 325              	.LBE320:
 326              	.LBB322:
 327              	.LBB323:
 328              		.loc 4 844 0
 329 0032 04F11C00 		add	r0, r4, #28
 330 0036 0121     		movs	r1, #1
 331 0038 FFF7FEFF 		bl	chEvtBroadcastFlagsI
 332              	.LVL27:
 333              	.LBE323:
 334              	.LBE322:
 335              	.LBB324:
 336              	.LBB325:
 337              	.LBB326:
 338              		.loc 3 408 0
 339 003c FFF7FEFF 		bl	_dbg_check_unlock_from_isr
 340              	.LVL28:
 341              		.loc 3 409 0
 342 0040 FFF7FEFF 		bl	_stats_stop_measure_crit_isr
ARM GAS  C:\Users\25521\AppData\Local\Temp\ccWqjK7b.s 			page 7


 343              	.LVL29:
 344              	.LBB327:
 345              	.LBB328:
 346              	.LBB329:
 347              	.LBB330:
 348              		.loc 2 548 0
 349 0044 0023     		movs	r3, #0
 350              		.syntax unified
 351              	@ 548 ".//ChibiOS//os/ext/CMSIS/include/core_cmFunc.h" 1
 352 0046 83F31188 		MSR basepri, r3
 353              	@ 0 "" 2
 354              	.LVL30:
 355              		.thumb
 356              		.syntax unified
 357              	.LBE330:
 358              	.LBE329:
 359              	.LBE328:
 360              	.LBE327:
 361              	.LBE326:
 362              	.LBE325:
 363              	.LBE324:
 364              	.LBE331:
 365              	.LBE332:
 366              		.loc 1 298 0
 367 004a FFF7FEFF 		bl	_dbg_check_leave_isr
 368              	.LVL31:
 369 004e 019A     		ldr	r2, [sp, #4]
 370 0050 2B68     		ldr	r3, [r5]
 371 0052 9A42     		cmp	r2, r3
 372 0054 04D1     		bne	.L30
 373              		.loc 1 299 0
 374 0056 03B0     		add	sp, sp, #12
 375              		.cfi_remember_state
 376              		.cfi_def_cfa_offset 12
 377              		@ sp needed
 378 0058 BDE83040 		pop	{r4, r5, lr}
 379              		.cfi_restore 14
 380              		.cfi_restore 5
 381              		.cfi_restore 4
 382              		.cfi_def_cfa_offset 0
 383              		.loc 1 298 0
 384 005c FFF7FEBF 		b	_port_irq_epilogue
 385              	.LVL32:
 386              	.L30:
 387              		.cfi_restore_state
 388 0060 FFF7FEFF 		bl	__stack_chk_fail
 389              	.LVL33:
 390              	.L32:
 391              		.align	2
 392              	.L31:
 393 0064 00000000 		.word	__stack_chk_guard
 394 0068 00000000 		.word	.LANCHOR0
 395 006c 01010100 		.word	65793
 396              		.cfi_endproc
 397              	.LFE272:
 398              		.size	Vector8C, .-Vector8C
 399              		.section	.text.Vector90,"ax",%progbits
ARM GAS  C:\Users\25521\AppData\Local\Temp\ccWqjK7b.s 			page 8


 400              		.align	1
 401              		.p2align 4,,15
 402              		.global	Vector90
 403              		.syntax unified
 404              		.thumb
 405              		.thumb_func
 406              		.fpu fpv4-sp-d16
 407              		.type	Vector90, %function
 408              	Vector90:
 409              	.LFB273:
 410              		.loc 1 306 0
 411              		.cfi_startproc
 412              		@ args = 0, pretend = 0, frame = 8
 413              		@ frame_needed = 0, uses_anonymous_args = 0
 414 0000 70B5     		push	{r4, r5, r6, lr}
 415              		.cfi_def_cfa_offset 16
 416              		.cfi_offset 4, -16
 417              		.cfi_offset 5, -12
 418              		.cfi_offset 6, -8
 419              		.cfi_offset 14, -4
 420 0002 274D     		ldr	r5, .L47
 421              	.LBB369:
 422              	.LBB370:
 423              		.loc 1 164 0
 424 0004 274C     		ldr	r4, .L47+4
 425              	.LBE370:
 426              	.LBE369:
 427              		.loc 1 306 0
 428 0006 2B68     		ldr	r3, [r5]
 429 0008 82B0     		sub	sp, sp, #8
 430              		.cfi_def_cfa_offset 24
 431              		.loc 1 306 0
 432 000a 0193     		str	r3, [sp, #4]
 433              		.loc 1 308 0
 434 000c FFF7FEFF 		bl	_stats_increase_irq
 435              	.LVL34:
 436 0010 FFF7FEFF 		bl	_dbg_check_enter_isr
 437              	.LVL35:
 438              	.LBB407:
 439              	.LBB405:
 440              		.loc 1 164 0
 441 0014 E36A     		ldr	r3, [r4, #44]
 442 0016 DE68     		ldr	r6, [r3, #12]
 443              	.LVL36:
 444              		.loc 1 165 0
 445 0018 B207     		lsls	r2, r6, #30
 446 001a 21D1     		bne	.L45
 447              	.L34:
 448              		.loc 1 173 0
 449 001c F306     		lsls	r3, r6, #27
 450 001e 14D5     		bpl	.L35
 451              		.loc 1 175 0
 452 0020 E36A     		ldr	r3, [r4, #44]
 453 0022 1024     		movs	r4, #16
 454 0024 DC60     		str	r4, [r3, #12]
 455              	.LVL37:
 456              	.LBB371:
ARM GAS  C:\Users\25521\AppData\Local\Temp\ccWqjK7b.s 			page 9


 457              	.LBB372:
 458              	.LBB373:
 459              	.LBB374:
 460              	.LBB375:
 461              	.LBB376:
 462              	.LBB377:
 463              		.loc 2 548 0
 464 0026 2023     		movs	r3, #32
 465              		.syntax unified
 466              	@ 548 ".//ChibiOS//os/ext/CMSIS/include/core_cmFunc.h" 1
 467 0028 83F31188 		MSR basepri, r3
 468              	@ 0 "" 2
 469              	.LVL38:
 470              		.thumb
 471              		.syntax unified
 472              	.LBE377:
 473              	.LBE376:
 474              	.LBE375:
 475              	.LBE374:
 476              		.loc 3 389 0
 477 002c FFF7FEFF 		bl	_stats_start_measure_crit_isr
 478              	.LVL39:
 479              		.loc 3 390 0
 480 0030 FFF7FEFF 		bl	_dbg_check_lock_from_isr
 481              	.LVL40:
 482              	.LBE373:
 483              	.LBE372:
 484              	.LBE371:
 485              	.LBB378:
 486              	.LBB379:
 487              		.loc 4 844 0
 488 0034 2146     		mov	r1, r4
 489 0036 1C48     		ldr	r0, .L47+8
 490 0038 FFF7FEFF 		bl	chEvtBroadcastFlagsI
 491              	.LVL41:
 492              	.LBE379:
 493              	.LBE378:
 494              	.LBB380:
 495              	.LBB381:
 496              	.LBB382:
 497              		.loc 3 408 0
 498 003c FFF7FEFF 		bl	_dbg_check_unlock_from_isr
 499              	.LVL42:
 500              		.loc 3 409 0
 501 0040 FFF7FEFF 		bl	_stats_stop_measure_crit_isr
 502              	.LVL43:
 503              	.LBB383:
 504              	.LBB384:
 505              	.LBB385:
 506              	.LBB386:
 507              		.loc 2 548 0
 508 0044 0023     		movs	r3, #0
 509              		.syntax unified
 510              	@ 548 ".//ChibiOS//os/ext/CMSIS/include/core_cmFunc.h" 1
 511 0046 83F31188 		MSR basepri, r3
 512              	@ 0 "" 2
 513              	.LVL44:
ARM GAS  C:\Users\25521\AppData\Local\Temp\ccWqjK7b.s 			page 10


 514              		.thumb
 515              		.syntax unified
 516              	.L35:
 517              	.LBE386:
 518              	.LBE385:
 519              	.LBE384:
 520              	.LBE383:
 521              	.LBE382:
 522              	.LBE381:
 523              	.LBE380:
 524              	.LBE405:
 525              	.LBE407:
 526              		.loc 1 312 0
 527 004a FFF7FEFF 		bl	_dbg_check_leave_isr
 528              	.LVL45:
 529 004e 019A     		ldr	r2, [sp, #4]
 530 0050 2B68     		ldr	r3, [r5]
 531 0052 9A42     		cmp	r2, r3
 532 0054 21D1     		bne	.L46
 533              		.loc 1 313 0
 534 0056 02B0     		add	sp, sp, #8
 535              		.cfi_remember_state
 536              		.cfi_def_cfa_offset 16
 537              		@ sp needed
 538 0058 BDE87040 		pop	{r4, r5, r6, lr}
 539              		.cfi_restore 14
 540              		.cfi_restore 6
 541              		.cfi_restore 5
 542              		.cfi_restore 4
 543              		.cfi_def_cfa_offset 0
 544              		.loc 1 312 0
 545 005c FFF7FEBF 		b	_port_irq_epilogue
 546              	.LVL46:
 547              	.L45:
 548              		.cfi_restore_state
 549              	.LBB408:
 550              	.LBB406:
 551              		.loc 1 167 0
 552 0060 5A69     		ldr	r2, [r3, #20]
 553 0062 22F00202 		bic	r2, r2, #2
 554 0066 5A61     		str	r2, [r3, #20]
 555              	.LVL47:
 556              	.LBB387:
 557              	.LBB388:
 558              	.LBB389:
 559              	.LBB390:
 560              	.LBB391:
 561              	.LBB392:
 562              	.LBB393:
 563              		.loc 2 548 0
 564 0068 2023     		movs	r3, #32
 565              		.syntax unified
 566              	@ 548 ".//ChibiOS//os/ext/CMSIS/include/core_cmFunc.h" 1
 567 006a 83F31188 		MSR basepri, r3
 568              	@ 0 "" 2
 569              	.LVL48:
 570              		.thumb
ARM GAS  C:\Users\25521\AppData\Local\Temp\ccWqjK7b.s 			page 11


 571              		.syntax unified
 572              	.LBE393:
 573              	.LBE392:
 574              	.LBE391:
 575              	.LBE390:
 576              		.loc 3 389 0
 577 006e FFF7FEFF 		bl	_stats_start_measure_crit_isr
 578              	.LVL49:
 579              		.loc 3 390 0
 580 0072 FFF7FEFF 		bl	_dbg_check_lock_from_isr
 581              	.LVL50:
 582              	.LBE389:
 583              	.LBE388:
 584              	.LBE387:
 585              	.LBB394:
 586              	.LBB395:
 587              		.loc 4 810 0
 588 0076 04F11000 		add	r0, r4, #16
 589 007a 0021     		movs	r1, #0
 590 007c FFF7FEFF 		bl	chThdDequeueAllI
 591              	.LVL51:
 592              	.LBE395:
 593              	.LBE394:
 594              	.LBB396:
 595              	.LBB397:
 596              		.loc 4 844 0
 597 0080 04F11800 		add	r0, r4, #24
 598 0084 0121     		movs	r1, #1
 599 0086 FFF7FEFF 		bl	chEvtBroadcastFlagsI
 600              	.LVL52:
 601              	.LBE397:
 602              	.LBE396:
 603              	.LBB398:
 604              	.LBB399:
 605              	.LBB400:
 606              		.loc 3 408 0
 607 008a FFF7FEFF 		bl	_dbg_check_unlock_from_isr
 608              	.LVL53:
 609              		.loc 3 409 0
 610 008e FFF7FEFF 		bl	_stats_stop_measure_crit_isr
 611              	.LVL54:
 612              	.LBB401:
 613              	.LBB402:
 614              	.LBB403:
 615              	.LBB404:
 616              		.loc 2 548 0
 617 0092 0023     		movs	r3, #0
 618              		.syntax unified
 619              	@ 548 ".//ChibiOS//os/ext/CMSIS/include/core_cmFunc.h" 1
 620 0094 83F31188 		MSR basepri, r3
 621              	@ 0 "" 2
 622              	.LVL55:
 623              		.thumb
 624              		.syntax unified
 625 0098 C0E7     		b	.L34
 626              	.LVL56:
 627              	.L46:
ARM GAS  C:\Users\25521\AppData\Local\Temp\ccWqjK7b.s 			page 12


 628              	.LBE404:
 629              	.LBE403:
 630              	.LBE402:
 631              	.LBE401:
 632              	.LBE400:
 633              	.LBE399:
 634              	.LBE398:
 635              	.LBE406:
 636              	.LBE408:
 637              		.loc 1 312 0
 638 009a FFF7FEFF 		bl	__stack_chk_fail
 639              	.LVL57:
 640              	.L48:
 641 009e 00BF     		.align	2
 642              	.L47:
 643 00a0 00000000 		.word	__stack_chk_guard
 644 00a4 00000000 		.word	.LANCHOR0
 645 00a8 20000000 		.word	.LANCHOR0+32
 646              		.cfi_endproc
 647              	.LFE273:
 648              		.size	Vector90, .-Vector90
 649              		.section	.text.Vector94,"ax",%progbits
 650              		.align	1
 651              		.p2align 4,,15
 652              		.global	Vector94
 653              		.syntax unified
 654              		.thumb
 655              		.thumb_func
 656              		.fpu fpv4-sp-d16
 657              		.type	Vector94, %function
 658              	Vector94:
 659              	.LFB274:
 660              		.loc 1 320 0
 661              		.cfi_startproc
 662              		@ args = 0, pretend = 0, frame = 8
 663              		@ frame_needed = 0, uses_anonymous_args = 0
 664 0000 70B5     		push	{r4, r5, r6, lr}
 665              		.cfi_def_cfa_offset 16
 666              		.cfi_offset 4, -16
 667              		.cfi_offset 5, -12
 668              		.cfi_offset 6, -8
 669              		.cfi_offset 14, -4
 670 0002 274D     		ldr	r5, .L63
 671              	.LBB445:
 672              	.LBB446:
 673              		.loc 1 192 0
 674 0004 274C     		ldr	r4, .L63+4
 675              	.LBE446:
 676              	.LBE445:
 677              		.loc 1 320 0
 678 0006 2B68     		ldr	r3, [r5]
 679 0008 82B0     		sub	sp, sp, #8
 680              		.cfi_def_cfa_offset 24
 681              		.loc 1 320 0
 682 000a 0193     		str	r3, [sp, #4]
 683              		.loc 1 322 0
 684 000c FFF7FEFF 		bl	_stats_increase_irq
ARM GAS  C:\Users\25521\AppData\Local\Temp\ccWqjK7b.s 			page 13


 685              	.LVL58:
 686 0010 FFF7FEFF 		bl	_dbg_check_enter_isr
 687              	.LVL59:
 688              	.LBB483:
 689              	.LBB481:
 690              		.loc 1 192 0
 691 0014 E36A     		ldr	r3, [r4, #44]
 692 0016 1E69     		ldr	r6, [r3, #16]
 693              	.LVL60:
 694              		.loc 1 193 0
 695 0018 B207     		lsls	r2, r6, #30
 696 001a 21D1     		bne	.L61
 697              	.L50:
 698              		.loc 1 201 0
 699 001c F306     		lsls	r3, r6, #27
 700 001e 14D5     		bpl	.L51
 701              		.loc 1 203 0
 702 0020 E36A     		ldr	r3, [r4, #44]
 703 0022 1024     		movs	r4, #16
 704 0024 1C61     		str	r4, [r3, #16]
 705              	.LVL61:
 706              	.LBB447:
 707              	.LBB448:
 708              	.LBB449:
 709              	.LBB450:
 710              	.LBB451:
 711              	.LBB452:
 712              	.LBB453:
 713              		.loc 2 548 0
 714 0026 2023     		movs	r3, #32
 715              		.syntax unified
 716              	@ 548 ".//ChibiOS//os/ext/CMSIS/include/core_cmFunc.h" 1
 717 0028 83F31188 		MSR basepri, r3
 718              	@ 0 "" 2
 719              	.LVL62:
 720              		.thumb
 721              		.syntax unified
 722              	.LBE453:
 723              	.LBE452:
 724              	.LBE451:
 725              	.LBE450:
 726              		.loc 3 389 0
 727 002c FFF7FEFF 		bl	_stats_start_measure_crit_isr
 728              	.LVL63:
 729              		.loc 3 390 0
 730 0030 FFF7FEFF 		bl	_dbg_check_lock_from_isr
 731              	.LVL64:
 732              	.LBE449:
 733              	.LBE448:
 734              	.LBE447:
 735              	.LBB454:
 736              	.LBB455:
 737              		.loc 4 844 0
 738 0034 2146     		mov	r1, r4
 739 0036 1C48     		ldr	r0, .L63+8
 740 0038 FFF7FEFF 		bl	chEvtBroadcastFlagsI
 741              	.LVL65:
ARM GAS  C:\Users\25521\AppData\Local\Temp\ccWqjK7b.s 			page 14


 742              	.LBE455:
 743              	.LBE454:
 744              	.LBB456:
 745              	.LBB457:
 746              	.LBB458:
 747              		.loc 3 408 0
 748 003c FFF7FEFF 		bl	_dbg_check_unlock_from_isr
 749              	.LVL66:
 750              		.loc 3 409 0
 751 0040 FFF7FEFF 		bl	_stats_stop_measure_crit_isr
 752              	.LVL67:
 753              	.LBB459:
 754              	.LBB460:
 755              	.LBB461:
 756              	.LBB462:
 757              		.loc 2 548 0
 758 0044 0023     		movs	r3, #0
 759              		.syntax unified
 760              	@ 548 ".//ChibiOS//os/ext/CMSIS/include/core_cmFunc.h" 1
 761 0046 83F31188 		MSR basepri, r3
 762              	@ 0 "" 2
 763              	.LVL68:
 764              		.thumb
 765              		.syntax unified
 766              	.L51:
 767              	.LBE462:
 768              	.LBE461:
 769              	.LBE460:
 770              	.LBE459:
 771              	.LBE458:
 772              	.LBE457:
 773              	.LBE456:
 774              	.LBE481:
 775              	.LBE483:
 776              		.loc 1 326 0
 777 004a FFF7FEFF 		bl	_dbg_check_leave_isr
 778              	.LVL69:
 779 004e 019A     		ldr	r2, [sp, #4]
 780 0050 2B68     		ldr	r3, [r5]
 781 0052 9A42     		cmp	r2, r3
 782 0054 21D1     		bne	.L62
 783              		.loc 1 327 0
 784 0056 02B0     		add	sp, sp, #8
 785              		.cfi_remember_state
 786              		.cfi_def_cfa_offset 16
 787              		@ sp needed
 788 0058 BDE87040 		pop	{r4, r5, r6, lr}
 789              		.cfi_restore 14
 790              		.cfi_restore 6
 791              		.cfi_restore 5
 792              		.cfi_restore 4
 793              		.cfi_def_cfa_offset 0
 794              		.loc 1 326 0
 795 005c FFF7FEBF 		b	_port_irq_epilogue
 796              	.LVL70:
 797              	.L61:
 798              		.cfi_restore_state
ARM GAS  C:\Users\25521\AppData\Local\Temp\ccWqjK7b.s 			page 15


 799              	.LBB484:
 800              	.LBB482:
 801              		.loc 1 195 0
 802 0060 5A69     		ldr	r2, [r3, #20]
 803 0062 22F01002 		bic	r2, r2, #16
 804 0066 5A61     		str	r2, [r3, #20]
 805              	.LVL71:
 806              	.LBB463:
 807              	.LBB464:
 808              	.LBB465:
 809              	.LBB466:
 810              	.LBB467:
 811              	.LBB468:
 812              	.LBB469:
 813              		.loc 2 548 0
 814 0068 2023     		movs	r3, #32
 815              		.syntax unified
 816              	@ 548 ".//ChibiOS//os/ext/CMSIS/include/core_cmFunc.h" 1
 817 006a 83F31188 		MSR basepri, r3
 818              	@ 0 "" 2
 819              	.LVL72:
 820              		.thumb
 821              		.syntax unified
 822              	.LBE469:
 823              	.LBE468:
 824              	.LBE467:
 825              	.LBE466:
 826              		.loc 3 389 0
 827 006e FFF7FEFF 		bl	_stats_start_measure_crit_isr
 828              	.LVL73:
 829              		.loc 3 390 0
 830 0072 FFF7FEFF 		bl	_dbg_check_lock_from_isr
 831              	.LVL74:
 832              	.LBE465:
 833              	.LBE464:
 834              	.LBE463:
 835              	.LBB470:
 836              	.LBB471:
 837              		.loc 4 810 0
 838 0076 04F11000 		add	r0, r4, #16
 839 007a 0021     		movs	r1, #0
 840 007c FFF7FEFF 		bl	chThdDequeueAllI
 841              	.LVL75:
 842              	.LBE471:
 843              	.LBE470:
 844              	.LBB472:
 845              	.LBB473:
 846              		.loc 4 844 0
 847 0080 04F11800 		add	r0, r4, #24
 848 0084 0221     		movs	r1, #2
 849 0086 FFF7FEFF 		bl	chEvtBroadcastFlagsI
 850              	.LVL76:
 851              	.LBE473:
 852              	.LBE472:
 853              	.LBB474:
 854              	.LBB475:
 855              	.LBB476:
ARM GAS  C:\Users\25521\AppData\Local\Temp\ccWqjK7b.s 			page 16


 856              		.loc 3 408 0
 857 008a FFF7FEFF 		bl	_dbg_check_unlock_from_isr
 858              	.LVL77:
 859              		.loc 3 409 0
 860 008e FFF7FEFF 		bl	_stats_stop_measure_crit_isr
 861              	.LVL78:
 862              	.LBB477:
 863              	.LBB478:
 864              	.LBB479:
 865              	.LBB480:
 866              		.loc 2 548 0
 867 0092 0023     		movs	r3, #0
 868              		.syntax unified
 869              	@ 548 ".//ChibiOS//os/ext/CMSIS/include/core_cmFunc.h" 1
 870 0094 83F31188 		MSR basepri, r3
 871              	@ 0 "" 2
 872              	.LVL79:
 873              		.thumb
 874              		.syntax unified
 875 0098 C0E7     		b	.L50
 876              	.LVL80:
 877              	.L62:
 878              	.LBE480:
 879              	.LBE479:
 880              	.LBE478:
 881              	.LBE477:
 882              	.LBE476:
 883              	.LBE475:
 884              	.LBE474:
 885              	.LBE482:
 886              	.LBE484:
 887              		.loc 1 326 0
 888 009a FFF7FEFF 		bl	__stack_chk_fail
 889              	.LVL81:
 890              	.L64:
 891 009e 00BF     		.align	2
 892              	.L63:
 893 00a0 00000000 		.word	__stack_chk_guard
 894 00a4 00000000 		.word	.LANCHOR0
 895 00a8 20000000 		.word	.LANCHOR0+32
 896              		.cfi_endproc
 897              	.LFE274:
 898              		.size	Vector94, .-Vector94
 899              		.section	.text.Vector98,"ax",%progbits
 900              		.align	1
 901              		.p2align 4,,15
 902              		.global	Vector98
 903              		.syntax unified
 904              		.thumb
 905              		.thumb_func
 906              		.fpu fpv4-sp-d16
 907              		.type	Vector98, %function
 908              	Vector98:
 909              	.LFB275:
 910              		.loc 1 334 0
 911              		.cfi_startproc
 912              		@ args = 0, pretend = 0, frame = 8
ARM GAS  C:\Users\25521\AppData\Local\Temp\ccWqjK7b.s 			page 17


 913              		@ frame_needed = 0, uses_anonymous_args = 0
 914 0000 70B5     		push	{r4, r5, r6, lr}
 915              		.cfi_def_cfa_offset 16
 916              		.cfi_offset 4, -16
 917              		.cfi_offset 5, -12
 918              		.cfi_offset 6, -8
 919              		.cfi_offset 14, -4
 920 0002 2C4D     		ldr	r5, .L83
 921              	.LBB520:
 922              	.LBB521:
 923              		.loc 1 220 0
 924 0004 2C4C     		ldr	r4, .L83+4
 925              	.LBE521:
 926              	.LBE520:
 927              		.loc 1 334 0
 928 0006 2B68     		ldr	r3, [r5]
 929 0008 82B0     		sub	sp, sp, #8
 930              		.cfi_def_cfa_offset 24
 931              		.loc 1 334 0
 932 000a 0193     		str	r3, [sp, #4]
 933              		.loc 1 336 0
 934 000c FFF7FEFF 		bl	_stats_increase_irq
 935              	.LVL82:
 936 0010 FFF7FEFF 		bl	_dbg_check_enter_isr
 937              	.LVL83:
 938              	.LBB557:
 939              	.LBB555:
 940              		.loc 1 220 0
 941 0014 E36A     		ldr	r3, [r4, #44]
 942 0016 5E68     		ldr	r6, [r3, #4]
 943              	.LVL84:
 944              		.loc 1 221 0
 945 0018 1C22     		movs	r2, #28
 946 001a 5A60     		str	r2, [r3, #4]
 947              		.loc 1 224 0
 948 001c 3207     		lsls	r2, r6, #28
 949 001e 2CD4     		bmi	.L81
 950              	.L66:
 951              		.loc 1 233 0
 952 0020 7307     		lsls	r3, r6, #29
 953 0022 1FD5     		bpl	.L67
 954              	.LBB522:
 955              		.loc 1 235 0
 956 0024 E36A     		ldr	r3, [r4, #44]
 957 0026 9C69     		ldr	r4, [r3, #24]
 958              	.LVL85:
 959              		.loc 1 237 0
 960 0028 9A69     		ldr	r2, [r3, #24]
 961              		.loc 1 238 0
 962 002a 04F00706 		and	r6, r4, #7
 963              	.LVL86:
 964              		.loc 1 237 0
 965 002e 22F07002 		bic	r2, r2, #112
 966              		.loc 1 239 0
 967 0032 14F0700F 		tst	r4, #112
 968              		.loc 1 237 0
 969 0036 9A61     		str	r2, [r3, #24]
ARM GAS  C:\Users\25521\AppData\Local\Temp\ccWqjK7b.s 			page 18


 970              		.loc 1 240 0
 971 0038 18BF     		it	ne
 972 003a 46F00806 		orrne	r6, r6, #8
 973              	.LVL87:
 974              	.LBB523:
 975              	.LBB524:
 976              	.LBB525:
 977              	.LBB526:
 978              	.LBB527:
 979              	.LBB528:
 980              	.LBB529:
 981              		.loc 2 548 0
 982 003e 2023     		movs	r3, #32
 983              		.syntax unified
 984              	@ 548 ".//ChibiOS//os/ext/CMSIS/include/core_cmFunc.h" 1
 985 0040 83F31188 		MSR basepri, r3
 986              	@ 0 "" 2
 987              	.LVL88:
 988              		.thumb
 989              		.syntax unified
 990              	.LBE529:
 991              	.LBE528:
 992              	.LBE527:
 993              	.LBE526:
 994              		.loc 3 389 0
 995 0044 FFF7FEFF 		bl	_stats_start_measure_crit_isr
 996              	.LVL89:
 997              		.loc 3 390 0
 998 0048 FFF7FEFF 		bl	_dbg_check_lock_from_isr
 999              	.LVL90:
 1000              	.LBE525:
 1001              	.LBE524:
 1002              	.LBE523:
 1003              	.LBB530:
 1004              	.LBB531:
 1005              		.loc 4 844 0
 1006 004c 46EA0441 		orr	r1, r6, r4, lsl #16
 1007              	.LVL91:
 1008 0050 1A48     		ldr	r0, .L83+8
 1009 0052 FFF7FEFF 		bl	chEvtBroadcastFlagsI
 1010              	.LVL92:
 1011              	.LBE531:
 1012              	.LBE530:
 1013              	.LBB532:
 1014              	.LBB533:
 1015              	.LBB534:
 1016              		.loc 3 408 0
 1017 0056 FFF7FEFF 		bl	_dbg_check_unlock_from_isr
 1018              	.LVL93:
 1019              		.loc 3 409 0
 1020 005a FFF7FEFF 		bl	_stats_stop_measure_crit_isr
 1021              	.LVL94:
 1022              	.LBB535:
 1023              	.LBB536:
 1024              	.LBB537:
 1025              	.LBB538:
 1026              		.loc 2 548 0
ARM GAS  C:\Users\25521\AppData\Local\Temp\ccWqjK7b.s 			page 19


 1027 005e 0023     		movs	r3, #0
 1028              		.syntax unified
 1029              	@ 548 ".//ChibiOS//os/ext/CMSIS/include/core_cmFunc.h" 1
 1030 0060 83F31188 		MSR basepri, r3
 1031              	@ 0 "" 2
 1032              	.LVL95:
 1033              		.thumb
 1034              		.syntax unified
 1035              	.L67:
 1036              	.LBE538:
 1037              	.LBE537:
 1038              	.LBE536:
 1039              	.LBE535:
 1040              	.LBE534:
 1041              	.LBE533:
 1042              	.LBE532:
 1043              	.LBE522:
 1044              	.LBE555:
 1045              	.LBE557:
 1046              		.loc 1 340 0
 1047 0064 FFF7FEFF 		bl	_dbg_check_leave_isr
 1048              	.LVL96:
 1049 0068 019A     		ldr	r2, [sp, #4]
 1050 006a 2B68     		ldr	r3, [r5]
 1051 006c 9A42     		cmp	r2, r3
 1052 006e 1FD1     		bne	.L82
 1053              		.loc 1 341 0
 1054 0070 02B0     		add	sp, sp, #8
 1055              		.cfi_remember_state
 1056              		.cfi_def_cfa_offset 16
 1057              		@ sp needed
 1058 0072 BDE87040 		pop	{r4, r5, r6, lr}
 1059              		.cfi_restore 14
 1060              		.cfi_restore 6
 1061              		.cfi_restore 5
 1062              		.cfi_restore 4
 1063              		.cfi_def_cfa_offset 0
 1064              		.loc 1 340 0
 1065 0076 FFF7FEBF 		b	_port_irq_epilogue
 1066              	.LVL97:
 1067              	.L81:
 1068              		.cfi_restore_state
 1069              	.LBB558:
 1070              	.LBB556:
 1071              		.loc 1 226 0
 1072 007a E26A     		ldr	r2, [r4, #44]
 1073              		.loc 1 225 0
 1074 007c 0323     		movs	r3, #3
 1075 007e 2370     		strb	r3, [r4]
 1076              		.loc 1 226 0
 1077 0080 1368     		ldr	r3, [r2]
 1078 0082 23F00203 		bic	r3, r3, #2
 1079 0086 1360     		str	r3, [r2]
 1080              	.LVL98:
 1081              	.LBB539:
 1082              	.LBB540:
 1083              	.LBB541:
ARM GAS  C:\Users\25521\AppData\Local\Temp\ccWqjK7b.s 			page 20


 1084              	.LBB542:
 1085              	.LBB543:
 1086              	.LBB544:
 1087              	.LBB545:
 1088              		.loc 2 548 0
 1089 0088 2023     		movs	r3, #32
 1090              		.syntax unified
 1091              	@ 548 ".//ChibiOS//os/ext/CMSIS/include/core_cmFunc.h" 1
 1092 008a 83F31188 		MSR basepri, r3
 1093              	@ 0 "" 2
 1094              	.LVL99:
 1095              		.thumb
 1096              		.syntax unified
 1097              	.LBE545:
 1098              	.LBE544:
 1099              	.LBE543:
 1100              	.LBE542:
 1101              		.loc 3 389 0
 1102 008e FFF7FEFF 		bl	_stats_start_measure_crit_isr
 1103              	.LVL100:
 1104              		.loc 3 390 0
 1105 0092 FFF7FEFF 		bl	_dbg_check_lock_from_isr
 1106              	.LVL101:
 1107              	.LBE541:
 1108              	.LBE540:
 1109              	.LBE539:
 1110              	.LBB546:
 1111              	.LBB547:
 1112              		.loc 4 844 0
 1113 0096 04F12800 		add	r0, r4, #40
 1114 009a 0021     		movs	r1, #0
 1115 009c FFF7FEFF 		bl	chEvtBroadcastFlagsI
 1116              	.LVL102:
 1117              	.LBE547:
 1118              	.LBE546:
 1119              	.LBB548:
 1120              	.LBB549:
 1121              	.LBB550:
 1122              		.loc 3 408 0
 1123 00a0 FFF7FEFF 		bl	_dbg_check_unlock_from_isr
 1124              	.LVL103:
 1125              		.loc 3 409 0
 1126 00a4 FFF7FEFF 		bl	_stats_stop_measure_crit_isr
 1127              	.LVL104:
 1128              	.LBB551:
 1129              	.LBB552:
 1130              	.LBB553:
 1131              	.LBB554:
 1132              		.loc 2 548 0
 1133 00a8 0023     		movs	r3, #0
 1134              		.syntax unified
 1135              	@ 548 ".//ChibiOS//os/ext/CMSIS/include/core_cmFunc.h" 1
 1136 00aa 83F31188 		MSR basepri, r3
 1137              	@ 0 "" 2
 1138              	.LVL105:
 1139              		.thumb
 1140              		.syntax unified
ARM GAS  C:\Users\25521\AppData\Local\Temp\ccWqjK7b.s 			page 21


 1141 00ae B7E7     		b	.L66
 1142              	.LVL106:
 1143              	.L82:
 1144              	.LBE554:
 1145              	.LBE553:
 1146              	.LBE552:
 1147              	.LBE551:
 1148              	.LBE550:
 1149              	.LBE549:
 1150              	.LBE548:
 1151              	.LBE556:
 1152              	.LBE558:
 1153              		.loc 1 340 0
 1154 00b0 FFF7FEFF 		bl	__stack_chk_fail
 1155              	.LVL107:
 1156              	.L84:
 1157              		.align	2
 1158              	.L83:
 1159 00b4 00000000 		.word	__stack_chk_guard
 1160 00b8 00000000 		.word	.LANCHOR0
 1161 00bc 20000000 		.word	.LANCHOR0+32
 1162              		.cfi_endproc
 1163              	.LFE275:
 1164              		.size	Vector98, .-Vector98
 1165              		.section	.text.can_lld_init,"ax",%progbits
 1166              		.align	1
 1167              		.p2align 4,,15
 1168              		.global	can_lld_init
 1169              		.syntax unified
 1170              		.thumb
 1171              		.thumb_func
 1172              		.fpu fpv4-sp-d16
 1173              		.type	can_lld_init, %function
 1174              	can_lld_init:
 1175              	.LFB276:
 1176              		.loc 1 445 0
 1177              		.cfi_startproc
 1178              		@ args = 0, pretend = 0, frame = 8
 1179              		@ frame_needed = 0, uses_anonymous_args = 0
 1180 0000 30B5     		push	{r4, r5, lr}
 1181              		.cfi_def_cfa_offset 12
 1182              		.cfi_offset 4, -12
 1183              		.cfi_offset 5, -8
 1184              		.cfi_offset 14, -4
 1185 0002 0C4D     		ldr	r5, .L90
 1186              		.loc 1 449 0
 1187 0004 0C4C     		ldr	r4, .L90+4
 1188              		.loc 1 445 0
 1189 0006 2B68     		ldr	r3, [r5]
 1190 0008 83B0     		sub	sp, sp, #12
 1191              		.cfi_def_cfa_offset 24
 1192              		.loc 1 449 0
 1193 000a 2046     		mov	r0, r4
 1194              		.loc 1 445 0
 1195 000c 0193     		str	r3, [sp, #4]
 1196              		.loc 1 449 0
 1197 000e FFF7FEFF 		bl	canObjectInit
ARM GAS  C:\Users\25521\AppData\Local\Temp\ccWqjK7b.s 			page 22


 1198              	.LVL108:
 1199              		.loc 1 460 0
 1200 0012 019A     		ldr	r2, [sp, #4]
 1201 0014 2B68     		ldr	r3, [r5]
 1202              		.loc 1 450 0
 1203 0016 0949     		ldr	r1, .L90+8
 1204 0018 E162     		str	r1, [r4, #44]
 1205              		.loc 1 460 0
 1206 001a 9A42     		cmp	r2, r3
 1207 001c 07D1     		bne	.L89
 1208 001e 0022     		movs	r2, #0
 1209 0020 1146     		mov	r1, r2
 1210 0022 0E20     		movs	r0, #14
 1211              		.loc 1 464 0
 1212 0024 03B0     		add	sp, sp, #12
 1213              		.cfi_remember_state
 1214              		.cfi_def_cfa_offset 12
 1215              		@ sp needed
 1216 0026 BDE83040 		pop	{r4, r5, lr}
 1217              		.cfi_restore 14
 1218              		.cfi_restore 5
 1219              		.cfi_restore 4
 1220              		.cfi_def_cfa_offset 0
 1221              		.loc 1 460 0
 1222 002a FFF7FEBF 		b	can_lld_set_filters
 1223              	.LVL109:
 1224              	.L89:
 1225              		.cfi_restore_state
 1226 002e FFF7FEFF 		bl	__stack_chk_fail
 1227              	.LVL110:
 1228              	.L91:
 1229 0032 00BF     		.align	2
 1230              	.L90:
 1231 0034 00000000 		.word	__stack_chk_guard
 1232 0038 00000000 		.word	.LANCHOR0
 1233 003c 00640040 		.word	1073767424
 1234              		.cfi_endproc
 1235              	.LFE276:
 1236              		.size	can_lld_init, .-can_lld_init
 1237              		.section	.text.can_lld_start,"ax",%progbits
 1238              		.align	1
 1239              		.p2align 4,,15
 1240              		.global	can_lld_start
 1241              		.syntax unified
 1242              		.thumb
 1243              		.thumb_func
 1244              		.fpu fpv4-sp-d16
 1245              		.type	can_lld_start, %function
 1246              	can_lld_start:
 1247              	.LFB277:
 1248              		.loc 1 473 0
 1249              		.cfi_startproc
 1250              		@ args = 0, pretend = 0, frame = 8
 1251              		@ frame_needed = 0, uses_anonymous_args = 0
 1252              	.LVL111:
 1253 0000 30B5     		push	{r4, r5, lr}
 1254              		.cfi_def_cfa_offset 12
ARM GAS  C:\Users\25521\AppData\Local\Temp\ccWqjK7b.s 			page 23


 1255              		.cfi_offset 4, -12
 1256              		.cfi_offset 5, -8
 1257              		.cfi_offset 14, -4
 1258              		.loc 1 477 0
 1259 0002 1F4B     		ldr	r3, .L102
 1260              		.loc 1 473 0
 1261 0004 1F4D     		ldr	r5, .L102+4
 1262 0006 83B0     		sub	sp, sp, #12
 1263              		.cfi_def_cfa_offset 24
 1264              		.loc 1 473 0
 1265 0008 2A68     		ldr	r2, [r5]
 1266 000a 0192     		str	r2, [sp, #4]
 1267              		.loc 1 477 0
 1268 000c 9842     		cmp	r0, r3
 1269              		.loc 1 473 0
 1270 000e 0446     		mov	r4, r0
 1271              		.loc 1 477 0
 1272 0010 1ED0     		beq	.L100
 1273              	.LVL112:
 1274              	.L93:
 1275              		.loc 1 507 0
 1276 0012 E36A     		ldr	r3, [r4, #44]
 1277 0014 0122     		movs	r2, #1
 1278 0016 1A60     		str	r2, [r3]
 1279              		.loc 1 508 0
 1280 0018 E36A     		ldr	r3, [r4, #44]
 1281 001a 5A68     		ldr	r2, [r3, #4]
 1282 001c D107     		lsls	r1, r2, #31
 1283 001e 07D4     		bmi	.L94
 1284              	.L95:
 1285              	.LVL113:
 1286              	.LBB563:
 1287              	.LBB564:
 1288              	.LBB565:
 1289              		.file 5 ".//ChibiOS//os/rt/include/chthreads.h"
 1290              		.loc 5 268 0
 1291 0020 0121     		movs	r1, #1
 1292 0022 0820     		movs	r0, #8
 1293 0024 FFF7FEFF 		bl	chSchGoSleepTimeoutS
 1294              	.LVL114:
 1295              	.LBE565:
 1296              	.LBE564:
 1297              	.LBE563:
 1298              		.loc 1 508 0
 1299 0028 E36A     		ldr	r3, [r4, #44]
 1300 002a 5A68     		ldr	r2, [r3, #4]
 1301 002c D207     		lsls	r2, r2, #31
 1302 002e F7D5     		bpl	.L95
 1303              	.LVL115:
 1304              	.L94:
 1305              		.loc 1 510 0
 1306 0030 6168     		ldr	r1, [r4, #4]
 1307              		.loc 1 514 0
 1308 0032 154A     		ldr	r2, .L102+8
 1309              		.loc 1 510 0
 1310 0034 4968     		ldr	r1, [r1, #4]
 1311 0036 D961     		str	r1, [r3, #28]
ARM GAS  C:\Users\25521\AppData\Local\Temp\ccWqjK7b.s 			page 24


 1312              		.loc 1 511 0
 1313 0038 6168     		ldr	r1, [r4, #4]
 1314 003a E36A     		ldr	r3, [r4, #44]
 1315 003c 0968     		ldr	r1, [r1]
 1316 003e 1960     		str	r1, [r3]
 1317              		.loc 1 514 0
 1318 0040 E36A     		ldr	r3, [r4, #44]
 1319 0042 5A61     		str	r2, [r3, #20]
 1320              		.loc 1 518 0
 1321 0044 019A     		ldr	r2, [sp, #4]
 1322 0046 2B68     		ldr	r3, [r5]
 1323 0048 9A42     		cmp	r2, r3
 1324 004a 17D1     		bne	.L101
 1325 004c 03B0     		add	sp, sp, #12
 1326              		.cfi_remember_state
 1327              		.cfi_def_cfa_offset 12
 1328              		@ sp needed
 1329 004e 30BD     		pop	{r4, r5, pc}
 1330              	.LVL116:
 1331              	.L100:
 1332              		.cfi_restore_state
 1333              		.loc 1 481 0
 1334 0050 0B21     		movs	r1, #11
 1335 0052 1320     		movs	r0, #19
 1336              	.LVL117:
 1337 0054 FFF7FEFF 		bl	nvicEnableVector
 1338              	.LVL118:
 1339              		.loc 1 482 0
 1340 0058 0B21     		movs	r1, #11
 1341 005a 1420     		movs	r0, #20
 1342 005c FFF7FEFF 		bl	nvicEnableVector
 1343              	.LVL119:
 1344              		.loc 1 483 0
 1345 0060 0B21     		movs	r1, #11
 1346 0062 1520     		movs	r0, #21
 1347 0064 FFF7FEFF 		bl	nvicEnableVector
 1348              	.LVL120:
 1349              		.loc 1 484 0
 1350 0068 0B21     		movs	r1, #11
 1351 006a 1620     		movs	r0, #22
 1352 006c FFF7FEFF 		bl	nvicEnableVector
 1353              	.LVL121:
 1354              		.loc 1 486 0
 1355 0070 064A     		ldr	r2, .L102+12
 1356 0072 136C     		ldr	r3, [r2, #64]
 1357 0074 43F00073 		orr	r3, r3, #33554432
 1358 0078 1364     		str	r3, [r2, #64]
 1359 007a CAE7     		b	.L93
 1360              	.L101:
 1361              		.loc 1 518 0
 1362 007c FFF7FEFF 		bl	__stack_chk_fail
 1363              	.LVL122:
 1364              	.L103:
 1365              		.align	2
 1366              	.L102:
 1367 0080 00000000 		.word	.LANCHOR0
 1368 0084 00000000 		.word	__stack_chk_guard
ARM GAS  C:\Users\25521\AppData\Local\Temp\ccWqjK7b.s 			page 25


 1369 0088 5B8F0100 		.word	102235
 1370 008c 00380240 		.word	1073887232
 1371              		.cfi_endproc
 1372              	.LFE277:
 1373              		.size	can_lld_start, .-can_lld_start
 1374              		.section	.text.can_lld_stop,"ax",%progbits
 1375              		.align	1
 1376              		.p2align 4,,15
 1377              		.global	can_lld_stop
 1378              		.syntax unified
 1379              		.thumb
 1380              		.thumb_func
 1381              		.fpu fpv4-sp-d16
 1382              		.type	can_lld_stop, %function
 1383              	can_lld_stop:
 1384              	.LFB278:
 1385              		.loc 1 527 0
 1386              		.cfi_startproc
 1387              		@ args = 0, pretend = 0, frame = 8
 1388              		@ frame_needed = 0, uses_anonymous_args = 0
 1389              	.LVL123:
 1390 0000 10B5     		push	{r4, lr}
 1391              		.cfi_def_cfa_offset 8
 1392              		.cfi_offset 4, -8
 1393              		.cfi_offset 14, -4
 1394 0002 144C     		ldr	r4, .L110
 1395              		.loc 1 530 0
 1396 0004 0378     		ldrb	r3, [r0]	@ zero_extendqisi2
 1397              		.loc 1 527 0
 1398 0006 2268     		ldr	r2, [r4]
 1399 0008 82B0     		sub	sp, sp, #8
 1400              		.cfi_def_cfa_offset 16
 1401              		.loc 1 530 0
 1402 000a 032B     		cmp	r3, #3
 1403              		.loc 1 527 0
 1404 000c 0192     		str	r2, [sp, #4]
 1405              		.loc 1 530 0
 1406 000e 05D0     		beq	.L108
 1407              	.LVL124:
 1408              	.L104:
 1409              		.loc 1 567 0
 1410 0010 019A     		ldr	r2, [sp, #4]
 1411 0012 2368     		ldr	r3, [r4]
 1412 0014 9A42     		cmp	r2, r3
 1413 0016 1BD1     		bne	.L109
 1414 0018 02B0     		add	sp, sp, #8
 1415              		.cfi_remember_state
 1416              		.cfi_def_cfa_offset 8
 1417              		@ sp needed
 1418 001a 10BD     		pop	{r4, pc}
 1419              	.LVL125:
 1420              	.L108:
 1421              		.cfi_restore_state
 1422              		.loc 1 532 0
 1423 001c 0E4B     		ldr	r3, .L110+4
 1424 001e 9842     		cmp	r0, r3
 1425 0020 F6D1     		bne	.L104
ARM GAS  C:\Users\25521\AppData\Local\Temp\ccWqjK7b.s 			page 26


 1426              		.loc 1 538 0
 1427 0022 0E4B     		ldr	r3, .L110+8
 1428 0024 0E4A     		ldr	r2, .L110+12
 1429 0026 1A60     		str	r2, [r3]
 1430              		.loc 1 539 0
 1431 0028 0022     		movs	r2, #0
 1432 002a 5A61     		str	r2, [r3, #20]
 1433              		.loc 1 543 0
 1434 002c 1320     		movs	r0, #19
 1435              	.LVL126:
 1436 002e FFF7FEFF 		bl	nvicDisableVector
 1437              	.LVL127:
 1438              		.loc 1 544 0
 1439 0032 1420     		movs	r0, #20
 1440 0034 FFF7FEFF 		bl	nvicDisableVector
 1441              	.LVL128:
 1442              		.loc 1 545 0
 1443 0038 1520     		movs	r0, #21
 1444 003a FFF7FEFF 		bl	nvicDisableVector
 1445              	.LVL129:
 1446              		.loc 1 546 0
 1447 003e 1620     		movs	r0, #22
 1448 0040 FFF7FEFF 		bl	nvicDisableVector
 1449              	.LVL130:
 1450              		.loc 1 548 0
 1451 0044 074A     		ldr	r2, .L110+16
 1452 0046 136C     		ldr	r3, [r2, #64]
 1453 0048 23F00073 		bic	r3, r3, #33554432
 1454 004c 1364     		str	r3, [r2, #64]
 1455              		.loc 1 567 0
 1456 004e DFE7     		b	.L104
 1457              	.L109:
 1458 0050 FFF7FEFF 		bl	__stack_chk_fail
 1459              	.LVL131:
 1460              	.L111:
 1461              		.align	2
 1462              	.L110:
 1463 0054 00000000 		.word	__stack_chk_guard
 1464 0058 00000000 		.word	.LANCHOR0
 1465 005c 00640040 		.word	1073767424
 1466 0060 02000100 		.word	65538
 1467 0064 00380240 		.word	1073887232
 1468              		.cfi_endproc
 1469              	.LFE278:
 1470              		.size	can_lld_stop, .-can_lld_stop
 1471              		.section	.text.can_lld_is_tx_empty,"ax",%progbits
 1472              		.align	1
 1473              		.p2align 4,,15
 1474              		.global	can_lld_is_tx_empty
 1475              		.syntax unified
 1476              		.thumb
 1477              		.thumb_func
 1478              		.fpu fpv4-sp-d16
 1479              		.type	can_lld_is_tx_empty, %function
 1480              	can_lld_is_tx_empty:
 1481              	.LFB279:
 1482              		.loc 1 581 0
ARM GAS  C:\Users\25521\AppData\Local\Temp\ccWqjK7b.s 			page 27


 1483              		.cfi_startproc
 1484              		@ args = 0, pretend = 0, frame = 8
 1485              		@ frame_needed = 0, uses_anonymous_args = 0
 1486              	.LVL132:
 1487 0000 00B5     		push	{lr}
 1488              		.cfi_def_cfa_offset 4
 1489              		.cfi_offset 14, -4
 1490 0002 154B     		ldr	r3, .L123
 1491 0004 83B0     		sub	sp, sp, #12
 1492              		.cfi_def_cfa_offset 16
 1493              		.loc 1 581 0
 1494 0006 1A68     		ldr	r2, [r3]
 1495 0008 0192     		str	r2, [sp, #4]
 1496              		.loc 1 583 0
 1497 000a 0329     		cmp	r1, #3
 1498 000c 22D8     		bhi	.L120
 1499 000e DFE801F0 		tbb	[pc, r1]
 1500              	.L115:
 1501 0012 17       		.byte	(.L114-.L115)/2
 1502 0013 12       		.byte	(.L116-.L115)/2
 1503 0014 0D       		.byte	(.L117-.L115)/2
 1504 0015 02       		.byte	(.L118-.L115)/2
 1505              		.p2align 1
 1506              	.L118:
 1507              		.loc 1 591 0
 1508 0016 C26A     		ldr	r2, [r0, #44]
 1509 0018 9068     		ldr	r0, [r2, #8]
 1510              	.LVL133:
 1511 001a C0F30070 		ubfx	r0, r0, #28, #1
 1512              	.L113:
 1513              		.loc 1 595 0
 1514 001e 019A     		ldr	r2, [sp, #4]
 1515 0020 1B68     		ldr	r3, [r3]
 1516 0022 9A42     		cmp	r2, r3
 1517 0024 14D1     		bne	.L122
 1518 0026 03B0     		add	sp, sp, #12
 1519              		.cfi_remember_state
 1520              		.cfi_def_cfa_offset 4
 1521              		@ sp needed
 1522 0028 5DF804FB 		ldr	pc, [sp], #4
 1523              	.LVL134:
 1524              	.L117:
 1525              		.cfi_restore_state
 1526              		.loc 1 589 0
 1527 002c C26A     		ldr	r2, [r0, #44]
 1528 002e 9068     		ldr	r0, [r2, #8]
 1529              	.LVL135:
 1530 0030 C0F3C060 		ubfx	r0, r0, #27, #1
 1531 0034 F3E7     		b	.L113
 1532              	.LVL136:
 1533              	.L116:
 1534              		.loc 1 587 0
 1535 0036 C26A     		ldr	r2, [r0, #44]
 1536 0038 9068     		ldr	r0, [r2, #8]
 1537              	.LVL137:
 1538 003a C0F38060 		ubfx	r0, r0, #26, #1
 1539 003e EEE7     		b	.L113
ARM GAS  C:\Users\25521\AppData\Local\Temp\ccWqjK7b.s 			page 28


 1540              	.LVL138:
 1541              	.L114:
 1542              		.loc 1 585 0
 1543 0040 C26A     		ldr	r2, [r0, #44]
 1544 0042 9268     		ldr	r2, [r2, #8]
 1545 0044 12F0E05F 		tst	r2, #469762048
 1546 0048 14BF     		ite	ne
 1547 004a 0120     		movne	r0, #1
 1548              	.LVL139:
 1549 004c 0020     		moveq	r0, #0
 1550 004e E6E7     		b	.L113
 1551              	.L122:
 1552              		.loc 1 595 0
 1553 0050 FFF7FEFF 		bl	__stack_chk_fail
 1554              	.LVL140:
 1555              	.L120:
 1556              		.loc 1 593 0
 1557 0054 0020     		movs	r0, #0
 1558              	.LVL141:
 1559 0056 E2E7     		b	.L113
 1560              	.L124:
 1561              		.align	2
 1562              	.L123:
 1563 0058 00000000 		.word	__stack_chk_guard
 1564              		.cfi_endproc
 1565              	.LFE279:
 1566              		.size	can_lld_is_tx_empty, .-can_lld_is_tx_empty
 1567              		.section	.text.can_lld_transmit,"ax",%progbits
 1568              		.align	1
 1569              		.p2align 4,,15
 1570              		.global	can_lld_transmit
 1571              		.syntax unified
 1572              		.thumb
 1573              		.thumb_func
 1574              		.fpu fpv4-sp-d16
 1575              		.type	can_lld_transmit, %function
 1576              	can_lld_transmit:
 1577              	.LFB280:
 1578              		.loc 1 608 0
 1579              		.cfi_startproc
 1580              		@ args = 0, pretend = 0, frame = 8
 1581              		@ frame_needed = 0, uses_anonymous_args = 0
 1582              	.LVL142:
 1583 0000 30B5     		push	{r4, r5, lr}
 1584              		.cfi_def_cfa_offset 12
 1585              		.cfi_offset 4, -12
 1586              		.cfi_offset 5, -8
 1587              		.cfi_offset 14, -4
 1588 0002 1F4C     		ldr	r4, .L138
 1589 0004 83B0     		sub	sp, sp, #12
 1590              		.cfi_def_cfa_offset 24
 1591              		.loc 1 608 0
 1592 0006 2368     		ldr	r3, [r4]
 1593 0008 0193     		str	r3, [sp, #4]
 1594              		.loc 1 613 0
 1595 000a 0329     		cmp	r1, #3
 1596 000c 1CD8     		bhi	.L125
ARM GAS  C:\Users\25521\AppData\Local\Temp\ccWqjK7b.s 			page 29


 1597 000e DFE801F0 		tbb	[pc, r1]
 1598              	.L128:
 1599 0012 25       		.byte	(.L127-.L128)/2
 1600 0013 2D       		.byte	(.L129-.L128)/2
 1601 0014 21       		.byte	(.L130-.L128)/2
 1602 0015 02       		.byte	(.L131-.L128)/2
 1603              		.p2align 1
 1604              	.L131:
 1605              		.loc 1 624 0
 1606 0016 C16A     		ldr	r1, [r0, #44]
 1607              	.LVL143:
 1608 0018 01F5D071 		add	r1, r1, #416
 1609              	.LVL144:
 1610              	.L132:
 1611 001c 1078     		ldrb	r0, [r2]	@ zero_extendqisi2
 1612              	.LVL145:
 1613 001e C0F30013 		ubfx	r3, r0, #4, #1
 1614              		.loc 1 631 0
 1615 0022 8506     		lsls	r5, r0, #26
 1616 0024 4FEA4303 		lsl	r3, r3, #1
 1617 0028 24D5     		bpl	.L133
 1618              		.loc 1 632 0
 1619 002a 5568     		ldr	r5, [r2, #4]
 1620 002c 43EAC503 		orr	r3, r3, r5, lsl #3
 1621 0030 43F00403 		orr	r3, r3, #4
 1622              	.LVL146:
 1623              	.L134:
 1624              		.loc 1 636 0
 1625 0034 00F00F00 		and	r0, r0, #15
 1626 0038 4860     		str	r0, [r1, #4]
 1627              		.loc 1 637 0
 1628 003a 9068     		ldr	r0, [r2, #8]
 1629 003c 8860     		str	r0, [r1, #8]
 1630              		.loc 1 638 0
 1631 003e D268     		ldr	r2, [r2, #12]
 1632              	.LVL147:
 1633 0040 CA60     		str	r2, [r1, #12]
 1634              		.loc 1 639 0
 1635 0042 43F00103 		orr	r3, r3, #1
 1636              	.LVL148:
 1637 0046 0B60     		str	r3, [r1]
 1638              	.LVL149:
 1639              	.L125:
 1640              		.loc 1 640 0
 1641 0048 019A     		ldr	r2, [sp, #4]
 1642 004a 2368     		ldr	r3, [r4]
 1643 004c 9A42     		cmp	r2, r3
 1644 004e 15D1     		bne	.L137
 1645 0050 03B0     		add	sp, sp, #12
 1646              		.cfi_remember_state
 1647              		.cfi_def_cfa_offset 12
 1648              		@ sp needed
 1649 0052 30BD     		pop	{r4, r5, pc}
 1650              	.LVL150:
 1651              	.L130:
 1652              		.cfi_restore_state
 1653              		.loc 1 621 0
ARM GAS  C:\Users\25521\AppData\Local\Temp\ccWqjK7b.s 			page 30


 1654 0054 C16A     		ldr	r1, [r0, #44]
 1655              	.LVL151:
 1656 0056 01F5C871 		add	r1, r1, #400
 1657              	.LVL152:
 1658              		.loc 1 622 0
 1659 005a DFE7     		b	.L132
 1660              	.LVL153:
 1661              	.L127:
 1662              		.loc 1 615 0
 1663 005c C16A     		ldr	r1, [r0, #44]
 1664              	.LVL154:
 1665 005e 8B68     		ldr	r3, [r1, #8]
 1666 0060 C3F30163 		ubfx	r3, r3, #24, #2
 1667 0064 1833     		adds	r3, r3, #24
 1668 0066 01EB0311 		add	r1, r1, r3, lsl #4
 1669              	.LVL155:
 1670              		.loc 1 616 0
 1671 006a D7E7     		b	.L132
 1672              	.LVL156:
 1673              	.L129:
 1674              		.loc 1 618 0
 1675 006c C16A     		ldr	r1, [r0, #44]
 1676              	.LVL157:
 1677 006e 01F5C071 		add	r1, r1, #384
 1678              	.LVL158:
 1679              		.loc 1 619 0
 1680 0072 D3E7     		b	.L132
 1681              	.LVL159:
 1682              	.L133:
 1683              		.loc 1 635 0
 1684 0074 9588     		ldrh	r5, [r2, #4]
 1685 0076 43EA4553 		orr	r3, r3, r5, lsl #21
 1686              	.LVL160:
 1687 007a DBE7     		b	.L134
 1688              	.LVL161:
 1689              	.L137:
 1690              		.loc 1 640 0
 1691 007c FFF7FEFF 		bl	__stack_chk_fail
 1692              	.LVL162:
 1693              	.L139:
 1694              		.align	2
 1695              	.L138:
 1696 0080 00000000 		.word	__stack_chk_guard
 1697              		.cfi_endproc
 1698              	.LFE280:
 1699              		.size	can_lld_transmit, .-can_lld_transmit
 1700              		.section	.text.can_lld_is_rx_nonempty,"ax",%progbits
 1701              		.align	1
 1702              		.p2align 4,,15
 1703              		.global	can_lld_is_rx_nonempty
 1704              		.syntax unified
 1705              		.thumb
 1706              		.thumb_func
 1707              		.fpu fpv4-sp-d16
 1708              		.type	can_lld_is_rx_nonempty, %function
 1709              	can_lld_is_rx_nonempty:
 1710              	.LFB281:
ARM GAS  C:\Users\25521\AppData\Local\Temp\ccWqjK7b.s 			page 31


 1711              		.loc 1 654 0
 1712              		.cfi_startproc
 1713              		@ args = 0, pretend = 0, frame = 8
 1714              		@ frame_needed = 0, uses_anonymous_args = 0
 1715              	.LVL163:
 1716 0000 00B5     		push	{lr}
 1717              		.cfi_def_cfa_offset 4
 1718              		.cfi_offset 14, -4
 1719 0002 134B     		ldr	r3, .L153
 1720 0004 83B0     		sub	sp, sp, #12
 1721              		.cfi_def_cfa_offset 16
 1722              		.loc 1 654 0
 1723 0006 1A68     		ldr	r2, [r3]
 1724 0008 0192     		str	r2, [sp, #4]
 1725              		.loc 1 656 0
 1726 000a 0129     		cmp	r1, #1
 1727 000c 17D0     		beq	.L142
 1728 000e 10D3     		bcc	.L143
 1729 0010 0229     		cmp	r1, #2
 1730 0012 07D0     		beq	.L144
 1731              		.loc 1 665 0
 1732 0014 0020     		movs	r0, #0
 1733              	.LVL164:
 1734              	.L141:
 1735              		.loc 1 667 0
 1736 0016 019A     		ldr	r2, [sp, #4]
 1737 0018 1B68     		ldr	r3, [r3]
 1738 001a 9A42     		cmp	r2, r3
 1739 001c 16D1     		bne	.L152
 1740 001e 03B0     		add	sp, sp, #12
 1741              		.cfi_remember_state
 1742              		.cfi_def_cfa_offset 4
 1743              		@ sp needed
 1744 0020 5DF804FB 		ldr	pc, [sp], #4
 1745              	.LVL165:
 1746              	.L144:
 1747              		.cfi_restore_state
 1748              		.loc 1 663 0
 1749 0024 C26A     		ldr	r2, [r0, #44]
 1750              	.LVL166:
 1751              	.L151:
 1752 0026 1069     		ldr	r0, [r2, #16]
 1753              	.LVL167:
 1754 0028 10F00300 		ands	r0, r0, #3
 1755 002c 18BF     		it	ne
 1756 002e 0120     		movne	r0, #1
 1757 0030 F1E7     		b	.L141
 1758              	.LVL168:
 1759              	.L143:
 1760              		.loc 1 658 0
 1761 0032 C26A     		ldr	r2, [r0, #44]
 1762 0034 D168     		ldr	r1, [r2, #12]
 1763              	.LVL169:
 1764 0036 8907     		lsls	r1, r1, #30
 1765 0038 F5D0     		beq	.L151
 1766 003a 0120     		movs	r0, #1
 1767              	.LVL170:
ARM GAS  C:\Users\25521\AppData\Local\Temp\ccWqjK7b.s 			page 32


 1768 003c EBE7     		b	.L141
 1769              	.LVL171:
 1770              	.L142:
 1771              		.loc 1 661 0
 1772 003e C26A     		ldr	r2, [r0, #44]
 1773 0040 D068     		ldr	r0, [r2, #12]
 1774              	.LVL172:
 1775 0042 10F00300 		ands	r0, r0, #3
 1776 0046 18BF     		it	ne
 1777 0048 0120     		movne	r0, #1
 1778 004a E4E7     		b	.L141
 1779              	.LVL173:
 1780              	.L152:
 1781              		.loc 1 667 0
 1782 004c FFF7FEFF 		bl	__stack_chk_fail
 1783              	.LVL174:
 1784              	.L154:
 1785              		.align	2
 1786              	.L153:
 1787 0050 00000000 		.word	__stack_chk_guard
 1788              		.cfi_endproc
 1789              	.LFE281:
 1790              		.size	can_lld_is_rx_nonempty, .-can_lld_is_rx_nonempty
 1791              		.section	.text.can_lld_receive,"ax",%progbits
 1792              		.align	1
 1793              		.p2align 4,,15
 1794              		.global	can_lld_receive
 1795              		.syntax unified
 1796              		.thumb
 1797              		.thumb_func
 1798              		.fpu fpv4-sp-d16
 1799              		.type	can_lld_receive, %function
 1800              	can_lld_receive:
 1801              	.LFB282:
 1802              		.loc 1 680 0
 1803              		.cfi_startproc
 1804              		@ args = 0, pretend = 0, frame = 8
 1805              		@ frame_needed = 0, uses_anonymous_args = 0
 1806              	.LVL175:
 1807 0000 70B5     		push	{r4, r5, r6, lr}
 1808              		.cfi_def_cfa_offset 16
 1809              		.cfi_offset 4, -16
 1810              		.cfi_offset 5, -12
 1811              		.cfi_offset 6, -8
 1812              		.cfi_offset 14, -4
 1813 0002 334D     		ldr	r5, .L169
 1814 0004 82B0     		sub	sp, sp, #8
 1815              		.cfi_def_cfa_offset 24
 1816              		.loc 1 680 0
 1817 0006 2B68     		ldr	r3, [r5]
 1818 0008 0193     		str	r3, [sp, #4]
 1819              		.loc 1 683 0
 1820 000a 0029     		cmp	r1, #0
 1821 000c 36D1     		bne	.L156
 1822              		.loc 1 684 0
 1823 000e C36A     		ldr	r3, [r0, #44]
 1824 0010 D968     		ldr	r1, [r3, #12]
ARM GAS  C:\Users\25521\AppData\Local\Temp\ccWqjK7b.s 			page 33


 1825              	.LVL176:
 1826 0012 8C07     		lsls	r4, r1, #30
 1827 0014 4ED0     		beq	.L167
 1828              	.L157:
 1829              		.loc 1 696 0
 1830 0016 D3F8B041 		ldr	r4, [r3, #432]
 1831              	.LVL177:
 1832              		.loc 1 697 0
 1833 001a D3F8B411 		ldr	r1, [r3, #436]
 1834              	.LVL178:
 1835              		.loc 1 698 0
 1836 001e D3F8B831 		ldr	r3, [r3, #440]
 1837 0022 D360     		str	r3, [r2, #12]
 1838              		.loc 1 699 0
 1839 0024 C36A     		ldr	r3, [r0, #44]
 1840 0026 D3F8BC31 		ldr	r3, [r3, #444]
 1841 002a 1361     		str	r3, [r2, #16]
 1842              		.loc 1 702 0
 1843 002c C36A     		ldr	r3, [r0, #44]
 1844 002e 2026     		movs	r6, #32
 1845 0030 DE60     		str	r6, [r3, #12]
 1846              		.loc 1 706 0
 1847 0032 C36A     		ldr	r3, [r0, #44]
 1848 0034 D868     		ldr	r0, [r3, #12]
 1849              	.LVL179:
 1850 0036 8607     		lsls	r6, r0, #30
 1851 0038 03D1     		bne	.L162
 1852              		.loc 1 707 0
 1853 003a 5869     		ldr	r0, [r3, #20]
 1854 003c 40F00200 		orr	r0, r0, #2
 1855 0040 5861     		str	r0, [r3, #20]
 1856              	.L162:
 1857              		.loc 1 730 0
 1858 0042 1379     		ldrb	r3, [r2, #4]	@ zero_extendqisi2
 1859 0044 6008     		lsrs	r0, r4, #1
 1860 0046 60F30413 		bfi	r3, r0, #4, #1
 1861              		.loc 1 731 0
 1862 004a A008     		lsrs	r0, r4, #2
 1863 004c 60F34513 		bfi	r3, r0, #5, #1
 1864 0050 1371     		strb	r3, [r2, #4]
 1865              		.loc 1 732 0
 1866 0052 9B06     		lsls	r3, r3, #26
 1867 0054 32D5     		bpl	.L163
 1868              		.loc 1 733 0
 1869 0056 9368     		ldr	r3, [r2, #8]
 1870 0058 E408     		lsrs	r4, r4, #3
 1871              	.LVL180:
 1872 005a 64F31C03 		bfi	r3, r4, #0, #29
 1873 005e 9360     		str	r3, [r2, #8]
 1874              	.L164:
 1875              		.loc 1 736 0
 1876 0060 1379     		ldrb	r3, [r2, #4]	@ zero_extendqisi2
 1877              		.loc 1 737 0
 1878 0062 080A     		lsrs	r0, r1, #8
 1879              		.loc 1 736 0
 1880 0064 61F30303 		bfi	r3, r1, #0, #4
 1881              		.loc 1 738 0
ARM GAS  C:\Users\25521\AppData\Local\Temp\ccWqjK7b.s 			page 34


 1882 0068 090C     		lsrs	r1, r1, #16
 1883              	.LVL181:
 1884              		.loc 1 736 0
 1885 006a 1371     		strb	r3, [r2, #4]
 1886              		.loc 1 737 0
 1887 006c 1070     		strb	r0, [r2]
 1888              		.loc 1 738 0
 1889 006e 5180     		strh	r1, [r2, #2]	@ movhi
 1890              	.L155:
 1891              		.loc 1 739 0
 1892 0070 019A     		ldr	r2, [sp, #4]
 1893              	.LVL182:
 1894 0072 2B68     		ldr	r3, [r5]
 1895 0074 9A42     		cmp	r2, r3
 1896 0076 29D1     		bne	.L168
 1897 0078 02B0     		add	sp, sp, #8
 1898              		.cfi_remember_state
 1899              		.cfi_def_cfa_offset 16
 1900              		@ sp needed
 1901 007a 70BD     		pop	{r4, r5, r6, pc}
 1902              	.LVL183:
 1903              	.L156:
 1904              		.cfi_restore_state
 1905              		.loc 1 693 0
 1906 007c 0129     		cmp	r1, #1
 1907 007e 23D0     		beq	.L160
 1908 0080 0229     		cmp	r1, #2
 1909 0082 F5D1     		bne	.L155
 1910 0084 C36A     		ldr	r3, [r0, #44]
 1911              	.LVL184:
 1912              	.L158:
 1913              		.loc 1 711 0
 1914 0086 D3F8C041 		ldr	r4, [r3, #448]
 1915              	.LVL185:
 1916              		.loc 1 712 0
 1917 008a D3F8C411 		ldr	r1, [r3, #452]
 1918              	.LVL186:
 1919              		.loc 1 713 0
 1920 008e D3F8C831 		ldr	r3, [r3, #456]
 1921 0092 D360     		str	r3, [r2, #12]
 1922              		.loc 1 714 0
 1923 0094 C36A     		ldr	r3, [r0, #44]
 1924 0096 D3F8CC31 		ldr	r3, [r3, #460]
 1925 009a 1361     		str	r3, [r2, #16]
 1926              		.loc 1 717 0
 1927 009c C36A     		ldr	r3, [r0, #44]
 1928 009e 2026     		movs	r6, #32
 1929 00a0 1E61     		str	r6, [r3, #16]
 1930              		.loc 1 721 0
 1931 00a2 C36A     		ldr	r3, [r0, #44]
 1932 00a4 1869     		ldr	r0, [r3, #16]
 1933              	.LVL187:
 1934 00a6 8007     		lsls	r0, r0, #30
 1935 00a8 CBD1     		bne	.L162
 1936              		.loc 1 722 0
 1937 00aa 5869     		ldr	r0, [r3, #20]
 1938 00ac 40F01000 		orr	r0, r0, #16
ARM GAS  C:\Users\25521\AppData\Local\Temp\ccWqjK7b.s 			page 35


 1939 00b0 5861     		str	r0, [r3, #20]
 1940 00b2 C6E7     		b	.L162
 1941              	.LVL188:
 1942              	.L167:
 1943              		.loc 1 686 0
 1944 00b4 1969     		ldr	r1, [r3, #16]
 1945 00b6 8907     		lsls	r1, r1, #30
 1946 00b8 E5D1     		bne	.L158
 1947 00ba D9E7     		b	.L155
 1948              	.LVL189:
 1949              	.L163:
 1950              		.loc 1 735 0
 1951 00bc 1389     		ldrh	r3, [r2, #8]
 1952 00be 640D     		lsrs	r4, r4, #21
 1953              	.LVL190:
 1954 00c0 64F30A03 		bfi	r3, r4, #0, #11
 1955 00c4 1381     		strh	r3, [r2, #8]	@ movhi
 1956 00c6 CBE7     		b	.L164
 1957              	.LVL191:
 1958              	.L160:
 1959 00c8 C36A     		ldr	r3, [r0, #44]
 1960 00ca A4E7     		b	.L157
 1961              	.LVL192:
 1962              	.L168:
 1963              		.loc 1 739 0
 1964 00cc FFF7FEFF 		bl	__stack_chk_fail
 1965              	.LVL193:
 1966              	.L170:
 1967              		.align	2
 1968              	.L169:
 1969 00d0 00000000 		.word	__stack_chk_guard
 1970              		.cfi_endproc
 1971              	.LFE282:
 1972              		.size	can_lld_receive, .-can_lld_receive
 1973              		.section	.text.can_lld_sleep,"ax",%progbits
 1974              		.align	1
 1975              		.p2align 4,,15
 1976              		.global	can_lld_sleep
 1977              		.syntax unified
 1978              		.thumb
 1979              		.thumb_func
 1980              		.fpu fpv4-sp-d16
 1981              		.type	can_lld_sleep, %function
 1982              	can_lld_sleep:
 1983              	.LFB283:
 1984              		.loc 1 749 0
 1985              		.cfi_startproc
 1986              		@ args = 0, pretend = 0, frame = 8
 1987              		@ frame_needed = 0, uses_anonymous_args = 0
 1988              	.LVL194:
 1989 0000 00B5     		push	{lr}
 1990              		.cfi_def_cfa_offset 4
 1991              		.cfi_offset 14, -4
 1992 0002 094A     		ldr	r2, .L175
 1993              		.loc 1 751 0
 1994 0004 C16A     		ldr	r1, [r0, #44]
 1995              		.loc 1 749 0
ARM GAS  C:\Users\25521\AppData\Local\Temp\ccWqjK7b.s 			page 36


 1996 0006 1368     		ldr	r3, [r2]
 1997 0008 83B0     		sub	sp, sp, #12
 1998              		.cfi_def_cfa_offset 16
 1999              		.loc 1 749 0
 2000 000a 0193     		str	r3, [sp, #4]
 2001              		.loc 1 751 0
 2002 000c 0B68     		ldr	r3, [r1]
 2003 000e 43F00203 		orr	r3, r3, #2
 2004 0012 0B60     		str	r3, [r1]
 2005              		.loc 1 752 0
 2006 0014 0199     		ldr	r1, [sp, #4]
 2007 0016 1368     		ldr	r3, [r2]
 2008 0018 9942     		cmp	r1, r3
 2009 001a 02D1     		bne	.L174
 2010 001c 03B0     		add	sp, sp, #12
 2011              		.cfi_remember_state
 2012              		.cfi_def_cfa_offset 4
 2013              		@ sp needed
 2014 001e 5DF804FB 		ldr	pc, [sp], #4
 2015              	.L174:
 2016              		.cfi_restore_state
 2017 0022 FFF7FEFF 		bl	__stack_chk_fail
 2018              	.LVL195:
 2019              	.L176:
 2020 0026 00BF     		.align	2
 2021              	.L175:
 2022 0028 00000000 		.word	__stack_chk_guard
 2023              		.cfi_endproc
 2024              	.LFE283:
 2025              		.size	can_lld_sleep, .-can_lld_sleep
 2026              		.section	.text.can_lld_wakeup,"ax",%progbits
 2027              		.align	1
 2028              		.p2align 4,,15
 2029              		.global	can_lld_wakeup
 2030              		.syntax unified
 2031              		.thumb
 2032              		.thumb_func
 2033              		.fpu fpv4-sp-d16
 2034              		.type	can_lld_wakeup, %function
 2035              	can_lld_wakeup:
 2036              	.LFB284:
 2037              		.loc 1 761 0
 2038              		.cfi_startproc
 2039              		@ args = 0, pretend = 0, frame = 8
 2040              		@ frame_needed = 0, uses_anonymous_args = 0
 2041              	.LVL196:
 2042 0000 00B5     		push	{lr}
 2043              		.cfi_def_cfa_offset 4
 2044              		.cfi_offset 14, -4
 2045 0002 094A     		ldr	r2, .L181
 2046              		.loc 1 763 0
 2047 0004 C16A     		ldr	r1, [r0, #44]
 2048              		.loc 1 761 0
 2049 0006 1368     		ldr	r3, [r2]
 2050 0008 83B0     		sub	sp, sp, #12
 2051              		.cfi_def_cfa_offset 16
 2052              		.loc 1 761 0
ARM GAS  C:\Users\25521\AppData\Local\Temp\ccWqjK7b.s 			page 37


 2053 000a 0193     		str	r3, [sp, #4]
 2054              		.loc 1 763 0
 2055 000c 0B68     		ldr	r3, [r1]
 2056 000e 23F00203 		bic	r3, r3, #2
 2057 0012 0B60     		str	r3, [r1]
 2058              		.loc 1 764 0
 2059 0014 0199     		ldr	r1, [sp, #4]
 2060 0016 1368     		ldr	r3, [r2]
 2061 0018 9942     		cmp	r1, r3
 2062 001a 02D1     		bne	.L180
 2063 001c 03B0     		add	sp, sp, #12
 2064              		.cfi_remember_state
 2065              		.cfi_def_cfa_offset 4
 2066              		@ sp needed
 2067 001e 5DF804FB 		ldr	pc, [sp], #4
 2068              	.L180:
 2069              		.cfi_restore_state
 2070 0022 FFF7FEFF 		bl	__stack_chk_fail
 2071              	.LVL197:
 2072              	.L182:
 2073 0026 00BF     		.align	2
 2074              	.L181:
 2075 0028 00000000 		.word	__stack_chk_guard
 2076              		.cfi_endproc
 2077              	.LFE284:
 2078              		.size	can_lld_wakeup, .-can_lld_wakeup
 2079              		.section	.text.canSTM32SetFilters,"ax",%progbits
 2080              		.align	1
 2081              		.p2align 4,,15
 2082              		.global	canSTM32SetFilters
 2083              		.syntax unified
 2084              		.thumb
 2085              		.thumb_func
 2086              		.fpu fpv4-sp-d16
 2087              		.type	canSTM32SetFilters, %function
 2088              	canSTM32SetFilters:
 2089              	.LFB285:
 2090              		.loc 1 779 0
 2091              		.cfi_startproc
 2092              		@ args = 0, pretend = 0, frame = 8
 2093              		@ frame_needed = 0, uses_anonymous_args = 0
 2094              	.LVL198:
 2095 0000 F0B5     		push	{r4, r5, r6, r7, lr}
 2096              		.cfi_def_cfa_offset 20
 2097              		.cfi_offset 4, -20
 2098              		.cfi_offset 5, -16
 2099              		.cfi_offset 6, -12
 2100              		.cfi_offset 7, -8
 2101              		.cfi_offset 14, -4
 2102 0002 124C     		ldr	r4, .L194
 2103 0004 83B0     		sub	sp, sp, #12
 2104              		.cfi_def_cfa_offset 32
 2105              		.loc 1 779 0
 2106 0006 2368     		ldr	r3, [r4]
 2107 0008 0193     		str	r3, [sp, #4]
 2108              		.loc 1 781 0
 2109 000a 431E     		subs	r3, r0, #1
ARM GAS  C:\Users\25521\AppData\Local\Temp\ccWqjK7b.s 			page 38


 2110 000c 1A2B     		cmp	r3, #26
 2111              		.loc 1 779 0
 2112 000e 0546     		mov	r5, r0
 2113 0010 0E46     		mov	r6, r1
 2114 0012 1746     		mov	r7, r2
 2115              		.loc 1 781 0
 2116 0014 14D8     		bhi	.L184
 2117              		.loc 1 781 0 is_stmt 0 discriminator 3
 2118 0016 1C29     		cmp	r1, #28
 2119 0018 12D8     		bhi	.L184
 2120              	.LVL199:
 2121              	.L185:
 2122              		.loc 1 785 0 is_stmt 1 discriminator 1
 2123 001a 0D4B     		ldr	r3, .L194+4
 2124 001c 1B78     		ldrb	r3, [r3]	@ zero_extendqisi2
 2125 001e 012B     		cmp	r3, #1
 2126 0020 02D0     		beq	.L186
 2127              		.loc 1 785 0 is_stmt 0 discriminator 2
 2128 0022 0C48     		ldr	r0, .L194+8
 2129 0024 FFF7FEFF 		bl	chSysHalt
 2130              	.LVL200:
 2131              	.L186:
 2132              		.loc 1 791 0 is_stmt 1
 2133 0028 0199     		ldr	r1, [sp, #4]
 2134 002a 2368     		ldr	r3, [r4]
 2135 002c 9942     		cmp	r1, r3
 2136 002e 0BD1     		bne	.L193
 2137 0030 3A46     		mov	r2, r7
 2138 0032 3146     		mov	r1, r6
 2139 0034 2846     		mov	r0, r5
 2140              		.loc 1 792 0
 2141 0036 03B0     		add	sp, sp, #12
 2142              		.cfi_remember_state
 2143              		.cfi_def_cfa_offset 20
 2144              		@ sp needed
 2145 0038 BDE8F040 		pop	{r4, r5, r6, r7, lr}
 2146              		.cfi_restore 14
 2147              		.cfi_restore 7
 2148              		.cfi_restore 6
 2149              		.cfi_restore 5
 2150              		.cfi_restore 4
 2151              		.cfi_def_cfa_offset 0
 2152              	.LVL201:
 2153              		.loc 1 791 0
 2154 003c FFF7FEBF 		b	can_lld_set_filters
 2155              	.LVL202:
 2156              	.L184:
 2157              		.cfi_restore_state
 2158              		.loc 1 781 0 discriminator 4
 2159 0040 0448     		ldr	r0, .L194+8
 2160              	.LVL203:
 2161 0042 FFF7FEFF 		bl	chSysHalt
 2162              	.LVL204:
 2163 0046 E8E7     		b	.L185
 2164              	.L193:
 2165              		.loc 1 791 0
 2166 0048 FFF7FEFF 		bl	__stack_chk_fail
ARM GAS  C:\Users\25521\AppData\Local\Temp\ccWqjK7b.s 			page 39


 2167              	.LVL205:
 2168              	.L195:
 2169              		.align	2
 2170              	.L194:
 2171 004c 00000000 		.word	__stack_chk_guard
 2172 0050 00000000 		.word	.LANCHOR0
 2173 0054 00000000 		.word	.LANCHOR1
 2174              		.cfi_endproc
 2175              	.LFE285:
 2176              		.size	canSTM32SetFilters, .-canSTM32SetFilters
 2177              		.global	CAND1
 2178              		.section	.bss.CAND1,"aw",%nobits
 2179              		.align	2
 2180              		.set	.LANCHOR0,. + 0
 2181              		.type	CAND1, %object
 2182              		.size	CAND1, 48
 2183              	CAND1:
 2184 0000 00000000 		.space	48
 2184      00000000 
 2184      00000000 
 2184      00000000 
 2184      00000000 
 2185              		.section	.rodata.__func__.10013,"a",%progbits
 2186              		.align	2
 2187              		.set	.LANCHOR1,. + 0
 2188              		.type	__func__.10013, %object
 2189              		.size	__func__.10013, 19
 2190              	__func__.10013:
 2191 0000 63616E53 		.ascii	"canSTM32SetFilters\000"
 2191      544D3332 
 2191      53657446 
 2191      696C7465 
 2191      727300
 2192              		.text
 2193              	.Letext0:
 2194              		.file 6 "d:\\eclipse_e-puck2_win32_11_apr_2018\\eclipse_e-puck2\\tools\\gcc-arm-none-eabi-7-2017-q
 2195              		.file 7 "d:\\eclipse_e-puck2_win32_11_apr_2018\\eclipse_e-puck2\\tools\\gcc-arm-none-eabi-7-2017-q
 2196              		.file 8 "d:\\eclipse_e-puck2_win32_11_apr_2018\\eclipse_e-puck2\\tools\\gcc-arm-none-eabi-7-2017-q
 2197              		.file 9 ".//ChibiOS//os/rt/ports/ARMCMx/compilers/GCC/chtypes.h"
 2198              		.file 10 ".//ChibiOS//os/rt/include/chsystypes.h"
 2199              		.file 11 ".//ChibiOS//os/rt/include/chschd.h"
 2200              		.file 12 ".//ChibiOS//os/ext/CMSIS/include/core_cm4.h"
 2201              		.file 13 ".//ChibiOS//os/ext/CMSIS/ST/system_stm32f4xx.h"
 2202              		.file 14 ".//ChibiOS//os/ext/CMSIS/ST/stm32f407xx.h"
 2203              		.file 15 ".//ChibiOS//os/rt/ports/ARMCMx/chcore.h"
 2204              		.file 16 ".//ChibiOS//os/rt/ports/ARMCMx/chcore_v7m.h"
 2205              		.file 17 ".//ChibiOS//os/rt/include/chdebug.h"
 2206              		.file 18 ".//ChibiOS//os/rt/include/chtm.h"
 2207              		.file 19 ".//ChibiOS//os/rt/include/chstats.h"
 2208              		.file 20 ".//ChibiOS//os/rt/include/chsem.h"
 2209              		.file 21 ".//ChibiOS//os/rt/include/chmtx.h"
 2210              		.file 22 ".//ChibiOS//os/rt/include/chregistry.h"
 2211              		.file 23 ".//ChibiOS//os/rt/include/chevents.h"
 2212              		.file 24 ".//ChibiOS//os/rt/include/chqueues.h"
 2213              		.file 25 ".//ChibiOS//os/hal/ports/STM32/LLD/DMAv2/stm32_dma.h"
 2214              		.file 26 ".//ChibiOS//os/hal/include/hal_ioblock.h"
 2215              		.file 27 ".//ChibiOS//os/hal/ports/STM32/LLD/GPIOv2/pal_lld.h"
ARM GAS  C:\Users\25521\AppData\Local\Temp\ccWqjK7b.s 			page 40


 2216              		.file 28 ".//ChibiOS//os/hal/include/adc.h"
 2217              		.file 29 ".//ChibiOS//os/hal/ports/STM32/LLD/ADCv2/adc_lld.h"
 2218              		.file 30 ".//ChibiOS//os/hal/include/can.h"
 2219              		.file 31 ".//ChibiOS//os/hal/ports/STM32/LLD/CANv1/can_lld.h"
 2220              		.file 32 ".//ChibiOS//os/hal/include/dac.h"
 2221              		.file 33 ".//ChibiOS//os/hal/ports/STM32/LLD/DACv1/dac_lld.h"
 2222              		.file 34 ".//ChibiOS//os/hal/include/ext.h"
 2223              		.file 35 ".//ChibiOS//os/hal/ports/STM32/LLD/EXTIv1/ext_lld.h"
 2224              		.file 36 ".//ChibiOS//os/hal/include/gpt.h"
 2225              		.file 37 ".//ChibiOS//os/hal/ports/STM32/LLD/TIMv1/gpt_lld.h"
 2226              		.file 38 ".//ChibiOS//os/hal/ports/STM32/LLD/TIMv1/stm32_tim.h"
 2227              		.file 39 ".//ChibiOS//os/hal/include/i2c.h"
 2228              		.file 40 ".//ChibiOS//os/hal/ports/STM32/LLD/I2Cv1/i2c_lld.h"
 2229              		.file 41 ".//ChibiOS//os/hal/include/i2s.h"
 2230              		.file 42 ".//ChibiOS//os/hal/ports/STM32/LLD/SPIv1/i2s_lld.h"
 2231              		.file 43 ".//ChibiOS//os/hal/include/pwm.h"
 2232              		.file 44 ".//ChibiOS//os/hal/ports/STM32/LLD/TIMv1/pwm_lld.h"
 2233              		.file 45 ".//ChibiOS//os/hal/include/serial.h"
 2234              		.file 46 ".//ChibiOS//os/hal/ports/STM32/LLD/USARTv1/serial_lld.h"
 2235              		.file 47 ".//ChibiOS//os/hal/include/sdc.h"
 2236              		.file 48 ".//ChibiOS//os/hal/ports/STM32/LLD/SDIOv1/sdc_lld.h"
 2237              		.file 49 ".//ChibiOS//os/hal/include/spi.h"
 2238              		.file 50 ".//ChibiOS//os/hal/ports/STM32/LLD/SPIv1/spi_lld.h"
 2239              		.file 51 ".//ChibiOS//os/hal/include/usb.h"
 2240              		.file 52 ".//ChibiOS//os/hal/ports/STM32/LLD/OTGv1/usb_lld.h"
 2241              		.file 53 ".//ChibiOS//os/hal/ports/STM32/LLD/OTGv1/stm32_otg.h"
 2242              		.file 54 ".//ChibiOS//os/hal/ports/common/ARMCMx/nvic.h"