ARM GAS  C:\Users\25521\AppData\Local\Temp\ccIBL6xR.s 			page 1


   1              		.cpu cortex-m4
   2              		.eabi_attribute 27, 1
   3              		.eabi_attribute 28, 1
   4              		.eabi_attribute 20, 1
   5              		.eabi_attribute 21, 1
   6              		.eabi_attribute 23, 3
   7              		.eabi_attribute 24, 1
   8              		.eabi_attribute 25, 1
   9              		.eabi_attribute 26, 1
  10              		.eabi_attribute 30, 2
  11              		.eabi_attribute 34, 1
  12              		.eabi_attribute 18, 4
  13              		.file	"crt1.c"
  14              		.text
  15              	.Ltext0:
  16              		.cfi_sections	.debug_frame
  17              		.section	.text.__core_init,"ax",%progbits
  18              		.align	1
  19              		.p2align 4,,15
  20              		.weak	__core_init
  21              		.syntax unified
  22              		.thumb
  23              		.thumb_func
  24              		.fpu fpv4-sp-d16
  25              		.type	__core_init, %function
  26              	__core_init:
  27              	.LFB123:
  28              		.file 1 ".//ChibiOS//os/common/ports/ARMCMx/compilers/GCC/crt1.c"
  29              		.loc 1 42 0
  30              		.cfi_startproc
  31              		@ args = 0, pretend = 0, frame = 8
  32              		@ frame_needed = 0, uses_anonymous_args = 0
  33 0000 00B5     		push	{lr}
  34              		.cfi_def_cfa_offset 4
  35              		.cfi_offset 14, -4
  36 0002 064B     		ldr	r3, .L6
  37 0004 83B0     		sub	sp, sp, #12
  38              		.cfi_def_cfa_offset 16
  39              		.loc 1 42 0
  40 0006 1A68     		ldr	r2, [r3]
  41 0008 0192     		str	r2, [sp, #4]
  42              		.loc 1 48 0
  43 000a 019A     		ldr	r2, [sp, #4]
  44 000c 1B68     		ldr	r3, [r3]
  45 000e 9A42     		cmp	r2, r3
  46 0010 02D1     		bne	.L5
  47 0012 03B0     		add	sp, sp, #12
  48              		.cfi_remember_state
  49              		.cfi_def_cfa_offset 4
  50              		@ sp needed
  51 0014 5DF804FB 		ldr	pc, [sp], #4
  52              	.L5:
  53              		.cfi_restore_state
  54 0018 FFF7FEFF 		bl	__stack_chk_fail
  55              	.LVL0:
  56              	.L7:
  57              		.align	2
ARM GAS  C:\Users\25521\AppData\Local\Temp\ccIBL6xR.s 			page 2


  58              	.L6:
  59 001c 00000000 		.word	__stack_chk_guard
  60              		.cfi_endproc
  61              	.LFE123:
  62              		.size	__core_init, .-__core_init
  63              		.section	.text.__early_init,"ax",%progbits
  64              		.align	1
  65              		.p2align 4,,15
  66              		.weak	__early_init
  67              		.syntax unified
  68              		.thumb
  69              		.thumb_func
  70              		.fpu fpv4-sp-d16
  71              		.type	__early_init, %function
  72              	__early_init:
  73              	.LFB128:
  74              		.cfi_startproc
  75              		@ args = 0, pretend = 0, frame = 8
  76              		@ frame_needed = 0, uses_anonymous_args = 0
  77 0000 00B5     		push	{lr}
  78              		.cfi_def_cfa_offset 4
  79              		.cfi_offset 14, -4
  80 0002 064B     		ldr	r3, .L12
  81 0004 83B0     		sub	sp, sp, #12
  82              		.cfi_def_cfa_offset 16
  83 0006 1A68     		ldr	r2, [r3]
  84 0008 0192     		str	r2, [sp, #4]
  85 000a 019A     		ldr	r2, [sp, #4]
  86 000c 1B68     		ldr	r3, [r3]
  87 000e 9A42     		cmp	r2, r3
  88 0010 02D1     		bne	.L11
  89 0012 03B0     		add	sp, sp, #12
  90              		.cfi_remember_state
  91              		.cfi_def_cfa_offset 4
  92              		@ sp needed
  93 0014 5DF804FB 		ldr	pc, [sp], #4
  94              	.L11:
  95              		.cfi_restore_state
  96 0018 FFF7FEFF 		bl	__stack_chk_fail
  97              	.L13:
  98              		.align	2
  99              	.L12:
 100 001c 00000000 		.word	__stack_chk_guard
 101              		.cfi_endproc
 102              	.LFE128:
 103              		.size	__early_init, .-__early_init
 104              		.section	.text.__late_init,"ax",%progbits
 105              		.align	1
 106              		.p2align 4,,15
 107              		.weak	__late_init
 108              		.syntax unified
 109              		.thumb
 110              		.thumb_func
 111              		.fpu fpv4-sp-d16
 112              		.type	__late_init, %function
 113              	__late_init:
 114              	.LFB130:
ARM GAS  C:\Users\25521\AppData\Local\Temp\ccIBL6xR.s 			page 3


 115              		.cfi_startproc
 116              		@ args = 0, pretend = 0, frame = 8
 117              		@ frame_needed = 0, uses_anonymous_args = 0
 118 0000 00B5     		push	{lr}
 119              		.cfi_def_cfa_offset 4
 120              		.cfi_offset 14, -4
 121 0002 064B     		ldr	r3, .L18
 122 0004 83B0     		sub	sp, sp, #12
 123              		.cfi_def_cfa_offset 16
 124 0006 1A68     		ldr	r2, [r3]
 125 0008 0192     		str	r2, [sp, #4]
 126 000a 019A     		ldr	r2, [sp, #4]
 127 000c 1B68     		ldr	r3, [r3]
 128 000e 9A42     		cmp	r2, r3
 129 0010 02D1     		bne	.L17
 130 0012 03B0     		add	sp, sp, #12
 131              		.cfi_remember_state
 132              		.cfi_def_cfa_offset 4
 133              		@ sp needed
 134 0014 5DF804FB 		ldr	pc, [sp], #4
 135              	.L17:
 136              		.cfi_restore_state
 137 0018 FFF7FEFF 		bl	__stack_chk_fail
 138              	.L19:
 139              		.align	2
 140              	.L18:
 141 001c 00000000 		.word	__stack_chk_guard
 142              		.cfi_endproc
 143              	.LFE130:
 144              		.size	__late_init, .-__late_init
 145              		.section	.text.__default_exit,"ax",%progbits
 146              		.align	1
 147              		.p2align 4,,15
 148              		.weak	__default_exit
 149              		.syntax unified
 150              		.thumb
 151              		.thumb_func
 152              		.fpu fpv4-sp-d16
 153              		.type	__default_exit, %function
 154              	__default_exit:
 155              	.LFB126:
 156              		.loc 1 88 0
 157              		.cfi_startproc
 158              		@ Volatile: function does not return.
 159              		@ args = 0, pretend = 0, frame = 8
 160              		@ frame_needed = 0, uses_anonymous_args = 0
 161              		@ link register save eliminated.
 162              		.loc 1 88 0
 163 0000 024B     		ldr	r3, .L24
 164 0002 82B0     		sub	sp, sp, #8
 165              		.cfi_def_cfa_offset 8
 166              		.loc 1 88 0
 167 0004 1B68     		ldr	r3, [r3]
 168 0006 0193     		str	r3, [sp, #4]
 169              	.L21:
 170 0008 FEE7     		b	.L21
 171              	.L25:
ARM GAS  C:\Users\25521\AppData\Local\Temp\ccIBL6xR.s 			page 4


 172 000a 00BF     		.align	2
 173              	.L24:
 174 000c 00000000 		.word	__stack_chk_guard
 175              		.cfi_endproc
 176              	.LFE126:
 177              		.size	__default_exit, .-__default_exit
 178              		.text
 179              	.Letext0:
 180              		.file 2 "d:\\eclipse_e-puck2_win32_11_apr_2018\\eclipse_e-puck2\\tools\\gcc-arm-none-eabi-7-2017-q
 181              		.file 3 "d:\\eclipse_e-puck2_win32_11_apr_2018\\eclipse_e-puck2\\tools\\gcc-arm-none-eabi-7-2017-q
 182              		.file 4 ".//ChibiOS//os/ext/CMSIS/include/core_cm4.h"
 183              		.file 5 ".//ChibiOS//os/ext/CMSIS/ST/system_stm32f4xx.h"