ARM GAS  C:\Users\25521\AppData\Local\Temp\ccbdPZr2.s 			page 1


   1              		.cpu cortex-m4
   2              		.eabi_attribute 27, 1
   3              		.eabi_attribute 28, 1
   4              		.eabi_attribute 20, 1
   5              		.eabi_attribute 21, 1
   6              		.eabi_attribute 23, 3
   7              		.eabi_attribute 24, 1
   8              		.eabi_attribute 25, 1
   9              		.eabi_attribute 26, 1
  10              		.eabi_attribute 30, 2
  11              		.eabi_attribute 34, 1
  12              		.eabi_attribute 18, 4
  13              		.file	"dcmi_lld.c"
  14              		.text
  15              	.Ltext0:
  16              		.cfi_sections	.debug_frame
  17              		.section	.text.dcmi_lld_stop_stream.part.0,"ax",%progbits
  18              		.align	1
  19              		.p2align 4,,15
  20              		.syntax unified
  21              		.thumb
  22              		.thumb_func
  23              		.fpu fpv4-sp-d16
  24              		.type	dcmi_lld_stop_stream.part.0, %function
  25              	dcmi_lld_stop_stream.part.0:
  26              	.LFB276:
  27              		.file 1 ".//ChibiOS_ext/os/hal/ports/STM32/STM32F4xx/dcmi_lld.c"
  28              		.loc 1 252 0
  29              		.cfi_startproc
  30              		@ args = 0, pretend = 0, frame = 8
  31              		@ frame_needed = 0, uses_anonymous_args = 0
  32              	.LVL0:
  33 0000 30B5     		push	{r4, r5, lr}
  34              		.cfi_def_cfa_offset 12
  35              		.cfi_offset 4, -12
  36              		.cfi_offset 5, -8
  37              		.cfi_offset 14, -4
  38 0002 104D     		ldr	r5, .L12
  39              		.loc 1 255 0
  40 0004 8168     		ldr	r1, [r0, #8]
  41              		.loc 1 252 0
  42 0006 2B68     		ldr	r3, [r5]
  43              	.LBB32:
  44              	.LBB33:
  45              	.LBB34:
  46              		.file 2 ".//ChibiOS//os/rt/include/chvt.h"
  47              		.loc 2 229 0
  48 0008 0F4A     		ldr	r2, .L12+4
  49              	.LBE34:
  50              	.LBE33:
  51              	.LBE32:
  52              		.loc 1 252 0
  53 000a 83B0     		sub	sp, sp, #12
  54              		.cfi_def_cfa_offset 24
  55              		.loc 1 252 0
  56 000c 0193     		str	r3, [sp, #4]
  57              		.loc 1 255 0
ARM GAS  C:\Users\25521\AppData\Local\Temp\ccbdPZr2.s 			page 2


  58 000e 0B68     		ldr	r3, [r1]
  59 0010 23F00103 		bic	r3, r3, #1
  60 0014 0B60     		str	r3, [r1]
  61              		.loc 1 262 0
  62 0016 8168     		ldr	r1, [r0, #8]
  63              	.LBB37:
  64              	.LBB36:
  65              	.LBB35:
  66              		.loc 2 229 0
  67 0018 946A     		ldr	r4, [r2, #40]
  68              	.LVL1:
  69 001a 03E0     		b	.L3
  70              	.LVL2:
  71              	.L10:
  72              	.LBE35:
  73              	.LBE36:
  74              	.LBE37:
  75              	.LBB38:
  76              	.LBB39:
  77              	.LBB40:
  78 001c 936A     		ldr	r3, [r2, #40]
  79              	.LBE40:
  80              	.LBE39:
  81              	.LBE38:
  82              	.LBB41:
  83              	.LBB42:
  84              	.LBB43:
  85              		.loc 2 286 0
  86 001e 1B1B     		subs	r3, r3, r4
  87              	.LBE43:
  88              	.LBE42:
  89              	.LBE41:
  90              		.loc 1 266 0
  91 0020 C72B     		cmp	r3, #199
  92 0022 09D8     		bhi	.L9
  93              	.L3:
  94              		.loc 1 262 0
  95 0024 0868     		ldr	r0, [r1]
  96 0026 10F00100 		ands	r0, r0, #1
  97 002a F7D1     		bne	.L10
  98              	.L1:
  99              		.loc 1 272 0
 100 002c 019A     		ldr	r2, [sp, #4]
 101 002e 2B68     		ldr	r3, [r5]
 102 0030 9A42     		cmp	r2, r3
 103 0032 04D1     		bne	.L11
 104 0034 03B0     		add	sp, sp, #12
 105              		.cfi_remember_state
 106              		.cfi_def_cfa_offset 12
 107              		@ sp needed
 108 0036 30BD     		pop	{r4, r5, pc}
 109              	.LVL3:
 110              	.L9:
 111              		.cfi_restore_state
 112              		.loc 1 267 0
 113 0038 4FF0FF30 		mov	r0, #-1
 114 003c F6E7     		b	.L1
ARM GAS  C:\Users\25521\AppData\Local\Temp\ccbdPZr2.s 			page 3


 115              	.L11:
 116              		.loc 1 272 0
 117 003e FFF7FEFF 		bl	__stack_chk_fail
 118              	.LVL4:
 119              	.L13:
 120 0042 00BF     		.align	2
 121              	.L12:
 122 0044 00000000 		.word	__stack_chk_guard
 123 0048 00000000 		.word	ch
 124              		.cfi_endproc
 125              	.LFE276:
 126              		.size	dcmi_lld_stop_stream.part.0, .-dcmi_lld_stop_stream.part.0
 127              		.section	.text.dcmi_lld_serve_dma_rx_interrupt,"ax",%progbits
 128              		.align	1
 129              		.p2align 4,,15
 130              		.syntax unified
 131              		.thumb
 132              		.thumb_func
 133              		.fpu fpv4-sp-d16
 134              		.type	dcmi_lld_serve_dma_rx_interrupt, %function
 135              	dcmi_lld_serve_dma_rx_interrupt:
 136              	.LFB268:
 137              		.loc 1 63 0
 138              		.cfi_startproc
 139              		@ args = 0, pretend = 0, frame = 8
 140              		@ frame_needed = 0, uses_anonymous_args = 0
 141              	.LVL5:
 142 0000 70B5     		push	{r4, r5, r6, lr}
 143              		.cfi_def_cfa_offset 16
 144              		.cfi_offset 4, -16
 145              		.cfi_offset 5, -12
 146              		.cfi_offset 6, -8
 147              		.cfi_offset 14, -4
 148 0002 1C4E     		ldr	r6, .L40
 149 0004 82B0     		sub	sp, sp, #8
 150              		.cfi_def_cfa_offset 24
 151              		.loc 1 63 0
 152 0006 3368     		ldr	r3, [r6]
 153 0008 0193     		str	r3, [sp, #4]
 154              		.loc 1 66 0
 155 000a 11F00C0F 		tst	r1, #12
 156              		.loc 1 63 0
 157 000e 0D46     		mov	r5, r1
 158 0010 0446     		mov	r4, r0
 159              		.loc 1 66 0
 160 0012 10D0     		beq	.L16
 161              		.loc 1 67 0
 162 0014 C268     		ldr	r2, [r0, #12]
 163 0016 117A     		ldrb	r1, [r2, #8]	@ zero_extendqisi2
 164              	.LVL6:
 165 0018 5268     		ldr	r2, [r2, #4]
 166 001a 3D23     		movs	r3, #61
 167 001c 8B40     		lsls	r3, r3, r1
 168 001e 1360     		str	r3, [r2]
 169              	.LVL7:
 170              	.LBB44:
 171              	.LBB45:
ARM GAS  C:\Users\25521\AppData\Local\Temp\ccbdPZr2.s 			page 4


 172              		.loc 1 254 0
 173 0020 0378     		ldrb	r3, [r0]	@ zero_extendqisi2
 174 0022 032B     		cmp	r3, #3
 175 0024 21D0     		beq	.L39
 176              	.LVL8:
 177              	.L17:
 178              	.LBE45:
 179              	.LBE44:
 180              		.loc 1 68 0 discriminator 3
 181 0026 0622     		movs	r2, #6
 182 0028 6368     		ldr	r3, [r4, #4]
 183 002a 2270     		strb	r2, [r4]
 184 002c DB68     		ldr	r3, [r3, #12]
 185 002e 13B1     		cbz	r3, .L16
 186              		.loc 1 68 0 is_stmt 0 discriminator 4
 187 0030 0021     		movs	r1, #0
 188 0032 2046     		mov	r0, r4
 189 0034 9847     		blx	r3
 190              	.LVL9:
 191              	.L16:
 192              		.loc 1 71 0 is_stmt 1
 193 0036 AA06     		lsls	r2, r5, #26
 194 0038 0BD5     		bpl	.L19
 195              		.loc 1 73 0
 196 003a 6368     		ldr	r3, [r4, #4]
 197 003c 5B68     		ldr	r3, [r3, #4]
 198 003e 73B1     		cbz	r3, .L14
 199              	.L38:
 200              		.loc 1 79 0
 201 0040 0199     		ldr	r1, [sp, #4]
 202 0042 3268     		ldr	r2, [r6]
 203 0044 9142     		cmp	r1, r2
 204 0046 13D1     		bne	.L37
 205 0048 2046     		mov	r0, r4
 206              		.loc 1 83 0
 207 004a 02B0     		add	sp, sp, #8
 208              		.cfi_remember_state
 209              		.cfi_def_cfa_offset 16
 210              		@ sp needed
 211 004c BDE87040 		pop	{r4, r5, r6, lr}
 212              		.cfi_restore 14
 213              		.cfi_restore 6
 214              		.cfi_restore 5
 215              		.cfi_restore 4
 216              		.cfi_def_cfa_offset 0
 217              	.LVL10:
 218              		.loc 1 79 0
 219 0050 1847     		bx	r3	@ indirect register sibling call
 220              	.LVL11:
 221              	.L19:
 222              		.cfi_restore_state
 223              		.loc 1 76 0
 224 0052 EB06     		lsls	r3, r5, #27
 225 0054 03D5     		bpl	.L14
 226              		.loc 1 78 0
 227 0056 6368     		ldr	r3, [r4, #4]
 228 0058 9B68     		ldr	r3, [r3, #8]
ARM GAS  C:\Users\25521\AppData\Local\Temp\ccbdPZr2.s 			page 5


 229 005a 002B     		cmp	r3, #0
 230 005c F0D1     		bne	.L38
 231              	.L14:
 232              		.loc 1 83 0
 233 005e 019A     		ldr	r2, [sp, #4]
 234 0060 3368     		ldr	r3, [r6]
 235 0062 9A42     		cmp	r2, r3
 236 0064 04D1     		bne	.L37
 237 0066 02B0     		add	sp, sp, #8
 238              		.cfi_remember_state
 239              		.cfi_def_cfa_offset 16
 240              		@ sp needed
 241 0068 70BD     		pop	{r4, r5, r6, pc}
 242              	.LVL12:
 243              	.L39:
 244              		.cfi_restore_state
 245              	.LBB47:
 246              	.LBB46:
 247 006a FFF7FEFF 		bl	dcmi_lld_stop_stream.part.0
 248              	.LVL13:
 249 006e DAE7     		b	.L17
 250              	.LVL14:
 251              	.L37:
 252              	.LBE46:
 253              	.LBE47:
 254 0070 FFF7FEFF 		bl	__stack_chk_fail
 255              	.LVL15:
 256              	.L41:
 257              		.align	2
 258              	.L40:
 259 0074 00000000 		.word	__stack_chk_guard
 260              		.cfi_endproc
 261              	.LFE268:
 262              		.size	dcmi_lld_serve_dma_rx_interrupt, .-dcmi_lld_serve_dma_rx_interrupt
 263              		.section	.text.Vector178,"ax",%progbits
 264              		.align	1
 265              		.p2align 4,,15
 266              		.global	Vector178
 267              		.syntax unified
 268              		.thumb
 269              		.thumb_func
 270              		.fpu fpv4-sp-d16
 271              		.type	Vector178, %function
 272              	Vector178:
 273              	.LFB269:
 274              		.loc 1 94 0
 275              		.cfi_startproc
 276              		@ args = 0, pretend = 0, frame = 8
 277              		@ frame_needed = 0, uses_anonymous_args = 0
 278 0000 F0B5     		push	{r4, r5, r6, r7, lr}
 279              		.cfi_def_cfa_offset 20
 280              		.cfi_offset 4, -20
 281              		.cfi_offset 5, -16
 282              		.cfi_offset 6, -12
 283              		.cfi_offset 7, -8
 284              		.cfi_offset 14, -4
 285 0002 284D     		ldr	r5, .L70
ARM GAS  C:\Users\25521\AppData\Local\Temp\ccbdPZr2.s 			page 6


 286 0004 83B0     		sub	sp, sp, #12
 287              		.cfi_def_cfa_offset 32
 288              		.loc 1 94 0
 289 0006 2B68     		ldr	r3, [r5]
 290 0008 0193     		str	r3, [sp, #4]
 291              		.loc 1 95 0
 292 000a FFF7FEFF 		bl	_stats_increase_irq
 293              	.LVL16:
 294 000e FFF7FEFF 		bl	_dbg_check_enter_isr
 295              	.LVL17:
 296              		.loc 1 97 0
 297 0012 254B     		ldr	r3, .L70+4
 298 0014 1E69     		ldr	r6, [r3, #16]
 299              	.LVL18:
 300              		.loc 1 98 0
 301 0016 F207     		lsls	r2, r6, #31
 302 0018 15D5     		bpl	.L43
 303              		.loc 1 99 0
 304 001a 5A69     		ldr	r2, [r3, #20]
 305              	.LBB48:
 306              		.loc 1 100 0
 307 001c 234C     		ldr	r4, .L70+8
 308              	.LBE48:
 309              		.loc 1 99 0
 310 001e 42F00102 		orr	r2, r2, #1
 311 0022 5A61     		str	r2, [r3, #20]
 312              	.LBB49:
 313              		.loc 1 100 0
 314 0024 2778     		ldrb	r7, [r4]	@ zero_extendqisi2
 315              	.LVL19:
 316 0026 BB1F     		subs	r3, r7, #6
 317 0028 012B     		cmp	r3, #1
 318 002a 2AD9     		bls	.L42
 319              		.loc 1 100 0 is_stmt 0 discriminator 1
 320 002c 0522     		movs	r2, #5
 321 002e 6368     		ldr	r3, [r4, #4]
 322 0030 2270     		strb	r2, [r4]
 323 0032 1B68     		ldr	r3, [r3]
 324 0034 0BB1     		cbz	r3, .L45
 325              		.loc 1 100 0 discriminator 2
 326 0036 2046     		mov	r0, r4
 327 0038 9847     		blx	r3
 328              	.LVL20:
 329              	.L45:
 330              		.loc 1 100 0 discriminator 4
 331 003a 042F     		cmp	r7, #4
 332 003c 27D0     		beq	.L47
 333              		.loc 1 100 0 discriminator 6
 334 003e 022F     		cmp	r7, #2
 335 0040 25D0     		beq	.L47
 336              		.loc 1 100 0 discriminator 8
 337 0042 0323     		movs	r3, #3
 338 0044 2370     		strb	r3, [r4]
 339              	.LVL21:
 340              	.L43:
 341              	.LBE49:
 342              		.loc 1 102 0 is_stmt 1
ARM GAS  C:\Users\25521\AppData\Local\Temp\ccbdPZr2.s 			page 7


 343 0046 B307     		lsls	r3, r6, #30
 344 0048 10D5     		bpl	.L49
 345              	.L69:
 346              		.loc 1 103 0
 347 004a 174A     		ldr	r2, .L70+4
 348              		.loc 1 104 0
 349 004c 174C     		ldr	r4, .L70+8
 350              		.loc 1 103 0
 351 004e 5369     		ldr	r3, [r2, #20]
 352 0050 43F00203 		orr	r3, r3, #2
 353 0054 5361     		str	r3, [r2, #20]
 354              	.LVL22:
 355              	.LBB50:
 356              	.LBB51:
 357              		.loc 1 254 0
 358 0056 2378     		ldrb	r3, [r4]	@ zero_extendqisi2
 359 0058 032B     		cmp	r3, #3
 360 005a 1DD0     		beq	.L68
 361              	.L50:
 362              	.LBE51:
 363              	.LBE50:
 364              		.loc 1 104 0 discriminator 3
 365 005c 6368     		ldr	r3, [r4, #4]
 366 005e DB68     		ldr	r3, [r3, #12]
 367 0060 0622     		movs	r2, #6
 368 0062 2270     		strb	r2, [r4]
 369 0064 13B1     		cbz	r3, .L49
 370              		.loc 1 104 0 is_stmt 0 discriminator 4
 371 0066 0121     		movs	r1, #1
 372 0068 1048     		ldr	r0, .L70+8
 373 006a 9847     		blx	r3
 374              	.LVL23:
 375              	.L49:
 376              		.loc 1 108 0 is_stmt 1
 377 006c FFF7FEFF 		bl	_dbg_check_leave_isr
 378              	.LVL24:
 379 0070 019A     		ldr	r2, [sp, #4]
 380 0072 2B68     		ldr	r3, [r5]
 381 0074 9A42     		cmp	r2, r3
 382 0076 13D1     		bne	.L67
 383              		.loc 1 109 0
 384 0078 03B0     		add	sp, sp, #12
 385              		.cfi_remember_state
 386              		.cfi_def_cfa_offset 20
 387              		@ sp needed
 388 007a BDE8F040 		pop	{r4, r5, r6, r7, lr}
 389              		.cfi_restore 14
 390              		.cfi_restore 7
 391              		.cfi_restore 6
 392              		.cfi_restore 5
 393              		.cfi_restore 4
 394              		.cfi_def_cfa_offset 0
 395              	.LVL25:
 396              		.loc 1 108 0
 397 007e FFF7FEBF 		b	_port_irq_epilogue
 398              	.LVL26:
 399              	.L42:
ARM GAS  C:\Users\25521\AppData\Local\Temp\ccbdPZr2.s 			page 8


 400              		.cfi_restore_state
 401              		.loc 1 109 0
 402 0082 019A     		ldr	r2, [sp, #4]
 403 0084 2B68     		ldr	r3, [r5]
 404 0086 9A42     		cmp	r2, r3
 405 0088 0AD1     		bne	.L67
 406 008a 03B0     		add	sp, sp, #12
 407              		.cfi_remember_state
 408              		.cfi_def_cfa_offset 20
 409              		@ sp needed
 410 008c F0BD     		pop	{r4, r5, r6, r7, pc}
 411              	.LVL27:
 412              	.L47:
 413              		.cfi_restore_state
 414              	.LBB53:
 415              		.loc 1 100 0 discriminator 5
 416 008e 0223     		movs	r3, #2
 417 0090 2370     		strb	r3, [r4]
 418              	.LBE53:
 419              		.loc 1 102 0 discriminator 5
 420 0092 B307     		lsls	r3, r6, #30
 421 0094 EAD5     		bpl	.L49
 422 0096 D8E7     		b	.L69
 423              	.LVL28:
 424              	.L68:
 425              	.LBB54:
 426              	.LBB52:
 427 0098 2046     		mov	r0, r4
 428 009a FFF7FEFF 		bl	dcmi_lld_stop_stream.part.0
 429              	.LVL29:
 430 009e DDE7     		b	.L50
 431              	.LVL30:
 432              	.L67:
 433              	.LBE52:
 434              	.LBE54:
 435              		.loc 1 109 0
 436 00a0 FFF7FEFF 		bl	__stack_chk_fail
 437              	.LVL31:
 438              	.L71:
 439              		.align	2
 440              	.L70:
 441 00a4 00000000 		.word	__stack_chk_guard
 442 00a8 00000550 		.word	1342504960
 443 00ac 00000000 		.word	.LANCHOR0
 444              		.cfi_endproc
 445              	.LFE269:
 446              		.size	Vector178, .-Vector178
 447              		.section	.text.dcmi_lld_init,"ax",%progbits
 448              		.align	1
 449              		.p2align 4,,15
 450              		.global	dcmi_lld_init
 451              		.syntax unified
 452              		.thumb
 453              		.thumb_func
 454              		.fpu fpv4-sp-d16
 455              		.type	dcmi_lld_init, %function
 456              	dcmi_lld_init:
ARM GAS  C:\Users\25521\AppData\Local\Temp\ccbdPZr2.s 			page 9


 457              	.LFB270:
 458              		.loc 1 120 0
 459              		.cfi_startproc
 460              		@ args = 0, pretend = 0, frame = 8
 461              		@ frame_needed = 0, uses_anonymous_args = 0
 462 0000 30B5     		push	{r4, r5, lr}
 463              		.cfi_def_cfa_offset 12
 464              		.cfi_offset 4, -12
 465              		.cfi_offset 5, -8
 466              		.cfi_offset 14, -4
 467 0002 0B4D     		ldr	r5, .L76
 468              		.loc 1 121 0
 469 0004 0B4C     		ldr	r4, .L76+4
 470              		.loc 1 120 0
 471 0006 2B68     		ldr	r3, [r5]
 472 0008 83B0     		sub	sp, sp, #12
 473              		.cfi_def_cfa_offset 24
 474              		.loc 1 121 0
 475 000a 2046     		mov	r0, r4
 476              		.loc 1 120 0
 477 000c 0193     		str	r3, [sp, #4]
 478              		.loc 1 121 0
 479 000e FFF7FEFF 		bl	dcmiObjectInit
 480              	.LVL32:
 481              		.loc 1 137 0
 482 0012 019A     		ldr	r2, [sp, #4]
 483 0014 2B68     		ldr	r3, [r5]
 484              		.loc 1 123 0
 485 0016 0848     		ldr	r0, .L76+8
 486              		.loc 1 122 0
 487 0018 084D     		ldr	r5, .L76+12
 488              		.loc 1 124 0
 489 001a 0949     		ldr	r1, .L76+16
 490 001c 2161     		str	r1, [r4, #16]
 491              		.loc 1 137 0
 492 001e 9A42     		cmp	r2, r3
 493              		.loc 1 123 0
 494 0020 C4E90250 		strd	r5, r0, [r4, #8]
 495              		.loc 1 137 0
 496 0024 01D1     		bne	.L75
 497 0026 03B0     		add	sp, sp, #12
 498              		.cfi_remember_state
 499              		.cfi_def_cfa_offset 12
 500              		@ sp needed
 501 0028 30BD     		pop	{r4, r5, pc}
 502              	.L75:
 503              		.cfi_restore_state
 504 002a FFF7FEFF 		bl	__stack_chk_fail
 505              	.LVL33:
 506              	.L77:
 507 002e 00BF     		.align	2
 508              	.L76:
 509 0030 00000000 		.word	__stack_chk_guard
 510 0034 00000000 		.word	.LANCHOR0
 511 0038 B4000000 		.word	_stm32_dma_streams+180
 512 003c 00000550 		.word	1342504960
 513 0040 1E550302 		.word	33772830
ARM GAS  C:\Users\25521\AppData\Local\Temp\ccbdPZr2.s 			page 10


 514              		.cfi_endproc
 515              	.LFE270:
 516              		.size	dcmi_lld_init, .-dcmi_lld_init
 517              		.section	.text.dcmi_lld_prepare,"ax",%progbits
 518              		.align	1
 519              		.p2align 4,,15
 520              		.global	dcmi_lld_prepare
 521              		.syntax unified
 522              		.thumb
 523              		.thumb_func
 524              		.fpu fpv4-sp-d16
 525              		.type	dcmi_lld_prepare, %function
 526              	dcmi_lld_prepare:
 527              	.LFB271:
 528              		.loc 1 149 0
 529              		.cfi_startproc
 530              		@ args = 0, pretend = 0, frame = 8
 531              		@ frame_needed = 0, uses_anonymous_args = 0
 532              	.LVL34:
 533 0000 2DE9F041 		push	{r4, r5, r6, r7, r8, lr}
 534              		.cfi_def_cfa_offset 24
 535              		.cfi_offset 4, -24
 536              		.cfi_offset 5, -20
 537              		.cfi_offset 6, -16
 538              		.cfi_offset 7, -12
 539              		.cfi_offset 8, -8
 540              		.cfi_offset 14, -4
 541 0004 2F4C     		ldr	r4, .L92
 542              		.loc 1 152 0
 543 0006 0578     		ldrb	r5, [r0]	@ zero_extendqisi2
 544              		.loc 1 149 0
 545 0008 2668     		ldr	r6, [r4]
 546 000a 82B0     		sub	sp, sp, #8
 547              		.cfi_def_cfa_offset 32
 548              		.loc 1 152 0
 549 000c 012D     		cmp	r5, #1
 550              		.loc 1 149 0
 551 000e 0196     		str	r6, [sp, #4]
 552              		.loc 1 152 0
 553 0010 06D0     		beq	.L88
 554              	.LVL35:
 555              	.L78:
 556              		.loc 1 186 0
 557 0012 019A     		ldr	r2, [sp, #4]
 558 0014 2368     		ldr	r3, [r4]
 559 0016 9A42     		cmp	r2, r3
 560 0018 52D1     		bne	.L89
 561 001a 02B0     		add	sp, sp, #8
 562              		.cfi_remember_state
 563              		.cfi_def_cfa_offset 24
 564              		@ sp needed
 565 001c BDE8F081 		pop	{r4, r5, r6, r7, r8, pc}
 566              	.LVL36:
 567              	.L88:
 568              		.cfi_restore_state
 569              		.loc 1 153 0
 570 0020 294D     		ldr	r5, .L92+4
ARM GAS  C:\Users\25521\AppData\Local\Temp\ccbdPZr2.s 			page 11


 571 0022 A842     		cmp	r0, r5
 572 0024 F5D1     		bne	.L78
 573 0026 0E46     		mov	r6, r1
 574 0028 9046     		mov	r8, r2
 575 002a 1F46     		mov	r7, r3
 576              	.LBB55:
 577              		.loc 1 156 0
 578 002c 274A     		ldr	r2, .L92+8
 579              	.LVL37:
 580 002e E868     		ldr	r0, [r5, #12]
 581              	.LVL38:
 582 0030 2B46     		mov	r3, r5
 583              	.LVL39:
 584 0032 0C21     		movs	r1, #12
 585              	.LVL40:
 586 0034 FFF7FEFF 		bl	dmaStreamAllocate
 587              	.LVL41:
 588              		.loc 1 157 0
 589 0038 0028     		cmp	r0, #0
 590 003a 39D1     		bne	.L90
 591              	.LVL42:
 592              	.L80:
 593              		.loc 1 158 0
 594 003c D5E90232 		ldrd	r3, r2, [r5, #8]
 595 0040 1268     		ldr	r2, [r2]
 596 0042 2833     		adds	r3, r3, #40
 597 0044 9360     		str	r3, [r2, #8]
 598              		.loc 1 159 0
 599 0046 EB68     		ldr	r3, [r5, #12]
 600 0048 1A68     		ldr	r2, [r3]
 601 004a 0421     		movs	r1, #4
 602 004c 5161     		str	r1, [r2, #20]
 603              		.loc 1 162 0
 604 004e 1B68     		ldr	r3, [r3]
 605 0050 C3F80C80 		str	r8, [r3, #12]
 606              		.loc 1 163 0
 607 0054 EB68     		ldr	r3, [r5, #12]
 608 0056 1A68     		ldr	r2, [r3]
 609 0058 1761     		str	r7, [r2, #16]
 610              		.loc 1 164 0
 611 005a 1B68     		ldr	r3, [r3]
 612 005c B608     		lsrs	r6, r6, #2
 613              	.LVL43:
 614 005e 5E60     		str	r6, [r3, #4]
 615              		.loc 1 167 0
 616 0060 2B69     		ldr	r3, [r5, #16]
 617              		.loc 1 166 0
 618 0062 4FB3     		cbz	r7, .L91
 619              		.loc 1 169 0
 620 0064 43F48023 		orr	r3, r3, #262144
 621 0068 2B61     		str	r3, [r5, #16]
 622              	.L82:
 623              		.loc 1 171 0
 624 006a E968     		ldr	r1, [r5, #12]
 625              		.loc 1 175 0
 626 006c 184A     		ldr	r2, .L92+12
 627              		.loc 1 171 0
ARM GAS  C:\Users\25521\AppData\Local\Temp\ccbdPZr2.s 			page 12


 628 006e 0968     		ldr	r1, [r1]
 629 0070 0B60     		str	r3, [r1]
 630              		.loc 1 172 0
 631 0072 EB68     		ldr	r3, [r5, #12]
 632 0074 1968     		ldr	r1, [r3]
 633 0076 0B68     		ldr	r3, [r1]
 634 0078 43F00103 		orr	r3, r3, #1
 635 007c 0B60     		str	r3, [r1]
 636              		.loc 1 175 0
 637 007e 536B     		ldr	r3, [r2, #52]
 638 0080 43F00103 		orr	r3, r3, #1
 639 0084 5363     		str	r3, [r2, #52]
 640              		.loc 1 176 0
 641 0086 0B21     		movs	r1, #11
 642 0088 4E20     		movs	r0, #78
 643 008a FFF7FEFF 		bl	nvicEnableVector
 644              	.LVL44:
 645              		.loc 1 182 0
 646 008e D5E90113 		ldrd	r1, r3, [r5, #4]
 647              		.loc 1 178 0
 648 0092 DA68     		ldr	r2, [r3, #12]
 649 0094 42F00102 		orr	r2, r2, #1
 650 0098 DA60     		str	r2, [r3, #12]
 651              		.loc 1 180 0
 652 009a DA68     		ldr	r2, [r3, #12]
 653 009c 42F00202 		orr	r2, r2, #2
 654 00a0 DA60     		str	r2, [r3, #12]
 655              		.loc 1 182 0
 656 00a2 0A69     		ldr	r2, [r1, #16]
 657 00a4 22F48042 		bic	r2, r2, #16384
 658 00a8 22F00102 		bic	r2, r2, #1
 659 00ac 1A60     		str	r2, [r3]
 660              	.LBE55:
 661              		.loc 1 186 0
 662 00ae B0E7     		b	.L78
 663              	.LVL45:
 664              	.L90:
 665              	.LBB56:
 666              		.loc 1 157 0 discriminator 2
 667 00b0 0848     		ldr	r0, .L92+16
 668              	.LVL46:
 669 00b2 FFF7FEFF 		bl	chSysHalt
 670              	.LVL47:
 671 00b6 C1E7     		b	.L80
 672              	.LVL48:
 673              	.L91:
 674              		.loc 1 167 0
 675 00b8 23F48023 		bic	r3, r3, #262144
 676 00bc 2B61     		str	r3, [r5, #16]
 677 00be D4E7     		b	.L82
 678              	.LVL49:
 679              	.L89:
 680              	.LBE56:
 681              		.loc 1 186 0
 682 00c0 FFF7FEFF 		bl	__stack_chk_fail
 683              	.LVL50:
 684              	.L93:
ARM GAS  C:\Users\25521\AppData\Local\Temp\ccbdPZr2.s 			page 13


 685              		.align	2
 686              	.L92:
 687 00c4 00000000 		.word	__stack_chk_guard
 688 00c8 00000000 		.word	.LANCHOR0
 689 00cc 00000000 		.word	dcmi_lld_serve_dma_rx_interrupt
 690 00d0 00380240 		.word	1073887232
 691 00d4 00000000 		.word	.LANCHOR1
 692              		.cfi_endproc
 693              	.LFE271:
 694              		.size	dcmi_lld_prepare, .-dcmi_lld_prepare
 695              		.section	.text.dcmi_lld_unprepare,"ax",%progbits
 696              		.align	1
 697              		.p2align 4,,15
 698              		.global	dcmi_lld_unprepare
 699              		.syntax unified
 700              		.thumb
 701              		.thumb_func
 702              		.fpu fpv4-sp-d16
 703              		.type	dcmi_lld_unprepare, %function
 704              	dcmi_lld_unprepare:
 705              	.LFB272:
 706              		.loc 1 195 0
 707              		.cfi_startproc
 708              		@ args = 0, pretend = 0, frame = 8
 709              		@ frame_needed = 0, uses_anonymous_args = 0
 710              	.LVL51:
 711 0000 30B5     		push	{r4, r5, lr}
 712              		.cfi_def_cfa_offset 12
 713              		.cfi_offset 4, -12
 714              		.cfi_offset 5, -8
 715              		.cfi_offset 14, -4
 716 0002 184C     		ldr	r4, .L101
 717              		.loc 1 197 0
 718 0004 0378     		ldrb	r3, [r0]	@ zero_extendqisi2
 719              		.loc 1 195 0
 720 0006 2268     		ldr	r2, [r4]
 721 0008 83B0     		sub	sp, sp, #12
 722              		.cfi_def_cfa_offset 24
 723              		.loc 1 197 0
 724 000a 022B     		cmp	r3, #2
 725              		.loc 1 195 0
 726 000c 0192     		str	r2, [sp, #4]
 727              		.loc 1 197 0
 728 000e 05D0     		beq	.L100
 729              	.L94:
 730              		.loc 1 208 0
 731 0010 019A     		ldr	r2, [sp, #4]
 732 0012 2368     		ldr	r3, [r4]
 733 0014 9A42     		cmp	r2, r3
 734 0016 23D1     		bne	.L99
 735 0018 03B0     		add	sp, sp, #12
 736              		.cfi_remember_state
 737              		.cfi_def_cfa_offset 12
 738              		@ sp needed
 739 001a 30BD     		pop	{r4, r5, pc}
 740              	.L100:
 741              		.cfi_restore_state
ARM GAS  C:\Users\25521\AppData\Local\Temp\ccbdPZr2.s 			page 14


 742              		.loc 1 198 0
 743 001c 124B     		ldr	r3, .L101+4
 744 001e 9842     		cmp	r0, r3
 745 0020 0546     		mov	r5, r0
 746 0022 F5D1     		bne	.L94
 747              		.loc 1 200 0
 748 0024 8168     		ldr	r1, [r0, #8]
 749              		.loc 1 202 0
 750 0026 114A     		ldr	r2, .L101+8
 751              		.loc 1 200 0
 752 0028 0B68     		ldr	r3, [r1]
 753 002a 23F48043 		bic	r3, r3, #16384
 754 002e 23F00103 		bic	r3, r3, #1
 755 0032 0B60     		str	r3, [r1]
 756              		.loc 1 201 0
 757 0034 8168     		ldr	r1, [r0, #8]
 758 0036 CB68     		ldr	r3, [r1, #12]
 759 0038 23F00F03 		bic	r3, r3, #15
 760 003c CB60     		str	r3, [r1, #12]
 761              		.loc 1 202 0
 762 003e 536B     		ldr	r3, [r2, #52]
 763 0040 23F00103 		bic	r3, r3, #1
 764 0044 5363     		str	r3, [r2, #52]
 765              		.loc 1 203 0
 766 0046 4E20     		movs	r0, #78
 767              	.LVL52:
 768 0048 FFF7FEFF 		bl	nvicDisableVector
 769              	.LVL53:
 770              		.loc 1 205 0
 771 004c 019A     		ldr	r2, [sp, #4]
 772 004e 2368     		ldr	r3, [r4]
 773 0050 9A42     		cmp	r2, r3
 774 0052 05D1     		bne	.L99
 775 0054 E868     		ldr	r0, [r5, #12]
 776              		.loc 1 208 0
 777 0056 03B0     		add	sp, sp, #12
 778              		.cfi_remember_state
 779              		.cfi_def_cfa_offset 12
 780              		@ sp needed
 781 0058 BDE83040 		pop	{r4, r5, lr}
 782              		.cfi_restore 14
 783              		.cfi_restore 5
 784              		.cfi_restore 4
 785              		.cfi_def_cfa_offset 0
 786              	.LVL54:
 787              		.loc 1 205 0
 788 005c FFF7FEBF 		b	dmaStreamRelease
 789              	.LVL55:
 790              	.L99:
 791              		.cfi_restore_state
 792              		.loc 1 208 0
 793 0060 FFF7FEFF 		bl	__stack_chk_fail
 794              	.LVL56:
 795              	.L102:
 796              		.align	2
 797              	.L101:
 798 0064 00000000 		.word	__stack_chk_guard
ARM GAS  C:\Users\25521\AppData\Local\Temp\ccbdPZr2.s 			page 15


 799 0068 00000000 		.word	.LANCHOR0
 800 006c 00380240 		.word	1073887232
 801              		.cfi_endproc
 802              	.LFE272:
 803              		.size	dcmi_lld_unprepare, .-dcmi_lld_unprepare
 804              		.section	.text.dcmi_lld_start_oneshot,"ax",%progbits
 805              		.align	1
 806              		.p2align 4,,15
 807              		.global	dcmi_lld_start_oneshot
 808              		.syntax unified
 809              		.thumb
 810              		.thumb_func
 811              		.fpu fpv4-sp-d16
 812              		.type	dcmi_lld_start_oneshot, %function
 813              	dcmi_lld_start_oneshot:
 814              	.LFB273:
 815              		.loc 1 217 0
 816              		.cfi_startproc
 817              		@ args = 0, pretend = 0, frame = 8
 818              		@ frame_needed = 0, uses_anonymous_args = 0
 819              	.LVL57:
 820 0000 00B5     		push	{lr}
 821              		.cfi_def_cfa_offset 4
 822              		.cfi_offset 14, -4
 823 0002 0F4B     		ldr	r3, .L108
 824              		.loc 1 218 0
 825 0004 0278     		ldrb	r2, [r0]	@ zero_extendqisi2
 826              		.loc 1 217 0
 827 0006 1968     		ldr	r1, [r3]
 828 0008 83B0     		sub	sp, sp, #12
 829              		.cfi_def_cfa_offset 16
 830              		.loc 1 218 0
 831 000a 022A     		cmp	r2, #2
 832              		.loc 1 217 0
 833 000c 0191     		str	r1, [sp, #4]
 834              		.loc 1 218 0
 835 000e 0ED1     		bne	.L103
 836              		.loc 1 219 0
 837 0010 8168     		ldr	r1, [r0, #8]
 838 0012 0A68     		ldr	r2, [r1]
 839 0014 42F00202 		orr	r2, r2, #2
 840 0018 0A60     		str	r2, [r1]
 841              		.loc 1 220 0
 842 001a 8168     		ldr	r1, [r0, #8]
 843 001c 0A68     		ldr	r2, [r1]
 844 001e 42F48042 		orr	r2, r2, #16384
 845 0022 0A60     		str	r2, [r1]
 846              		.loc 1 221 0
 847 0024 8168     		ldr	r1, [r0, #8]
 848 0026 0A68     		ldr	r2, [r1]
 849 0028 42F00102 		orr	r2, r2, #1
 850 002c 0A60     		str	r2, [r1]
 851              	.L103:
 852              		.loc 1 223 0
 853 002e 019A     		ldr	r2, [sp, #4]
 854 0030 1B68     		ldr	r3, [r3]
 855 0032 9A42     		cmp	r2, r3
ARM GAS  C:\Users\25521\AppData\Local\Temp\ccbdPZr2.s 			page 16


 856 0034 02D1     		bne	.L107
 857 0036 03B0     		add	sp, sp, #12
 858              		.cfi_remember_state
 859              		.cfi_def_cfa_offset 4
 860              		@ sp needed
 861 0038 5DF804FB 		ldr	pc, [sp], #4
 862              	.L107:
 863              		.cfi_restore_state
 864 003c FFF7FEFF 		bl	__stack_chk_fail
 865              	.LVL58:
 866              	.L109:
 867              		.align	2
 868              	.L108:
 869 0040 00000000 		.word	__stack_chk_guard
 870              		.cfi_endproc
 871              	.LFE273:
 872              		.size	dcmi_lld_start_oneshot, .-dcmi_lld_start_oneshot
 873              		.section	.text.dcmi_lld_start_stream,"ax",%progbits
 874              		.align	1
 875              		.p2align 4,,15
 876              		.global	dcmi_lld_start_stream
 877              		.syntax unified
 878              		.thumb
 879              		.thumb_func
 880              		.fpu fpv4-sp-d16
 881              		.type	dcmi_lld_start_stream, %function
 882              	dcmi_lld_start_stream:
 883              	.LFB274:
 884              		.loc 1 232 0
 885              		.cfi_startproc
 886              		@ args = 0, pretend = 0, frame = 8
 887              		@ frame_needed = 0, uses_anonymous_args = 0
 888              	.LVL59:
 889 0000 00B5     		push	{lr}
 890              		.cfi_def_cfa_offset 4
 891              		.cfi_offset 14, -4
 892 0002 0F4B     		ldr	r3, .L115
 893              		.loc 1 233 0
 894 0004 0278     		ldrb	r2, [r0]	@ zero_extendqisi2
 895              		.loc 1 232 0
 896 0006 1968     		ldr	r1, [r3]
 897 0008 83B0     		sub	sp, sp, #12
 898              		.cfi_def_cfa_offset 16
 899              		.loc 1 233 0
 900 000a 022A     		cmp	r2, #2
 901              		.loc 1 232 0
 902 000c 0191     		str	r1, [sp, #4]
 903              		.loc 1 233 0
 904 000e 0ED1     		bne	.L110
 905              		.loc 1 234 0
 906 0010 8168     		ldr	r1, [r0, #8]
 907 0012 0A68     		ldr	r2, [r1]
 908 0014 22F00202 		bic	r2, r2, #2
 909 0018 0A60     		str	r2, [r1]
 910              		.loc 1 235 0
 911 001a 8168     		ldr	r1, [r0, #8]
 912 001c 0A68     		ldr	r2, [r1]
ARM GAS  C:\Users\25521\AppData\Local\Temp\ccbdPZr2.s 			page 17


 913 001e 42F48042 		orr	r2, r2, #16384
 914 0022 0A60     		str	r2, [r1]
 915              		.loc 1 236 0
 916 0024 8168     		ldr	r1, [r0, #8]
 917 0026 0A68     		ldr	r2, [r1]
 918 0028 42F00102 		orr	r2, r2, #1
 919 002c 0A60     		str	r2, [r1]
 920              	.L110:
 921              		.loc 1 238 0
 922 002e 019A     		ldr	r2, [sp, #4]
 923 0030 1B68     		ldr	r3, [r3]
 924 0032 9A42     		cmp	r2, r3
 925 0034 02D1     		bne	.L114
 926 0036 03B0     		add	sp, sp, #12
 927              		.cfi_remember_state
 928              		.cfi_def_cfa_offset 4
 929              		@ sp needed
 930 0038 5DF804FB 		ldr	pc, [sp], #4
 931              	.L114:
 932              		.cfi_restore_state
 933 003c FFF7FEFF 		bl	__stack_chk_fail
 934              	.LVL60:
 935              	.L116:
 936              		.align	2
 937              	.L115:
 938 0040 00000000 		.word	__stack_chk_guard
 939              		.cfi_endproc
 940              	.LFE274:
 941              		.size	dcmi_lld_start_stream, .-dcmi_lld_start_stream
 942              		.section	.text.dcmi_lld_stop_stream,"ax",%progbits
 943              		.align	1
 944              		.p2align 4,,15
 945              		.global	dcmi_lld_stop_stream
 946              		.syntax unified
 947              		.thumb
 948              		.thumb_func
 949              		.fpu fpv4-sp-d16
 950              		.type	dcmi_lld_stop_stream, %function
 951              	dcmi_lld_stop_stream:
 952              	.LFB275:
 953              		.loc 1 252 0
 954              		.cfi_startproc
 955              		@ args = 0, pretend = 0, frame = 8
 956              		@ frame_needed = 0, uses_anonymous_args = 0
 957              	.LVL61:
 958 0000 00B5     		push	{lr}
 959              		.cfi_def_cfa_offset 4
 960              		.cfi_offset 14, -4
 961 0002 0C4B     		ldr	r3, .L124
 962              		.loc 1 254 0
 963 0004 0278     		ldrb	r2, [r0]	@ zero_extendqisi2
 964              		.loc 1 252 0
 965 0006 1968     		ldr	r1, [r3]
 966 0008 83B0     		sub	sp, sp, #12
 967              		.cfi_def_cfa_offset 16
 968              		.loc 1 254 0
 969 000a 032A     		cmp	r2, #3
ARM GAS  C:\Users\25521\AppData\Local\Temp\ccbdPZr2.s 			page 18


 970              		.loc 1 252 0
 971 000c 0191     		str	r1, [sp, #4]
 972 000e 019A     		ldr	r2, [sp, #4]
 973 0010 1B68     		ldr	r3, [r3]
 974              		.loc 1 254 0
 975 0012 06D0     		beq	.L123
 976              		.loc 1 272 0
 977 0014 9A42     		cmp	r2, r3
 978 0016 4FF00000 		mov	r0, #0
 979              	.LVL62:
 980 001a 09D1     		bne	.L122
 981 001c 03B0     		add	sp, sp, #12
 982              		.cfi_remember_state
 983              		.cfi_def_cfa_offset 4
 984              		@ sp needed
 985 001e 5DF804FB 		ldr	pc, [sp], #4
 986              	.LVL63:
 987              	.L123:
 988              		.cfi_restore_state
 989 0022 9A42     		cmp	r2, r3
 990 0024 04D1     		bne	.L122
 991 0026 03B0     		add	sp, sp, #12
 992              		.cfi_remember_state
 993              		.cfi_def_cfa_offset 4
 994              		@ sp needed
 995 0028 5DF804EB 		ldr	lr, [sp], #4
 996              		.cfi_restore 14
 997              		.cfi_def_cfa_offset 0
 998 002c FFF7FEBF 		b	dcmi_lld_stop_stream.part.0
 999              	.LVL64:
 1000              	.L122:
 1001              		.cfi_restore_state
 1002 0030 FFF7FEFF 		bl	__stack_chk_fail
 1003              	.LVL65:
 1004              	.L125:
 1005              		.align	2
 1006              	.L124:
 1007 0034 00000000 		.word	__stack_chk_guard
 1008              		.cfi_endproc
 1009              	.LFE275:
 1010              		.size	dcmi_lld_stop_stream, .-dcmi_lld_stop_stream
 1011              		.global	DCMID
 1012              		.section	.bss.DCMID,"aw",%nobits
 1013              		.align	2
 1014              		.set	.LANCHOR0,. + 0
 1015              		.type	DCMID, %object
 1016              		.size	DCMID, 20
 1017              	DCMID:
 1018 0000 00000000 		.space	20
 1018      00000000 
 1018      00000000 
 1018      00000000 
 1018      00000000 
 1019              		.section	.rodata.__func__.10012,"a",%progbits
 1020              		.align	2
 1021              		.set	.LANCHOR1,. + 0
 1022              		.type	__func__.10012, %object
ARM GAS  C:\Users\25521\AppData\Local\Temp\ccbdPZr2.s 			page 19


 1023              		.size	__func__.10012, 17
 1024              	__func__.10012:
 1025 0000 64636D69 		.ascii	"dcmi_lld_prepare\000"
 1025      5F6C6C64 
 1025      5F707265 
 1025      70617265 
 1025      00
 1026              		.text
 1027              	.Letext0:
 1028              		.file 3 "d:\\eclipse_e-puck2_win32_11_apr_2018\\eclipse_e-puck2\\tools\\gcc-arm-none-eabi-7-2017-q
 1029              		.file 4 "d:\\eclipse_e-puck2_win32_11_apr_2018\\eclipse_e-puck2\\tools\\gcc-arm-none-eabi-7-2017-q
 1030              		.file 5 "d:\\eclipse_e-puck2_win32_11_apr_2018\\eclipse_e-puck2\\tools\\gcc-arm-none-eabi-7-2017-q
 1031              		.file 6 ".//ChibiOS//os/rt/ports/ARMCMx/compilers/GCC/chtypes.h"
 1032              		.file 7 ".//ChibiOS//os/rt/include/chsystypes.h"
 1033              		.file 8 ".//ChibiOS//os/rt/include/chschd.h"
 1034              		.file 9 ".//ChibiOS//os/ext/CMSIS/include/core_cm4.h"
 1035              		.file 10 ".//ChibiOS//os/ext/CMSIS/ST/system_stm32f4xx.h"
 1036              		.file 11 ".//ChibiOS//os/ext/CMSIS/ST/stm32f407xx.h"
 1037              		.file 12 ".//ChibiOS//os/rt/ports/ARMCMx/chcore.h"
 1038              		.file 13 ".//ChibiOS//os/rt/ports/ARMCMx/chcore_v7m.h"
 1039              		.file 14 ".//ChibiOS//os/rt/include/chdebug.h"
 1040              		.file 15 ".//ChibiOS//os/rt/include/chtm.h"
 1041              		.file 16 ".//ChibiOS//os/rt/include/chstats.h"
 1042              		.file 17 ".//ChibiOS//os/rt/include/chsem.h"
 1043              		.file 18 ".//ChibiOS//os/rt/include/chmtx.h"
 1044              		.file 19 ".//ChibiOS//os/rt/include/chregistry.h"
 1045              		.file 20 ".//ChibiOS//os/rt/include/chevents.h"
 1046              		.file 21 ".//ChibiOS//os/rt/include/chqueues.h"
 1047              		.file 22 ".//ChibiOS//os/hal/ports/STM32/LLD/DMAv2/stm32_dma.h"
 1048              		.file 23 ".//ChibiOS//os/hal/include/hal_ioblock.h"
 1049              		.file 24 ".//ChibiOS//os/hal/ports/STM32/LLD/GPIOv2/pal_lld.h"
 1050              		.file 25 ".//ChibiOS//os/hal/include/adc.h"
 1051              		.file 26 ".//ChibiOS//os/hal/ports/STM32/LLD/ADCv2/adc_lld.h"
 1052              		.file 27 ".//ChibiOS//os/hal/include/can.h"
 1053              		.file 28 ".//ChibiOS//os/hal/ports/STM32/LLD/CANv1/can_lld.h"
 1054              		.file 29 ".//ChibiOS//os/hal/include/dac.h"
 1055              		.file 30 ".//ChibiOS//os/hal/ports/STM32/LLD/DACv1/dac_lld.h"
 1056              		.file 31 ".//ChibiOS//os/hal/include/ext.h"
 1057              		.file 32 ".//ChibiOS//os/hal/ports/STM32/LLD/EXTIv1/ext_lld.h"
 1058              		.file 33 ".//ChibiOS//os/hal/include/gpt.h"
 1059              		.file 34 ".//ChibiOS//os/hal/ports/STM32/LLD/TIMv1/gpt_lld.h"
 1060              		.file 35 ".//ChibiOS//os/hal/ports/STM32/LLD/TIMv1/stm32_tim.h"
 1061              		.file 36 ".//ChibiOS//os/hal/include/i2c.h"
 1062              		.file 37 ".//ChibiOS//os/hal/ports/STM32/LLD/I2Cv1/i2c_lld.h"
 1063              		.file 38 ".//ChibiOS//os/hal/include/i2s.h"
 1064              		.file 39 ".//ChibiOS//os/hal/ports/STM32/LLD/SPIv1/i2s_lld.h"
 1065              		.file 40 ".//ChibiOS//os/hal/include/pwm.h"
 1066              		.file 41 ".//ChibiOS//os/hal/ports/STM32/LLD/TIMv1/pwm_lld.h"
 1067              		.file 42 ".//ChibiOS//os/hal/include/serial.h"
 1068              		.file 43 ".//ChibiOS//os/hal/ports/STM32/LLD/USARTv1/serial_lld.h"
 1069              		.file 44 ".//ChibiOS//os/hal/include/sdc.h"
 1070              		.file 45 ".//ChibiOS//os/hal/ports/STM32/LLD/SDIOv1/sdc_lld.h"
 1071              		.file 46 ".//ChibiOS//os/hal/include/spi.h"
 1072              		.file 47 ".//ChibiOS//os/hal/ports/STM32/LLD/SPIv1/spi_lld.h"
 1073              		.file 48 ".//ChibiOS//os/hal/include/usb.h"
 1074              		.file 49 ".//ChibiOS//os/hal/ports/STM32/LLD/OTGv1/usb_lld.h"
 1075              		.file 50 ".//ChibiOS//os/hal/ports/STM32/LLD/OTGv1/stm32_otg.h"
ARM GAS  C:\Users\25521\AppData\Local\Temp\ccbdPZr2.s 			page 20


 1076              		.file 51 ".//ChibiOS_ext/os/hal/ports/STM32/STM32F4xx/dcmi_lld.h"
 1077              		.file 52 ".//ChibiOS//os/hal/osal/rt/osal.h"
 1078              		.file 53 ".//ChibiOS//os/hal/ports/common/ARMCMx/nvic.h"
 1079              		.file 54 ".//ChibiOS//os/rt/include/chsys.h"
 1080              		.file 55 ".//ChibiOS_ext/os/hal/include/dcmi.h"