ARM GAS  C:\Users\25521\AppData\Local\Temp\ccQujwiy.s 			page 1


   1              		.cpu cortex-m4
   2              		.eabi_attribute 27, 1
   3              		.eabi_attribute 28, 1
   4              		.eabi_attribute 20, 1
   5              		.eabi_attribute 21, 1
   6              		.eabi_attribute 23, 3
   7              		.eabi_attribute 24, 1
   8              		.eabi_attribute 25, 1
   9              		.eabi_attribute 26, 1
  10              		.eabi_attribute 30, 2
  11              		.eabi_attribute 34, 1
  12              		.eabi_attribute 18, 4
  13              		.file	"e_common.c"
  14              		.text
  15              	.Ltext0:
  16              		.cfi_sections	.debug_frame
  17              		.section	.text.e_poxxxx_config_cam,"ax",%progbits
  18              		.align	1
  19              		.p2align 4,,15
  20              		.global	e_poxxxx_config_cam
  21              		.syntax unified
  22              		.thumb
  23              		.thumb_func
  24              		.fpu fpv4-sp-d16
  25              		.type	e_poxxxx_config_cam, %function
  26              	e_poxxxx_config_cam:
  27              	.LFB267:
  28              		.file 1 ".//src/epuck1x/camera/fast_2_timer/e_common.c"
  29              		.loc 1 10 0
  30              		.cfi_startproc
  31              		@ args = 12, pretend = 0, frame = 8
  32              		@ frame_needed = 0, uses_anonymous_args = 0
  33              	.LVL0:
  34 0000 F0B5     		push	{r4, r5, r6, r7, lr}
  35              		.cfi_def_cfa_offset 20
  36              		.cfi_offset 4, -20
  37              		.cfi_offset 5, -16
  38              		.cfi_offset 6, -12
  39              		.cfi_offset 7, -8
  40              		.cfi_offset 14, -4
  41 0002 87B0     		sub	sp, sp, #28
  42              		.cfi_def_cfa_offset 48
  43              		.loc 1 10 0
  44 0004 274E     		ldr	r6, .L21
  45 0006 0E9C     		ldr	r4, [sp, #56]
  46 0008 0C9D     		ldr	r5, [sp, #48]
  47 000a 3768     		ldr	r7, [r6]
  48 000c 0597     		str	r7, [sp, #20]
  49 000e 0746     		mov	r7, r0
  50              		.loc 1 19 0
  51 0010 201C     		adds	r0, r4, #0
  52              	.LVL1:
  53 0012 18BF     		it	ne
  54 0014 0120     		movne	r0, #1
  55              		.loc 1 26 0
  56 0016 022D     		cmp	r5, #2
  57              		.loc 1 10 0
ARM GAS  C:\Users\25521\AppData\Local\Temp\ccQujwiy.s 			page 2


  58 0018 0D9C     		ldr	r4, [sp, #52]
  59              		.loc 1 15 0
  60 001a B2FBF5F2 		udiv	r2, r2, r5
  61              	.LVL2:
  62              		.loc 1 16 0
  63 001e B3FBF4F3 		udiv	r3, r3, r4
  64              	.LVL3:
  65              		.loc 1 26 0
  66 0022 39D0     		beq	.L3
  67 0024 042D     		cmp	r5, #4
  68 0026 34D0     		beq	.L4
  69 0028 012D     		cmp	r5, #1
  70 002a 26D0     		beq	.L17
  71              	.LVL4:
  72              		.loc 1 39 0
  73 002c 9200     		lsls	r2, r2, #2
  74              	.LVL5:
  75 002e C2F52077 		rsb	r7, r2, #640
  76              	.LVL6:
  77 0032 7F08     		lsrs	r7, r7, #1
  78              	.LVL7:
  79              		.loc 1 37 0
  80 0034 8025     		movs	r5, #128
  81              	.LVL8:
  82              	.L5:
  83              		.loc 1 43 0
  84 0036 022C     		cmp	r4, #2
  85 0038 23D0     		beq	.L7
  86              	.L20:
  87 003a 042C     		cmp	r4, #4
  88 003c 26D0     		beq	.L8
  89 003e 012C     		cmp	r4, #1
  90 0040 22D0     		beq	.L18
  91              	.LVL9:
  92              		.loc 1 56 0
  93 0042 9B00     		lsls	r3, r3, #2
  94              	.LVL10:
  95 0044 C3F5F071 		rsb	r1, r3, #480
  96              	.LVL11:
  97 0048 4908     		lsrs	r1, r1, #1
  98              	.LVL12:
  99              		.loc 1 54 0
 100 004a 8024     		movs	r4, #128
 101              	.LVL13:
 102              	.L9:
 103              		.loc 1 60 0
 104 004c 0093     		str	r3, [sp]
 105 004e CDE90154 		strd	r5, r4, [sp, #4]
 106 0052 1346     		mov	r3, r2
 107 0054 0A46     		mov	r2, r1
 108 0056 3946     		mov	r1, r7
 109              	.LVL14:
 110 0058 FFF7FEFF 		bl	cam_advanced_config
 111              	.LVL15:
 112              		.loc 1 61 0
 113 005c FFF7FEFF 		bl	dcmi_disable_double_buffering
 114              	.LVL16:
ARM GAS  C:\Users\25521\AppData\Local\Temp\ccQujwiy.s 			page 3


 115              		.loc 1 62 0
 116 0060 0020     		movs	r0, #0
 117 0062 FFF7FEFF 		bl	dcmi_set_capture_mode
 118              	.LVL17:
 119              		.loc 1 63 0
 120 0066 FFF7FEFF 		bl	dcmi_prepare
 121              	.LVL18:
 122              		.loc 1 66 0
 123 006a 059A     		ldr	r2, [sp, #20]
 124 006c 3368     		ldr	r3, [r6]
 125 006e 9A42     		cmp	r2, r3
 126 0070 4FF00000 		mov	r0, #0
 127 0074 13D1     		bne	.L19
 128 0076 07B0     		add	sp, sp, #28
 129              		.cfi_remember_state
 130              		.cfi_def_cfa_offset 20
 131              		@ sp needed
 132 0078 F0BD     		pop	{r4, r5, r6, r7, pc}
 133              	.LVL19:
 134              	.L17:
 135              		.cfi_restore_state
 136              		.loc 1 43 0
 137 007a 022C     		cmp	r4, #2
 138              		.loc 1 28 0
 139 007c 4FF02005 		mov	r5, #32
 140              	.LVL20:
 141              		.loc 1 43 0
 142 0080 DBD1     		bne	.L20
 143              	.LVL21:
 144              	.L7:
 145 0082 5B00     		lsls	r3, r3, #1
 146              	.LVL22:
 147              		.loc 1 48 0
 148 0084 4024     		movs	r4, #64
 149              	.LVL23:
 150 0086 E1E7     		b	.L9
 151              	.LVL24:
 152              	.L18:
 153              		.loc 1 45 0
 154 0088 2024     		movs	r4, #32
 155 008a DFE7     		b	.L9
 156              	.L8:
 157              	.LVL25:
 158 008c 9B00     		lsls	r3, r3, #2
 159              	.LVL26:
 160              		.loc 1 51 0
 161 008e 8024     		movs	r4, #128
 162              	.LVL27:
 163              		.loc 1 52 0
 164 0090 DCE7     		b	.L9
 165              	.LVL28:
 166              	.L4:
 167 0092 9200     		lsls	r2, r2, #2
 168              	.LVL29:
 169              		.loc 1 34 0
 170 0094 8025     		movs	r5, #128
 171              	.LVL30:
ARM GAS  C:\Users\25521\AppData\Local\Temp\ccQujwiy.s 			page 4


 172              		.loc 1 35 0
 173 0096 CEE7     		b	.L5
 174              	.LVL31:
 175              	.L3:
 176 0098 5200     		lsls	r2, r2, #1
 177              	.LVL32:
 178              		.loc 1 31 0
 179 009a 4025     		movs	r5, #64
 180              	.LVL33:
 181 009c CBE7     		b	.L5
 182              	.LVL34:
 183              	.L19:
 184              		.loc 1 66 0
 185 009e FFF7FEFF 		bl	__stack_chk_fail
 186              	.LVL35:
 187              	.L22:
 188 00a2 00BF     		.align	2
 189              	.L21:
 190 00a4 00000000 		.word	__stack_chk_guard
 191              		.cfi_endproc
 192              	.LFE267:
 193              		.size	e_poxxxx_config_cam, .-e_poxxxx_config_cam
 194              		.section	.text.e_poxxxx_set_mirror,"ax",%progbits
 195              		.align	1
 196              		.p2align 4,,15
 197              		.global	e_poxxxx_set_mirror
 198              		.syntax unified
 199              		.thumb
 200              		.thumb_func
 201              		.fpu fpv4-sp-d16
 202              		.type	e_poxxxx_set_mirror, %function
 203              	e_poxxxx_set_mirror:
 204              	.LFB268:
 205              		.loc 1 69 0
 206              		.cfi_startproc
 207              		@ args = 0, pretend = 0, frame = 8
 208              		@ frame_needed = 0, uses_anonymous_args = 0
 209              	.LVL36:
 210 0000 00B5     		push	{lr}
 211              		.cfi_def_cfa_offset 4
 212              		.cfi_offset 14, -4
 213 0002 084B     		ldr	r3, .L28
 214 0004 83B0     		sub	sp, sp, #12
 215              		.cfi_def_cfa_offset 16
 216              		.loc 1 69 0
 217 0006 1A68     		ldr	r2, [r3]
 218 0008 0192     		str	r2, [sp, #4]
 219              		.loc 1 70 0
 220 000a 019A     		ldr	r2, [sp, #4]
 221 000c 1B68     		ldr	r3, [r3]
 222 000e 9A42     		cmp	r2, r3
 223 0010 06D1     		bne	.L27
 224 0012 C9B2     		uxtb	r1, r1
 225              	.LVL37:
 226 0014 C0B2     		uxtb	r0, r0
 227              	.LVL38:
 228              		.loc 1 72 0
ARM GAS  C:\Users\25521\AppData\Local\Temp\ccQujwiy.s 			page 5


 229 0016 03B0     		add	sp, sp, #12
 230              		.cfi_remember_state
 231              		.cfi_def_cfa_offset 4
 232              		@ sp needed
 233 0018 5DF804EB 		ldr	lr, [sp], #4
 234              		.cfi_restore 14
 235              		.cfi_def_cfa_offset 0
 236              		.loc 1 70 0
 237 001c FFF7FEBF 		b	cam_set_mirror
 238              	.LVL39:
 239              	.L27:
 240              		.cfi_restore_state
 241 0020 FFF7FEFF 		bl	__stack_chk_fail
 242              	.LVL40:
 243              	.L29:
 244              		.align	2
 245              	.L28:
 246 0024 00000000 		.word	__stack_chk_guard
 247              		.cfi_endproc
 248              	.LFE268:
 249              		.size	e_poxxxx_set_mirror, .-e_poxxxx_set_mirror
 250              		.section	.text.e_poxxxx_write_cam_registers,"ax",%progbits
 251              		.align	1
 252              		.p2align 4,,15
 253              		.global	e_poxxxx_write_cam_registers
 254              		.syntax unified
 255              		.thumb
 256              		.thumb_func
 257              		.fpu fpv4-sp-d16
 258              		.type	e_poxxxx_write_cam_registers, %function
 259              	e_poxxxx_write_cam_registers:
 260              	.LFB269:
 261              		.loc 1 74 0
 262              		.cfi_startproc
 263              		@ args = 0, pretend = 0, frame = 8
 264              		@ frame_needed = 0, uses_anonymous_args = 0
 265 0000 00B5     		push	{lr}
 266              		.cfi_def_cfa_offset 4
 267              		.cfi_offset 14, -4
 268 0002 064B     		ldr	r3, .L34
 269 0004 83B0     		sub	sp, sp, #12
 270              		.cfi_def_cfa_offset 16
 271              		.loc 1 74 0
 272 0006 1A68     		ldr	r2, [r3]
 273 0008 0192     		str	r2, [sp, #4]
 274              		.loc 1 76 0
 275 000a 019A     		ldr	r2, [sp, #4]
 276 000c 1B68     		ldr	r3, [r3]
 277 000e 9A42     		cmp	r2, r3
 278 0010 02D1     		bne	.L33
 279 0012 03B0     		add	sp, sp, #12
 280              		.cfi_remember_state
 281              		.cfi_def_cfa_offset 4
 282              		@ sp needed
 283 0014 5DF804FB 		ldr	pc, [sp], #4
 284              	.L33:
 285              		.cfi_restore_state
ARM GAS  C:\Users\25521\AppData\Local\Temp\ccQujwiy.s 			page 6


 286 0018 FFF7FEFF 		bl	__stack_chk_fail
 287              	.LVL41:
 288              	.L35:
 289              		.align	2
 290              	.L34:
 291 001c 00000000 		.word	__stack_chk_guard
 292              		.cfi_endproc
 293              	.LFE269:
 294              		.size	e_poxxxx_write_cam_registers, .-e_poxxxx_write_cam_registers
 295              		.section	.text.e_poxxxx_init_cam,"ax",%progbits
 296              		.align	1
 297              		.p2align 4,,15
 298              		.global	e_poxxxx_init_cam
 299              		.syntax unified
 300              		.thumb
 301              		.thumb_func
 302              		.fpu fpv4-sp-d16
 303              		.type	e_poxxxx_init_cam, %function
 304              	e_poxxxx_init_cam:
 305              	.LFB270:
 306              		.loc 1 81 0
 307              		.cfi_startproc
 308              		@ args = 0, pretend = 0, frame = 8
 309              		@ frame_needed = 0, uses_anonymous_args = 0
 310 0000 10B5     		push	{r4, lr}
 311              		.cfi_def_cfa_offset 8
 312              		.cfi_offset 4, -8
 313              		.cfi_offset 14, -4
 314 0002 074C     		ldr	r4, .L40
 315 0004 82B0     		sub	sp, sp, #8
 316              		.cfi_def_cfa_offset 16
 317              		.loc 1 81 0
 318 0006 2368     		ldr	r3, [r4]
 319 0008 0193     		str	r3, [sp, #4]
 320              		.loc 1 83 0
 321 000a FFF7FEFF 		bl	cam_get_id
 322              	.LVL42:
 323              		.loc 1 84 0
 324 000e 019A     		ldr	r2, [sp, #4]
 325 0010 2368     		ldr	r3, [r4]
 326 0012 9A42     		cmp	r2, r3
 327 0014 01D1     		bne	.L39
 328 0016 02B0     		add	sp, sp, #8
 329              		.cfi_remember_state
 330              		.cfi_def_cfa_offset 8
 331              		@ sp needed
 332 0018 10BD     		pop	{r4, pc}
 333              	.L39:
 334              		.cfi_restore_state
 335 001a FFF7FEFF 		bl	__stack_chk_fail
 336              	.LVL43:
 337              	.L41:
 338 001e 00BF     		.align	2
 339              	.L40:
 340 0020 00000000 		.word	__stack_chk_guard
 341              		.cfi_endproc
 342              	.LFE270:
ARM GAS  C:\Users\25521\AppData\Local\Temp\ccQujwiy.s 			page 7


 343              		.size	e_poxxxx_init_cam, .-e_poxxxx_init_cam
 344              		.section	.text.e_poxxxx_get_orientation,"ax",%progbits
 345              		.align	1
 346              		.p2align 4,,15
 347              		.global	e_poxxxx_get_orientation
 348              		.syntax unified
 349              		.thumb
 350              		.thumb_func
 351              		.fpu fpv4-sp-d16
 352              		.type	e_poxxxx_get_orientation, %function
 353              	e_poxxxx_get_orientation:
 354              	.LFB271:
 355              		.loc 1 90 0
 356              		.cfi_startproc
 357              		@ args = 0, pretend = 0, frame = 8
 358              		@ frame_needed = 0, uses_anonymous_args = 0
 359 0000 00B5     		push	{lr}
 360              		.cfi_def_cfa_offset 4
 361              		.cfi_offset 14, -4
 362 0002 074B     		ldr	r3, .L46
 363 0004 83B0     		sub	sp, sp, #12
 364              		.cfi_def_cfa_offset 16
 365              		.loc 1 90 0
 366 0006 1A68     		ldr	r2, [r3]
 367 0008 0192     		str	r2, [sp, #4]
 368              		.loc 1 92 0
 369 000a 019A     		ldr	r2, [sp, #4]
 370 000c 1B68     		ldr	r3, [r3]
 371 000e 9A42     		cmp	r2, r3
 372 0010 03D1     		bne	.L45
 373 0012 0120     		movs	r0, #1
 374 0014 03B0     		add	sp, sp, #12
 375              		.cfi_remember_state
 376              		.cfi_def_cfa_offset 4
 377              		@ sp needed
 378 0016 5DF804FB 		ldr	pc, [sp], #4
 379              	.L45:
 380              		.cfi_restore_state
 381 001a FFF7FEFF 		bl	__stack_chk_fail
 382              	.LVL44:
 383              	.L47:
 384 001e 00BF     		.align	2
 385              	.L46:
 386 0020 00000000 		.word	__stack_chk_guard
 387              		.cfi_endproc
 388              	.LFE271:
 389              		.size	e_poxxxx_get_orientation, .-e_poxxxx_get_orientation
 390              		.section	.text.e_poxxxx_set_awb_ae,"ax",%progbits
 391              		.align	1
 392              		.p2align 4,,15
 393              		.global	e_poxxxx_set_awb_ae
 394              		.syntax unified
 395              		.thumb
 396              		.thumb_func
 397              		.fpu fpv4-sp-d16
 398              		.type	e_poxxxx_set_awb_ae, %function
 399              	e_poxxxx_set_awb_ae:
ARM GAS  C:\Users\25521\AppData\Local\Temp\ccQujwiy.s 			page 8


 400              	.LFB272:
 401              		.loc 1 98 0
 402              		.cfi_startproc
 403              		@ args = 0, pretend = 0, frame = 8
 404              		@ frame_needed = 0, uses_anonymous_args = 0
 405              	.LVL45:
 406 0000 30B5     		push	{r4, r5, lr}
 407              		.cfi_def_cfa_offset 12
 408              		.cfi_offset 4, -12
 409              		.cfi_offset 5, -8
 410              		.cfi_offset 14, -4
 411 0002 0A4C     		ldr	r4, .L53
 412 0004 83B0     		sub	sp, sp, #12
 413              		.cfi_def_cfa_offset 24
 414              		.loc 1 98 0
 415 0006 2368     		ldr	r3, [r4]
 416 0008 0193     		str	r3, [sp, #4]
 417              		.loc 1 99 0
 418 000a C0B2     		uxtb	r0, r0
 419              	.LVL46:
 420              		.loc 1 98 0
 421 000c 0D46     		mov	r5, r1
 422              		.loc 1 99 0
 423 000e FFF7FEFF 		bl	cam_set_awb
 424              	.LVL47:
 425              		.loc 1 100 0
 426 0012 019A     		ldr	r2, [sp, #4]
 427 0014 2368     		ldr	r3, [r4]
 428 0016 9A42     		cmp	r2, r3
 429 0018 05D1     		bne	.L52
 430 001a E8B2     		uxtb	r0, r5
 431              		.loc 1 102 0
 432 001c 03B0     		add	sp, sp, #12
 433              		.cfi_remember_state
 434              		.cfi_def_cfa_offset 12
 435              		@ sp needed
 436 001e BDE83040 		pop	{r4, r5, lr}
 437              		.cfi_restore 14
 438              		.cfi_restore 5
 439              		.cfi_restore 4
 440              		.cfi_def_cfa_offset 0
 441              	.LVL48:
 442              		.loc 1 100 0
 443 0022 FFF7FEBF 		b	cam_set_ae
 444              	.LVL49:
 445              	.L52:
 446              		.cfi_restore_state
 447 0026 FFF7FEFF 		bl	__stack_chk_fail
 448              	.LVL50:
 449              	.L54:
 450 002a 00BF     		.align	2
 451              	.L53:
 452 002c 00000000 		.word	__stack_chk_guard
 453              		.cfi_endproc
 454              	.LFE272:
 455              		.size	e_poxxxx_set_awb_ae, .-e_poxxxx_set_awb_ae
 456              		.section	.text.e_poxxxx_set_rgb_gain,"ax",%progbits
ARM GAS  C:\Users\25521\AppData\Local\Temp\ccQujwiy.s 			page 9


 457              		.align	1
 458              		.p2align 4,,15
 459              		.global	e_poxxxx_set_rgb_gain
 460              		.syntax unified
 461              		.thumb
 462              		.thumb_func
 463              		.fpu fpv4-sp-d16
 464              		.type	e_poxxxx_set_rgb_gain, %function
 465              	e_poxxxx_set_rgb_gain:
 466              	.LFB273:
 467              		.loc 1 110 0
 468              		.cfi_startproc
 469              		@ args = 0, pretend = 0, frame = 8
 470              		@ frame_needed = 0, uses_anonymous_args = 0
 471              	.LVL51:
 472 0000 10B5     		push	{r4, lr}
 473              		.cfi_def_cfa_offset 8
 474              		.cfi_offset 4, -8
 475              		.cfi_offset 14, -4
 476 0002 074B     		ldr	r3, .L60
 477 0004 82B0     		sub	sp, sp, #8
 478              		.cfi_def_cfa_offset 16
 479              		.loc 1 110 0
 480 0006 1C68     		ldr	r4, [r3]
 481 0008 0194     		str	r4, [sp, #4]
 482              		.loc 1 111 0
 483 000a 019C     		ldr	r4, [sp, #4]
 484 000c 1B68     		ldr	r3, [r3]
 485 000e 9C42     		cmp	r4, r3
 486 0010 04D1     		bne	.L59
 487              		.loc 1 113 0
 488 0012 02B0     		add	sp, sp, #8
 489              		.cfi_remember_state
 490              		.cfi_def_cfa_offset 8
 491              		@ sp needed
 492 0014 BDE81040 		pop	{r4, lr}
 493              		.cfi_restore 14
 494              		.cfi_restore 4
 495              		.cfi_def_cfa_offset 0
 496              		.loc 1 111 0
 497 0018 FFF7FEBF 		b	cam_set_rgb_gain
 498              	.LVL52:
 499              	.L59:
 500              		.cfi_restore_state
 501 001c FFF7FEFF 		bl	__stack_chk_fail
 502              	.LVL53:
 503              	.L61:
 504              		.align	2
 505              	.L60:
 506 0020 00000000 		.word	__stack_chk_guard
 507              		.cfi_endproc
 508              	.LFE273:
 509              		.size	e_poxxxx_set_rgb_gain, .-e_poxxxx_set_rgb_gain
 510              		.section	.text.e_poxxxx_set_exposure,"ax",%progbits
 511              		.align	1
 512              		.p2align 4,,15
 513              		.global	e_poxxxx_set_exposure
ARM GAS  C:\Users\25521\AppData\Local\Temp\ccQujwiy.s 			page 10


 514              		.syntax unified
 515              		.thumb
 516              		.thumb_func
 517              		.fpu fpv4-sp-d16
 518              		.type	e_poxxxx_set_exposure, %function
 519              	e_poxxxx_set_exposure:
 520              	.LFB274:
 521              		.loc 1 119 0
 522              		.cfi_startproc
 523              		@ args = 0, pretend = 0, frame = 8
 524              		@ frame_needed = 0, uses_anonymous_args = 0
 525              	.LVL54:
 526 0000 00B5     		push	{lr}
 527              		.cfi_def_cfa_offset 4
 528              		.cfi_offset 14, -4
 529 0002 094B     		ldr	r3, .L67
 530 0004 83B0     		sub	sp, sp, #12
 531              		.cfi_def_cfa_offset 16
 532              		.loc 1 119 0
 533 0006 1A68     		ldr	r2, [r3]
 534 0008 0192     		str	r2, [sp, #4]
 535              		.loc 1 120 0
 536 000a 019A     		ldr	r2, [sp, #4]
 537 000c 1B68     		ldr	r3, [r3]
 538 000e 9A42     		cmp	r2, r3
 539 0010 07D1     		bne	.L66
 540 0012 C1B2     		uxtb	r1, r0
 541 0014 C0F30F20 		ubfx	r0, r0, #8, #16
 542              	.LVL55:
 543              		.loc 1 122 0
 544 0018 03B0     		add	sp, sp, #12
 545              		.cfi_remember_state
 546              		.cfi_def_cfa_offset 4
 547              		@ sp needed
 548 001a 5DF804EB 		ldr	lr, [sp], #4
 549              		.cfi_restore 14
 550              		.cfi_def_cfa_offset 0
 551              		.loc 1 120 0
 552 001e FFF7FEBF 		b	cam_set_exposure
 553              	.LVL56:
 554              	.L66:
 555              		.cfi_restore_state
 556 0022 FFF7FEFF 		bl	__stack_chk_fail
 557              	.LVL57:
 558              	.L68:
 559 0026 00BF     		.align	2
 560              	.L67:
 561 0028 00000000 		.word	__stack_chk_guard
 562              		.cfi_endproc
 563              	.LFE274:
 564              		.size	e_poxxxx_set_exposure, .-e_poxxxx_set_exposure
 565              		.section	.text.getCameraVersion,"ax",%progbits
 566              		.align	1
 567              		.p2align 4,,15
 568              		.global	getCameraVersion
 569              		.syntax unified
 570              		.thumb
ARM GAS  C:\Users\25521\AppData\Local\Temp\ccQujwiy.s 			page 11


 571              		.thumb_func
 572              		.fpu fpv4-sp-d16
 573              		.type	getCameraVersion, %function
 574              	getCameraVersion:
 575              	.LFB275:
 576              		.loc 1 123 0
 577              		.cfi_startproc
 578              		@ args = 0, pretend = 0, frame = 8
 579              		@ frame_needed = 0, uses_anonymous_args = 0
 580 0000 10B5     		push	{r4, lr}
 581              		.cfi_def_cfa_offset 8
 582              		.cfi_offset 4, -8
 583              		.cfi_offset 14, -4
 584 0002 074C     		ldr	r4, .L73
 585 0004 82B0     		sub	sp, sp, #8
 586              		.cfi_def_cfa_offset 16
 587              		.loc 1 123 0
 588 0006 2368     		ldr	r3, [r4]
 589 0008 0193     		str	r3, [sp, #4]
 590              		.loc 1 124 0
 591 000a FFF7FEFF 		bl	cam_get_id
 592              	.LVL58:
 593              		.loc 1 125 0
 594 000e 019A     		ldr	r2, [sp, #4]
 595 0010 2368     		ldr	r3, [r4]
 596 0012 9A42     		cmp	r2, r3
 597 0014 01D1     		bne	.L72
 598 0016 02B0     		add	sp, sp, #8
 599              		.cfi_remember_state
 600              		.cfi_def_cfa_offset 8
 601              		@ sp needed
 602 0018 10BD     		pop	{r4, pc}
 603              	.L72:
 604              		.cfi_restore_state
 605 001a FFF7FEFF 		bl	__stack_chk_fail
 606              	.LVL59:
 607              	.L74:
 608 001e 00BF     		.align	2
 609              	.L73:
 610 0020 00000000 		.word	__stack_chk_guard
 611              		.cfi_endproc
 612              	.LFE275:
 613              		.size	getCameraVersion, .-getCameraVersion
 614              		.section	.text.e_poxxxx_launch_capture,"ax",%progbits
 615              		.align	1
 616              		.p2align 4,,15
 617              		.global	e_poxxxx_launch_capture
 618              		.syntax unified
 619              		.thumb
 620              		.thumb_func
 621              		.fpu fpv4-sp-d16
 622              		.type	e_poxxxx_launch_capture, %function
 623              	e_poxxxx_launch_capture:
 624              	.LFB276:
 625              		.loc 1 131 0
 626              		.cfi_startproc
 627              		@ args = 0, pretend = 0, frame = 8
ARM GAS  C:\Users\25521\AppData\Local\Temp\ccQujwiy.s 			page 12


 628              		@ frame_needed = 0, uses_anonymous_args = 0
 629              	.LVL60:
 630 0000 10B5     		push	{r4, lr}
 631              		.cfi_def_cfa_offset 8
 632              		.cfi_offset 4, -8
 633              		.cfi_offset 14, -4
 634 0002 084C     		ldr	r4, .L80
 635 0004 82B0     		sub	sp, sp, #8
 636              		.cfi_def_cfa_offset 16
 637              		.loc 1 131 0
 638 0006 2368     		ldr	r3, [r4]
 639 0008 0193     		str	r3, [sp, #4]
 640              		.loc 1 133 0
 641 000a FFF7FEFF 		bl	spi_comm_suspend
 642              	.LVL61:
 643              		.loc 1 134 0
 644 000e 019A     		ldr	r2, [sp, #4]
 645 0010 2368     		ldr	r3, [r4]
 646 0012 9A42     		cmp	r2, r3
 647 0014 04D1     		bne	.L79
 648              		.loc 1 135 0
 649 0016 02B0     		add	sp, sp, #8
 650              		.cfi_remember_state
 651              		.cfi_def_cfa_offset 8
 652              		@ sp needed
 653 0018 BDE81040 		pop	{r4, lr}
 654              		.cfi_restore 14
 655              		.cfi_restore 4
 656              		.cfi_def_cfa_offset 0
 657              		.loc 1 134 0
 658 001c FFF7FEBF 		b	dcmi_capture_start
 659              	.LVL62:
 660              	.L79:
 661              		.cfi_restore_state
 662 0020 FFF7FEFF 		bl	__stack_chk_fail
 663              	.LVL63:
 664              	.L81:
 665              		.align	2
 666              	.L80:
 667 0024 00000000 		.word	__stack_chk_guard
 668              		.cfi_endproc
 669              	.LFE276:
 670              		.size	e_poxxxx_launch_capture, .-e_poxxxx_launch_capture
 671              		.section	.text.e_poxxxx_is_img_ready,"ax",%progbits
 672              		.align	1
 673              		.p2align 4,,15
 674              		.global	e_poxxxx_is_img_ready
 675              		.syntax unified
 676              		.thumb
 677              		.thumb_func
 678              		.fpu fpv4-sp-d16
 679              		.type	e_poxxxx_is_img_ready, %function
 680              	e_poxxxx_is_img_ready:
 681              	.LFB277:
 682              		.loc 1 141 0
 683              		.cfi_startproc
 684              		@ args = 0, pretend = 0, frame = 8
ARM GAS  C:\Users\25521\AppData\Local\Temp\ccQujwiy.s 			page 13


 685              		@ frame_needed = 0, uses_anonymous_args = 0
 686 0000 10B5     		push	{r4, lr}
 687              		.cfi_def_cfa_offset 8
 688              		.cfi_offset 4, -8
 689              		.cfi_offset 14, -4
 690 0002 074C     		ldr	r4, .L86
 691 0004 82B0     		sub	sp, sp, #8
 692              		.cfi_def_cfa_offset 16
 693              		.loc 1 141 0
 694 0006 2368     		ldr	r3, [r4]
 695 0008 0193     		str	r3, [sp, #4]
 696              		.loc 1 142 0
 697 000a FFF7FEFF 		bl	image_is_ready
 698              	.LVL64:
 699              		.loc 1 143 0
 700 000e 019A     		ldr	r2, [sp, #4]
 701 0010 2368     		ldr	r3, [r4]
 702 0012 9A42     		cmp	r2, r3
 703 0014 01D1     		bne	.L85
 704 0016 02B0     		add	sp, sp, #8
 705              		.cfi_remember_state
 706              		.cfi_def_cfa_offset 8
 707              		@ sp needed
 708 0018 10BD     		pop	{r4, pc}
 709              	.L85:
 710              		.cfi_restore_state
 711 001a FFF7FEFF 		bl	__stack_chk_fail
 712              	.LVL65:
 713              	.L87:
 714 001e 00BF     		.align	2
 715              	.L86:
 716 0020 00000000 		.word	__stack_chk_guard
 717              		.cfi_endproc
 718              	.LFE277:
 719              		.size	e_poxxxx_is_img_ready, .-e_poxxxx_is_img_ready
 720              		.section	.text.e_poxxxx_wait_img_ready,"ax",%progbits
 721              		.align	1
 722              		.p2align 4,,15
 723              		.global	e_poxxxx_wait_img_ready
 724              		.syntax unified
 725              		.thumb
 726              		.thumb_func
 727              		.fpu fpv4-sp-d16
 728              		.type	e_poxxxx_wait_img_ready, %function
 729              	e_poxxxx_wait_img_ready:
 730              	.LFB278:
 731              		.loc 1 148 0
 732              		.cfi_startproc
 733              		@ args = 0, pretend = 0, frame = 8
 734              		@ frame_needed = 0, uses_anonymous_args = 0
 735 0000 10B5     		push	{r4, lr}
 736              		.cfi_def_cfa_offset 8
 737              		.cfi_offset 4, -8
 738              		.cfi_offset 14, -4
 739 0002 084C     		ldr	r4, .L93
 740 0004 82B0     		sub	sp, sp, #8
 741              		.cfi_def_cfa_offset 16
ARM GAS  C:\Users\25521\AppData\Local\Temp\ccQujwiy.s 			page 14


 742              		.loc 1 148 0
 743 0006 2368     		ldr	r3, [r4]
 744 0008 0193     		str	r3, [sp, #4]
 745              		.loc 1 149 0
 746 000a FFF7FEFF 		bl	wait_image_ready
 747              	.LVL66:
 748              		.loc 1 150 0
 749 000e 019A     		ldr	r2, [sp, #4]
 750 0010 2368     		ldr	r3, [r4]
 751 0012 9A42     		cmp	r2, r3
 752 0014 04D1     		bne	.L92
 753              		.loc 1 151 0
 754 0016 02B0     		add	sp, sp, #8
 755              		.cfi_remember_state
 756              		.cfi_def_cfa_offset 8
 757              		@ sp needed
 758 0018 BDE81040 		pop	{r4, lr}
 759              		.cfi_restore 14
 760              		.cfi_restore 4
 761              		.cfi_def_cfa_offset 0
 762              		.loc 1 150 0
 763 001c FFF7FEBF 		b	spi_comm_resume
 764              	.LVL67:
 765              	.L92:
 766              		.cfi_restore_state
 767 0020 FFF7FEFF 		bl	__stack_chk_fail
 768              	.LVL68:
 769              	.L94:
 770              		.align	2
 771              	.L93:
 772 0024 00000000 		.word	__stack_chk_guard
 773              		.cfi_endproc
 774              	.LFE278:
 775              		.size	e_poxxxx_wait_img_ready, .-e_poxxxx_wait_img_ready
 776              		.text
 777              	.Letext0:
 778              		.file 2 "d:\\eclipse_e-puck2_win32_11_apr_2018\\eclipse_e-puck2\\tools\\gcc-arm-none-eabi-7-2017-q
 779              		.file 3 "d:\\eclipse_e-puck2_win32_11_apr_2018\\eclipse_e-puck2\\tools\\gcc-arm-none-eabi-7-2017-q
 780              		.file 4 "d:\\eclipse_e-puck2_win32_11_apr_2018\\eclipse_e-puck2\\tools\\gcc-arm-none-eabi-7-2017-q
 781              		.file 5 ".//ChibiOS//os/rt/ports/ARMCMx/compilers/GCC/chtypes.h"
 782              		.file 6 ".//ChibiOS//os/rt/include/chsystypes.h"
 783              		.file 7 ".//ChibiOS//os/rt/include/chschd.h"
 784              		.file 8 ".//ChibiOS//os/ext/CMSIS/include/core_cm4.h"
 785              		.file 9 ".//ChibiOS//os/ext/CMSIS/ST/system_stm32f4xx.h"
 786              		.file 10 ".//ChibiOS//os/ext/CMSIS/ST/stm32f407xx.h"
 787              		.file 11 ".//ChibiOS//os/rt/ports/ARMCMx/chcore.h"
 788              		.file 12 ".//ChibiOS//os/rt/ports/ARMCMx/chcore_v7m.h"
 789              		.file 13 ".//ChibiOS//os/rt/include/chdebug.h"
 790              		.file 14 ".//ChibiOS//os/rt/include/chtm.h"
 791              		.file 15 ".//ChibiOS//os/rt/include/chstats.h"
 792              		.file 16 ".//ChibiOS//os/rt/include/chsem.h"
 793              		.file 17 ".//ChibiOS//os/rt/include/chmtx.h"
 794              		.file 18 ".//ChibiOS//os/rt/include/chregistry.h"
 795              		.file 19 ".//ChibiOS//os/rt/include/chevents.h"
 796              		.file 20 ".//ChibiOS//os/rt/include/chqueues.h"
 797              		.file 21 ".//ChibiOS//os/hal/ports/STM32/LLD/DMAv2/stm32_dma.h"
 798              		.file 22 ".//ChibiOS//os/hal/include/hal_ioblock.h"
ARM GAS  C:\Users\25521\AppData\Local\Temp\ccQujwiy.s 			page 15


 799              		.file 23 ".//ChibiOS//os/hal/ports/STM32/LLD/GPIOv2/pal_lld.h"
 800              		.file 24 ".//ChibiOS//os/hal/include/adc.h"
 801              		.file 25 ".//ChibiOS//os/hal/ports/STM32/LLD/ADCv2/adc_lld.h"
 802              		.file 26 ".//ChibiOS//os/hal/include/can.h"
 803              		.file 27 ".//ChibiOS//os/hal/ports/STM32/LLD/CANv1/can_lld.h"
 804              		.file 28 ".//ChibiOS//os/hal/include/dac.h"
 805              		.file 29 ".//ChibiOS//os/hal/ports/STM32/LLD/DACv1/dac_lld.h"
 806              		.file 30 ".//ChibiOS//os/hal/include/ext.h"
 807              		.file 31 ".//ChibiOS//os/hal/ports/STM32/LLD/EXTIv1/ext_lld.h"
 808              		.file 32 ".//ChibiOS//os/hal/include/gpt.h"
 809              		.file 33 ".//ChibiOS//os/hal/ports/STM32/LLD/TIMv1/gpt_lld.h"
 810              		.file 34 ".//ChibiOS//os/hal/ports/STM32/LLD/TIMv1/stm32_tim.h"
 811              		.file 35 ".//ChibiOS//os/hal/include/i2c.h"
 812              		.file 36 ".//ChibiOS//os/hal/ports/STM32/LLD/I2Cv1/i2c_lld.h"
 813              		.file 37 ".//ChibiOS//os/hal/include/i2s.h"
 814              		.file 38 ".//ChibiOS//os/hal/ports/STM32/LLD/SPIv1/i2s_lld.h"
 815              		.file 39 ".//ChibiOS//os/hal/include/pwm.h"
 816              		.file 40 ".//ChibiOS//os/hal/ports/STM32/LLD/TIMv1/pwm_lld.h"
 817              		.file 41 ".//ChibiOS//os/hal/include/serial.h"
 818              		.file 42 ".//ChibiOS//os/hal/ports/STM32/LLD/USARTv1/serial_lld.h"
 819              		.file 43 ".//ChibiOS//os/hal/include/sdc.h"
 820              		.file 44 ".//ChibiOS//os/hal/ports/STM32/LLD/SDIOv1/sdc_lld.h"
 821              		.file 45 ".//ChibiOS//os/hal/include/spi.h"
 822              		.file 46 ".//ChibiOS//os/hal/ports/STM32/LLD/SPIv1/spi_lld.h"
 823              		.file 47 ".//ChibiOS//os/hal/include/usb.h"
 824              		.file 48 ".//ChibiOS//os/hal/ports/STM32/LLD/OTGv1/usb_lld.h"
 825              		.file 49 ".//ChibiOS//os/hal/ports/STM32/LLD/OTGv1/stm32_otg.h"
 826              		.file 50 ".//ChibiOS_ext/os/hal/include/../ports/STM32/STM32F4xx/dcmi_lld.h"
 827              		.file 51 ".//src/epuck1x/../camera/camera.h"
 828              		.file 52 ".//src/epuck1x/../camera/dcmi_camera.h"
 829              		.file 53 "d:\\eclipse_e-puck2_win32_11_apr_2018\\eclipse_e-puck2\\tools\\gcc-arm-none-eabi-7-2017-
 830              		.file 54 "d:\\eclipse_e-puck2_win32_11_apr_2018\\eclipse_e-puck2\\tools\\gcc-arm-none-eabi-7-2017-
 831              		.file 55 "d:\\eclipse_e-puck2_win32_11_apr_2018\\eclipse_e-puck2\\tools\\gcc-arm-none-eabi-7-2017-
 832              		.file 56 "d:\\eclipse_e-puck2_win32_11_apr_2018\\eclipse_e-puck2\\tools\\gcc-arm-none-eabi-7-2017-
 833              		.file 57 ".//src/epuck1x/../spi_comm.h"