ARM GAS  C:\Users\25521\AppData\Local\Temp\cciU4PsR.s 			page 1


   1              		.cpu cortex-m4
   2              		.eabi_attribute 27, 1
   3              		.eabi_attribute 28, 1
   4              		.eabi_attribute 20, 1
   5              		.eabi_attribute 21, 1
   6              		.eabi_attribute 23, 3
   7              		.eabi_attribute 24, 1
   8              		.eabi_attribute 25, 1
   9              		.eabi_attribute 26, 1
  10              		.eabi_attribute 30, 2
  11              		.eabi_attribute 34, 1
  12              		.eabi_attribute 18, 4
  13              		.file	"ext_lld.c"
  14              		.text
  15              	.Ltext0:
  16              		.cfi_sections	.debug_frame
  17              		.section	.text.ext_lld_init,"ax",%progbits
  18              		.align	1
  19              		.p2align 4,,15
  20              		.global	ext_lld_init
  21              		.syntax unified
  22              		.thumb
  23              		.thumb_func
  24              		.fpu fpv4-sp-d16
  25              		.type	ext_lld_init, %function
  26              	ext_lld_init:
  27              	.LFB267:
  28              		.file 1 ".//ChibiOS//os/hal/ports/STM32/LLD/EXTIv1/ext_lld.c"
  29              		.loc 1 63 0
  30              		.cfi_startproc
  31              		@ args = 0, pretend = 0, frame = 8
  32              		@ frame_needed = 0, uses_anonymous_args = 0
  33 0000 00B5     		push	{lr}
  34              		.cfi_def_cfa_offset 4
  35              		.cfi_offset 14, -4
  36 0002 084B     		ldr	r3, .L7
  37 0004 83B0     		sub	sp, sp, #12
  38              		.cfi_def_cfa_offset 16
  39              		.loc 1 63 0
  40 0006 1A68     		ldr	r2, [r3]
  41 0008 0192     		str	r2, [sp, #4]
  42              		.loc 1 66 0
  43 000a 019A     		ldr	r2, [sp, #4]
  44 000c 1B68     		ldr	r3, [r3]
  45 000e 9A42     		cmp	r2, r3
  46 0010 05D1     		bne	.L6
  47 0012 0548     		ldr	r0, .L7+4
  48              		.loc 1 67 0
  49 0014 03B0     		add	sp, sp, #12
  50              		.cfi_remember_state
  51              		.cfi_def_cfa_offset 4
  52              		@ sp needed
  53 0016 5DF804EB 		ldr	lr, [sp], #4
  54              		.cfi_restore 14
  55              		.cfi_def_cfa_offset 0
  56              		.loc 1 66 0
  57 001a FFF7FEBF 		b	extObjectInit
ARM GAS  C:\Users\25521\AppData\Local\Temp\cciU4PsR.s 			page 2


  58              	.LVL0:
  59              	.L6:
  60              		.cfi_restore_state
  61 001e FFF7FEFF 		bl	__stack_chk_fail
  62              	.LVL1:
  63              	.L8:
  64 0022 00BF     		.align	2
  65              	.L7:
  66 0024 00000000 		.word	__stack_chk_guard
  67 0028 00000000 		.word	.LANCHOR0
  68              		.cfi_endproc
  69              	.LFE267:
  70              		.size	ext_lld_init, .-ext_lld_init
  71              		.section	.text.ext_lld_stop,"ax",%progbits
  72              		.align	1
  73              		.p2align 4,,15
  74              		.global	ext_lld_stop
  75              		.syntax unified
  76              		.thumb
  77              		.thumb_func
  78              		.fpu fpv4-sp-d16
  79              		.type	ext_lld_stop, %function
  80              	ext_lld_stop:
  81              	.LFB269:
  82              		.loc 1 97 0
  83              		.cfi_startproc
  84              		@ args = 0, pretend = 0, frame = 8
  85              		@ frame_needed = 0, uses_anonymous_args = 0
  86              	.LVL2:
  87 0000 10B5     		push	{r4, lr}
  88              		.cfi_def_cfa_offset 8
  89              		.cfi_offset 4, -8
  90              		.cfi_offset 14, -4
  91              		.loc 1 99 0
  92 0002 0378     		ldrb	r3, [r0]	@ zero_extendqisi2
  93              		.loc 1 97 0
  94 0004 0B4C     		ldr	r4, .L15
  95 0006 82B0     		sub	sp, sp, #8
  96              		.cfi_def_cfa_offset 16
  97              		.loc 1 97 0
  98 0008 2268     		ldr	r2, [r4]
  99 000a 0192     		str	r2, [sp, #4]
 100              		.loc 1 99 0
 101 000c 022B     		cmp	r3, #2
 102 000e 0CD0     		beq	.L13
 103              	.LVL3:
 104              	.L10:
 105              		.loc 1 102 0
 106 0010 094B     		ldr	r3, .L15+4
 107 0012 0022     		movs	r2, #0
 108              		.loc 1 104 0
 109 0014 4FF0FF31 		mov	r1, #-1
 110              		.loc 1 102 0
 111 0018 5A60     		str	r2, [r3, #4]
 112              		.loc 1 103 0
 113 001a 1A60     		str	r2, [r3]
 114              		.loc 1 104 0
ARM GAS  C:\Users\25521\AppData\Local\Temp\cciU4PsR.s 			page 3


 115 001c 5961     		str	r1, [r3, #20]
 116              		.loc 1 109 0
 117 001e 019A     		ldr	r2, [sp, #4]
 118 0020 2368     		ldr	r3, [r4]
 119 0022 9A42     		cmp	r2, r3
 120 0024 04D1     		bne	.L14
 121 0026 02B0     		add	sp, sp, #8
 122              		.cfi_remember_state
 123              		.cfi_def_cfa_offset 8
 124              		@ sp needed
 125 0028 10BD     		pop	{r4, pc}
 126              	.LVL4:
 127              	.L13:
 128              		.cfi_restore_state
 129              		.loc 1 100 0
 130 002a FFF7FEFF 		bl	ext_lld_exti_irq_disable
 131              	.LVL5:
 132 002e EFE7     		b	.L10
 133              	.L14:
 134              		.loc 1 109 0
 135 0030 FFF7FEFF 		bl	__stack_chk_fail
 136              	.LVL6:
 137              	.L16:
 138              		.align	2
 139              	.L15:
 140 0034 00000000 		.word	__stack_chk_guard
 141 0038 003C0140 		.word	1073822720
 142              		.cfi_endproc
 143              	.LFE269:
 144              		.size	ext_lld_stop, .-ext_lld_stop
 145              		.section	.text.ext_lld_channel_enable,"ax",%progbits
 146              		.align	1
 147              		.p2align 4,,15
 148              		.global	ext_lld_channel_enable
 149              		.syntax unified
 150              		.thumb
 151              		.thumb_func
 152              		.fpu fpv4-sp-d16
 153              		.type	ext_lld_channel_enable, %function
 154              	ext_lld_channel_enable:
 155              	.LFB270:
 156              		.loc 1 119 0
 157              		.cfi_startproc
 158              		@ args = 0, pretend = 0, frame = 8
 159              		@ frame_needed = 0, uses_anonymous_args = 0
 160              	.LVL7:
 161 0000 F0B5     		push	{r4, r5, r6, r7, lr}
 162              		.cfi_def_cfa_offset 20
 163              		.cfi_offset 4, -20
 164              		.cfi_offset 5, -16
 165              		.cfi_offset 6, -12
 166              		.cfi_offset 7, -8
 167              		.cfi_offset 14, -4
 168 0002 2B4D     		ldr	r5, .L28
 169 0004 4268     		ldr	r2, [r0, #4]
 170 0006 2B68     		ldr	r3, [r5]
 171 0008 52F83120 		ldr	r2, [r2, r1, lsl #3]
ARM GAS  C:\Users\25521\AppData\Local\Temp\cciU4PsR.s 			page 4


 172 000c 83B0     		sub	sp, sp, #12
 173              		.cfi_def_cfa_offset 32
 174              		.loc 1 120 0
 175 000e 0124     		movs	r4, #1
 176              		.loc 1 119 0
 177 0010 0193     		str	r3, [sp, #4]
 178              		.loc 1 123 0
 179 0012 0F29     		cmp	r1, #15
 180              		.loc 1 120 0
 181 0014 01F01F03 		and	r3, r1, #31
 182 0018 04FA03F3 		lsl	r3, r4, r3
 183              	.LVL8:
 184              		.loc 1 123 0
 185 001c 17D8     		bhi	.L18
 186              	.LVL9:
 187 001e 21F00307 		bic	r7, r1, #3
 188 0022 07F18047 		add	r7, r7, #1073741824
 189 0026 07F59C37 		add	r7, r7, #79872
 190              	.LBB4:
 191              		.loc 1 125 0
 192 002a 01F00304 		and	r4, r1, #3
 193 002e A400     		lsls	r4, r4, #2
 194              	.LVL10:
 195              		.loc 1 133 0
 196 0030 BE68     		ldr	r6, [r7, #8]
 197              		.loc 1 125 0
 198 0032 4FF00F0C 		mov	ip, #15
 199              		.loc 1 127 0
 200 0036 C2F30312 		ubfx	r2, r2, #4, #4
 201              	.LVL11:
 202              		.loc 1 125 0
 203 003a 0CFA04FC 		lsl	ip, ip, r4
 204              		.loc 1 126 0
 205 003e A240     		lsls	r2, r2, r4
 206              		.loc 1 133 0
 207 0040 26EA0C04 		bic	r4, r6, ip
 208              	.LVL12:
 209 0044 1443     		orrs	r4, r4, r2
 210 0046 BC60     		str	r4, [r7, #8]
 211              	.LVL13:
 212 0048 4268     		ldr	r2, [r0, #4]
 213 004a 52F83120 		ldr	r2, [r2, r1, lsl #3]
 214              	.LVL14:
 215              	.L18:
 216              	.LBE4:
 217              		.loc 1 147 0
 218 004e 194E     		ldr	r6, .L28+4
 219              		.loc 1 146 0
 220 0050 12F0010F 		tst	r2, #1
 221              		.loc 1 147 0
 222 0054 B268     		ldr	r2, [r6, #8]
 223 0056 6FEA0304 		mvn	r4, r3
 224 005a 14BF     		ite	ne
 225 005c 1A43     		orrne	r2, r2, r3
 226              		.loc 1 149 0
 227 005e 2240     		andeq	r2, r2, r4
 228 0060 B260     		str	r2, [r6, #8]
ARM GAS  C:\Users\25521\AppData\Local\Temp\cciU4PsR.s 			page 5


 229              		.loc 1 150 0
 230 0062 4268     		ldr	r2, [r0, #4]
 231              		.loc 1 151 0
 232 0064 134E     		ldr	r6, .L28+4
 233              		.loc 1 150 0
 234 0066 52F83120 		ldr	r2, [r2, r1, lsl #3]
 235 006a 12F0020F 		tst	r2, #2
 236              		.loc 1 151 0
 237 006e F268     		ldr	r2, [r6, #12]
 238 0070 14BF     		ite	ne
 239 0072 1A43     		orrne	r2, r2, r3
 240              		.loc 1 153 0
 241 0074 2240     		andeq	r2, r2, r4
 242 0076 F260     		str	r2, [r6, #12]
 243              		.loc 1 156 0
 244 0078 4268     		ldr	r2, [r0, #4]
 245 007a 02EBC101 		add	r1, r2, r1, lsl #3
 246              	.LVL15:
 247 007e 4A68     		ldr	r2, [r1, #4]
 248 0080 62B1     		cbz	r2, .L23
 249              		.loc 1 157 0
 250 0082 0C4A     		ldr	r2, .L28+4
 251 0084 1168     		ldr	r1, [r2]
 252 0086 0B43     		orrs	r3, r3, r1
 253              	.LVL16:
 254 0088 1360     		str	r3, [r2]
 255              		.loc 1 158 0
 256 008a 5368     		ldr	r3, [r2, #4]
 257 008c 1C40     		ands	r4, r4, r3
 258              	.LVL17:
 259 008e 5460     		str	r4, [r2, #4]
 260              	.L17:
 261              		.loc 1 193 0
 262 0090 019A     		ldr	r2, [sp, #4]
 263 0092 2B68     		ldr	r3, [r5]
 264 0094 9A42     		cmp	r2, r3
 265 0096 09D1     		bne	.L27
 266 0098 03B0     		add	sp, sp, #12
 267              		.cfi_remember_state
 268              		.cfi_def_cfa_offset 20
 269              		@ sp needed
 270 009a F0BD     		pop	{r4, r5, r6, r7, pc}
 271              	.LVL18:
 272              	.L23:
 273              		.cfi_restore_state
 274              		.loc 1 161 0
 275 009c 054A     		ldr	r2, .L28+4
 276 009e 5168     		ldr	r1, [r2, #4]
 277 00a0 0B43     		orrs	r3, r3, r1
 278              	.LVL19:
 279 00a2 5360     		str	r3, [r2, #4]
 280              		.loc 1 162 0
 281 00a4 1368     		ldr	r3, [r2]
 282 00a6 1C40     		ands	r4, r4, r3
 283              	.LVL20:
 284 00a8 1460     		str	r4, [r2]
 285 00aa F1E7     		b	.L17
ARM GAS  C:\Users\25521\AppData\Local\Temp\cciU4PsR.s 			page 6


 286              	.L27:
 287              		.loc 1 193 0
 288 00ac FFF7FEFF 		bl	__stack_chk_fail
 289              	.LVL21:
 290              	.L29:
 291              		.align	2
 292              	.L28:
 293 00b0 00000000 		.word	__stack_chk_guard
 294 00b4 003C0140 		.word	1073822720
 295              		.cfi_endproc
 296              	.LFE270:
 297              		.size	ext_lld_channel_enable, .-ext_lld_channel_enable
 298              		.section	.text.ext_lld_start,"ax",%progbits
 299              		.align	1
 300              		.p2align 4,,15
 301              		.global	ext_lld_start
 302              		.syntax unified
 303              		.thumb
 304              		.thumb_func
 305              		.fpu fpv4-sp-d16
 306              		.type	ext_lld_start, %function
 307              	ext_lld_start:
 308              	.LFB268:
 309              		.loc 1 76 0
 310              		.cfi_startproc
 311              		@ args = 0, pretend = 0, frame = 8
 312              		@ frame_needed = 0, uses_anonymous_args = 0
 313              	.LVL22:
 314 0000 2DE9F041 		push	{r4, r5, r6, r7, r8, lr}
 315              		.cfi_def_cfa_offset 24
 316              		.cfi_offset 4, -24
 317              		.cfi_offset 5, -20
 318              		.cfi_offset 6, -16
 319              		.cfi_offset 7, -12
 320              		.cfi_offset 8, -8
 321              		.cfi_offset 14, -4
 322 0004 1B4E     		ldr	r6, .L41
 323              		.loc 1 79 0
 324 0006 0378     		ldrb	r3, [r0]	@ zero_extendqisi2
 325              		.loc 1 76 0
 326 0008 3268     		ldr	r2, [r6]
 327 000a 82B0     		sub	sp, sp, #8
 328              		.cfi_def_cfa_offset 32
 329              		.loc 1 79 0
 330 000c 012B     		cmp	r3, #1
 331              		.loc 1 76 0
 332 000e 0746     		mov	r7, r0
 333 0010 0192     		str	r2, [sp, #4]
 334              		.loc 1 79 0
 335 0012 2AD0     		beq	.L38
 336              	.LVL23:
 337              	.L31:
 338              	.LBB5:
 339              	.LBB6:
 340              		.loc 1 211 0
 341 0014 184C     		ldr	r4, .L41+4
 342              	.LBE6:
ARM GAS  C:\Users\25521\AppData\Local\Temp\cciU4PsR.s 			page 7


 343              	.LBE5:
 344              		.loc 1 76 0
 345 0016 0025     		movs	r5, #0
 346              	.LBB10:
 347              	.LBB7:
 348              		.loc 1 204 0
 349 0018 4FF00108 		mov	r8, #1
 350 001c 12E0     		b	.L34
 351              	.LVL24:
 352              	.L32:
 353              		.loc 1 211 0
 354 001e 2168     		ldr	r1, [r4]
 355              		.loc 1 204 0
 356 0020 08FA05F2 		lsl	r2, r8, r5
 357              		.loc 1 211 0
 358 0024 D343     		mvns	r3, r2
 359 0026 1940     		ands	r1, r1, r3
 360 0028 2160     		str	r1, [r4]
 361              		.loc 1 212 0
 362 002a 6168     		ldr	r1, [r4, #4]
 363 002c 1940     		ands	r1, r1, r3
 364 002e 6160     		str	r1, [r4, #4]
 365              		.loc 1 213 0
 366 0030 A168     		ldr	r1, [r4, #8]
 367 0032 1940     		ands	r1, r1, r3
 368 0034 A160     		str	r1, [r4, #8]
 369              		.loc 1 214 0
 370 0036 E168     		ldr	r1, [r4, #12]
 371              	.LBE7:
 372              	.LBE10:
 373              		.loc 1 83 0
 374 0038 0135     		adds	r5, r5, #1
 375              	.LVL25:
 376              	.LBB11:
 377              	.LBB8:
 378              		.loc 1 214 0
 379 003a 0B40     		ands	r3, r3, r1
 380              	.LBE8:
 381              	.LBE11:
 382              		.loc 1 83 0
 383 003c 172D     		cmp	r5, #23
 384              	.LBB12:
 385              	.LBB9:
 386              		.loc 1 214 0
 387 003e E360     		str	r3, [r4, #12]
 388              		.loc 1 215 0
 389 0040 6261     		str	r2, [r4, #20]
 390              	.LBE9:
 391              	.LBE12:
 392              		.loc 1 83 0
 393 0042 0BD0     		beq	.L39
 394              	.LVL26:
 395              	.L34:
 396              		.loc 1 84 0
 397 0044 7B68     		ldr	r3, [r7, #4]
 398 0046 53F83530 		ldr	r3, [r3, r5, lsl #3]
 399 004a 5B07     		lsls	r3, r3, #29
ARM GAS  C:\Users\25521\AppData\Local\Temp\cciU4PsR.s 			page 8


 400 004c E7D5     		bpl	.L32
 401              		.loc 1 85 0
 402 004e 2946     		mov	r1, r5
 403 0050 3846     		mov	r0, r7
 404              		.loc 1 83 0
 405 0052 0135     		adds	r5, r5, #1
 406              	.LVL27:
 407              		.loc 1 85 0
 408 0054 FFF7FEFF 		bl	ext_lld_channel_enable
 409              	.LVL28:
 410              		.loc 1 83 0
 411 0058 172D     		cmp	r5, #23
 412 005a F3D1     		bne	.L34
 413              	.L39:
 414              		.loc 1 88 0
 415 005c 019A     		ldr	r2, [sp, #4]
 416 005e 3368     		ldr	r3, [r6]
 417 0060 9A42     		cmp	r2, r3
 418 0062 05D1     		bne	.L40
 419 0064 02B0     		add	sp, sp, #8
 420              		.cfi_remember_state
 421              		.cfi_def_cfa_offset 24
 422              		@ sp needed
 423 0066 BDE8F081 		pop	{r4, r5, r6, r7, r8, pc}
 424              	.LVL29:
 425              	.L38:
 426              		.cfi_restore_state
 427              		.loc 1 80 0
 428 006a FFF7FEFF 		bl	ext_lld_exti_irq_enable
 429              	.LVL30:
 430 006e D1E7     		b	.L31
 431              	.LVL31:
 432              	.L40:
 433              		.loc 1 88 0
 434 0070 FFF7FEFF 		bl	__stack_chk_fail
 435              	.LVL32:
 436              	.L42:
 437              		.align	2
 438              	.L41:
 439 0074 00000000 		.word	__stack_chk_guard
 440 0078 003C0140 		.word	1073822720
 441              		.cfi_endproc
 442              	.LFE268:
 443              		.size	ext_lld_start, .-ext_lld_start
 444              		.section	.text.ext_lld_channel_disable,"ax",%progbits
 445              		.align	1
 446              		.p2align 4,,15
 447              		.global	ext_lld_channel_disable
 448              		.syntax unified
 449              		.thumb
 450              		.thumb_func
 451              		.fpu fpv4-sp-d16
 452              		.type	ext_lld_channel_disable, %function
 453              	ext_lld_channel_disable:
 454              	.LFB271:
 455              		.loc 1 203 0
 456              		.cfi_startproc
ARM GAS  C:\Users\25521\AppData\Local\Temp\cciU4PsR.s 			page 9


 457              		@ args = 0, pretend = 0, frame = 8
 458              		@ frame_needed = 0, uses_anonymous_args = 0
 459              	.LVL33:
 460 0000 10B5     		push	{r4, lr}
 461              		.cfi_def_cfa_offset 8
 462              		.cfi_offset 4, -8
 463              		.cfi_offset 14, -4
 464 0002 104C     		ldr	r4, .L47
 465              		.loc 1 211 0
 466 0004 104B     		ldr	r3, .L47+4
 467              		.loc 1 203 0
 468 0006 2268     		ldr	r2, [r4]
 469 0008 82B0     		sub	sp, sp, #8
 470              		.cfi_def_cfa_offset 16
 471              		.loc 1 204 0
 472 000a 01F01F01 		and	r1, r1, #31
 473              	.LVL34:
 474              		.loc 1 203 0
 475 000e 0192     		str	r2, [sp, #4]
 476              		.loc 1 204 0
 477 0010 0122     		movs	r2, #1
 478              		.loc 1 211 0
 479 0012 1868     		ldr	r0, [r3]
 480              	.LVL35:
 481              		.loc 1 204 0
 482 0014 02FA01F1 		lsl	r1, r2, r1
 483              	.LVL36:
 484              		.loc 1 211 0
 485 0018 CA43     		mvns	r2, r1
 486 001a 1040     		ands	r0, r0, r2
 487 001c 1860     		str	r0, [r3]
 488              		.loc 1 212 0
 489 001e 5868     		ldr	r0, [r3, #4]
 490 0020 1040     		ands	r0, r0, r2
 491 0022 5860     		str	r0, [r3, #4]
 492              		.loc 1 213 0
 493 0024 9868     		ldr	r0, [r3, #8]
 494 0026 1040     		ands	r0, r0, r2
 495 0028 9860     		str	r0, [r3, #8]
 496              		.loc 1 214 0
 497 002a D868     		ldr	r0, [r3, #12]
 498 002c 0240     		ands	r2, r2, r0
 499 002e DA60     		str	r2, [r3, #12]
 500              		.loc 1 215 0
 501 0030 5961     		str	r1, [r3, #20]
 502              		.loc 1 226 0
 503 0032 019A     		ldr	r2, [sp, #4]
 504 0034 2368     		ldr	r3, [r4]
 505 0036 9A42     		cmp	r2, r3
 506 0038 01D1     		bne	.L46
 507 003a 02B0     		add	sp, sp, #8
 508              		.cfi_remember_state
 509              		.cfi_def_cfa_offset 8
 510              		@ sp needed
 511 003c 10BD     		pop	{r4, pc}
 512              	.L46:
 513              		.cfi_restore_state
ARM GAS  C:\Users\25521\AppData\Local\Temp\cciU4PsR.s 			page 10


 514 003e FFF7FEFF 		bl	__stack_chk_fail
 515              	.LVL37:
 516              	.L48:
 517 0042 00BF     		.align	2
 518              	.L47:
 519 0044 00000000 		.word	__stack_chk_guard
 520 0048 003C0140 		.word	1073822720
 521              		.cfi_endproc
 522              	.LFE271:
 523              		.size	ext_lld_channel_disable, .-ext_lld_channel_disable
 524              		.global	EXTD1
 525              		.section	.bss.EXTD1,"aw",%nobits
 526              		.align	2
 527              		.set	.LANCHOR0,. + 0
 528              		.type	EXTD1, %object
 529              		.size	EXTD1, 8
 530              	EXTD1:
 531 0000 00000000 		.space	8
 531      00000000 
 532              		.text
 533              	.Letext0:
 534              		.file 2 "d:\\eclipse_e-puck2_win32_11_apr_2018\\eclipse_e-puck2\\tools\\gcc-arm-none-eabi-7-2017-q
 535              		.file 3 "d:\\eclipse_e-puck2_win32_11_apr_2018\\eclipse_e-puck2\\tools\\gcc-arm-none-eabi-7-2017-q
 536              		.file 4 "d:\\eclipse_e-puck2_win32_11_apr_2018\\eclipse_e-puck2\\tools\\gcc-arm-none-eabi-7-2017-q
 537              		.file 5 ".//ChibiOS//os/rt/ports/ARMCMx/compilers/GCC/chtypes.h"
 538              		.file 6 ".//ChibiOS//os/rt/include/chsystypes.h"
 539              		.file 7 ".//ChibiOS//os/rt/include/chschd.h"
 540              		.file 8 ".//ChibiOS//os/ext/CMSIS/include/core_cm4.h"
 541              		.file 9 ".//ChibiOS//os/ext/CMSIS/ST/system_stm32f4xx.h"
 542              		.file 10 ".//ChibiOS//os/ext/CMSIS/ST/stm32f407xx.h"
 543              		.file 11 ".//ChibiOS//os/rt/ports/ARMCMx/chcore.h"
 544              		.file 12 ".//ChibiOS//os/rt/ports/ARMCMx/chcore_v7m.h"
 545              		.file 13 ".//ChibiOS//os/rt/include/chdebug.h"
 546              		.file 14 ".//ChibiOS//os/rt/include/chtm.h"
 547              		.file 15 ".//ChibiOS//os/rt/include/chstats.h"
 548              		.file 16 ".//ChibiOS//os/rt/include/chsem.h"
 549              		.file 17 ".//ChibiOS//os/rt/include/chmtx.h"
 550              		.file 18 ".//ChibiOS//os/rt/include/chregistry.h"
 551              		.file 19 ".//ChibiOS//os/rt/include/chevents.h"
 552              		.file 20 ".//ChibiOS//os/rt/include/chqueues.h"
 553              		.file 21 ".//ChibiOS//os/hal/ports/STM32/LLD/DMAv2/stm32_dma.h"
 554              		.file 22 ".//ChibiOS//os/hal/include/hal_ioblock.h"
 555              		.file 23 ".//ChibiOS//os/hal/ports/STM32/LLD/GPIOv2/pal_lld.h"
 556              		.file 24 ".//ChibiOS//os/hal/include/adc.h"
 557              		.file 25 ".//ChibiOS//os/hal/ports/STM32/LLD/ADCv2/adc_lld.h"
 558              		.file 26 ".//ChibiOS//os/hal/include/can.h"
 559              		.file 27 ".//ChibiOS//os/hal/ports/STM32/LLD/CANv1/can_lld.h"
 560              		.file 28 ".//ChibiOS//os/hal/include/dac.h"
 561              		.file 29 ".//ChibiOS//os/hal/ports/STM32/LLD/DACv1/dac_lld.h"
 562              		.file 30 ".//ChibiOS//os/hal/include/ext.h"
 563              		.file 31 ".//ChibiOS//os/hal/ports/STM32/LLD/EXTIv1/ext_lld.h"
 564              		.file 32 ".//ChibiOS//os/hal/include/gpt.h"
 565              		.file 33 ".//ChibiOS//os/hal/ports/STM32/LLD/TIMv1/gpt_lld.h"
 566              		.file 34 ".//ChibiOS//os/hal/ports/STM32/LLD/TIMv1/stm32_tim.h"
 567              		.file 35 ".//ChibiOS//os/hal/include/i2c.h"
 568              		.file 36 ".//ChibiOS//os/hal/ports/STM32/LLD/I2Cv1/i2c_lld.h"
 569              		.file 37 ".//ChibiOS//os/hal/include/i2s.h"
ARM GAS  C:\Users\25521\AppData\Local\Temp\cciU4PsR.s 			page 11


 570              		.file 38 ".//ChibiOS//os/hal/ports/STM32/LLD/SPIv1/i2s_lld.h"
 571              		.file 39 ".//ChibiOS//os/hal/include/pwm.h"
 572              		.file 40 ".//ChibiOS//os/hal/ports/STM32/LLD/TIMv1/pwm_lld.h"
 573              		.file 41 ".//ChibiOS//os/hal/include/serial.h"
 574              		.file 42 ".//ChibiOS//os/hal/ports/STM32/LLD/USARTv1/serial_lld.h"
 575              		.file 43 ".//ChibiOS//os/hal/include/sdc.h"
 576              		.file 44 ".//ChibiOS//os/hal/ports/STM32/LLD/SDIOv1/sdc_lld.h"
 577              		.file 45 ".//ChibiOS//os/hal/include/spi.h"
 578              		.file 46 ".//ChibiOS//os/hal/ports/STM32/LLD/SPIv1/spi_lld.h"
 579              		.file 47 ".//ChibiOS//os/hal/include/usb.h"
 580              		.file 48 ".//ChibiOS//os/hal/ports/STM32/LLD/OTGv1/usb_lld.h"
 581              		.file 49 ".//ChibiOS//os/hal/ports/STM32/LLD/OTGv1/stm32_otg.h"
 582              		.file 50 ".//ChibiOS//os/hal/ports/STM32/STM32F4xx/ext_lld_isr.h"