ARM GAS  C:\Users\25521\AppData\Local\Temp\ccMD7kWJ.s 			page 1


   1              		.cpu cortex-m4
   2              		.eabi_attribute 27, 1
   3              		.eabi_attribute 28, 1
   4              		.eabi_attribute 20, 1
   5              		.eabi_attribute 21, 1
   6              		.eabi_attribute 23, 3
   7              		.eabi_attribute 24, 1
   8              		.eabi_attribute 25, 1
   9              		.eabi_attribute 26, 1
  10              		.eabi_attribute 30, 2
  11              		.eabi_attribute 34, 1
  12              		.eabi_attribute 18, 4
  13              		.file	"gpt.c"
  14              		.text
  15              	.Ltext0:
  16              		.cfi_sections	.debug_frame
  17              		.section	.text.gptInit,"ax",%progbits
  18              		.align	1
  19              		.p2align 4,,15
  20              		.global	gptInit
  21              		.syntax unified
  22              		.thumb
  23              		.thumb_func
  24              		.fpu fpv4-sp-d16
  25              		.type	gptInit, %function
  26              	gptInit:
  27              	.LFB267:
  28              		.file 1 ".//ChibiOS//os/hal/src/gpt.c"
  29              		.loc 1 56 0
  30              		.cfi_startproc
  31              		@ args = 0, pretend = 0, frame = 8
  32              		@ frame_needed = 0, uses_anonymous_args = 0
  33 0000 00B5     		push	{lr}
  34              		.cfi_def_cfa_offset 4
  35              		.cfi_offset 14, -4
  36 0002 074B     		ldr	r3, .L7
  37 0004 83B0     		sub	sp, sp, #12
  38              		.cfi_def_cfa_offset 16
  39              		.loc 1 56 0
  40 0006 1A68     		ldr	r2, [r3]
  41 0008 0192     		str	r2, [sp, #4]
  42              		.loc 1 58 0
  43 000a 019A     		ldr	r2, [sp, #4]
  44 000c 1B68     		ldr	r3, [r3]
  45 000e 9A42     		cmp	r2, r3
  46 0010 04D1     		bne	.L6
  47              		.loc 1 59 0
  48 0012 03B0     		add	sp, sp, #12
  49              		.cfi_remember_state
  50              		.cfi_def_cfa_offset 4
  51              		@ sp needed
  52 0014 5DF804EB 		ldr	lr, [sp], #4
  53              		.cfi_restore 14
  54              		.cfi_def_cfa_offset 0
  55              		.loc 1 58 0
  56 0018 FFF7FEBF 		b	gpt_lld_init
  57              	.LVL0:
ARM GAS  C:\Users\25521\AppData\Local\Temp\ccMD7kWJ.s 			page 2


  58              	.L6:
  59              		.cfi_restore_state
  60 001c FFF7FEFF 		bl	__stack_chk_fail
  61              	.LVL1:
  62              	.L8:
  63              		.align	2
  64              	.L7:
  65 0020 00000000 		.word	__stack_chk_guard
  66              		.cfi_endproc
  67              	.LFE267:
  68              		.size	gptInit, .-gptInit
  69              		.section	.text.gptObjectInit,"ax",%progbits
  70              		.align	1
  71              		.p2align 4,,15
  72              		.global	gptObjectInit
  73              		.syntax unified
  74              		.thumb
  75              		.thumb_func
  76              		.fpu fpv4-sp-d16
  77              		.type	gptObjectInit, %function
  78              	gptObjectInit:
  79              	.LFB268:
  80              		.loc 1 68 0
  81              		.cfi_startproc
  82              		@ args = 0, pretend = 0, frame = 8
  83              		@ frame_needed = 0, uses_anonymous_args = 0
  84              	.LVL2:
  85 0000 00B5     		push	{lr}
  86              		.cfi_def_cfa_offset 4
  87              		.cfi_offset 14, -4
  88 0002 084B     		ldr	r3, .L13
  89 0004 83B0     		sub	sp, sp, #12
  90              		.cfi_def_cfa_offset 16
  91              		.loc 1 68 0
  92 0006 1A68     		ldr	r2, [r3]
  93 0008 0192     		str	r2, [sp, #4]
  94              		.loc 1 70 0
  95 000a 0122     		movs	r2, #1
  96 000c 0270     		strb	r2, [r0]
  97              		.loc 1 72 0
  98 000e 019A     		ldr	r2, [sp, #4]
  99 0010 1B68     		ldr	r3, [r3]
 100              		.loc 1 71 0
 101 0012 0021     		movs	r1, #0
 102              		.loc 1 72 0
 103 0014 9A42     		cmp	r2, r3
 104              		.loc 1 71 0
 105 0016 4160     		str	r1, [r0, #4]
 106              		.loc 1 72 0
 107 0018 02D1     		bne	.L12
 108 001a 03B0     		add	sp, sp, #12
 109              		.cfi_remember_state
 110              		.cfi_def_cfa_offset 4
 111              		@ sp needed
 112 001c 5DF804FB 		ldr	pc, [sp], #4
 113              	.L12:
 114              		.cfi_restore_state
ARM GAS  C:\Users\25521\AppData\Local\Temp\ccMD7kWJ.s 			page 3


 115 0020 FFF7FEFF 		bl	__stack_chk_fail
 116              	.LVL3:
 117              	.L14:
 118              		.align	2
 119              	.L13:
 120 0024 00000000 		.word	__stack_chk_guard
 121              		.cfi_endproc
 122              	.LFE268:
 123              		.size	gptObjectInit, .-gptObjectInit
 124              		.section	.text.gptStart,"ax",%progbits
 125              		.align	1
 126              		.p2align 4,,15
 127              		.global	gptStart
 128              		.syntax unified
 129              		.thumb
 130              		.thumb_func
 131              		.fpu fpv4-sp-d16
 132              		.type	gptStart, %function
 133              	gptStart:
 134              	.LFB269:
 135              		.loc 1 82 0
 136              		.cfi_startproc
 137              		@ args = 0, pretend = 0, frame = 8
 138              		@ frame_needed = 0, uses_anonymous_args = 0
 139              	.LVL4:
 140 0000 70B5     		push	{r4, r5, r6, lr}
 141              		.cfi_def_cfa_offset 16
 142              		.cfi_offset 4, -16
 143              		.cfi_offset 5, -12
 144              		.cfi_offset 6, -8
 145              		.cfi_offset 14, -4
 146 0002 1E4D     		ldr	r5, .L27
 147 0004 82B0     		sub	sp, sp, #8
 148              		.cfi_def_cfa_offset 24
 149              		.loc 1 82 0
 150 0006 2B68     		ldr	r3, [r5]
 151 0008 0193     		str	r3, [sp, #4]
 152 000a 0E46     		mov	r6, r1
 153              		.loc 1 84 0
 154 000c 0446     		mov	r4, r0
 155 000e 70B3     		cbz	r0, .L16
 156              		.loc 1 84 0 is_stmt 0 discriminator 3
 157 0010 69B3     		cbz	r1, .L16
 158              	.LVL5:
 159              	.L17:
 160              	.LBB86:
 161              	.LBB87:
 162              	.LBB88:
 163              	.LBB89:
 164              	.LBB90:
 165              	.LBB91:
 166              		.file 2 ".//ChibiOS//os/ext/CMSIS/include/core_cmFunc.h"
 167              		.loc 2 548 0 is_stmt 1
 168 0012 2023     		movs	r3, #32
 169              		.syntax unified
 170              	@ 548 ".//ChibiOS//os/ext/CMSIS/include/core_cmFunc.h" 1
 171 0014 83F31188 		MSR basepri, r3
ARM GAS  C:\Users\25521\AppData\Local\Temp\ccMD7kWJ.s 			page 4


 172              	@ 0 "" 2
 173              	.LVL6:
 174              		.thumb
 175              		.syntax unified
 176              	.LBE91:
 177              	.LBE90:
 178              	.LBE89:
 179              		.file 3 ".//ChibiOS//os/rt/include/chsys.h"
 180              		.loc 3 349 0
 181 0018 FFF7FEFF 		bl	_stats_start_measure_crit_thd
 182              	.LVL7:
 183              		.loc 3 350 0
 184 001c FFF7FEFF 		bl	_dbg_check_lock
 185              	.LVL8:
 186              	.LBE88:
 187              	.LBE87:
 188              	.LBE86:
 189              		.loc 1 87 0
 190 0020 2378     		ldrb	r3, [r4]	@ zero_extendqisi2
 191 0022 013B     		subs	r3, r3, #1
 192 0024 012B     		cmp	r3, #1
 193 0026 02D9     		bls	.L18
 194              		.loc 1 87 0 is_stmt 0 discriminator 2
 195 0028 1548     		ldr	r0, .L27+4
 196 002a FFF7FEFF 		bl	chSysHalt
 197              	.LVL9:
 198              	.L18:
 199              		.loc 1 90 0 is_stmt 1
 200 002e 2046     		mov	r0, r4
 201              		.loc 1 89 0
 202 0030 6660     		str	r6, [r4, #4]
 203              		.loc 1 90 0
 204 0032 FFF7FEFF 		bl	gpt_lld_start
 205              	.LVL10:
 206              		.loc 1 91 0
 207 0036 0223     		movs	r3, #2
 208 0038 2370     		strb	r3, [r4]
 209              	.LBB92:
 210              	.LBB93:
 211              	.LBB94:
 212              		.loc 3 360 0
 213 003a FFF7FEFF 		bl	_dbg_check_unlock
 214              	.LVL11:
 215              		.loc 3 361 0
 216 003e FFF7FEFF 		bl	_stats_stop_measure_crit_thd
 217              	.LVL12:
 218              		.loc 3 367 0
 219 0042 104B     		ldr	r3, .L27+8
 220 0044 1A68     		ldr	r2, [r3]
 221 0046 9A42     		cmp	r2, r3
 222 0048 04D0     		beq	.L19
 223 004a 9969     		ldr	r1, [r3, #24]
 224 004c 9368     		ldr	r3, [r2, #8]
 225 004e 8A68     		ldr	r2, [r1, #8]
 226 0050 9A42     		cmp	r2, r3
 227 0052 08D3     		bcc	.L25
 228              	.L19:
ARM GAS  C:\Users\25521\AppData\Local\Temp\ccMD7kWJ.s 			page 5


 229              	.LVL13:
 230              	.LBB95:
 231              	.LBB96:
 232              	.LBB97:
 233              		.loc 2 548 0
 234 0054 0023     		movs	r3, #0
 235              		.syntax unified
 236              	@ 548 ".//ChibiOS//os/ext/CMSIS/include/core_cmFunc.h" 1
 237 0056 83F31188 		MSR basepri, r3
 238              	@ 0 "" 2
 239              	.LVL14:
 240              		.thumb
 241              		.syntax unified
 242              	.LBE97:
 243              	.LBE96:
 244              	.LBE95:
 245              	.LBE94:
 246              	.LBE93:
 247              	.LBE92:
 248              		.loc 1 93 0
 249 005a 019A     		ldr	r2, [sp, #4]
 250 005c 2B68     		ldr	r3, [r5]
 251 005e 9A42     		cmp	r2, r3
 252 0060 09D1     		bne	.L26
 253 0062 02B0     		add	sp, sp, #8
 254              		.cfi_remember_state
 255              		.cfi_def_cfa_offset 16
 256              		@ sp needed
 257 0064 70BD     		pop	{r4, r5, r6, pc}
 258              	.LVL15:
 259              	.L25:
 260              		.cfi_restore_state
 261              	.LBB100:
 262              	.LBB99:
 263              	.LBB98:
 264              		.loc 3 367 0
 265 0066 0848     		ldr	r0, .L27+12
 266 0068 FFF7FEFF 		bl	chSysHalt
 267              	.LVL16:
 268 006c F2E7     		b	.L19
 269              	.LVL17:
 270              	.L16:
 271              	.LBE98:
 272              	.LBE99:
 273              	.LBE100:
 274              		.loc 1 84 0 discriminator 4
 275 006e 0448     		ldr	r0, .L27+4
 276              	.LVL18:
 277 0070 FFF7FEFF 		bl	chSysHalt
 278              	.LVL19:
 279 0074 CDE7     		b	.L17
 280              	.L26:
 281              		.loc 1 93 0
 282 0076 FFF7FEFF 		bl	__stack_chk_fail
 283              	.LVL20:
 284              	.L28:
 285 007a 00BF     		.align	2
ARM GAS  C:\Users\25521\AppData\Local\Temp\ccMD7kWJ.s 			page 6


 286              	.L27:
 287 007c 00000000 		.word	__stack_chk_guard
 288 0080 00000000 		.word	.LANCHOR0
 289 0084 00000000 		.word	ch
 290 0088 00000000 		.word	.LANCHOR1
 291              		.cfi_endproc
 292              	.LFE269:
 293              		.size	gptStart, .-gptStart
 294              		.section	.text.gptStop,"ax",%progbits
 295              		.align	1
 296              		.p2align 4,,15
 297              		.global	gptStop
 298              		.syntax unified
 299              		.thumb
 300              		.thumb_func
 301              		.fpu fpv4-sp-d16
 302              		.type	gptStop, %function
 303              	gptStop:
 304              	.LFB270:
 305              		.loc 1 102 0
 306              		.cfi_startproc
 307              		@ args = 0, pretend = 0, frame = 8
 308              		@ frame_needed = 0, uses_anonymous_args = 0
 309              	.LVL21:
 310 0000 30B5     		push	{r4, r5, lr}
 311              		.cfi_def_cfa_offset 12
 312              		.cfi_offset 4, -12
 313              		.cfi_offset 5, -8
 314              		.cfi_offset 14, -4
 315 0002 1C4D     		ldr	r5, .L38
 316 0004 83B0     		sub	sp, sp, #12
 317              		.cfi_def_cfa_offset 24
 318              		.loc 1 102 0
 319 0006 2B68     		ldr	r3, [r5]
 320 0008 0193     		str	r3, [sp, #4]
 321              		.loc 1 104 0
 322 000a 0446     		mov	r4, r0
 323 000c 60B3     		cbz	r0, .L35
 324              	.LVL22:
 325              	.L30:
 326              	.LBB114:
 327              	.LBB115:
 328              	.LBB116:
 329              	.LBB117:
 330              	.LBB118:
 331              	.LBB119:
 332              		.loc 2 548 0
 333 000e 2023     		movs	r3, #32
 334              		.syntax unified
 335              	@ 548 ".//ChibiOS//os/ext/CMSIS/include/core_cmFunc.h" 1
 336 0010 83F31188 		MSR basepri, r3
 337              	@ 0 "" 2
 338              	.LVL23:
 339              		.thumb
 340              		.syntax unified
 341              	.LBE119:
 342              	.LBE118:
ARM GAS  C:\Users\25521\AppData\Local\Temp\ccMD7kWJ.s 			page 7


 343              	.LBE117:
 344              		.loc 3 349 0
 345 0014 FFF7FEFF 		bl	_stats_start_measure_crit_thd
 346              	.LVL24:
 347              		.loc 3 350 0
 348 0018 FFF7FEFF 		bl	_dbg_check_lock
 349              	.LVL25:
 350              	.LBE116:
 351              	.LBE115:
 352              	.LBE114:
 353              		.loc 1 107 0
 354 001c 2378     		ldrb	r3, [r4]	@ zero_extendqisi2
 355 001e 013B     		subs	r3, r3, #1
 356 0020 012B     		cmp	r3, #1
 357 0022 02D9     		bls	.L31
 358              		.loc 1 107 0 is_stmt 0 discriminator 2
 359 0024 1448     		ldr	r0, .L38+4
 360 0026 FFF7FEFF 		bl	chSysHalt
 361              	.LVL26:
 362              	.L31:
 363              		.loc 1 109 0 is_stmt 1
 364 002a 2046     		mov	r0, r4
 365 002c FFF7FEFF 		bl	gpt_lld_stop
 366              	.LVL27:
 367              		.loc 1 110 0
 368 0030 0123     		movs	r3, #1
 369 0032 2370     		strb	r3, [r4]
 370              	.LBB120:
 371              	.LBB121:
 372              	.LBB122:
 373              		.loc 3 360 0
 374 0034 FFF7FEFF 		bl	_dbg_check_unlock
 375              	.LVL28:
 376              		.loc 3 361 0
 377 0038 FFF7FEFF 		bl	_stats_stop_measure_crit_thd
 378              	.LVL29:
 379              		.loc 3 367 0
 380 003c 0F4B     		ldr	r3, .L38+8
 381 003e 1A68     		ldr	r2, [r3]
 382 0040 9A42     		cmp	r2, r3
 383 0042 04D0     		beq	.L32
 384 0044 9969     		ldr	r1, [r3, #24]
 385 0046 9368     		ldr	r3, [r2, #8]
 386 0048 8A68     		ldr	r2, [r1, #8]
 387 004a 9A42     		cmp	r2, r3
 388 004c 08D3     		bcc	.L36
 389              	.L32:
 390              	.LVL30:
 391              	.LBB123:
 392              	.LBB124:
 393              	.LBB125:
 394              		.loc 2 548 0
 395 004e 0023     		movs	r3, #0
 396              		.syntax unified
 397              	@ 548 ".//ChibiOS//os/ext/CMSIS/include/core_cmFunc.h" 1
 398 0050 83F31188 		MSR basepri, r3
 399              	@ 0 "" 2
ARM GAS  C:\Users\25521\AppData\Local\Temp\ccMD7kWJ.s 			page 8


 400              	.LVL31:
 401              		.thumb
 402              		.syntax unified
 403              	.LBE125:
 404              	.LBE124:
 405              	.LBE123:
 406              	.LBE122:
 407              	.LBE121:
 408              	.LBE120:
 409              		.loc 1 112 0
 410 0054 019A     		ldr	r2, [sp, #4]
 411 0056 2B68     		ldr	r3, [r5]
 412 0058 9A42     		cmp	r2, r3
 413 005a 09D1     		bne	.L37
 414 005c 03B0     		add	sp, sp, #12
 415              		.cfi_remember_state
 416              		.cfi_def_cfa_offset 12
 417              		@ sp needed
 418 005e 30BD     		pop	{r4, r5, pc}
 419              	.LVL32:
 420              	.L36:
 421              		.cfi_restore_state
 422              	.LBB128:
 423              	.LBB127:
 424              	.LBB126:
 425              		.loc 3 367 0
 426 0060 0748     		ldr	r0, .L38+12
 427 0062 FFF7FEFF 		bl	chSysHalt
 428              	.LVL33:
 429 0066 F2E7     		b	.L32
 430              	.LVL34:
 431              	.L35:
 432              	.LBE126:
 433              	.LBE127:
 434              	.LBE128:
 435              		.loc 1 104 0 discriminator 2
 436 0068 0348     		ldr	r0, .L38+4
 437              	.LVL35:
 438 006a FFF7FEFF 		bl	chSysHalt
 439              	.LVL36:
 440 006e CEE7     		b	.L30
 441              	.L37:
 442              		.loc 1 112 0
 443 0070 FFF7FEFF 		bl	__stack_chk_fail
 444              	.LVL37:
 445              	.L39:
 446              		.align	2
 447              	.L38:
 448 0074 00000000 		.word	__stack_chk_guard
 449 0078 00000000 		.word	.LANCHOR2
 450 007c 00000000 		.word	ch
 451 0080 00000000 		.word	.LANCHOR1
 452              		.cfi_endproc
 453              	.LFE270:
 454              		.size	gptStop, .-gptStop
 455              		.section	.text.gptChangeInterval,"ax",%progbits
 456              		.align	1
ARM GAS  C:\Users\25521\AppData\Local\Temp\ccMD7kWJ.s 			page 9


 457              		.p2align 4,,15
 458              		.global	gptChangeInterval
 459              		.syntax unified
 460              		.thumb
 461              		.thumb_func
 462              		.fpu fpv4-sp-d16
 463              		.type	gptChangeInterval, %function
 464              	gptChangeInterval:
 465              	.LFB271:
 466              		.loc 1 125 0
 467              		.cfi_startproc
 468              		@ args = 0, pretend = 0, frame = 8
 469              		@ frame_needed = 0, uses_anonymous_args = 0
 470              	.LVL38:
 471 0000 70B5     		push	{r4, r5, r6, lr}
 472              		.cfi_def_cfa_offset 16
 473              		.cfi_offset 4, -16
 474              		.cfi_offset 5, -12
 475              		.cfi_offset 6, -8
 476              		.cfi_offset 14, -4
 477 0002 1B4E     		ldr	r6, .L52
 478 0004 82B0     		sub	sp, sp, #8
 479              		.cfi_def_cfa_offset 24
 480              		.loc 1 125 0
 481 0006 3368     		ldr	r3, [r6]
 482 0008 0193     		str	r3, [sp, #4]
 483 000a 0C46     		mov	r4, r1
 484              		.loc 1 127 0
 485 000c 0546     		mov	r5, r0
 486 000e 48B3     		cbz	r0, .L49
 487              	.LVL39:
 488              	.L41:
 489              	.LBB142:
 490              	.LBB143:
 491              	.LBB144:
 492              	.LBB145:
 493              	.LBB146:
 494              	.LBB147:
 495              		.loc 2 548 0
 496 0010 2023     		movs	r3, #32
 497              		.syntax unified
 498              	@ 548 ".//ChibiOS//os/ext/CMSIS/include/core_cmFunc.h" 1
 499 0012 83F31188 		MSR basepri, r3
 500              	@ 0 "" 2
 501              	.LVL40:
 502              		.thumb
 503              		.syntax unified
 504              	.LBE147:
 505              	.LBE146:
 506              	.LBE145:
 507              		.loc 3 349 0
 508 0016 FFF7FEFF 		bl	_stats_start_measure_crit_thd
 509              	.LVL41:
 510              		.loc 3 350 0
 511 001a FFF7FEFF 		bl	_dbg_check_lock
 512              	.LVL42:
 513              	.LBE144:
ARM GAS  C:\Users\25521\AppData\Local\Temp\ccMD7kWJ.s 			page 10


 514              	.LBE143:
 515              	.LBE142:
 516              		.loc 1 130 0
 517 001e 2B78     		ldrb	r3, [r5]	@ zero_extendqisi2
 518 0020 032B     		cmp	r3, #3
 519 0022 02D0     		beq	.L42
 520              		.loc 1 130 0 is_stmt 0 discriminator 2
 521 0024 1348     		ldr	r0, .L52+4
 522 0026 FFF7FEFF 		bl	chSysHalt
 523              	.LVL43:
 524              	.L42:
 525              		.loc 1 132 0 is_stmt 1
 526 002a EB68     		ldr	r3, [r5, #12]
 527 002c 013C     		subs	r4, r4, #1
 528              	.LVL44:
 529 002e DC62     		str	r4, [r3, #44]
 530              	.LBB148:
 531              	.LBB149:
 532              	.LBB150:
 533              		.loc 3 360 0
 534 0030 FFF7FEFF 		bl	_dbg_check_unlock
 535              	.LVL45:
 536              		.loc 3 361 0
 537 0034 FFF7FEFF 		bl	_stats_stop_measure_crit_thd
 538              	.LVL46:
 539              		.loc 3 367 0
 540 0038 0F4B     		ldr	r3, .L52+8
 541 003a 1A68     		ldr	r2, [r3]
 542 003c 9A42     		cmp	r2, r3
 543 003e 04D0     		beq	.L43
 544 0040 9969     		ldr	r1, [r3, #24]
 545 0042 9368     		ldr	r3, [r2, #8]
 546 0044 8A68     		ldr	r2, [r1, #8]
 547 0046 9A42     		cmp	r2, r3
 548 0048 08D3     		bcc	.L50
 549              	.L43:
 550              	.LVL47:
 551              	.LBB151:
 552              	.LBB152:
 553              	.LBB153:
 554              		.loc 2 548 0
 555 004a 0023     		movs	r3, #0
 556              		.syntax unified
 557              	@ 548 ".//ChibiOS//os/ext/CMSIS/include/core_cmFunc.h" 1
 558 004c 83F31188 		MSR basepri, r3
 559              	@ 0 "" 2
 560              	.LVL48:
 561              		.thumb
 562              		.syntax unified
 563              	.LBE153:
 564              	.LBE152:
 565              	.LBE151:
 566              	.LBE150:
 567              	.LBE149:
 568              	.LBE148:
 569              		.loc 1 134 0
 570 0050 019A     		ldr	r2, [sp, #4]
ARM GAS  C:\Users\25521\AppData\Local\Temp\ccMD7kWJ.s 			page 11


 571 0052 3368     		ldr	r3, [r6]
 572 0054 9A42     		cmp	r2, r3
 573 0056 09D1     		bne	.L51
 574 0058 02B0     		add	sp, sp, #8
 575              		.cfi_remember_state
 576              		.cfi_def_cfa_offset 16
 577              		@ sp needed
 578 005a 70BD     		pop	{r4, r5, r6, pc}
 579              	.LVL49:
 580              	.L50:
 581              		.cfi_restore_state
 582              	.LBB156:
 583              	.LBB155:
 584              	.LBB154:
 585              		.loc 3 367 0
 586 005c 0748     		ldr	r0, .L52+12
 587 005e FFF7FEFF 		bl	chSysHalt
 588              	.LVL50:
 589 0062 F2E7     		b	.L43
 590              	.LVL51:
 591              	.L49:
 592              	.LBE154:
 593              	.LBE155:
 594              	.LBE156:
 595              		.loc 1 127 0 discriminator 2
 596 0064 0348     		ldr	r0, .L52+4
 597              	.LVL52:
 598 0066 FFF7FEFF 		bl	chSysHalt
 599              	.LVL53:
 600 006a D1E7     		b	.L41
 601              	.LVL54:
 602              	.L51:
 603              		.loc 1 134 0
 604 006c FFF7FEFF 		bl	__stack_chk_fail
 605              	.LVL55:
 606              	.L53:
 607              		.align	2
 608              	.L52:
 609 0070 00000000 		.word	__stack_chk_guard
 610 0074 00000000 		.word	.LANCHOR3
 611 0078 00000000 		.word	ch
 612 007c 00000000 		.word	.LANCHOR1
 613              		.cfi_endproc
 614              	.LFE271:
 615              		.size	gptChangeInterval, .-gptChangeInterval
 616              		.section	.text.gptStartContinuousI,"ax",%progbits
 617              		.align	1
 618              		.p2align 4,,15
 619              		.global	gptStartContinuousI
 620              		.syntax unified
 621              		.thumb
 622              		.thumb_func
 623              		.fpu fpv4-sp-d16
 624              		.type	gptStartContinuousI, %function
 625              	gptStartContinuousI:
 626              	.LFB273:
 627              		.loc 1 159 0
ARM GAS  C:\Users\25521\AppData\Local\Temp\ccMD7kWJ.s 			page 12


 628              		.cfi_startproc
 629              		@ args = 0, pretend = 0, frame = 8
 630              		@ frame_needed = 0, uses_anonymous_args = 0
 631              	.LVL56:
 632 0000 70B5     		push	{r4, r5, r6, lr}
 633              		.cfi_def_cfa_offset 16
 634              		.cfi_offset 4, -16
 635              		.cfi_offset 5, -12
 636              		.cfi_offset 6, -8
 637              		.cfi_offset 14, -4
 638 0002 114D     		ldr	r5, .L65
 639 0004 82B0     		sub	sp, sp, #8
 640              		.cfi_def_cfa_offset 24
 641              		.loc 1 159 0
 642 0006 0446     		mov	r4, r0
 643 0008 2B68     		ldr	r3, [r5]
 644 000a 0193     		str	r3, [sp, #4]
 645 000c 0E46     		mov	r6, r1
 646              		.loc 1 161 0
 647 000e FFF7FEFF 		bl	chDbgCheckClassI
 648              	.LVL57:
 649              		.loc 1 162 0
 650 0012 94B1     		cbz	r4, .L63
 651              	.L55:
 652              		.loc 1 163 0 discriminator 1
 653 0014 2378     		ldrb	r3, [r4]	@ zero_extendqisi2
 654 0016 022B     		cmp	r3, #2
 655 0018 02D0     		beq	.L56
 656              		.loc 1 163 0 is_stmt 0 discriminator 2
 657 001a 0C48     		ldr	r0, .L65+4
 658 001c FFF7FEFF 		bl	chSysHalt
 659              	.LVL58:
 660              	.L56:
 661              		.loc 1 166 0 is_stmt 1
 662 0020 0323     		movs	r3, #3
 663 0022 2370     		strb	r3, [r4]
 664              		.loc 1 167 0
 665 0024 019A     		ldr	r2, [sp, #4]
 666 0026 2B68     		ldr	r3, [r5]
 667 0028 9A42     		cmp	r2, r3
 668 002a 0AD1     		bne	.L64
 669 002c 3146     		mov	r1, r6
 670 002e 2046     		mov	r0, r4
 671              		.loc 1 168 0
 672 0030 02B0     		add	sp, sp, #8
 673              		.cfi_remember_state
 674              		.cfi_def_cfa_offset 16
 675              		@ sp needed
 676 0032 BDE87040 		pop	{r4, r5, r6, lr}
 677              		.cfi_restore 14
 678              		.cfi_restore 6
 679              		.cfi_restore 5
 680              		.cfi_restore 4
 681              		.cfi_def_cfa_offset 0
 682              	.LVL59:
 683              		.loc 1 167 0
 684 0036 FFF7FEBF 		b	gpt_lld_start_timer
ARM GAS  C:\Users\25521\AppData\Local\Temp\ccMD7kWJ.s 			page 13


 685              	.LVL60:
 686              	.L63:
 687              		.cfi_restore_state
 688              		.loc 1 162 0 discriminator 2
 689 003a 0448     		ldr	r0, .L65+4
 690 003c FFF7FEFF 		bl	chSysHalt
 691              	.LVL61:
 692 0040 E8E7     		b	.L55
 693              	.L64:
 694              		.loc 1 167 0
 695 0042 FFF7FEFF 		bl	__stack_chk_fail
 696              	.LVL62:
 697              	.L66:
 698 0046 00BF     		.align	2
 699              	.L65:
 700 0048 00000000 		.word	__stack_chk_guard
 701 004c 00000000 		.word	.LANCHOR4
 702              		.cfi_endproc
 703              	.LFE273:
 704              		.size	gptStartContinuousI, .-gptStartContinuousI
 705              		.section	.text.gptStartContinuous,"ax",%progbits
 706              		.align	1
 707              		.p2align 4,,15
 708              		.global	gptStartContinuous
 709              		.syntax unified
 710              		.thumb
 711              		.thumb_func
 712              		.fpu fpv4-sp-d16
 713              		.type	gptStartContinuous, %function
 714              	gptStartContinuous:
 715              	.LFB272:
 716              		.loc 1 144 0
 717              		.cfi_startproc
 718              		@ args = 0, pretend = 0, frame = 8
 719              		@ frame_needed = 0, uses_anonymous_args = 0
 720              	.LVL63:
 721 0000 70B5     		push	{r4, r5, r6, lr}
 722              		.cfi_def_cfa_offset 16
 723              		.cfi_offset 4, -16
 724              		.cfi_offset 5, -12
 725              		.cfi_offset 6, -8
 726              		.cfi_offset 14, -4
 727 0002 164C     		ldr	r4, .L73
 728 0004 82B0     		sub	sp, sp, #8
 729              		.cfi_def_cfa_offset 24
 730              		.loc 1 144 0
 731 0006 2368     		ldr	r3, [r4]
 732 0008 0193     		str	r3, [sp, #4]
 733              	.LVL64:
 734 000a 0546     		mov	r5, r0
 735 000c 0E46     		mov	r6, r1
 736              	.LBB170:
 737              	.LBB171:
 738              	.LBB172:
 739              	.LBB173:
 740              	.LBB174:
 741              	.LBB175:
ARM GAS  C:\Users\25521\AppData\Local\Temp\ccMD7kWJ.s 			page 14


 742              		.loc 2 548 0
 743 000e 2023     		movs	r3, #32
 744              		.syntax unified
 745              	@ 548 ".//ChibiOS//os/ext/CMSIS/include/core_cmFunc.h" 1
 746 0010 83F31188 		MSR basepri, r3
 747              	@ 0 "" 2
 748              	.LVL65:
 749              		.thumb
 750              		.syntax unified
 751              	.LBE175:
 752              	.LBE174:
 753              	.LBE173:
 754              		.loc 3 349 0
 755 0014 FFF7FEFF 		bl	_stats_start_measure_crit_thd
 756              	.LVL66:
 757              		.loc 3 350 0
 758 0018 FFF7FEFF 		bl	_dbg_check_lock
 759              	.LVL67:
 760              	.LBE172:
 761              	.LBE171:
 762              	.LBE170:
 763              		.loc 1 147 0
 764 001c 3146     		mov	r1, r6
 765 001e 2846     		mov	r0, r5
 766 0020 FFF7FEFF 		bl	gptStartContinuousI
 767              	.LVL68:
 768              	.LBB176:
 769              	.LBB177:
 770              	.LBB178:
 771              		.loc 3 360 0
 772 0024 FFF7FEFF 		bl	_dbg_check_unlock
 773              	.LVL69:
 774              		.loc 3 361 0
 775 0028 FFF7FEFF 		bl	_stats_stop_measure_crit_thd
 776              	.LVL70:
 777              		.loc 3 367 0
 778 002c 0C4B     		ldr	r3, .L73+4
 779 002e 1A68     		ldr	r2, [r3]
 780 0030 9A42     		cmp	r2, r3
 781 0032 04D0     		beq	.L68
 782 0034 9969     		ldr	r1, [r3, #24]
 783 0036 9368     		ldr	r3, [r2, #8]
 784 0038 8A68     		ldr	r2, [r1, #8]
 785 003a 9A42     		cmp	r2, r3
 786 003c 08D3     		bcc	.L71
 787              	.L68:
 788              	.LVL71:
 789              	.LBB179:
 790              	.LBB180:
 791              	.LBB181:
 792              		.loc 2 548 0
 793 003e 0023     		movs	r3, #0
 794              		.syntax unified
 795              	@ 548 ".//ChibiOS//os/ext/CMSIS/include/core_cmFunc.h" 1
 796 0040 83F31188 		MSR basepri, r3
 797              	@ 0 "" 2
 798              	.LVL72:
ARM GAS  C:\Users\25521\AppData\Local\Temp\ccMD7kWJ.s 			page 15


 799              		.thumb
 800              		.syntax unified
 801              	.LBE181:
 802              	.LBE180:
 803              	.LBE179:
 804              	.LBE178:
 805              	.LBE177:
 806              	.LBE176:
 807              		.loc 1 149 0
 808 0044 019A     		ldr	r2, [sp, #4]
 809 0046 2368     		ldr	r3, [r4]
 810 0048 9A42     		cmp	r2, r3
 811 004a 05D1     		bne	.L72
 812 004c 02B0     		add	sp, sp, #8
 813              		.cfi_remember_state
 814              		.cfi_def_cfa_offset 16
 815              		@ sp needed
 816 004e 70BD     		pop	{r4, r5, r6, pc}
 817              	.LVL73:
 818              	.L71:
 819              		.cfi_restore_state
 820              	.LBB184:
 821              	.LBB183:
 822              	.LBB182:
 823              		.loc 3 367 0
 824 0050 0448     		ldr	r0, .L73+8
 825 0052 FFF7FEFF 		bl	chSysHalt
 826              	.LVL74:
 827 0056 F2E7     		b	.L68
 828              	.L72:
 829              	.LBE182:
 830              	.LBE183:
 831              	.LBE184:
 832              		.loc 1 149 0
 833 0058 FFF7FEFF 		bl	__stack_chk_fail
 834              	.LVL75:
 835              	.L74:
 836              		.align	2
 837              	.L73:
 838 005c 00000000 		.word	__stack_chk_guard
 839 0060 00000000 		.word	ch
 840 0064 00000000 		.word	.LANCHOR1
 841              		.cfi_endproc
 842              	.LFE272:
 843              		.size	gptStartContinuous, .-gptStartContinuous
 844              		.section	.text.gptStartOneShotI,"ax",%progbits
 845              		.align	1
 846              		.p2align 4,,15
 847              		.global	gptStartOneShotI
 848              		.syntax unified
 849              		.thumb
 850              		.thumb_func
 851              		.fpu fpv4-sp-d16
 852              		.type	gptStartOneShotI, %function
 853              	gptStartOneShotI:
 854              	.LFB275:
 855              		.loc 1 193 0
ARM GAS  C:\Users\25521\AppData\Local\Temp\ccMD7kWJ.s 			page 16


 856              		.cfi_startproc
 857              		@ args = 0, pretend = 0, frame = 8
 858              		@ frame_needed = 0, uses_anonymous_args = 0
 859              	.LVL76:
 860 0000 70B5     		push	{r4, r5, r6, lr}
 861              		.cfi_def_cfa_offset 16
 862              		.cfi_offset 4, -16
 863              		.cfi_offset 5, -12
 864              		.cfi_offset 6, -8
 865              		.cfi_offset 14, -4
 866 0002 164D     		ldr	r5, .L88
 867 0004 82B0     		sub	sp, sp, #8
 868              		.cfi_def_cfa_offset 24
 869              		.loc 1 193 0
 870 0006 0446     		mov	r4, r0
 871 0008 2B68     		ldr	r3, [r5]
 872 000a 0193     		str	r3, [sp, #4]
 873 000c 0E46     		mov	r6, r1
 874              		.loc 1 195 0
 875 000e FFF7FEFF 		bl	chDbgCheckClassI
 876              	.LVL77:
 877              		.loc 1 196 0
 878 0012 ACB1     		cbz	r4, .L85
 879              		.loc 1 197 0 discriminator 1
 880 0014 6368     		ldr	r3, [r4, #4]
 881 0016 5B68     		ldr	r3, [r3, #4]
 882 0018 CBB1     		cbz	r3, .L86
 883              	.L77:
 884              		.loc 1 198 0 discriminator 1
 885 001a 2378     		ldrb	r3, [r4]	@ zero_extendqisi2
 886 001c 022B     		cmp	r3, #2
 887 001e 02D0     		beq	.L78
 888              		.loc 1 198 0 is_stmt 0 discriminator 2
 889 0020 0F48     		ldr	r0, .L88+4
 890 0022 FFF7FEFF 		bl	chSysHalt
 891              	.LVL78:
 892              	.L78:
 893              		.loc 1 201 0 is_stmt 1
 894 0026 0423     		movs	r3, #4
 895 0028 2370     		strb	r3, [r4]
 896              		.loc 1 202 0
 897 002a 019A     		ldr	r2, [sp, #4]
 898 002c 2B68     		ldr	r3, [r5]
 899 002e 9A42     		cmp	r2, r3
 900 0030 11D1     		bne	.L87
 901 0032 3146     		mov	r1, r6
 902 0034 2046     		mov	r0, r4
 903              		.loc 1 203 0
 904 0036 02B0     		add	sp, sp, #8
 905              		.cfi_remember_state
 906              		.cfi_def_cfa_offset 16
 907              		@ sp needed
 908 0038 BDE87040 		pop	{r4, r5, r6, lr}
 909              		.cfi_restore 14
 910              		.cfi_restore 6
 911              		.cfi_restore 5
 912              		.cfi_restore 4
ARM GAS  C:\Users\25521\AppData\Local\Temp\ccMD7kWJ.s 			page 17


 913              		.cfi_def_cfa_offset 0
 914              	.LVL79:
 915              		.loc 1 202 0
 916 003c FFF7FEBF 		b	gpt_lld_start_timer
 917              	.LVL80:
 918              	.L85:
 919              		.cfi_restore_state
 920              		.loc 1 196 0 discriminator 2
 921 0040 0748     		ldr	r0, .L88+4
 922 0042 FFF7FEFF 		bl	chSysHalt
 923              	.LVL81:
 924              		.loc 1 197 0 discriminator 2
 925 0046 6368     		ldr	r3, [r4, #4]
 926 0048 5B68     		ldr	r3, [r3, #4]
 927 004a 002B     		cmp	r3, #0
 928 004c E5D1     		bne	.L77
 929              	.L86:
 930 004e 0448     		ldr	r0, .L88+4
 931 0050 FFF7FEFF 		bl	chSysHalt
 932              	.LVL82:
 933 0054 E1E7     		b	.L77
 934              	.L87:
 935              		.loc 1 202 0
 936 0056 FFF7FEFF 		bl	__stack_chk_fail
 937              	.LVL83:
 938              	.L89:
 939 005a 00BF     		.align	2
 940              	.L88:
 941 005c 00000000 		.word	__stack_chk_guard
 942 0060 00000000 		.word	.LANCHOR5
 943              		.cfi_endproc
 944              	.LFE275:
 945              		.size	gptStartOneShotI, .-gptStartOneShotI
 946              		.section	.text.gptStartOneShot,"ax",%progbits
 947              		.align	1
 948              		.p2align 4,,15
 949              		.global	gptStartOneShot
 950              		.syntax unified
 951              		.thumb
 952              		.thumb_func
 953              		.fpu fpv4-sp-d16
 954              		.type	gptStartOneShot, %function
 955              	gptStartOneShot:
 956              	.LFB274:
 957              		.loc 1 178 0
 958              		.cfi_startproc
 959              		@ args = 0, pretend = 0, frame = 8
 960              		@ frame_needed = 0, uses_anonymous_args = 0
 961              	.LVL84:
 962 0000 70B5     		push	{r4, r5, r6, lr}
 963              		.cfi_def_cfa_offset 16
 964              		.cfi_offset 4, -16
 965              		.cfi_offset 5, -12
 966              		.cfi_offset 6, -8
 967              		.cfi_offset 14, -4
 968 0002 164C     		ldr	r4, .L96
 969 0004 82B0     		sub	sp, sp, #8
ARM GAS  C:\Users\25521\AppData\Local\Temp\ccMD7kWJ.s 			page 18


 970              		.cfi_def_cfa_offset 24
 971              		.loc 1 178 0
 972 0006 2368     		ldr	r3, [r4]
 973 0008 0193     		str	r3, [sp, #4]
 974              	.LVL85:
 975 000a 0546     		mov	r5, r0
 976 000c 0E46     		mov	r6, r1
 977              	.LBB198:
 978              	.LBB199:
 979              	.LBB200:
 980              	.LBB201:
 981              	.LBB202:
 982              	.LBB203:
 983              		.loc 2 548 0
 984 000e 2023     		movs	r3, #32
 985              		.syntax unified
 986              	@ 548 ".//ChibiOS//os/ext/CMSIS/include/core_cmFunc.h" 1
 987 0010 83F31188 		MSR basepri, r3
 988              	@ 0 "" 2
 989              	.LVL86:
 990              		.thumb
 991              		.syntax unified
 992              	.LBE203:
 993              	.LBE202:
 994              	.LBE201:
 995              		.loc 3 349 0
 996 0014 FFF7FEFF 		bl	_stats_start_measure_crit_thd
 997              	.LVL87:
 998              		.loc 3 350 0
 999 0018 FFF7FEFF 		bl	_dbg_check_lock
 1000              	.LVL88:
 1001              	.LBE200:
 1002              	.LBE199:
 1003              	.LBE198:
 1004              		.loc 1 181 0
 1005 001c 3146     		mov	r1, r6
 1006 001e 2846     		mov	r0, r5
 1007 0020 FFF7FEFF 		bl	gptStartOneShotI
 1008              	.LVL89:
 1009              	.LBB204:
 1010              	.LBB205:
 1011              	.LBB206:
 1012              		.loc 3 360 0
 1013 0024 FFF7FEFF 		bl	_dbg_check_unlock
 1014              	.LVL90:
 1015              		.loc 3 361 0
 1016 0028 FFF7FEFF 		bl	_stats_stop_measure_crit_thd
 1017              	.LVL91:
 1018              		.loc 3 367 0
 1019 002c 0C4B     		ldr	r3, .L96+4
 1020 002e 1A68     		ldr	r2, [r3]
 1021 0030 9A42     		cmp	r2, r3
 1022 0032 04D0     		beq	.L91
 1023 0034 9969     		ldr	r1, [r3, #24]
 1024 0036 9368     		ldr	r3, [r2, #8]
 1025 0038 8A68     		ldr	r2, [r1, #8]
 1026 003a 9A42     		cmp	r2, r3
ARM GAS  C:\Users\25521\AppData\Local\Temp\ccMD7kWJ.s 			page 19


 1027 003c 08D3     		bcc	.L94
 1028              	.L91:
 1029              	.LVL92:
 1030              	.LBB207:
 1031              	.LBB208:
 1032              	.LBB209:
 1033              		.loc 2 548 0
 1034 003e 0023     		movs	r3, #0
 1035              		.syntax unified
 1036              	@ 548 ".//ChibiOS//os/ext/CMSIS/include/core_cmFunc.h" 1
 1037 0040 83F31188 		MSR basepri, r3
 1038              	@ 0 "" 2
 1039              	.LVL93:
 1040              		.thumb
 1041              		.syntax unified
 1042              	.LBE209:
 1043              	.LBE208:
 1044              	.LBE207:
 1045              	.LBE206:
 1046              	.LBE205:
 1047              	.LBE204:
 1048              		.loc 1 183 0
 1049 0044 019A     		ldr	r2, [sp, #4]
 1050 0046 2368     		ldr	r3, [r4]
 1051 0048 9A42     		cmp	r2, r3
 1052 004a 05D1     		bne	.L95
 1053 004c 02B0     		add	sp, sp, #8
 1054              		.cfi_remember_state
 1055              		.cfi_def_cfa_offset 16
 1056              		@ sp needed
 1057 004e 70BD     		pop	{r4, r5, r6, pc}
 1058              	.LVL94:
 1059              	.L94:
 1060              		.cfi_restore_state
 1061              	.LBB212:
 1062              	.LBB211:
 1063              	.LBB210:
 1064              		.loc 3 367 0
 1065 0050 0448     		ldr	r0, .L96+8
 1066 0052 FFF7FEFF 		bl	chSysHalt
 1067              	.LVL95:
 1068 0056 F2E7     		b	.L91
 1069              	.L95:
 1070              	.LBE210:
 1071              	.LBE211:
 1072              	.LBE212:
 1073              		.loc 1 183 0
 1074 0058 FFF7FEFF 		bl	__stack_chk_fail
 1075              	.LVL96:
 1076              	.L97:
 1077              		.align	2
 1078              	.L96:
 1079 005c 00000000 		.word	__stack_chk_guard
 1080 0060 00000000 		.word	ch
 1081 0064 00000000 		.word	.LANCHOR1
 1082              		.cfi_endproc
 1083              	.LFE274:
ARM GAS  C:\Users\25521\AppData\Local\Temp\ccMD7kWJ.s 			page 20


 1084              		.size	gptStartOneShot, .-gptStartOneShot
 1085              		.section	.text.gptStopTimerI,"ax",%progbits
 1086              		.align	1
 1087              		.p2align 4,,15
 1088              		.global	gptStopTimerI
 1089              		.syntax unified
 1090              		.thumb
 1091              		.thumb_func
 1092              		.fpu fpv4-sp-d16
 1093              		.type	gptStopTimerI, %function
 1094              	gptStopTimerI:
 1095              	.LFB277:
 1096              		.loc 1 226 0
 1097              		.cfi_startproc
 1098              		@ args = 0, pretend = 0, frame = 8
 1099              		@ frame_needed = 0, uses_anonymous_args = 0
 1100              	.LVL97:
 1101 0000 30B5     		push	{r4, r5, lr}
 1102              		.cfi_def_cfa_offset 12
 1103              		.cfi_offset 4, -12
 1104              		.cfi_offset 5, -8
 1105              		.cfi_offset 14, -4
 1106 0002 104D     		ldr	r5, .L106
 1107 0004 83B0     		sub	sp, sp, #12
 1108              		.cfi_def_cfa_offset 24
 1109              		.loc 1 226 0
 1110 0006 0446     		mov	r4, r0
 1111 0008 2B68     		ldr	r3, [r5]
 1112 000a 0193     		str	r3, [sp, #4]
 1113              		.loc 1 228 0
 1114 000c FFF7FEFF 		bl	chDbgCheckClassI
 1115              	.LVL98:
 1116              		.loc 1 229 0
 1117 0010 94B1     		cbz	r4, .L104
 1118              	.L99:
 1119              		.loc 1 230 0 discriminator 1
 1120 0012 2378     		ldrb	r3, [r4]	@ zero_extendqisi2
 1121 0014 023B     		subs	r3, r3, #2
 1122 0016 022B     		cmp	r3, #2
 1123 0018 02D9     		bls	.L100
 1124              		.loc 1 230 0 is_stmt 0 discriminator 2
 1125 001a 0B48     		ldr	r0, .L106+4
 1126 001c FFF7FEFF 		bl	chSysHalt
 1127              	.LVL99:
 1128              	.L100:
 1129              		.loc 1 234 0 is_stmt 1
 1130 0020 0223     		movs	r3, #2
 1131 0022 2370     		strb	r3, [r4]
 1132              		.loc 1 235 0
 1133 0024 019A     		ldr	r2, [sp, #4]
 1134 0026 2B68     		ldr	r3, [r5]
 1135 0028 9A42     		cmp	r2, r3
 1136 002a 09D1     		bne	.L105
 1137 002c 2046     		mov	r0, r4
 1138              		.loc 1 236 0
 1139 002e 03B0     		add	sp, sp, #12
 1140              		.cfi_remember_state
ARM GAS  C:\Users\25521\AppData\Local\Temp\ccMD7kWJ.s 			page 21


 1141              		.cfi_def_cfa_offset 12
 1142              		@ sp needed
 1143 0030 BDE83040 		pop	{r4, r5, lr}
 1144              		.cfi_restore 14
 1145              		.cfi_restore 5
 1146              		.cfi_restore 4
 1147              		.cfi_def_cfa_offset 0
 1148              	.LVL100:
 1149              		.loc 1 235 0
 1150 0034 FFF7FEBF 		b	gpt_lld_stop_timer
 1151              	.LVL101:
 1152              	.L104:
 1153              		.cfi_restore_state
 1154              		.loc 1 229 0 discriminator 2
 1155 0038 0348     		ldr	r0, .L106+4
 1156 003a FFF7FEFF 		bl	chSysHalt
 1157              	.LVL102:
 1158 003e E8E7     		b	.L99
 1159              	.L105:
 1160              		.loc 1 235 0
 1161 0040 FFF7FEFF 		bl	__stack_chk_fail
 1162              	.LVL103:
 1163              	.L107:
 1164              		.align	2
 1165              	.L106:
 1166 0044 00000000 		.word	__stack_chk_guard
 1167 0048 00000000 		.word	.LANCHOR6
 1168              		.cfi_endproc
 1169              	.LFE277:
 1170              		.size	gptStopTimerI, .-gptStopTimerI
 1171              		.section	.text.gptStopTimer,"ax",%progbits
 1172              		.align	1
 1173              		.p2align 4,,15
 1174              		.global	gptStopTimer
 1175              		.syntax unified
 1176              		.thumb
 1177              		.thumb_func
 1178              		.fpu fpv4-sp-d16
 1179              		.type	gptStopTimer, %function
 1180              	gptStopTimer:
 1181              	.LFB276:
 1182              		.loc 1 212 0
 1183              		.cfi_startproc
 1184              		@ args = 0, pretend = 0, frame = 8
 1185              		@ frame_needed = 0, uses_anonymous_args = 0
 1186              	.LVL104:
 1187 0000 30B5     		push	{r4, r5, lr}
 1188              		.cfi_def_cfa_offset 12
 1189              		.cfi_offset 4, -12
 1190              		.cfi_offset 5, -8
 1191              		.cfi_offset 14, -4
 1192 0002 154C     		ldr	r4, .L114
 1193 0004 83B0     		sub	sp, sp, #12
 1194              		.cfi_def_cfa_offset 24
 1195              		.loc 1 212 0
 1196 0006 2368     		ldr	r3, [r4]
 1197 0008 0193     		str	r3, [sp, #4]
ARM GAS  C:\Users\25521\AppData\Local\Temp\ccMD7kWJ.s 			page 22


 1198              	.LVL105:
 1199 000a 0546     		mov	r5, r0
 1200              	.LBB226:
 1201              	.LBB227:
 1202              	.LBB228:
 1203              	.LBB229:
 1204              	.LBB230:
 1205              	.LBB231:
 1206              		.loc 2 548 0
 1207 000c 2023     		movs	r3, #32
 1208              		.syntax unified
 1209              	@ 548 ".//ChibiOS//os/ext/CMSIS/include/core_cmFunc.h" 1
 1210 000e 83F31188 		MSR basepri, r3
 1211              	@ 0 "" 2
 1212              	.LVL106:
 1213              		.thumb
 1214              		.syntax unified
 1215              	.LBE231:
 1216              	.LBE230:
 1217              	.LBE229:
 1218              		.loc 3 349 0
 1219 0012 FFF7FEFF 		bl	_stats_start_measure_crit_thd
 1220              	.LVL107:
 1221              		.loc 3 350 0
 1222 0016 FFF7FEFF 		bl	_dbg_check_lock
 1223              	.LVL108:
 1224              	.LBE228:
 1225              	.LBE227:
 1226              	.LBE226:
 1227              		.loc 1 215 0
 1228 001a 2846     		mov	r0, r5
 1229 001c FFF7FEFF 		bl	gptStopTimerI
 1230              	.LVL109:
 1231              	.LBB232:
 1232              	.LBB233:
 1233              	.LBB234:
 1234              		.loc 3 360 0
 1235 0020 FFF7FEFF 		bl	_dbg_check_unlock
 1236              	.LVL110:
 1237              		.loc 3 361 0
 1238 0024 FFF7FEFF 		bl	_stats_stop_measure_crit_thd
 1239              	.LVL111:
 1240              		.loc 3 367 0
 1241 0028 0C4B     		ldr	r3, .L114+4
 1242 002a 1A68     		ldr	r2, [r3]
 1243 002c 9A42     		cmp	r2, r3
 1244 002e 04D0     		beq	.L109
 1245 0030 9969     		ldr	r1, [r3, #24]
 1246 0032 9368     		ldr	r3, [r2, #8]
 1247 0034 8A68     		ldr	r2, [r1, #8]
 1248 0036 9A42     		cmp	r2, r3
 1249 0038 08D3     		bcc	.L112
 1250              	.L109:
 1251              	.LVL112:
 1252              	.LBB235:
 1253              	.LBB236:
 1254              	.LBB237:
ARM GAS  C:\Users\25521\AppData\Local\Temp\ccMD7kWJ.s 			page 23


 1255              		.loc 2 548 0
 1256 003a 0023     		movs	r3, #0
 1257              		.syntax unified
 1258              	@ 548 ".//ChibiOS//os/ext/CMSIS/include/core_cmFunc.h" 1
 1259 003c 83F31188 		MSR basepri, r3
 1260              	@ 0 "" 2
 1261              	.LVL113:
 1262              		.thumb
 1263              		.syntax unified
 1264              	.LBE237:
 1265              	.LBE236:
 1266              	.LBE235:
 1267              	.LBE234:
 1268              	.LBE233:
 1269              	.LBE232:
 1270              		.loc 1 217 0
 1271 0040 019A     		ldr	r2, [sp, #4]
 1272 0042 2368     		ldr	r3, [r4]
 1273 0044 9A42     		cmp	r2, r3
 1274 0046 05D1     		bne	.L113
 1275 0048 03B0     		add	sp, sp, #12
 1276              		.cfi_remember_state
 1277              		.cfi_def_cfa_offset 12
 1278              		@ sp needed
 1279 004a 30BD     		pop	{r4, r5, pc}
 1280              	.LVL114:
 1281              	.L112:
 1282              		.cfi_restore_state
 1283              	.LBB240:
 1284              	.LBB239:
 1285              	.LBB238:
 1286              		.loc 3 367 0
 1287 004c 0448     		ldr	r0, .L114+8
 1288 004e FFF7FEFF 		bl	chSysHalt
 1289              	.LVL115:
 1290 0052 F2E7     		b	.L109
 1291              	.L113:
 1292              	.LBE238:
 1293              	.LBE239:
 1294              	.LBE240:
 1295              		.loc 1 217 0
 1296 0054 FFF7FEFF 		bl	__stack_chk_fail
 1297              	.LVL116:
 1298              	.L115:
 1299              		.align	2
 1300              	.L114:
 1301 0058 00000000 		.word	__stack_chk_guard
 1302 005c 00000000 		.word	ch
 1303 0060 00000000 		.word	.LANCHOR1
 1304              		.cfi_endproc
 1305              	.LFE276:
 1306              		.size	gptStopTimer, .-gptStopTimer
 1307              		.section	.text.gptPolledDelay,"ax",%progbits
 1308              		.align	1
 1309              		.p2align 4,,15
 1310              		.global	gptPolledDelay
 1311              		.syntax unified
ARM GAS  C:\Users\25521\AppData\Local\Temp\ccMD7kWJ.s 			page 24


 1312              		.thumb
 1313              		.thumb_func
 1314              		.fpu fpv4-sp-d16
 1315              		.type	gptPolledDelay, %function
 1316              	gptPolledDelay:
 1317              	.LFB278:
 1318              		.loc 1 250 0
 1319              		.cfi_startproc
 1320              		@ args = 0, pretend = 0, frame = 8
 1321              		@ frame_needed = 0, uses_anonymous_args = 0
 1322              	.LVL117:
 1323 0000 70B5     		push	{r4, r5, r6, lr}
 1324              		.cfi_def_cfa_offset 16
 1325              		.cfi_offset 4, -16
 1326              		.cfi_offset 5, -12
 1327              		.cfi_offset 6, -8
 1328              		.cfi_offset 14, -4
 1329 0002 0E4D     		ldr	r5, .L124
 1330              		.loc 1 252 0
 1331 0004 0378     		ldrb	r3, [r0]	@ zero_extendqisi2
 1332              		.loc 1 250 0
 1333 0006 2A68     		ldr	r2, [r5]
 1334 0008 82B0     		sub	sp, sp, #8
 1335              		.cfi_def_cfa_offset 24
 1336              		.loc 1 252 0
 1337 000a 022B     		cmp	r3, #2
 1338              		.loc 1 250 0
 1339 000c 0446     		mov	r4, r0
 1340 000e 0192     		str	r2, [sp, #4]
 1341 0010 0E46     		mov	r6, r1
 1342              		.loc 1 252 0
 1343 0012 02D0     		beq	.L117
 1344              		.loc 1 252 0 is_stmt 0 discriminator 2
 1345 0014 0A48     		ldr	r0, .L124+4
 1346              	.LVL118:
 1347 0016 FFF7FEFF 		bl	chSysHalt
 1348              	.LVL119:
 1349              	.L117:
 1350              		.loc 1 255 0 is_stmt 1
 1351 001a 0423     		movs	r3, #4
 1352 001c 2370     		strb	r3, [r4]
 1353              		.loc 1 256 0
 1354 001e 3146     		mov	r1, r6
 1355 0020 2046     		mov	r0, r4
 1356 0022 FFF7FEFF 		bl	gpt_lld_polled_delay
 1357              	.LVL120:
 1358              		.loc 1 257 0
 1359 0026 0223     		movs	r3, #2
 1360 0028 2370     		strb	r3, [r4]
 1361              		.loc 1 258 0
 1362 002a 019A     		ldr	r2, [sp, #4]
 1363 002c 2B68     		ldr	r3, [r5]
 1364 002e 9A42     		cmp	r2, r3
 1365 0030 01D1     		bne	.L123
 1366 0032 02B0     		add	sp, sp, #8
 1367              		.cfi_remember_state
 1368              		.cfi_def_cfa_offset 16
ARM GAS  C:\Users\25521\AppData\Local\Temp\ccMD7kWJ.s 			page 25


 1369              		@ sp needed
 1370 0034 70BD     		pop	{r4, r5, r6, pc}
 1371              	.LVL121:
 1372              	.L123:
 1373              		.cfi_restore_state
 1374 0036 FFF7FEFF 		bl	__stack_chk_fail
 1375              	.LVL122:
 1376              	.L125:
 1377 003a 00BF     		.align	2
 1378              	.L124:
 1379 003c 00000000 		.word	__stack_chk_guard
 1380 0040 00000000 		.word	.LANCHOR7
 1381              		.cfi_endproc
 1382              	.LFE278:
 1383              		.size	gptPolledDelay, .-gptPolledDelay
 1384              		.section	.rodata.__func__.7216,"a",%progbits
 1385              		.align	2
 1386              		.set	.LANCHOR1,. + 0
 1387              		.type	__func__.7216, %object
 1388              		.size	__func__.7216, 12
 1389              	__func__.7216:
 1390 0000 63685379 		.ascii	"chSysUnlock\000"
 1390      73556E6C 
 1390      6F636B00 
 1391              		.section	.rodata.__func__.9916,"a",%progbits
 1392              		.align	2
 1393              		.set	.LANCHOR0,. + 0
 1394              		.type	__func__.9916, %object
 1395              		.size	__func__.9916, 9
 1396              	__func__.9916:
 1397 0000 67707453 		.ascii	"gptStart\000"
 1397      74617274 
 1397      00
 1398              		.section	.rodata.__func__.9920,"a",%progbits
 1399              		.align	2
 1400              		.set	.LANCHOR2,. + 0
 1401              		.type	__func__.9920, %object
 1402              		.size	__func__.9920, 8
 1403              	__func__.9920:
 1404 0000 67707453 		.ascii	"gptStop\000"
 1404      746F7000 
 1405              		.section	.rodata.__func__.9925,"a",%progbits
 1406              		.align	2
 1407              		.set	.LANCHOR3,. + 0
 1408              		.type	__func__.9925, %object
 1409              		.size	__func__.9925, 18
 1410              	__func__.9925:
 1411 0000 67707443 		.ascii	"gptChangeInterval\000"
 1411      68616E67 
 1411      65496E74 
 1411      65727661 
 1411      6C00
 1412              		.section	.rodata.__func__.9934,"a",%progbits
 1413              		.align	2
 1414              		.set	.LANCHOR4,. + 0
 1415              		.type	__func__.9934, %object
 1416              		.size	__func__.9934, 20
ARM GAS  C:\Users\25521\AppData\Local\Temp\ccMD7kWJ.s 			page 26


 1417              	__func__.9934:
 1418 0000 67707453 		.ascii	"gptStartContinuousI\000"
 1418      74617274 
 1418      436F6E74 
 1418      696E756F 
 1418      75734900 
 1419              		.section	.rodata.__func__.9943,"a",%progbits
 1420              		.align	2
 1421              		.set	.LANCHOR5,. + 0
 1422              		.type	__func__.9943, %object
 1423              		.size	__func__.9943, 17
 1424              	__func__.9943:
 1425 0000 67707453 		.ascii	"gptStartOneShotI\000"
 1425      74617274 
 1425      4F6E6553 
 1425      686F7449 
 1425      00
 1426              		.section	.rodata.__func__.9950,"a",%progbits
 1427              		.align	2
 1428              		.set	.LANCHOR6,. + 0
 1429              		.type	__func__.9950, %object
 1430              		.size	__func__.9950, 14
 1431              	__func__.9950:
 1432 0000 67707453 		.ascii	"gptStopTimerI\000"
 1432      746F7054 
 1432      696D6572 
 1432      4900
 1433              		.section	.rodata.__func__.9955,"a",%progbits
 1434              		.align	2
 1435              		.set	.LANCHOR7,. + 0
 1436              		.type	__func__.9955, %object
 1437              		.size	__func__.9955, 15
 1438              	__func__.9955:
 1439 0000 67707450 		.ascii	"gptPolledDelay\000"
 1439      6F6C6C65 
 1439      6444656C 
 1439      617900
 1440              		.text
 1441              	.Letext0:
 1442              		.file 4 "d:\\eclipse_e-puck2_win32_11_apr_2018\\eclipse_e-puck2\\tools\\gcc-arm-none-eabi-7-2017-q
 1443              		.file 5 "d:\\eclipse_e-puck2_win32_11_apr_2018\\eclipse_e-puck2\\tools\\gcc-arm-none-eabi-7-2017-q
 1444              		.file 6 "d:\\eclipse_e-puck2_win32_11_apr_2018\\eclipse_e-puck2\\tools\\gcc-arm-none-eabi-7-2017-q
 1445              		.file 7 ".//ChibiOS//os/rt/ports/ARMCMx/compilers/GCC/chtypes.h"
 1446              		.file 8 ".//ChibiOS//os/rt/include/chsystypes.h"
 1447              		.file 9 ".//ChibiOS//os/rt/include/chschd.h"
 1448              		.file 10 ".//ChibiOS//os/ext/CMSIS/include/core_cm4.h"
 1449              		.file 11 ".//ChibiOS//os/ext/CMSIS/ST/system_stm32f4xx.h"
 1450              		.file 12 ".//ChibiOS//os/ext/CMSIS/ST/stm32f407xx.h"
 1451              		.file 13 ".//ChibiOS//os/rt/ports/ARMCMx/chcore.h"
 1452              		.file 14 ".//ChibiOS//os/rt/ports/ARMCMx/chcore_v7m.h"
 1453              		.file 15 ".//ChibiOS//os/rt/include/chdebug.h"
 1454              		.file 16 ".//ChibiOS//os/rt/include/chtm.h"
 1455              		.file 17 ".//ChibiOS//os/rt/include/chstats.h"
 1456              		.file 18 ".//ChibiOS//os/rt/include/chsem.h"
 1457              		.file 19 ".//ChibiOS//os/rt/include/chmtx.h"
 1458              		.file 20 ".//ChibiOS//os/rt/include/chregistry.h"
 1459              		.file 21 ".//ChibiOS//os/rt/include/chevents.h"
ARM GAS  C:\Users\25521\AppData\Local\Temp\ccMD7kWJ.s 			page 27


 1460              		.file 22 ".//ChibiOS//os/rt/include/chqueues.h"
 1461              		.file 23 ".//ChibiOS//os/hal/ports/STM32/LLD/DMAv2/stm32_dma.h"
 1462              		.file 24 ".//ChibiOS//os/hal/include/hal_ioblock.h"
 1463              		.file 25 ".//ChibiOS//os/hal/ports/STM32/LLD/GPIOv2/pal_lld.h"
 1464              		.file 26 ".//ChibiOS//os/hal/include/adc.h"
 1465              		.file 27 ".//ChibiOS//os/hal/ports/STM32/LLD/ADCv2/adc_lld.h"
 1466              		.file 28 ".//ChibiOS//os/hal/include/can.h"
 1467              		.file 29 ".//ChibiOS//os/hal/ports/STM32/LLD/CANv1/can_lld.h"
 1468              		.file 30 ".//ChibiOS//os/hal/include/dac.h"
 1469              		.file 31 ".//ChibiOS//os/hal/ports/STM32/LLD/DACv1/dac_lld.h"
 1470              		.file 32 ".//ChibiOS//os/hal/include/ext.h"
 1471              		.file 33 ".//ChibiOS//os/hal/ports/STM32/LLD/EXTIv1/ext_lld.h"
 1472              		.file 34 ".//ChibiOS//os/hal/include/gpt.h"
 1473              		.file 35 ".//ChibiOS//os/hal/ports/STM32/LLD/TIMv1/gpt_lld.h"
 1474              		.file 36 ".//ChibiOS//os/hal/ports/STM32/LLD/TIMv1/stm32_tim.h"
 1475              		.file 37 ".//ChibiOS//os/hal/include/i2c.h"
 1476              		.file 38 ".//ChibiOS//os/hal/ports/STM32/LLD/I2Cv1/i2c_lld.h"
 1477              		.file 39 ".//ChibiOS//os/hal/include/i2s.h"
 1478              		.file 40 ".//ChibiOS//os/hal/ports/STM32/LLD/SPIv1/i2s_lld.h"
 1479              		.file 41 ".//ChibiOS//os/hal/include/pwm.h"
 1480              		.file 42 ".//ChibiOS//os/hal/ports/STM32/LLD/TIMv1/pwm_lld.h"
 1481              		.file 43 ".//ChibiOS//os/hal/include/serial.h"
 1482              		.file 44 ".//ChibiOS//os/hal/ports/STM32/LLD/USARTv1/serial_lld.h"
 1483              		.file 45 ".//ChibiOS//os/hal/include/sdc.h"
 1484              		.file 46 ".//ChibiOS//os/hal/ports/STM32/LLD/SDIOv1/sdc_lld.h"
 1485              		.file 47 ".//ChibiOS//os/hal/include/spi.h"
 1486              		.file 48 ".//ChibiOS//os/hal/ports/STM32/LLD/SPIv1/spi_lld.h"
 1487              		.file 49 ".//ChibiOS//os/hal/include/usb.h"
 1488              		.file 50 ".//ChibiOS//os/hal/ports/STM32/LLD/OTGv1/usb_lld.h"
 1489              		.file 51 ".//ChibiOS//os/hal/ports/STM32/LLD/OTGv1/stm32_otg.h"
 1490              		.file 52 ".//ChibiOS//os/hal/osal/rt/osal.h"