ARM GAS  C:\Users\25521\AppData\Local\Temp\ccaEoz5W.s 			page 1


   1              		.cpu cortex-m4
   2              		.eabi_attribute 27, 1
   3              		.eabi_attribute 28, 1
   4              		.eabi_attribute 20, 1
   5              		.eabi_attribute 21, 1
   6              		.eabi_attribute 23, 3
   7              		.eabi_attribute 24, 1
   8              		.eabi_attribute 25, 1
   9              		.eabi_attribute 26, 1
  10              		.eabi_attribute 30, 2
  11              		.eabi_attribute 34, 1
  12              		.eabi_attribute 18, 4
  13              		.file	"hal.c"
  14              		.text
  15              	.Ltext0:
  16              		.cfi_sections	.debug_frame
  17              		.section	.text.halInit,"ax",%progbits
  18              		.align	1
  19              		.p2align 4,,15
  20              		.global	halInit
  21              		.syntax unified
  22              		.thumb
  23              		.thumb_func
  24              		.fpu fpv4-sp-d16
  25              		.type	halInit, %function
  26              	halInit:
  27              	.LFB267:
  28              		.file 1 ".//ChibiOS//os/hal/src/hal.c"
  29              		.loc 1 56 0
  30              		.cfi_startproc
  31              		@ args = 0, pretend = 0, frame = 8
  32              		@ frame_needed = 0, uses_anonymous_args = 0
  33 0000 10B5     		push	{r4, lr}
  34              		.cfi_def_cfa_offset 8
  35              		.cfi_offset 4, -8
  36              		.cfi_offset 14, -4
  37 0002 184C     		ldr	r4, .L7
  38 0004 82B0     		sub	sp, sp, #8
  39              		.cfi_def_cfa_offset 16
  40              		.loc 1 56 0
  41 0006 2368     		ldr	r3, [r4]
  42 0008 0193     		str	r3, [sp, #4]
  43              		.loc 1 62 0
  44 000a FFF7FEFF 		bl	hal_lld_init
  45              	.LVL0:
  46              		.loc 1 65 0
  47 000e 1648     		ldr	r0, .L7+4
  48 0010 FFF7FEFF 		bl	_pal_lld_init
  49              	.LVL1:
  50              		.loc 1 68 0
  51 0014 FFF7FEFF 		bl	adcInit
  52              	.LVL2:
  53              		.loc 1 71 0
  54 0018 FFF7FEFF 		bl	canInit
  55              	.LVL3:
  56              		.loc 1 74 0
  57 001c FFF7FEFF 		bl	dacInit
ARM GAS  C:\Users\25521\AppData\Local\Temp\ccaEoz5W.s 			page 2


  58              	.LVL4:
  59              		.loc 1 77 0
  60 0020 FFF7FEFF 		bl	extInit
  61              	.LVL5:
  62              		.loc 1 80 0
  63 0024 FFF7FEFF 		bl	gptInit
  64              	.LVL6:
  65              		.loc 1 83 0
  66 0028 FFF7FEFF 		bl	i2cInit
  67              	.LVL7:
  68              		.loc 1 86 0
  69 002c FFF7FEFF 		bl	i2sInit
  70              	.LVL8:
  71              		.loc 1 95 0
  72 0030 FFF7FEFF 		bl	pwmInit
  73              	.LVL9:
  74              		.loc 1 98 0
  75 0034 FFF7FEFF 		bl	sdInit
  76              	.LVL10:
  77              		.loc 1 101 0
  78 0038 FFF7FEFF 		bl	sdcInit
  79              	.LVL11:
  80              		.loc 1 104 0
  81 003c FFF7FEFF 		bl	spiInit
  82              	.LVL12:
  83              		.loc 1 110 0
  84 0040 FFF7FEFF 		bl	usbInit
  85              	.LVL13:
  86              		.loc 1 116 0
  87 0044 FFF7FEFF 		bl	sduInit
  88              	.LVL14:
  89              		.loc 1 130 0
  90 0048 FFF7FEFF 		bl	boardInit
  91              	.LVL15:
  92              		.loc 1 137 0
  93 004c 019A     		ldr	r2, [sp, #4]
  94 004e 2368     		ldr	r3, [r4]
  95 0050 9A42     		cmp	r2, r3
  96 0052 04D1     		bne	.L6
  97              		.loc 1 139 0
  98 0054 02B0     		add	sp, sp, #8
  99              		.cfi_remember_state
 100              		.cfi_def_cfa_offset 8
 101              		@ sp needed
 102 0056 BDE81040 		pop	{r4, lr}
 103              		.cfi_restore 14
 104              		.cfi_restore 4
 105              		.cfi_def_cfa_offset 0
 106              		.loc 1 137 0
 107 005a FFF7FEBF 		b	stInit
 108              	.LVL16:
 109              	.L6:
 110              		.cfi_restore_state
 111 005e FFF7FEFF 		bl	__stack_chk_fail
 112              	.LVL17:
 113              	.L8:
 114 0062 00BF     		.align	2
ARM GAS  C:\Users\25521\AppData\Local\Temp\ccaEoz5W.s 			page 3


 115              	.L7:
 116 0064 00000000 		.word	__stack_chk_guard
 117 0068 00000000 		.word	pal_default_config
 118              		.cfi_endproc
 119              	.LFE267:
 120              		.size	halInit, .-halInit
 121              		.text
 122              	.Letext0:
 123              		.file 2 "d:\\eclipse_e-puck2_win32_11_apr_2018\\eclipse_e-puck2\\tools\\gcc-arm-none-eabi-7-2017-q
 124              		.file 3 "d:\\eclipse_e-puck2_win32_11_apr_2018\\eclipse_e-puck2\\tools\\gcc-arm-none-eabi-7-2017-q
 125              		.file 4 "d:\\eclipse_e-puck2_win32_11_apr_2018\\eclipse_e-puck2\\tools\\gcc-arm-none-eabi-7-2017-q
 126              		.file 5 ".//ChibiOS//os/rt/ports/ARMCMx/compilers/GCC/chtypes.h"
 127              		.file 6 ".//ChibiOS//os/rt/include/chsystypes.h"
 128              		.file 7 ".//ChibiOS//os/rt/include/chschd.h"
 129              		.file 8 ".//ChibiOS//os/ext/CMSIS/include/core_cm4.h"
 130              		.file 9 ".//ChibiOS//os/ext/CMSIS/ST/system_stm32f4xx.h"
 131              		.file 10 ".//ChibiOS//os/ext/CMSIS/ST/stm32f407xx.h"
 132              		.file 11 ".//ChibiOS//os/rt/ports/ARMCMx/chcore.h"
 133              		.file 12 ".//ChibiOS//os/rt/ports/ARMCMx/chcore_v7m.h"
 134              		.file 13 ".//ChibiOS//os/rt/include/chdebug.h"
 135              		.file 14 ".//ChibiOS//os/rt/include/chtm.h"
 136              		.file 15 ".//ChibiOS//os/rt/include/chstats.h"
 137              		.file 16 ".//ChibiOS//os/rt/include/chsem.h"
 138              		.file 17 ".//ChibiOS//os/rt/include/chmtx.h"
 139              		.file 18 ".//ChibiOS//os/rt/include/chregistry.h"
 140              		.file 19 ".//ChibiOS//os/rt/include/chevents.h"
 141              		.file 20 ".//ChibiOS//os/rt/include/chqueues.h"
 142              		.file 21 ".//ChibiOS//os/hal/ports/STM32/LLD/DMAv2/stm32_dma.h"
 143              		.file 22 ".//ChibiOS//os/hal/include/hal_ioblock.h"
 144              		.file 23 ".//ChibiOS//os/hal/ports/STM32/LLD/GPIOv2/pal_lld.h"
 145              		.file 24 ".//ChibiOS//os/hal/include/adc.h"
 146              		.file 25 ".//ChibiOS//os/hal/ports/STM32/LLD/ADCv2/adc_lld.h"
 147              		.file 26 ".//ChibiOS//os/hal/include/can.h"
 148              		.file 27 ".//ChibiOS//os/hal/ports/STM32/LLD/CANv1/can_lld.h"
 149              		.file 28 ".//ChibiOS//os/hal/include/dac.h"
 150              		.file 29 ".//ChibiOS//os/hal/ports/STM32/LLD/DACv1/dac_lld.h"
 151              		.file 30 ".//ChibiOS//os/hal/include/ext.h"
 152              		.file 31 ".//ChibiOS//os/hal/ports/STM32/LLD/EXTIv1/ext_lld.h"
 153              		.file 32 ".//ChibiOS//os/hal/include/gpt.h"
 154              		.file 33 ".//ChibiOS//os/hal/ports/STM32/LLD/TIMv1/gpt_lld.h"
 155              		.file 34 ".//ChibiOS//os/hal/ports/STM32/LLD/TIMv1/stm32_tim.h"
 156              		.file 35 ".//ChibiOS//os/hal/include/i2c.h"
 157              		.file 36 ".//ChibiOS//os/hal/ports/STM32/LLD/I2Cv1/i2c_lld.h"
 158              		.file 37 ".//ChibiOS//os/hal/include/i2s.h"
 159              		.file 38 ".//ChibiOS//os/hal/ports/STM32/LLD/SPIv1/i2s_lld.h"
 160              		.file 39 ".//ChibiOS//os/hal/include/pwm.h"
 161              		.file 40 ".//ChibiOS//os/hal/ports/STM32/LLD/TIMv1/pwm_lld.h"
 162              		.file 41 ".//ChibiOS//os/hal/include/serial.h"
 163              		.file 42 ".//ChibiOS//os/hal/ports/STM32/LLD/USARTv1/serial_lld.h"
 164              		.file 43 ".//ChibiOS//os/hal/include/sdc.h"
 165              		.file 44 ".//ChibiOS//os/hal/ports/STM32/LLD/SDIOv1/sdc_lld.h"
 166              		.file 45 ".//ChibiOS//os/hal/include/spi.h"
 167              		.file 46 ".//ChibiOS//os/hal/ports/STM32/LLD/SPIv1/spi_lld.h"
 168              		.file 47 ".//ChibiOS//os/hal/include/usb.h"
 169              		.file 48 ".//ChibiOS//os/hal/ports/STM32/LLD/OTGv1/usb_lld.h"
 170              		.file 49 ".//ChibiOS//os/hal/ports/STM32/LLD/OTGv1/stm32_otg.h"
 171              		.file 50 ".//ChibiOS//os/hal/ports/STM32/STM32F4xx/hal_lld.h"
ARM GAS  C:\Users\25521\AppData\Local\Temp\ccaEoz5W.s 			page 4


 172              		.file 51 ".//ChibiOS//os/hal/include/serial_usb.h"
 173              		.file 52 ".//ChibiOS_ext//os/hal/boards/epuck2/board.h"
 174              		.file 53 ".//ChibiOS//os/hal/include/st.h"
 175              		.file 54 ".//ChibiOS//os/hal/osal/rt/osal.h"