ARM GAS  C:\Users\25521\AppData\Local\Temp\ccCQzFA7.s 			page 1


   1              		.cpu cortex-m4
   2              		.eabi_attribute 27, 1
   3              		.eabi_attribute 28, 1
   4              		.eabi_attribute 20, 1
   5              		.eabi_attribute 21, 1
   6              		.eabi_attribute 23, 3
   7              		.eabi_attribute 24, 1
   8              		.eabi_attribute 25, 1
   9              		.eabi_attribute 26, 1
  10              		.eabi_attribute 30, 2
  11              		.eabi_attribute 34, 1
  12              		.eabi_attribute 18, 4
  13              		.file	"i2c_bus.c"
  14              		.text
  15              	.Ltext0:
  16              		.cfi_sections	.debug_frame
  17              		.section	.text.i2c_start.part.0,"ax",%progbits
  18              		.align	1
  19              		.p2align 4,,15
  20              		.syntax unified
  21              		.thumb
  22              		.thumb_func
  23              		.fpu fpv4-sp-d16
  24              		.type	i2c_start.part.0, %function
  25              	i2c_start.part.0:
  26              	.LFB274:
  27              		.file 1 ".//src/i2c_bus.c"
  28              		.loc 1 8 0
  29              		.cfi_startproc
  30              		@ args = 0, pretend = 0, frame = 8
  31              		@ frame_needed = 0, uses_anonymous_args = 0
  32 0000 70B5     		push	{r4, r5, r6, lr}
  33              		.cfi_def_cfa_offset 16
  34              		.cfi_offset 4, -16
  35              		.cfi_offset 5, -12
  36              		.cfi_offset 6, -8
  37              		.cfi_offset 14, -4
  38 0002 164E     		ldr	r6, .L9
  39              		.loc 1 26 0
  40 0004 1648     		ldr	r0, .L9+4
  41              		.loc 1 8 0
  42 0006 3368     		ldr	r3, [r6]
  43              	.LBB18:
  44              		.loc 1 29 0
  45 0008 154D     		ldr	r5, .L9+4
  46              	.LBE18:
  47              		.loc 1 8 0
  48 000a 82B0     		sub	sp, sp, #8
  49              		.cfi_def_cfa_offset 24
  50              		.loc 1 26 0
  51 000c 0522     		movs	r2, #5
  52 000e 4FF48071 		mov	r1, #256
  53              		.loc 1 8 0
  54 0012 0193     		str	r3, [sp, #4]
  55              		.loc 1 26 0
  56 0014 FFF7FEFF 		bl	_pal_lld_setgroupmode
  57              	.LVL0:
ARM GAS  C:\Users\25521\AppData\Local\Temp\ccCQzFA7.s 			page 2


  58 0018 2024     		movs	r4, #32
  59              	.LVL1:
  60              	.L2:
  61              	.LBB19:
  62              		.loc 1 29 0
  63 001a 6B69     		ldr	r3, [r5, #20]
  64 001c 83F48073 		eor	r3, r3, #256
  65 0020 6B61     		str	r3, [r5, #20]
  66              		.loc 1 30 0
  67 0022 0120     		movs	r0, #1
  68 0024 FFF7FEFF 		bl	chThdSleep
  69              	.LVL2:
  70 0028 631E     		subs	r3, r4, #1
  71              		.loc 1 28 0
  72 002a 13F0FF04 		ands	r4, r3, #255
  73              	.LVL3:
  74 002e F4D1     		bne	.L2
  75              	.LBE19:
  76              		.loc 1 33 0
  77 0030 4FF48071 		mov	r1, #256
  78              		.loc 1 35 0
  79 0034 40F20622 		movw	r2, #518
  80              		.loc 1 33 0
  81 0038 2983     		strh	r1, [r5, #24]	@ movhi
  82              		.loc 1 35 0
  83 003a 0948     		ldr	r0, .L9+4
  84 003c FFF7FEFF 		bl	_pal_lld_setgroupmode
  85              	.LVL4:
  86              		.loc 1 36 0
  87 0040 019A     		ldr	r2, [sp, #4]
  88 0042 3368     		ldr	r3, [r6]
  89 0044 9A42     		cmp	r2, r3
  90 0046 06D1     		bne	.L8
  91 0048 0649     		ldr	r1, .L9+8
  92 004a 0748     		ldr	r0, .L9+12
  93              		.loc 1 37 0
  94 004c 02B0     		add	sp, sp, #8
  95              		.cfi_remember_state
  96              		.cfi_def_cfa_offset 16
  97              		@ sp needed
  98 004e BDE87040 		pop	{r4, r5, r6, lr}
  99              		.cfi_restore 14
 100              		.cfi_restore 6
 101              		.cfi_restore 5
 102              		.cfi_restore 4
 103              		.cfi_def_cfa_offset 0
 104              		.loc 1 36 0
 105 0052 FFF7FEBF 		b	i2cStart
 106              	.LVL5:
 107              	.L8:
 108              		.cfi_restore_state
 109 0056 FFF7FEFF 		bl	__stack_chk_fail
 110              	.LVL6:
 111              	.L10:
 112 005a 00BF     		.align	2
 113              	.L9:
 114 005c 00000000 		.word	__stack_chk_guard
ARM GAS  C:\Users\25521\AppData\Local\Temp\ccCQzFA7.s 			page 3


 115 0060 00040240 		.word	1073873920
 116 0064 00000000 		.word	.LANCHOR0
 117 0068 00000000 		.word	I2CD1
 118              		.cfi_endproc
 119              	.LFE274:
 120              		.size	i2c_start.part.0, .-i2c_start.part.0
 121              		.section	.text.i2c_start,"ax",%progbits
 122              		.align	1
 123              		.p2align 4,,15
 124              		.global	i2c_start
 125              		.syntax unified
 126              		.thumb
 127              		.thumb_func
 128              		.fpu fpv4-sp-d16
 129              		.type	i2c_start, %function
 130              	i2c_start:
 131              	.LFB267:
 132              		.loc 1 8 0
 133              		.cfi_startproc
 134              		@ args = 0, pretend = 0, frame = 8
 135              		@ frame_needed = 0, uses_anonymous_args = 0
 136 0000 00B5     		push	{lr}
 137              		.cfi_def_cfa_offset 4
 138              		.cfi_offset 14, -4
 139              		.loc 1 10 0
 140 0002 0C4A     		ldr	r2, .L18
 141              		.loc 1 8 0
 142 0004 0C4B     		ldr	r3, .L18+4
 143              		.loc 1 10 0
 144 0006 1278     		ldrb	r2, [r2]	@ zero_extendqisi2
 145              		.loc 1 8 0
 146 0008 1968     		ldr	r1, [r3]
 147 000a 83B0     		sub	sp, sp, #12
 148              		.cfi_def_cfa_offset 16
 149              		.loc 1 10 0
 150 000c 012A     		cmp	r2, #1
 151              		.loc 1 8 0
 152 000e 0191     		str	r1, [sp, #4]
 153              		.loc 1 37 0
 154 0010 019A     		ldr	r2, [sp, #4]
 155 0012 1B68     		ldr	r3, [r3]
 156              		.loc 1 10 0
 157 0014 04D0     		beq	.L17
 158              		.loc 1 37 0
 159 0016 9A42     		cmp	r2, r3
 160 0018 09D1     		bne	.L16
 161 001a 03B0     		add	sp, sp, #12
 162              		.cfi_remember_state
 163              		.cfi_def_cfa_offset 4
 164              		@ sp needed
 165 001c 5DF804FB 		ldr	pc, [sp], #4
 166              	.L17:
 167              		.cfi_restore_state
 168 0020 9A42     		cmp	r2, r3
 169 0022 04D1     		bne	.L16
 170 0024 03B0     		add	sp, sp, #12
 171              		.cfi_remember_state
ARM GAS  C:\Users\25521\AppData\Local\Temp\ccCQzFA7.s 			page 4


 172              		.cfi_def_cfa_offset 4
 173              		@ sp needed
 174 0026 5DF804EB 		ldr	lr, [sp], #4
 175              		.cfi_restore 14
 176              		.cfi_def_cfa_offset 0
 177 002a FFF7FEBF 		b	i2c_start.part.0
 178              	.LVL7:
 179              	.L16:
 180              		.cfi_restore_state
 181 002e FFF7FEFF 		bl	__stack_chk_fail
 182              	.LVL8:
 183              	.L19:
 184 0032 00BF     		.align	2
 185              	.L18:
 186 0034 00000000 		.word	I2CD1
 187 0038 00000000 		.word	__stack_chk_guard
 188              		.cfi_endproc
 189              	.LFE267:
 190              		.size	i2c_start, .-i2c_start
 191              		.section	.text.i2c_stop,"ax",%progbits
 192              		.align	1
 193              		.p2align 4,,15
 194              		.global	i2c_stop
 195              		.syntax unified
 196              		.thumb
 197              		.thumb_func
 198              		.fpu fpv4-sp-d16
 199              		.type	i2c_stop, %function
 200              	i2c_stop:
 201              	.LFB268:
 202              		.loc 1 39 0
 203              		.cfi_startproc
 204              		@ args = 0, pretend = 0, frame = 8
 205              		@ frame_needed = 0, uses_anonymous_args = 0
 206 0000 00B5     		push	{lr}
 207              		.cfi_def_cfa_offset 4
 208              		.cfi_offset 14, -4
 209 0002 084B     		ldr	r3, .L25
 210 0004 83B0     		sub	sp, sp, #12
 211              		.cfi_def_cfa_offset 16
 212              		.loc 1 39 0
 213 0006 1A68     		ldr	r2, [r3]
 214 0008 0192     		str	r2, [sp, #4]
 215              		.loc 1 40 0
 216 000a 019A     		ldr	r2, [sp, #4]
 217 000c 1B68     		ldr	r3, [r3]
 218 000e 9A42     		cmp	r2, r3
 219 0010 05D1     		bne	.L24
 220 0012 0548     		ldr	r0, .L25+4
 221              		.loc 1 41 0
 222 0014 03B0     		add	sp, sp, #12
 223              		.cfi_remember_state
 224              		.cfi_def_cfa_offset 4
 225              		@ sp needed
 226 0016 5DF804EB 		ldr	lr, [sp], #4
 227              		.cfi_restore 14
 228              		.cfi_def_cfa_offset 0
ARM GAS  C:\Users\25521\AppData\Local\Temp\ccCQzFA7.s 			page 5


 229              		.loc 1 40 0
 230 001a FFF7FEBF 		b	i2cStop
 231              	.LVL9:
 232              	.L24:
 233              		.cfi_restore_state
 234 001e FFF7FEFF 		bl	__stack_chk_fail
 235              	.LVL10:
 236              	.L26:
 237 0022 00BF     		.align	2
 238              	.L25:
 239 0024 00000000 		.word	__stack_chk_guard
 240 0028 00000000 		.word	I2CD1
 241              		.cfi_endproc
 242              	.LFE268:
 243              		.size	i2c_stop, .-i2c_stop
 244              		.section	.text.i2c_update_last_error,"ax",%progbits
 245              		.align	1
 246              		.p2align 4,,15
 247              		.global	i2c_update_last_error
 248              		.syntax unified
 249              		.thumb
 250              		.thumb_func
 251              		.fpu fpv4-sp-d16
 252              		.type	i2c_update_last_error, %function
 253              	i2c_update_last_error:
 254              	.LFB269:
 255              		.loc 1 43 0
 256              		.cfi_startproc
 257              		@ args = 0, pretend = 0, frame = 8
 258              		@ frame_needed = 0, uses_anonymous_args = 0
 259 0000 10B5     		push	{r4, lr}
 260              		.cfi_def_cfa_offset 8
 261              		.cfi_offset 4, -8
 262              		.cfi_offset 14, -4
 263 0002 084C     		ldr	r4, .L31
 264              		.loc 1 44 0
 265 0004 0848     		ldr	r0, .L31+4
 266              		.loc 1 43 0
 267 0006 2368     		ldr	r3, [r4]
 268 0008 82B0     		sub	sp, sp, #8
 269              		.cfi_def_cfa_offset 16
 270              		.loc 1 43 0
 271 000a 0193     		str	r3, [sp, #4]
 272              		.loc 1 44 0
 273 000c FFF7FEFF 		bl	i2cGetErrors
 274              	.LVL11:
 275              		.loc 1 45 0
 276 0010 019A     		ldr	r2, [sp, #4]
 277 0012 2368     		ldr	r3, [r4]
 278              		.loc 1 44 0
 279 0014 0549     		ldr	r1, .L31+8
 280              		.loc 1 45 0
 281 0016 9A42     		cmp	r2, r3
 282              		.loc 1 44 0
 283 0018 0860     		str	r0, [r1]
 284              		.loc 1 45 0
 285 001a 01D1     		bne	.L30
ARM GAS  C:\Users\25521\AppData\Local\Temp\ccCQzFA7.s 			page 6


 286 001c 02B0     		add	sp, sp, #8
 287              		.cfi_remember_state
 288              		.cfi_def_cfa_offset 8
 289              		@ sp needed
 290 001e 10BD     		pop	{r4, pc}
 291              	.L30:
 292              		.cfi_restore_state
 293 0020 FFF7FEFF 		bl	__stack_chk_fail
 294              	.LVL12:
 295              	.L32:
 296              		.align	2
 297              	.L31:
 298 0024 00000000 		.word	__stack_chk_guard
 299 0028 00000000 		.word	I2CD1
 300 002c 00000000 		.word	.LANCHOR1
 301              		.cfi_endproc
 302              	.LFE269:
 303              		.size	i2c_update_last_error, .-i2c_update_last_error
 304              		.section	.text.get_last_i2c_error,"ax",%progbits
 305              		.align	1
 306              		.p2align 4,,15
 307              		.global	get_last_i2c_error
 308              		.syntax unified
 309              		.thumb
 310              		.thumb_func
 311              		.fpu fpv4-sp-d16
 312              		.type	get_last_i2c_error, %function
 313              	get_last_i2c_error:
 314              	.LFB270:
 315              		.loc 1 47 0
 316              		.cfi_startproc
 317              		@ args = 0, pretend = 0, frame = 8
 318              		@ frame_needed = 0, uses_anonymous_args = 0
 319 0000 00B5     		push	{lr}
 320              		.cfi_def_cfa_offset 4
 321              		.cfi_offset 14, -4
 322 0002 074B     		ldr	r3, .L37
 323              		.loc 1 48 0
 324 0004 0749     		ldr	r1, .L37+4
 325              		.loc 1 47 0
 326 0006 1A68     		ldr	r2, [r3]
 327              		.loc 1 49 0
 328 0008 0868     		ldr	r0, [r1]
 329              		.loc 1 47 0
 330 000a 83B0     		sub	sp, sp, #12
 331              		.cfi_def_cfa_offset 16
 332              		.loc 1 47 0
 333 000c 0192     		str	r2, [sp, #4]
 334              		.loc 1 49 0
 335 000e 019A     		ldr	r2, [sp, #4]
 336 0010 1B68     		ldr	r3, [r3]
 337 0012 9A42     		cmp	r2, r3
 338 0014 02D1     		bne	.L36
 339 0016 03B0     		add	sp, sp, #12
 340              		.cfi_remember_state
 341              		.cfi_def_cfa_offset 4
 342              		@ sp needed
ARM GAS  C:\Users\25521\AppData\Local\Temp\ccCQzFA7.s 			page 7


 343 0018 5DF804FB 		ldr	pc, [sp], #4
 344              	.L36:
 345              		.cfi_restore_state
 346 001c FFF7FEFF 		bl	__stack_chk_fail
 347              	.LVL13:
 348              	.L38:
 349              		.align	2
 350              	.L37:
 351 0020 00000000 		.word	__stack_chk_guard
 352 0024 00000000 		.word	.LANCHOR1
 353              		.cfi_endproc
 354              	.LFE270:
 355              		.size	get_last_i2c_error, .-get_last_i2c_error
 356              		.section	.text.read_reg,"ax",%progbits
 357              		.align	1
 358              		.p2align 4,,15
 359              		.global	read_reg
 360              		.syntax unified
 361              		.thumb
 362              		.thumb_func
 363              		.fpu fpv4-sp-d16
 364              		.type	read_reg, %function
 365              	read_reg:
 366              	.LFB271:
 367              		.loc 1 51 0
 368              		.cfi_startproc
 369              		@ args = 0, pretend = 0, frame = 16
 370              		@ frame_needed = 0, uses_anonymous_args = 0
 371              	.LVL14:
 372 0000 2DE9F041 		push	{r4, r5, r6, r7, r8, lr}
 373              		.cfi_def_cfa_offset 24
 374              		.cfi_offset 4, -24
 375              		.cfi_offset 5, -20
 376              		.cfi_offset 6, -16
 377              		.cfi_offset 7, -12
 378              		.cfi_offset 8, -8
 379              		.cfi_offset 14, -4
 380              		.loc 1 56 0
 381 0004 224C     		ldr	r4, .L56
 382              		.loc 1 51 0
 383 0006 234E     		ldr	r6, .L56+4
 384 0008 88B0     		sub	sp, sp, #32
 385              		.cfi_def_cfa_offset 56
 386              		.loc 1 54 0
 387 000a 0023     		movs	r3, #0
 388              		.loc 1 51 0
 389 000c 3568     		ldr	r5, [r6]
 390              		.loc 1 54 0
 391 000e 8DF81830 		strb	r3, [sp, #24]
 392              		.loc 1 51 0
 393 0012 8046     		mov	r8, r0
 394              		.loc 1 56 0
 395 0014 2046     		mov	r0, r4
 396              	.LVL15:
 397              		.loc 1 53 0
 398 0016 8DF81410 		strb	r1, [sp, #20]
 399              		.loc 1 51 0
ARM GAS  C:\Users\25521\AppData\Local\Temp\ccCQzFA7.s 			page 8


 400 001a 1746     		mov	r7, r2
 401 001c 0795     		str	r5, [sp, #28]
 402              		.loc 1 56 0
 403 001e FFF7FEFF 		bl	i2cAcquireBus
 404              	.LVL16:
 405              		.loc 1 57 0
 406 0022 2378     		ldrb	r3, [r4]	@ zero_extendqisi2
 407 0024 012B     		cmp	r3, #1
 408 0026 0CD0     		beq	.L40
 409              	.LBB20:
 410              		.loc 1 58 0
 411 0028 0420     		movs	r0, #4
 412 002a 0123     		movs	r3, #1
 413 002c 06AA     		add	r2, sp, #24
 414 002e CDE90130 		strd	r3, r0, [sp, #4]
 415 0032 0092     		str	r2, [sp]
 416 0034 4146     		mov	r1, r8
 417 0036 05AA     		add	r2, sp, #20
 418 0038 2046     		mov	r0, r4
 419 003a FFF7FEFF 		bl	i2cMasterTransmitTimeout
 420              	.LVL17:
 421              		.loc 1 59 0
 422 003e 0546     		mov	r5, r0
 423 0040 68B9     		cbnz	r0, .L53
 424              	.LVL18:
 425              	.L40:
 426              	.LBE20:
 427              		.loc 1 69 0
 428 0042 1348     		ldr	r0, .L56
 429 0044 FFF7FEFF 		bl	i2cReleaseBus
 430              	.LVL19:
 431              		.loc 1 71 0
 432 0048 9DF81830 		ldrb	r3, [sp, #24]	@ zero_extendqisi2
 433 004c 3B70     		strb	r3, [r7]
 434              		.loc 1 73 0
 435 004e 0020     		movs	r0, #0
 436              	.L44:
 437              		.loc 1 74 0
 438 0050 079A     		ldr	r2, [sp, #28]
 439 0052 3368     		ldr	r3, [r6]
 440 0054 9A42     		cmp	r2, r3
 441 0056 18D1     		bne	.L54
 442 0058 08B0     		add	sp, sp, #32
 443              		.cfi_remember_state
 444              		.cfi_def_cfa_offset 24
 445              		@ sp needed
 446 005a BDE8F081 		pop	{r4, r5, r6, r7, r8, pc}
 447              	.LVL20:
 448              	.L53:
 449              		.cfi_restore_state
 450              	.LBB25:
 451              		.loc 1 60 0
 452 005e 2046     		mov	r0, r4
 453              	.LVL21:
 454 0060 FFF7FEFF 		bl	i2cGetErrors
 455              	.LVL22:
 456              		.loc 1 61 0
ARM GAS  C:\Users\25521\AppData\Local\Temp\ccCQzFA7.s 			page 9


 457 0064 2378     		ldrb	r3, [r4]	@ zero_extendqisi2
 458              		.loc 1 60 0
 459 0066 0C4A     		ldr	r2, .L56+8
 460              		.loc 1 61 0
 461 0068 052B     		cmp	r3, #5
 462              		.loc 1 60 0
 463 006a 1060     		str	r0, [r2]
 464              		.loc 1 61 0
 465 006c 04D0     		beq	.L55
 466              	.L42:
 467              		.loc 1 65 0
 468 006e 0848     		ldr	r0, .L56
 469 0070 FFF7FEFF 		bl	i2cReleaseBus
 470              	.LVL23:
 471              		.loc 1 66 0
 472 0074 68B2     		sxtb	r0, r5
 473 0076 EBE7     		b	.L44
 474              	.L55:
 475              	.LBB21:
 476              	.LBB22:
 477              		.loc 1 40 0
 478 0078 2046     		mov	r0, r4
 479 007a FFF7FEFF 		bl	i2cStop
 480              	.LVL24:
 481              	.LBE22:
 482              	.LBE21:
 483              	.LBB23:
 484              	.LBB24:
 485              		.loc 1 10 0
 486 007e 2378     		ldrb	r3, [r4]	@ zero_extendqisi2
 487 0080 012B     		cmp	r3, #1
 488 0082 F4D1     		bne	.L42
 489 0084 FFF7FEFF 		bl	i2c_start.part.0
 490              	.LVL25:
 491 0088 F1E7     		b	.L42
 492              	.LVL26:
 493              	.L54:
 494              	.LBE24:
 495              	.LBE23:
 496              	.LBE25:
 497              		.loc 1 74 0
 498 008a FFF7FEFF 		bl	__stack_chk_fail
 499              	.LVL27:
 500              	.L57:
 501 008e 00BF     		.align	2
 502              	.L56:
 503 0090 00000000 		.word	I2CD1
 504 0094 00000000 		.word	__stack_chk_guard
 505 0098 00000000 		.word	.LANCHOR1
 506              		.cfi_endproc
 507              	.LFE271:
 508              		.size	read_reg, .-read_reg
 509              		.section	.text.write_reg,"ax",%progbits
 510              		.align	1
 511              		.p2align 4,,15
 512              		.global	write_reg
 513              		.syntax unified
ARM GAS  C:\Users\25521\AppData\Local\Temp\ccCQzFA7.s 			page 10


 514              		.thumb
 515              		.thumb_func
 516              		.fpu fpv4-sp-d16
 517              		.type	write_reg, %function
 518              	write_reg:
 519              	.LFB272:
 520              		.loc 1 77 0
 521              		.cfi_startproc
 522              		@ args = 0, pretend = 0, frame = 16
 523              		@ frame_needed = 0, uses_anonymous_args = 0
 524              	.LVL28:
 525 0000 F0B5     		push	{r4, r5, r6, r7, lr}
 526              		.cfi_def_cfa_offset 20
 527              		.cfi_offset 4, -20
 528              		.cfi_offset 5, -16
 529              		.cfi_offset 6, -12
 530              		.cfi_offset 7, -8
 531              		.cfi_offset 14, -4
 532              		.loc 1 82 0
 533 0002 214C     		ldr	r4, .L75
 534              		.loc 1 77 0
 535 0004 214E     		ldr	r6, .L75+4
 536 0006 89B0     		sub	sp, sp, #36
 537              		.cfi_def_cfa_offset 56
 538              		.loc 1 77 0
 539 0008 3368     		ldr	r3, [r6]
 540 000a 0793     		str	r3, [sp, #28]
 541 000c 0746     		mov	r7, r0
 542              		.loc 1 80 0
 543 000e 0025     		movs	r5, #0
 544              		.loc 1 82 0
 545 0010 2046     		mov	r0, r4
 546              	.LVL29:
 547              		.loc 1 79 0
 548 0012 8DF81810 		strb	r1, [sp, #24]
 549 0016 8DF81920 		strb	r2, [sp, #25]
 550              		.loc 1 80 0
 551 001a 8DF81450 		strb	r5, [sp, #20]
 552              		.loc 1 82 0
 553 001e FFF7FEFF 		bl	i2cAcquireBus
 554              	.LVL30:
 555              		.loc 1 83 0
 556 0022 2378     		ldrb	r3, [r4]	@ zero_extendqisi2
 557 0024 012B     		cmp	r3, #1
 558 0026 0CD0     		beq	.L59
 559              	.LBB26:
 560              		.loc 1 84 0
 561 0028 0422     		movs	r2, #4
 562 002a 05AB     		add	r3, sp, #20
 563 002c 0195     		str	r5, [sp, #4]
 564 002e 0292     		str	r2, [sp, #8]
 565 0030 0093     		str	r3, [sp]
 566 0032 3946     		mov	r1, r7
 567 0034 0223     		movs	r3, #2
 568 0036 06AA     		add	r2, sp, #24
 569 0038 2046     		mov	r0, r4
 570 003a FFF7FEFF 		bl	i2cMasterTransmitTimeout
ARM GAS  C:\Users\25521\AppData\Local\Temp\ccCQzFA7.s 			page 11


 571              	.LVL31:
 572              		.loc 1 85 0
 573 003e 0546     		mov	r5, r0
 574 0040 48B9     		cbnz	r0, .L72
 575              	.LVL32:
 576              	.L59:
 577              	.LBE26:
 578              		.loc 1 95 0
 579 0042 1148     		ldr	r0, .L75
 580 0044 FFF7FEFF 		bl	i2cReleaseBus
 581              	.LVL33:
 582              		.loc 1 97 0
 583 0048 0020     		movs	r0, #0
 584              	.L63:
 585              		.loc 1 98 0
 586 004a 079A     		ldr	r2, [sp, #28]
 587 004c 3368     		ldr	r3, [r6]
 588 004e 9A42     		cmp	r2, r3
 589 0050 17D1     		bne	.L73
 590 0052 09B0     		add	sp, sp, #36
 591              		.cfi_remember_state
 592              		.cfi_def_cfa_offset 20
 593              		@ sp needed
 594 0054 F0BD     		pop	{r4, r5, r6, r7, pc}
 595              	.LVL34:
 596              	.L72:
 597              		.cfi_restore_state
 598              	.LBB31:
 599              		.loc 1 86 0
 600 0056 2046     		mov	r0, r4
 601              	.LVL35:
 602 0058 FFF7FEFF 		bl	i2cGetErrors
 603              	.LVL36:
 604              		.loc 1 87 0
 605 005c 2378     		ldrb	r3, [r4]	@ zero_extendqisi2
 606              		.loc 1 86 0
 607 005e 0C4A     		ldr	r2, .L75+8
 608              		.loc 1 87 0
 609 0060 052B     		cmp	r3, #5
 610              		.loc 1 86 0
 611 0062 1060     		str	r0, [r2]
 612              		.loc 1 87 0
 613 0064 04D0     		beq	.L74
 614              	.L61:
 615              		.loc 1 91 0
 616 0066 0848     		ldr	r0, .L75
 617 0068 FFF7FEFF 		bl	i2cReleaseBus
 618              	.LVL37:
 619              		.loc 1 92 0
 620 006c 68B2     		sxtb	r0, r5
 621 006e ECE7     		b	.L63
 622              	.L74:
 623              	.LBB27:
 624              	.LBB28:
 625              		.loc 1 40 0
 626 0070 2046     		mov	r0, r4
 627 0072 FFF7FEFF 		bl	i2cStop
ARM GAS  C:\Users\25521\AppData\Local\Temp\ccCQzFA7.s 			page 12


 628              	.LVL38:
 629              	.LBE28:
 630              	.LBE27:
 631              	.LBB29:
 632              	.LBB30:
 633              		.loc 1 10 0
 634 0076 2378     		ldrb	r3, [r4]	@ zero_extendqisi2
 635 0078 012B     		cmp	r3, #1
 636 007a F4D1     		bne	.L61
 637 007c FFF7FEFF 		bl	i2c_start.part.0
 638              	.LVL39:
 639 0080 F1E7     		b	.L61
 640              	.LVL40:
 641              	.L73:
 642              	.LBE30:
 643              	.LBE29:
 644              	.LBE31:
 645              		.loc 1 98 0
 646 0082 FFF7FEFF 		bl	__stack_chk_fail
 647              	.LVL41:
 648              	.L76:
 649 0086 00BF     		.align	2
 650              	.L75:
 651 0088 00000000 		.word	I2CD1
 652 008c 00000000 		.word	__stack_chk_guard
 653 0090 00000000 		.word	.LANCHOR1
 654              		.cfi_endproc
 655              	.LFE272:
 656              		.size	write_reg, .-write_reg
 657              		.section	.text.read_reg_multi,"ax",%progbits
 658              		.align	1
 659              		.p2align 4,,15
 660              		.global	read_reg_multi
 661              		.syntax unified
 662              		.thumb
 663              		.thumb_func
 664              		.fpu fpv4-sp-d16
 665              		.type	read_reg_multi, %function
 666              	read_reg_multi:
 667              	.LFB273:
 668              		.loc 1 100 0
 669              		.cfi_startproc
 670              		@ args = 0, pretend = 0, frame = 16
 671              		@ frame_needed = 0, uses_anonymous_args = 0
 672              	.LVL42:
 673 0000 2DE9F043 		push	{r4, r5, r6, r7, r8, r9, lr}
 674              		.cfi_def_cfa_offset 28
 675              		.cfi_offset 4, -28
 676              		.cfi_offset 5, -24
 677              		.cfi_offset 6, -20
 678              		.cfi_offset 7, -16
 679              		.cfi_offset 8, -12
 680              		.cfi_offset 9, -8
 681              		.cfi_offset 14, -4
 682              		.loc 1 102 0
 683 0004 1F4C     		ldr	r4, .L94
 684              		.loc 1 100 0
ARM GAS  C:\Users\25521\AppData\Local\Temp\ccCQzFA7.s 			page 13


 685 0006 204E     		ldr	r6, .L94+4
 686 0008 89B0     		sub	sp, sp, #36
 687              		.cfi_def_cfa_offset 64
 688              		.loc 1 100 0
 689 000a 3568     		ldr	r5, [r6]
 690 000c 8DF81710 		strb	r1, [sp, #23]
 691 0010 0746     		mov	r7, r0
 692              		.loc 1 102 0
 693 0012 2046     		mov	r0, r4
 694              	.LVL43:
 695              		.loc 1 100 0
 696 0014 9046     		mov	r8, r2
 697 0016 9946     		mov	r9, r3
 698 0018 0795     		str	r5, [sp, #28]
 699              		.loc 1 102 0
 700 001a FFF7FEFF 		bl	i2cAcquireBus
 701              	.LVL44:
 702              		.loc 1 103 0
 703 001e 2178     		ldrb	r1, [r4]	@ zero_extendqisi2
 704 0020 0129     		cmp	r1, #1
 705 0022 0CD0     		beq	.L78
 706              	.LBB32:
 707              		.loc 1 104 0
 708 0024 0423     		movs	r3, #4
 709 0026 0293     		str	r3, [sp, #8]
 710 0028 CDE90089 		strd	r8, r9, [sp]
 711 002c 3946     		mov	r1, r7
 712 002e 0123     		movs	r3, #1
 713 0030 0DF11702 		add	r2, sp, #23
 714 0034 2046     		mov	r0, r4
 715 0036 FFF7FEFF 		bl	i2cMasterTransmitTimeout
 716              	.LVL45:
 717              		.loc 1 105 0
 718 003a 0546     		mov	r5, r0
 719 003c 50B9     		cbnz	r0, .L91
 720              	.LVL46:
 721              	.L78:
 722              	.LBE32:
 723              		.loc 1 115 0
 724 003e 1148     		ldr	r0, .L94
 725 0040 FFF7FEFF 		bl	i2cReleaseBus
 726              	.LVL47:
 727              		.loc 1 117 0
 728 0044 0020     		movs	r0, #0
 729              	.L82:
 730              		.loc 1 118 0
 731 0046 079A     		ldr	r2, [sp, #28]
 732 0048 3368     		ldr	r3, [r6]
 733 004a 9A42     		cmp	r2, r3
 734 004c 18D1     		bne	.L92
 735 004e 09B0     		add	sp, sp, #36
 736              		.cfi_remember_state
 737              		.cfi_def_cfa_offset 28
 738              		@ sp needed
 739 0050 BDE8F083 		pop	{r4, r5, r6, r7, r8, r9, pc}
 740              	.LVL48:
 741              	.L91:
ARM GAS  C:\Users\25521\AppData\Local\Temp\ccCQzFA7.s 			page 14


 742              		.cfi_restore_state
 743              	.LBB37:
 744              		.loc 1 106 0
 745 0054 2046     		mov	r0, r4
 746              	.LVL49:
 747 0056 FFF7FEFF 		bl	i2cGetErrors
 748              	.LVL50:
 749              		.loc 1 107 0
 750 005a 2378     		ldrb	r3, [r4]	@ zero_extendqisi2
 751              		.loc 1 106 0
 752 005c 0B4A     		ldr	r2, .L94+8
 753              		.loc 1 107 0
 754 005e 052B     		cmp	r3, #5
 755              		.loc 1 106 0
 756 0060 1060     		str	r0, [r2]
 757              		.loc 1 107 0
 758 0062 04D0     		beq	.L93
 759              	.L80:
 760              		.loc 1 111 0
 761 0064 0748     		ldr	r0, .L94
 762 0066 FFF7FEFF 		bl	i2cReleaseBus
 763              	.LVL51:
 764              		.loc 1 112 0
 765 006a 68B2     		sxtb	r0, r5
 766 006c EBE7     		b	.L82
 767              	.L93:
 768              	.LBB33:
 769              	.LBB34:
 770              		.loc 1 40 0
 771 006e 2046     		mov	r0, r4
 772 0070 FFF7FEFF 		bl	i2cStop
 773              	.LVL52:
 774              	.LBE34:
 775              	.LBE33:
 776              	.LBB35:
 777              	.LBB36:
 778              		.loc 1 10 0
 779 0074 2378     		ldrb	r3, [r4]	@ zero_extendqisi2
 780 0076 012B     		cmp	r3, #1
 781 0078 F4D1     		bne	.L80
 782 007a FFF7FEFF 		bl	i2c_start.part.0
 783              	.LVL53:
 784 007e F1E7     		b	.L80
 785              	.LVL54:
 786              	.L92:
 787              	.LBE36:
 788              	.LBE35:
 789              	.LBE37:
 790              		.loc 1 118 0
 791 0080 FFF7FEFF 		bl	__stack_chk_fail
 792              	.LVL55:
 793              	.L95:
 794              		.align	2
 795              	.L94:
 796 0084 00000000 		.word	I2CD1
 797 0088 00000000 		.word	__stack_chk_guard
 798 008c 00000000 		.word	.LANCHOR1
ARM GAS  C:\Users\25521\AppData\Local\Temp\ccCQzFA7.s 			page 15


 799              		.cfi_endproc
 800              	.LFE273:
 801              		.size	read_reg_multi, .-read_reg_multi
 802              		.section	.bss.errors,"aw",%nobits
 803              		.align	2
 804              		.set	.LANCHOR1,. + 0
 805              		.type	errors, %object
 806              		.size	errors, 4
 807              	errors:
 808 0000 00000000 		.space	4
 809              		.section	.rodata.i2c_cfg1.9932,"a",%progbits
 810              		.align	2
 811              		.set	.LANCHOR0,. + 0
 812              		.type	i2c_cfg1.9932, %object
 813              		.size	i2c_cfg1.9932, 12
 814              	i2c_cfg1.9932:
 815 0000 01       		.byte	1
 816 0001 000000   		.space	3
 817 0004 400D0300 		.word	200000
 818 0008 02       		.byte	2
 819 0009 000000   		.space	3
 820              		.text
 821              	.Letext0:
 822              		.file 2 "d:\\eclipse_e-puck2_win32_11_apr_2018\\eclipse_e-puck2\\tools\\gcc-arm-none-eabi-7-2017-q
 823              		.file 3 "d:\\eclipse_e-puck2_win32_11_apr_2018\\eclipse_e-puck2\\tools\\gcc-arm-none-eabi-7-2017-q
 824              		.file 4 "d:\\eclipse_e-puck2_win32_11_apr_2018\\eclipse_e-puck2\\tools\\gcc-arm-none-eabi-7-2017-q
 825              		.file 5 ".//ChibiOS//os/rt/ports/ARMCMx/compilers/GCC/chtypes.h"
 826              		.file 6 ".//ChibiOS//os/rt/include/chsystypes.h"
 827              		.file 7 ".//ChibiOS//os/rt/include/chschd.h"
 828              		.file 8 ".//ChibiOS//os/ext/CMSIS/include/core_cm4.h"
 829              		.file 9 ".//ChibiOS//os/ext/CMSIS/ST/system_stm32f4xx.h"
 830              		.file 10 ".//ChibiOS//os/ext/CMSIS/ST/stm32f407xx.h"
 831              		.file 11 ".//ChibiOS//os/rt/ports/ARMCMx/chcore.h"
 832              		.file 12 ".//ChibiOS//os/rt/ports/ARMCMx/chcore_v7m.h"
 833              		.file 13 ".//ChibiOS//os/rt/include/chdebug.h"
 834              		.file 14 ".//ChibiOS//os/rt/include/chtm.h"
 835              		.file 15 ".//ChibiOS//os/rt/include/chstats.h"
 836              		.file 16 ".//ChibiOS//os/rt/include/chsem.h"
 837              		.file 17 ".//ChibiOS//os/rt/include/chmtx.h"
 838              		.file 18 ".//ChibiOS//os/rt/include/chregistry.h"
 839              		.file 19 ".//ChibiOS//os/rt/include/chevents.h"
 840              		.file 20 ".//ChibiOS//os/rt/include/chqueues.h"
 841              		.file 21 ".//ChibiOS//os/hal/ports/STM32/LLD/DMAv2/stm32_dma.h"
 842              		.file 22 ".//ChibiOS//os/hal/include/hal_ioblock.h"
 843              		.file 23 ".//ChibiOS//os/hal/ports/STM32/LLD/GPIOv2/pal_lld.h"
 844              		.file 24 ".//ChibiOS//os/hal/include/adc.h"
 845              		.file 25 ".//ChibiOS//os/hal/ports/STM32/LLD/ADCv2/adc_lld.h"
 846              		.file 26 ".//ChibiOS//os/hal/include/can.h"
 847              		.file 27 ".//ChibiOS//os/hal/ports/STM32/LLD/CANv1/can_lld.h"
 848              		.file 28 ".//ChibiOS//os/hal/include/dac.h"
 849              		.file 29 ".//ChibiOS//os/hal/ports/STM32/LLD/DACv1/dac_lld.h"
 850              		.file 30 ".//ChibiOS//os/hal/include/ext.h"
 851              		.file 31 ".//ChibiOS//os/hal/ports/STM32/LLD/EXTIv1/ext_lld.h"
 852              		.file 32 ".//ChibiOS//os/hal/include/gpt.h"
 853              		.file 33 ".//ChibiOS//os/hal/ports/STM32/LLD/TIMv1/gpt_lld.h"
 854              		.file 34 ".//ChibiOS//os/hal/ports/STM32/LLD/TIMv1/stm32_tim.h"
 855              		.file 35 ".//ChibiOS//os/hal/include/i2c.h"
ARM GAS  C:\Users\25521\AppData\Local\Temp\ccCQzFA7.s 			page 16


 856              		.file 36 ".//ChibiOS//os/hal/ports/STM32/LLD/I2Cv1/i2c_lld.h"
 857              		.file 37 ".//ChibiOS//os/hal/include/i2s.h"
 858              		.file 38 ".//ChibiOS//os/hal/ports/STM32/LLD/SPIv1/i2s_lld.h"
 859              		.file 39 ".//ChibiOS//os/hal/include/pwm.h"
 860              		.file 40 ".//ChibiOS//os/hal/ports/STM32/LLD/TIMv1/pwm_lld.h"
 861              		.file 41 ".//ChibiOS//os/hal/include/serial.h"
 862              		.file 42 ".//ChibiOS//os/hal/ports/STM32/LLD/USARTv1/serial_lld.h"
 863              		.file 43 ".//ChibiOS//os/hal/include/sdc.h"
 864              		.file 44 ".//ChibiOS//os/hal/ports/STM32/LLD/SDIOv1/sdc_lld.h"
 865              		.file 45 ".//ChibiOS//os/hal/include/spi.h"
 866              		.file 46 ".//ChibiOS//os/hal/ports/STM32/LLD/SPIv1/spi_lld.h"
 867              		.file 47 ".//ChibiOS//os/hal/include/usb.h"
 868              		.file 48 ".//ChibiOS//os/hal/ports/STM32/LLD/OTGv1/usb_lld.h"
 869              		.file 49 ".//ChibiOS//os/hal/ports/STM32/LLD/OTGv1/stm32_otg.h"
 870              		.file 50 ".//ChibiOS//os/rt/include/chthreads.h"