ARM GAS  C:\Users\25521\AppData\Local\Temp\ccQEpARf.s 			page 1


   1              		.cpu cortex-m4
   2              		.eabi_attribute 27, 1
   3              		.eabi_attribute 28, 1
   4              		.eabi_attribute 20, 1
   5              		.eabi_attribute 21, 1
   6              		.eabi_attribute 23, 3
   7              		.eabi_attribute 24, 1
   8              		.eabi_attribute 25, 1
   9              		.eabi_attribute 26, 1
  10              		.eabi_attribute 30, 2
  11              		.eabi_attribute 34, 1
  12              		.eabi_attribute 18, 4
  13              		.file	"i2s_lld.c"
  14              		.text
  15              	.Ltext0:
  16              		.cfi_sections	.debug_frame
  17              		.section	.text.i2s_lld_serve_rx_interrupt,"ax",%progbits
  18              		.align	1
  19              		.p2align 4,,15
  20              		.syntax unified
  21              		.thumb
  22              		.thumb_func
  23              		.fpu fpv4-sp-d16
  24              		.type	i2s_lld_serve_rx_interrupt, %function
  25              	i2s_lld_serve_rx_interrupt:
  26              	.LFB267:
  27              		.file 1 ".//ChibiOS//os/hal/ports/STM32/LLD/SPIv1/i2s_lld.c"
  28              		.loc 1 119 0
  29              		.cfi_startproc
  30              		@ args = 0, pretend = 0, frame = 8
  31              		@ frame_needed = 0, uses_anonymous_args = 0
  32              	.LVL0:
  33 0000 70B5     		push	{r4, r5, r6, lr}
  34              		.cfi_def_cfa_offset 16
  35              		.cfi_offset 4, -16
  36              		.cfi_offset 5, -12
  37              		.cfi_offset 6, -8
  38              		.cfi_offset 14, -4
  39 0002 1D4E     		ldr	r6, .L28
  40 0004 82B0     		sub	sp, sp, #8
  41              		.cfi_def_cfa_offset 24
  42              		.loc 1 119 0
  43 0006 3368     		ldr	r3, [r6]
  44 0008 0193     		str	r3, [sp, #4]
  45              		.loc 1 125 0
  46 000a 11F00C0F 		tst	r1, #12
  47              		.loc 1 119 0
  48 000e 0C46     		mov	r4, r1
  49 0010 0546     		mov	r5, r0
  50              		.loc 1 125 0
  51 0012 27D1     		bne	.L27
  52              	.LVL1:
  53              	.L2:
  54              		.loc 1 132 0
  55 0014 14F02001 		ands	r1, r4, #32
  56 0018 13D0     		beq	.L3
  57              		.loc 1 134 0
ARM GAS  C:\Users\25521\AppData\Local\Temp\ccQEpARf.s 			page 2


  58 001a 6B68     		ldr	r3, [r5, #4]
  59 001c DA68     		ldr	r2, [r3, #12]
  60 001e 2AB3     		cbz	r2, .L4
  61              		.loc 1 134 0 is_stmt 0 discriminator 1
  62 0020 0422     		movs	r2, #4
  63 0022 2A70     		strb	r2, [r5]
  64 0024 D3E90223 		ldrd	r2, r3, [r3, #8]
  65 0028 5208     		lsrs	r2, r2, #1
  66 002a 1146     		mov	r1, r2
  67 002c 2846     		mov	r0, r5
  68 002e 9847     		blx	r3
  69              	.LVL2:
  70 0030 2B78     		ldrb	r3, [r5]	@ zero_extendqisi2
  71 0032 042B     		cmp	r3, #4
  72 0034 1AD0     		beq	.L4
  73              	.L1:
  74              		.loc 1 140 0 is_stmt 1
  75 0036 019A     		ldr	r2, [sp, #4]
  76 0038 3368     		ldr	r3, [r6]
  77 003a 9A42     		cmp	r2, r3
  78 003c 19D1     		bne	.L25
  79 003e 02B0     		add	sp, sp, #8
  80              		.cfi_remember_state
  81              		.cfi_def_cfa_offset 16
  82              		@ sp needed
  83 0040 70BD     		pop	{r4, r5, r6, pc}
  84              	.LVL3:
  85              	.L3:
  86              		.cfi_restore_state
  87              		.loc 1 136 0
  88 0042 E306     		lsls	r3, r4, #27
  89 0044 F7D5     		bpl	.L1
  90              	.LVL4:
  91              	.LBB12:
  92              	.LBB13:
  93              		.loc 1 138 0
  94 0046 6A68     		ldr	r2, [r5, #4]
  95 0048 D368     		ldr	r3, [r2, #12]
  96 004a 002B     		cmp	r3, #0
  97 004c F3D0     		beq	.L1
  98 004e 019C     		ldr	r4, [sp, #4]
  99              	.LVL5:
 100 0050 3068     		ldr	r0, [r6]
 101 0052 8442     		cmp	r4, r0
 102 0054 0DD1     		bne	.L25
 103 0056 9268     		ldr	r2, [r2, #8]
 104 0058 2846     		mov	r0, r5
 105 005a 5208     		lsrs	r2, r2, #1
 106              	.LBE13:
 107              	.LBE12:
 108              		.loc 1 140 0
 109 005c 02B0     		add	sp, sp, #8
 110              		.cfi_remember_state
 111              		.cfi_def_cfa_offset 16
 112              		@ sp needed
 113 005e BDE87040 		pop	{r4, r5, r6, lr}
 114              		.cfi_restore 14
ARM GAS  C:\Users\25521\AppData\Local\Temp\ccQEpARf.s 			page 3


 115              		.cfi_restore 6
 116              		.cfi_restore 5
 117              		.cfi_restore 4
 118              		.cfi_def_cfa_offset 0
 119              	.LVL6:
 120              	.LBB15:
 121              	.LBB14:
 122              		.loc 1 138 0
 123 0062 1847     		bx	r3	@ indirect register sibling call
 124              	.LVL7:
 125              	.L27:
 126              		.cfi_restore_state
 127              	.LBE14:
 128              	.LBE15:
 129              	.LBB16:
 130              	.LBB17:
 131              		.file 2 ".//ChibiOS//os/hal/osal/rt/osal.h"
 132              		.loc 2 462 0
 133 0064 0548     		ldr	r0, .L28+4
 134              	.LVL8:
 135 0066 FFF7FEFF 		bl	chSysHalt
 136              	.LVL9:
 137 006a D3E7     		b	.L2
 138              	.LVL10:
 139              	.L4:
 140              	.LBE17:
 141              	.LBE16:
 142              		.loc 1 134 0 discriminator 3
 143 006c 0223     		movs	r3, #2
 144 006e 2B70     		strb	r3, [r5]
 145 0070 E1E7     		b	.L1
 146              	.LVL11:
 147              	.L25:
 148              		.loc 1 140 0
 149 0072 FFF7FEFF 		bl	__stack_chk_fail
 150              	.LVL12:
 151              	.L29:
 152 0076 00BF     		.align	2
 153              	.L28:
 154 0078 00000000 		.word	__stack_chk_guard
 155 007c 00000000 		.word	.LC0
 156              		.cfi_endproc
 157              	.LFE267:
 158              		.size	i2s_lld_serve_rx_interrupt, .-i2s_lld_serve_rx_interrupt
 159              		.section	.text.i2s_lld_init,"ax",%progbits
 160              		.align	1
 161              		.p2align 4,,15
 162              		.global	i2s_lld_init
 163              		.syntax unified
 164              		.thumb
 165              		.thumb_func
 166              		.fpu fpv4-sp-d16
 167              		.type	i2s_lld_init, %function
 168              	i2s_lld_init:
 169              	.LFB268:
 170              		.loc 1 188 0
 171              		.cfi_startproc
ARM GAS  C:\Users\25521\AppData\Local\Temp\ccQEpARf.s 			page 4


 172              		@ args = 0, pretend = 0, frame = 8
 173              		@ frame_needed = 0, uses_anonymous_args = 0
 174 0000 30B5     		push	{r4, r5, lr}
 175              		.cfi_def_cfa_offset 12
 176              		.cfi_offset 4, -12
 177              		.cfi_offset 5, -8
 178              		.cfi_offset 14, -4
 179              		.loc 1 191 0
 180 0002 0E4C     		ldr	r4, .L34
 181              		.loc 1 188 0
 182 0004 0E4D     		ldr	r5, .L34+4
 183 0006 83B0     		sub	sp, sp, #12
 184              		.cfi_def_cfa_offset 24
 185              		.loc 1 188 0
 186 0008 2B68     		ldr	r3, [r5]
 187 000a 0193     		str	r3, [sp, #4]
 188              		.loc 1 191 0
 189 000c 2046     		mov	r0, r4
 190 000e FFF7FEFF 		bl	i2sObjectInit
 191              	.LVL13:
 192              		.loc 1 269 0
 193 0012 0199     		ldr	r1, [sp, #4]
 194              		.loc 1 192 0
 195 0014 0B4B     		ldr	r3, .L34+8
 196              		.loc 1 269 0
 197 0016 2A68     		ldr	r2, [r5]
 198              		.loc 1 196 0
 199 0018 0B48     		ldr	r0, .L34+12
 200              		.loc 1 192 0
 201 001a A360     		str	r3, [r4, #8]
 202              		.loc 1 193 0
 203 001c 4FF44073 		mov	r3, #768
 204              		.loc 1 195 0
 205 0020 0A4D     		ldr	r5, .L34+16
 206              		.loc 1 193 0
 207 0022 A381     		strh	r3, [r4, #12]	@ movhi
 208              		.loc 1 269 0
 209 0024 9142     		cmp	r1, r2
 210              		.loc 1 225 0
 211 0026 4FF00003 		mov	r3, #0
 212              		.loc 1 195 0
 213 002a 2561     		str	r5, [r4, #16]
 214              		.loc 1 225 0
 215 002c C4E90530 		strd	r3, r0, [r4, #20]
 216              		.loc 1 226 0
 217 0030 E361     		str	r3, [r4, #28]
 218              		.loc 1 269 0
 219 0032 01D1     		bne	.L33
 220 0034 03B0     		add	sp, sp, #12
 221              		.cfi_remember_state
 222              		.cfi_def_cfa_offset 12
 223              		@ sp needed
 224 0036 30BD     		pop	{r4, r5, pc}
 225              	.L33:
 226              		.cfi_restore_state
 227 0038 FFF7FEFF 		bl	__stack_chk_fail
 228              	.LVL14:
ARM GAS  C:\Users\25521\AppData\Local\Temp\ccQEpARf.s 			page 5


 229              	.L35:
 230              		.align	2
 231              	.L34:
 232 003c 00000000 		.word	.LANCHOR0
 233 0040 00000000 		.word	__stack_chk_guard
 234 0044 00380040 		.word	1073756160
 235 0048 1E2D0100 		.word	77086
 236 004c 24000000 		.word	_stm32_dma_streams+36
 237              		.cfi_endproc
 238              	.LFE268:
 239              		.size	i2s_lld_init, .-i2s_lld_init
 240              		.section	.text.i2s_lld_start,"ax",%progbits
 241              		.align	1
 242              		.p2align 4,,15
 243              		.global	i2s_lld_start
 244              		.syntax unified
 245              		.thumb
 246              		.thumb_func
 247              		.fpu fpv4-sp-d16
 248              		.type	i2s_lld_start, %function
 249              	i2s_lld_start:
 250              	.LFB269:
 251              		.loc 1 278 0
 252              		.cfi_startproc
 253              		@ args = 0, pretend = 0, frame = 8
 254              		@ frame_needed = 0, uses_anonymous_args = 0
 255              	.LVL15:
 256 0000 70B5     		push	{r4, r5, r6, lr}
 257              		.cfi_def_cfa_offset 16
 258              		.cfi_offset 4, -16
 259              		.cfi_offset 5, -12
 260              		.cfi_offset 6, -8
 261              		.cfi_offset 14, -4
 262 0002 1C4D     		ldr	r5, .L47
 263              		.loc 1 281 0
 264 0004 0378     		ldrb	r3, [r0]	@ zero_extendqisi2
 265              		.loc 1 278 0
 266 0006 2A68     		ldr	r2, [r5]
 267 0008 82B0     		sub	sp, sp, #8
 268              		.cfi_def_cfa_offset 24
 269              		.loc 1 281 0
 270 000a 012B     		cmp	r3, #1
 271              		.loc 1 278 0
 272 000c 0446     		mov	r4, r0
 273 000e 0192     		str	r2, [sp, #4]
 274              		.loc 1 281 0
 275 0010 13D0     		beq	.L44
 276              	.LVL16:
 277              	.L37:
 278              		.loc 1 348 0
 279 0012 D4E90123 		ldrd	r2, r3, [r4, #4]
 280 0016 B2F91220 		ldrsh	r2, [r2, #18]
 281 001a 1A62     		str	r2, [r3, #32]
 282              		.loc 1 349 0
 283 001c 6368     		ldr	r3, [r4, #4]
 284 001e A189     		ldrh	r1, [r4, #12]
 285 0020 B3F91030 		ldrsh	r3, [r3, #16]
ARM GAS  C:\Users\25521\AppData\Local\Temp\ccQEpARf.s 			page 6


 286 0024 A268     		ldr	r2, [r4, #8]
 287 0026 0B43     		orrs	r3, r3, r1
 288 0028 43F40063 		orr	r3, r3, #2048
 289 002c D361     		str	r3, [r2, #28]
 290              		.loc 1 350 0
 291 002e 019A     		ldr	r2, [sp, #4]
 292 0030 2B68     		ldr	r3, [r5]
 293 0032 9A42     		cmp	r2, r3
 294 0034 1BD1     		bne	.L45
 295 0036 02B0     		add	sp, sp, #8
 296              		.cfi_remember_state
 297              		.cfi_def_cfa_offset 16
 298              		@ sp needed
 299 0038 70BD     		pop	{r4, r5, r6, pc}
 300              	.LVL17:
 301              	.L44:
 302              		.cfi_restore_state
 303              		.loc 1 284 0
 304 003a 0F4E     		ldr	r6, .L47+4
 305 003c B042     		cmp	r0, r6
 306 003e E8D1     		bne	.L37
 307              	.LBB18:
 308              		.loc 1 288 0
 309 0040 0E49     		ldr	r1, .L47+8
 310              		.loc 1 291 0
 311 0042 0F4A     		ldr	r2, .L47+12
 312              		.loc 1 288 0
 313 0044 0B6C     		ldr	r3, [r1, #64]
 314 0046 43F48043 		orr	r3, r3, #16384
 315 004a 0B64     		str	r3, [r1, #64]
 316              		.loc 1 291 0
 317 004c 0069     		ldr	r0, [r0, #16]
 318              	.LVL18:
 319 004e 2346     		mov	r3, r4
 320 0050 0A21     		movs	r1, #10
 321 0052 FFF7FEFF 		bl	dmaStreamAllocate
 322              	.LVL19:
 323              		.loc 1 295 0
 324 0056 30B9     		cbnz	r0, .L46
 325              	.LVL20:
 326              	.L38:
 327              		.loc 1 299 0
 328 0058 B368     		ldr	r3, [r6, #8]
 329 005a 0022     		movs	r2, #0
 330 005c 1A60     		str	r2, [r3]
 331              		.loc 1 300 0
 332 005e B368     		ldr	r3, [r6, #8]
 333 0060 0122     		movs	r2, #1
 334 0062 5A60     		str	r2, [r3, #4]
 335 0064 D5E7     		b	.L37
 336              	.LVL21:
 337              	.L46:
 338              		.loc 1 295 0 discriminator 2
 339 0066 0748     		ldr	r0, .L47+16
 340              	.LVL22:
 341 0068 FFF7FEFF 		bl	chSysHalt
 342              	.LVL23:
ARM GAS  C:\Users\25521\AppData\Local\Temp\ccQEpARf.s 			page 7


 343 006c F4E7     		b	.L38
 344              	.L45:
 345              	.LBE18:
 346              		.loc 1 350 0
 347 006e FFF7FEFF 		bl	__stack_chk_fail
 348              	.LVL24:
 349              	.L48:
 350 0072 00BF     		.align	2
 351              	.L47:
 352 0074 00000000 		.word	__stack_chk_guard
 353 0078 00000000 		.word	.LANCHOR0
 354 007c 00380240 		.word	1073887232
 355 0080 00000000 		.word	i2s_lld_serve_rx_interrupt
 356 0084 00000000 		.word	.LANCHOR1
 357              		.cfi_endproc
 358              	.LFE269:
 359              		.size	i2s_lld_start, .-i2s_lld_start
 360              		.section	.text.i2s_lld_stop,"ax",%progbits
 361              		.align	1
 362              		.p2align 4,,15
 363              		.global	i2s_lld_stop
 364              		.syntax unified
 365              		.thumb
 366              		.thumb_func
 367              		.fpu fpv4-sp-d16
 368              		.type	i2s_lld_stop, %function
 369              	i2s_lld_stop:
 370              	.LFB270:
 371              		.loc 1 359 0
 372              		.cfi_startproc
 373              		@ args = 0, pretend = 0, frame = 8
 374              		@ frame_needed = 0, uses_anonymous_args = 0
 375              	.LVL25:
 376 0000 30B5     		push	{r4, r5, lr}
 377              		.cfi_def_cfa_offset 12
 378              		.cfi_offset 4, -12
 379              		.cfi_offset 5, -8
 380              		.cfi_offset 14, -4
 381 0002 124D     		ldr	r5, .L65
 382              		.loc 1 362 0
 383 0004 0378     		ldrb	r3, [r0]	@ zero_extendqisi2
 384              		.loc 1 359 0
 385 0006 2A68     		ldr	r2, [r5]
 386 0008 83B0     		sub	sp, sp, #12
 387              		.cfi_def_cfa_offset 24
 388              		.loc 1 362 0
 389 000a 022B     		cmp	r3, #2
 390              		.loc 1 359 0
 391 000c 0192     		str	r2, [sp, #4]
 392              		.loc 1 362 0
 393 000e 05D0     		beq	.L63
 394              	.LVL26:
 395              	.L49:
 396              		.loc 1 380 0
 397 0010 019A     		ldr	r2, [sp, #4]
 398 0012 2B68     		ldr	r3, [r5]
 399 0014 9A42     		cmp	r2, r3
ARM GAS  C:\Users\25521\AppData\Local\Temp\ccQEpARf.s 			page 8


 400 0016 16D1     		bne	.L64
 401 0018 03B0     		add	sp, sp, #12
 402              		.cfi_remember_state
 403              		.cfi_def_cfa_offset 12
 404              		@ sp needed
 405 001a 30BD     		pop	{r4, r5, pc}
 406              	.LVL27:
 407              	.L63:
 408              		.cfi_restore_state
 409              		.loc 1 365 0
 410 001c 8368     		ldr	r3, [r0, #8]
 411 001e 0022     		movs	r2, #0
 412 0020 5A60     		str	r2, [r3, #4]
 413 0022 0446     		mov	r4, r0
 414              		.loc 1 366 0
 415 0024 0069     		ldr	r0, [r0, #16]
 416              	.LVL28:
 417 0026 08B1     		cbz	r0, .L52
 418              		.loc 1 367 0
 419 0028 FFF7FEFF 		bl	dmaStreamRelease
 420              	.LVL29:
 421              	.L52:
 422              		.loc 1 368 0
 423 002c 6069     		ldr	r0, [r4, #20]
 424 002e 08B1     		cbz	r0, .L53
 425              		.loc 1 369 0
 426 0030 FFF7FEFF 		bl	dmaStreamRelease
 427              	.LVL30:
 428              	.L53:
 429              		.loc 1 372 0
 430 0034 064B     		ldr	r3, .L65+4
 431 0036 9C42     		cmp	r4, r3
 432 0038 EAD1     		bne	.L49
 433              		.loc 1 373 0
 434 003a 064A     		ldr	r2, .L65+8
 435 003c 136C     		ldr	r3, [r2, #64]
 436 003e 23F48043 		bic	r3, r3, #16384
 437 0042 1364     		str	r3, [r2, #64]
 438              		.loc 1 380 0
 439 0044 E4E7     		b	.L49
 440              	.LVL31:
 441              	.L64:
 442 0046 FFF7FEFF 		bl	__stack_chk_fail
 443              	.LVL32:
 444              	.L66:
 445 004a 00BF     		.align	2
 446              	.L65:
 447 004c 00000000 		.word	__stack_chk_guard
 448 0050 00000000 		.word	.LANCHOR0
 449 0054 00380240 		.word	1073887232
 450              		.cfi_endproc
 451              	.LFE270:
 452              		.size	i2s_lld_stop, .-i2s_lld_stop
 453              		.section	.text.i2s_lld_start_exchange,"ax",%progbits
 454              		.align	1
 455              		.p2align 4,,15
 456              		.global	i2s_lld_start_exchange
ARM GAS  C:\Users\25521\AppData\Local\Temp\ccQEpARf.s 			page 9


 457              		.syntax unified
 458              		.thumb
 459              		.thumb_func
 460              		.fpu fpv4-sp-d16
 461              		.type	i2s_lld_start_exchange, %function
 462              	i2s_lld_start_exchange:
 463              	.LFB271:
 464              		.loc 1 389 0
 465              		.cfi_startproc
 466              		@ args = 0, pretend = 0, frame = 8
 467              		@ frame_needed = 0, uses_anonymous_args = 0
 468              	.LVL33:
 469 0000 10B5     		push	{r4, lr}
 470              		.cfi_def_cfa_offset 8
 471              		.cfi_offset 4, -8
 472              		.cfi_offset 14, -4
 473              		.loc 1 390 0
 474 0002 4268     		ldr	r2, [r0, #4]
 475              		.loc 1 389 0
 476 0004 2349     		ldr	r1, .L83
 477              		.loc 1 401 0
 478 0006 138A     		ldrh	r3, [r2, #16]
 479              		.loc 1 389 0
 480 0008 0C68     		ldr	r4, [r1]
 481              		.loc 1 390 0
 482 000a 9268     		ldr	r2, [r2, #8]
 483              	.LVL34:
 484              		.loc 1 389 0
 485 000c 82B0     		sub	sp, sp, #8
 486              		.cfi_def_cfa_offset 16
 487              		.loc 1 401 0
 488 000e 03F00603 		and	r3, r3, #6
 489              		.loc 1 389 0
 490 0012 0194     		str	r4, [sp, #4]
 491              		.loc 1 401 0
 492 0014 03B1     		cbz	r3, .L68
 493              		.loc 1 402 0
 494 0016 5200     		lsls	r2, r2, #1
 495              	.LVL35:
 496              	.L68:
 497              		.loc 1 405 0
 498 0018 0369     		ldr	r3, [r0, #16]
 499 001a ABB1     		cbz	r3, .L69
 500              		.loc 1 406 0
 501 001c 1B68     		ldr	r3, [r3]
 502 001e 8469     		ldr	r4, [r0, #24]
 503 0020 1C60     		str	r4, [r3]
 504              		.loc 1 407 0
 505 0022 0469     		ldr	r4, [r0, #16]
 506 0024 8368     		ldr	r3, [r0, #8]
 507 0026 2468     		ldr	r4, [r4]
 508 0028 0C33     		adds	r3, r3, #12
 509 002a A360     		str	r3, [r4, #8]
 510              		.loc 1 408 0
 511 002c 0369     		ldr	r3, [r0, #16]
 512 002e 4468     		ldr	r4, [r0, #4]
 513 0030 1B68     		ldr	r3, [r3]
ARM GAS  C:\Users\25521\AppData\Local\Temp\ccQEpARf.s 			page 10


 514 0032 6468     		ldr	r4, [r4, #4]
 515 0034 DC60     		str	r4, [r3, #12]
 516              		.loc 1 409 0
 517 0036 0369     		ldr	r3, [r0, #16]
 518 0038 1B68     		ldr	r3, [r3]
 519 003a 5A60     		str	r2, [r3, #4]
 520              		.loc 1 410 0
 521 003c 0369     		ldr	r3, [r0, #16]
 522 003e 1C68     		ldr	r4, [r3]
 523 0040 2368     		ldr	r3, [r4]
 524 0042 43F00103 		orr	r3, r3, #1
 525 0046 2360     		str	r3, [r4]
 526              	.L69:
 527              		.loc 1 414 0
 528 0048 4369     		ldr	r3, [r0, #20]
 529 004a ABB1     		cbz	r3, .L70
 530              		.loc 1 415 0
 531 004c 1B68     		ldr	r3, [r3]
 532 004e C469     		ldr	r4, [r0, #28]
 533 0050 1C60     		str	r4, [r3]
 534              		.loc 1 416 0
 535 0052 4469     		ldr	r4, [r0, #20]
 536 0054 8368     		ldr	r3, [r0, #8]
 537 0056 2468     		ldr	r4, [r4]
 538 0058 0C33     		adds	r3, r3, #12
 539 005a A360     		str	r3, [r4, #8]
 540              		.loc 1 417 0
 541 005c 4369     		ldr	r3, [r0, #20]
 542 005e 4468     		ldr	r4, [r0, #4]
 543 0060 1B68     		ldr	r3, [r3]
 544 0062 2468     		ldr	r4, [r4]
 545 0064 DC60     		str	r4, [r3, #12]
 546              		.loc 1 418 0
 547 0066 4369     		ldr	r3, [r0, #20]
 548 0068 1B68     		ldr	r3, [r3]
 549 006a 5A60     		str	r2, [r3, #4]
 550              		.loc 1 419 0
 551 006c 4369     		ldr	r3, [r0, #20]
 552 006e 1A68     		ldr	r2, [r3]
 553              	.LVL36:
 554 0070 1368     		ldr	r3, [r2]
 555 0072 43F00103 		orr	r3, r3, #1
 556 0076 1360     		str	r3, [r2]
 557              	.L70:
 558              		.loc 1 423 0
 559 0078 8268     		ldr	r2, [r0, #8]
 560 007a D369     		ldr	r3, [r2, #28]
 561 007c 43F48063 		orr	r3, r3, #1024
 562 0080 D361     		str	r3, [r2, #28]
 563              		.loc 1 424 0
 564 0082 019A     		ldr	r2, [sp, #4]
 565 0084 0B68     		ldr	r3, [r1]
 566 0086 9A42     		cmp	r2, r3
 567 0088 01D1     		bne	.L82
 568 008a 02B0     		add	sp, sp, #8
 569              		.cfi_remember_state
 570              		.cfi_def_cfa_offset 8
ARM GAS  C:\Users\25521\AppData\Local\Temp\ccQEpARf.s 			page 11


 571              		@ sp needed
 572 008c 10BD     		pop	{r4, pc}
 573              	.L82:
 574              		.cfi_restore_state
 575 008e FFF7FEFF 		bl	__stack_chk_fail
 576              	.LVL37:
 577              	.L84:
 578 0092 00BF     		.align	2
 579              	.L83:
 580 0094 00000000 		.word	__stack_chk_guard
 581              		.cfi_endproc
 582              	.LFE271:
 583              		.size	i2s_lld_start_exchange, .-i2s_lld_start_exchange
 584              		.section	.text.i2s_lld_stop_exchange,"ax",%progbits
 585              		.align	1
 586              		.p2align 4,,15
 587              		.global	i2s_lld_stop_exchange
 588              		.syntax unified
 589              		.thumb
 590              		.thumb_func
 591              		.fpu fpv4-sp-d16
 592              		.type	i2s_lld_stop_exchange, %function
 593              	i2s_lld_stop_exchange:
 594              	.LFB272:
 595              		.loc 1 435 0
 596              		.cfi_startproc
 597              		@ args = 0, pretend = 0, frame = 8
 598              		@ frame_needed = 0, uses_anonymous_args = 0
 599              	.LVL38:
 600 0000 30B5     		push	{r4, r5, lr}
 601              		.cfi_def_cfa_offset 12
 602              		.cfi_offset 4, -12
 603              		.cfi_offset 5, -8
 604              		.cfi_offset 14, -4
 605 0002 1D49     		ldr	r1, .L101
 606              		.loc 1 438 0
 607 0004 4369     		ldr	r3, [r0, #20]
 608              		.loc 1 435 0
 609 0006 0A68     		ldr	r2, [r1]
 610 0008 83B0     		sub	sp, sp, #12
 611              		.cfi_def_cfa_offset 24
 612              		.loc 1 435 0
 613 000a 0192     		str	r2, [sp, #4]
 614              		.loc 1 438 0
 615 000c 002B     		cmp	r3, #0
 616 000e 2FD0     		beq	.L86
 617              		.loc 1 439 0
 618 0010 1A68     		ldr	r2, [r3]
 619 0012 1368     		ldr	r3, [r2]
 620 0014 23F01F03 		bic	r3, r3, #31
 621 0018 1360     		str	r3, [r2]
 622 001a 4469     		ldr	r4, [r0, #20]
 623 001c 2268     		ldr	r2, [r4]
 624              	.L87:
 625              		.loc 1 439 0 is_stmt 0 discriminator 2
 626 001e 1368     		ldr	r3, [r2]
 627 0020 DD07     		lsls	r5, r3, #31
ARM GAS  C:\Users\25521\AppData\Local\Temp\ccQEpARf.s 			page 12


 628 0022 FCD4     		bmi	.L87
 629              		.loc 1 439 0 discriminator 3
 630 0024 257A     		ldrb	r5, [r4, #8]	@ zero_extendqisi2
 631 0026 6268     		ldr	r2, [r4, #4]
 632 0028 3D23     		movs	r3, #61
 633 002a AB40     		lsls	r3, r3, r5
 634 002c 1360     		str	r3, [r2]
 635              		.loc 1 443 0 is_stmt 1 discriminator 3
 636 002e 8268     		ldr	r2, [r0, #8]
 637              	.L88:
 638              		.loc 1 443 0 is_stmt 0 discriminator 1
 639 0030 9368     		ldr	r3, [r2, #8]
 640 0032 03F08203 		and	r3, r3, #130
 641 0036 022B     		cmp	r3, #2
 642 0038 FAD1     		bne	.L88
 643              	.L89:
 644              		.loc 1 448 0 is_stmt 1
 645 003a D369     		ldr	r3, [r2, #28]
 646 003c 23F48063 		bic	r3, r3, #1024
 647 0040 D361     		str	r3, [r2, #28]
 648              		.loc 1 451 0
 649 0042 0369     		ldr	r3, [r0, #16]
 650 0044 73B1     		cbz	r3, .L85
 651              		.loc 1 452 0
 652 0046 1A68     		ldr	r2, [r3]
 653 0048 1368     		ldr	r3, [r2]
 654 004a 23F01F03 		bic	r3, r3, #31
 655 004e 1360     		str	r3, [r2]
 656 0050 0069     		ldr	r0, [r0, #16]
 657              	.LVL39:
 658 0052 0268     		ldr	r2, [r0]
 659              	.L91:
 660              		.loc 1 452 0 is_stmt 0 discriminator 2
 661 0054 1368     		ldr	r3, [r2]
 662 0056 DB07     		lsls	r3, r3, #31
 663 0058 FCD4     		bmi	.L91
 664              		.loc 1 452 0 discriminator 3
 665 005a 047A     		ldrb	r4, [r0, #8]	@ zero_extendqisi2
 666 005c 4268     		ldr	r2, [r0, #4]
 667 005e 3D23     		movs	r3, #61
 668 0060 A340     		lsls	r3, r3, r4
 669 0062 1360     		str	r3, [r2]
 670              	.L85:
 671              		.loc 1 453 0 is_stmt 1
 672 0064 019A     		ldr	r2, [sp, #4]
 673 0066 0B68     		ldr	r3, [r1]
 674 0068 9A42     		cmp	r2, r3
 675 006a 03D1     		bne	.L100
 676 006c 03B0     		add	sp, sp, #12
 677              		.cfi_remember_state
 678              		.cfi_def_cfa_offset 12
 679              		@ sp needed
 680 006e 30BD     		pop	{r4, r5, pc}
 681              	.LVL40:
 682              	.L86:
 683              		.cfi_restore_state
 684 0070 8268     		ldr	r2, [r0, #8]
ARM GAS  C:\Users\25521\AppData\Local\Temp\ccQEpARf.s 			page 13


 685 0072 E2E7     		b	.L89
 686              	.LVL41:
 687              	.L100:
 688 0074 FFF7FEFF 		bl	__stack_chk_fail
 689              	.LVL42:
 690              	.L102:
 691              		.align	2
 692              	.L101:
 693 0078 00000000 		.word	__stack_chk_guard
 694              		.cfi_endproc
 695              	.LFE272:
 696              		.size	i2s_lld_stop_exchange, .-i2s_lld_stop_exchange
 697              		.global	I2SD2
 698              		.section	.bss.I2SD2,"aw",%nobits
 699              		.align	2
 700              		.set	.LANCHOR0,. + 0
 701              		.type	I2SD2, %object
 702              		.size	I2SD2, 32
 703              	I2SD2:
 704 0000 00000000 		.space	32
 704      00000000 
 704      00000000 
 704      00000000 
 704      00000000 
 705              		.section	.rodata.__func__.9918,"a",%progbits
 706              		.align	2
 707              		.set	.LANCHOR1,. + 0
 708              		.type	__func__.9918, %object
 709              		.size	__func__.9918, 14
 710              	__func__.9918:
 711 0000 6932735F 		.ascii	"i2s_lld_start\000"
 711      6C6C645F 
 711      73746172 
 711      7400
 712              		.section	.rodata.i2s_lld_serve_rx_interrupt.str1.4,"aMS",%progbits,1
 713              		.align	2
 714              	.LC0:
 715 0000 444D4120 		.ascii	"DMA failure\000"
 715      6661696C 
 715      75726500 
 716              		.text
 717              	.Letext0:
 718              		.file 3 "d:\\eclipse_e-puck2_win32_11_apr_2018\\eclipse_e-puck2\\tools\\gcc-arm-none-eabi-7-2017-q
 719              		.file 4 "d:\\eclipse_e-puck2_win32_11_apr_2018\\eclipse_e-puck2\\tools\\gcc-arm-none-eabi-7-2017-q
 720              		.file 5 "d:\\eclipse_e-puck2_win32_11_apr_2018\\eclipse_e-puck2\\tools\\gcc-arm-none-eabi-7-2017-q
 721              		.file 6 ".//ChibiOS//os/rt/ports/ARMCMx/compilers/GCC/chtypes.h"
 722              		.file 7 ".//ChibiOS//os/rt/include/chsystypes.h"
 723              		.file 8 ".//ChibiOS//os/rt/include/chschd.h"
 724              		.file 9 ".//ChibiOS//os/ext/CMSIS/include/core_cm4.h"
 725              		.file 10 ".//ChibiOS//os/ext/CMSIS/ST/system_stm32f4xx.h"
 726              		.file 11 ".//ChibiOS//os/ext/CMSIS/ST/stm32f407xx.h"
 727              		.file 12 ".//ChibiOS//os/rt/ports/ARMCMx/chcore.h"
 728              		.file 13 ".//ChibiOS//os/rt/ports/ARMCMx/chcore_v7m.h"
 729              		.file 14 ".//ChibiOS//os/rt/include/chdebug.h"
 730              		.file 15 ".//ChibiOS//os/rt/include/chtm.h"
 731              		.file 16 ".//ChibiOS//os/rt/include/chstats.h"
 732              		.file 17 ".//ChibiOS//os/rt/include/chsem.h"
ARM GAS  C:\Users\25521\AppData\Local\Temp\ccQEpARf.s 			page 14


 733              		.file 18 ".//ChibiOS//os/rt/include/chmtx.h"
 734              		.file 19 ".//ChibiOS//os/rt/include/chregistry.h"
 735              		.file 20 ".//ChibiOS//os/rt/include/chevents.h"
 736              		.file 21 ".//ChibiOS//os/rt/include/chqueues.h"
 737              		.file 22 ".//ChibiOS//os/hal/ports/STM32/LLD/DMAv2/stm32_dma.h"
 738              		.file 23 ".//ChibiOS//os/hal/include/hal_ioblock.h"
 739              		.file 24 ".//ChibiOS//os/hal/ports/STM32/LLD/GPIOv2/pal_lld.h"
 740              		.file 25 ".//ChibiOS//os/hal/include/adc.h"
 741              		.file 26 ".//ChibiOS//os/hal/ports/STM32/LLD/ADCv2/adc_lld.h"
 742              		.file 27 ".//ChibiOS//os/hal/include/can.h"
 743              		.file 28 ".//ChibiOS//os/hal/ports/STM32/LLD/CANv1/can_lld.h"
 744              		.file 29 ".//ChibiOS//os/hal/include/dac.h"
 745              		.file 30 ".//ChibiOS//os/hal/ports/STM32/LLD/DACv1/dac_lld.h"
 746              		.file 31 ".//ChibiOS//os/hal/include/ext.h"
 747              		.file 32 ".//ChibiOS//os/hal/ports/STM32/LLD/EXTIv1/ext_lld.h"
 748              		.file 33 ".//ChibiOS//os/hal/include/gpt.h"
 749              		.file 34 ".//ChibiOS//os/hal/ports/STM32/LLD/TIMv1/gpt_lld.h"
 750              		.file 35 ".//ChibiOS//os/hal/ports/STM32/LLD/TIMv1/stm32_tim.h"
 751              		.file 36 ".//ChibiOS//os/hal/include/i2c.h"
 752              		.file 37 ".//ChibiOS//os/hal/ports/STM32/LLD/I2Cv1/i2c_lld.h"
 753              		.file 38 ".//ChibiOS//os/hal/include/i2s.h"
 754              		.file 39 ".//ChibiOS//os/hal/ports/STM32/LLD/SPIv1/i2s_lld.h"
 755              		.file 40 ".//ChibiOS//os/hal/include/pwm.h"
 756              		.file 41 ".//ChibiOS//os/hal/ports/STM32/LLD/TIMv1/pwm_lld.h"
 757              		.file 42 ".//ChibiOS//os/hal/include/serial.h"
 758              		.file 43 ".//ChibiOS//os/hal/ports/STM32/LLD/USARTv1/serial_lld.h"
 759              		.file 44 ".//ChibiOS//os/hal/include/sdc.h"
 760              		.file 45 ".//ChibiOS//os/hal/ports/STM32/LLD/SDIOv1/sdc_lld.h"
 761              		.file 46 ".//ChibiOS//os/hal/include/spi.h"
 762              		.file 47 ".//ChibiOS//os/hal/ports/STM32/LLD/SPIv1/spi_lld.h"
 763              		.file 48 ".//ChibiOS//os/hal/include/usb.h"
 764              		.file 49 ".//ChibiOS//os/hal/ports/STM32/LLD/OTGv1/usb_lld.h"
 765              		.file 50 ".//ChibiOS//os/hal/ports/STM32/LLD/OTGv1/stm32_otg.h"
 766              		.file 51 ".//ChibiOS//os/rt/include/chsys.h"