ARM GAS  C:\Users\25521\AppData\Local\Temp\ccQSlqc2.s 			page 1


   1              		.cpu cortex-m4
   2              		.eabi_attribute 27, 1
   3              		.eabi_attribute 28, 1
   4              		.eabi_attribute 20, 1
   5              		.eabi_attribute 21, 1
   6              		.eabi_attribute 23, 3
   7              		.eabi_attribute 24, 1
   8              		.eabi_attribute 25, 1
   9              		.eabi_attribute 26, 1
  10              		.eabi_attribute 30, 2
  11              		.eabi_attribute 34, 1
  12              		.eabi_attribute 18, 4
  13              		.file	"memory_protection.c"
  14              		.text
  15              	.Ltext0:
  16              		.cfi_sections	.debug_frame
  17              		.section	.text.mpu_enable,"ax",%progbits
  18              		.align	1
  19              		.p2align 4,,15
  20              		.global	mpu_enable
  21              		.syntax unified
  22              		.thumb
  23              		.thumb_func
  24              		.fpu fpv4-sp-d16
  25              		.type	mpu_enable, %function
  26              	mpu_enable:
  27              	.LFB270:
  28              		.file 1 ".//src/memory_protection.c"
  29              		.loc 1 35 0
  30              		.cfi_startproc
  31              		@ args = 0, pretend = 0, frame = 8
  32              		@ frame_needed = 0, uses_anonymous_args = 0
  33 0000 00B5     		push	{lr}
  34              		.cfi_def_cfa_offset 4
  35              		.cfi_offset 14, -4
  36 0002 094A     		ldr	r2, .L6
  37              		.loc 1 36 0
  38 0004 0949     		ldr	r1, .L6+4
  39              		.loc 1 35 0
  40 0006 1368     		ldr	r3, [r2]
  41 0008 83B0     		sub	sp, sp, #12
  42              		.cfi_def_cfa_offset 16
  43              		.loc 1 35 0
  44 000a 0193     		str	r3, [sp, #4]
  45              		.loc 1 36 0
  46 000c 4B68     		ldr	r3, [r1, #4]
  47 000e 43F00103 		orr	r3, r3, #1
  48 0012 4B60     		str	r3, [r1, #4]
  49              		.loc 1 37 0
  50 0014 0199     		ldr	r1, [sp, #4]
  51 0016 1368     		ldr	r3, [r2]
  52 0018 9942     		cmp	r1, r3
  53 001a 02D1     		bne	.L5
  54 001c 03B0     		add	sp, sp, #12
  55              		.cfi_remember_state
  56              		.cfi_def_cfa_offset 4
  57              		@ sp needed
ARM GAS  C:\Users\25521\AppData\Local\Temp\ccQSlqc2.s 			page 2


  58 001e 5DF804FB 		ldr	pc, [sp], #4
  59              	.L5:
  60              		.cfi_restore_state
  61 0022 FFF7FEFF 		bl	__stack_chk_fail
  62              	.LVL0:
  63              	.L7:
  64 0026 00BF     		.align	2
  65              	.L6:
  66 0028 00000000 		.word	__stack_chk_guard
  67 002c 90ED00E0 		.word	-536810096
  68              		.cfi_endproc
  69              	.LFE270:
  70              		.size	mpu_enable, .-mpu_enable
  71              		.section	.text.mpu_disable,"ax",%progbits
  72              		.align	1
  73              		.p2align 4,,15
  74              		.global	mpu_disable
  75              		.syntax unified
  76              		.thumb
  77              		.thumb_func
  78              		.fpu fpv4-sp-d16
  79              		.type	mpu_disable, %function
  80              	mpu_disable:
  81              	.LFB271:
  82              		.loc 1 40 0
  83              		.cfi_startproc
  84              		@ args = 0, pretend = 0, frame = 8
  85              		@ frame_needed = 0, uses_anonymous_args = 0
  86 0000 00B5     		push	{lr}
  87              		.cfi_def_cfa_offset 4
  88              		.cfi_offset 14, -4
  89 0002 094A     		ldr	r2, .L12
  90              		.loc 1 41 0
  91 0004 0949     		ldr	r1, .L12+4
  92              		.loc 1 40 0
  93 0006 1368     		ldr	r3, [r2]
  94 0008 83B0     		sub	sp, sp, #12
  95              		.cfi_def_cfa_offset 16
  96              		.loc 1 40 0
  97 000a 0193     		str	r3, [sp, #4]
  98              		.loc 1 41 0
  99 000c 4B68     		ldr	r3, [r1, #4]
 100 000e 23F00103 		bic	r3, r3, #1
 101 0012 4B60     		str	r3, [r1, #4]
 102              		.loc 1 42 0
 103 0014 0199     		ldr	r1, [sp, #4]
 104 0016 1368     		ldr	r3, [r2]
 105 0018 9942     		cmp	r1, r3
 106 001a 02D1     		bne	.L11
 107 001c 03B0     		add	sp, sp, #12
 108              		.cfi_remember_state
 109              		.cfi_def_cfa_offset 4
 110              		@ sp needed
 111 001e 5DF804FB 		ldr	pc, [sp], #4
 112              	.L11:
 113              		.cfi_restore_state
 114 0022 FFF7FEFF 		bl	__stack_chk_fail
ARM GAS  C:\Users\25521\AppData\Local\Temp\ccQSlqc2.s 			page 3


 115              	.LVL1:
 116              	.L13:
 117 0026 00BF     		.align	2
 118              	.L12:
 119 0028 00000000 		.word	__stack_chk_guard
 120 002c 90ED00E0 		.word	-536810096
 121              		.cfi_endproc
 122              	.LFE271:
 123              		.size	mpu_disable, .-mpu_disable
 124              		.section	.text.mpu_configure_region,"ax",%progbits
 125              		.align	1
 126              		.p2align 4,,15
 127              		.global	mpu_configure_region
 128              		.syntax unified
 129              		.thumb
 130              		.thumb_func
 131              		.fpu fpv4-sp-d16
 132              		.type	mpu_configure_region, %function
 133              	mpu_configure_region:
 134              	.LFB272:
 135              		.loc 1 46 0
 136              		.cfi_startproc
 137              		@ args = 4, pretend = 0, frame = 8
 138              		@ frame_needed = 0, uses_anonymous_args = 0
 139              	.LVL2:
 140 0000 2DE9F043 		push	{r4, r5, r6, r7, r8, r9, lr}
 141              		.cfi_def_cfa_offset 28
 142              		.cfi_offset 4, -28
 143              		.cfi_offset 5, -24
 144              		.cfi_offset 6, -20
 145              		.cfi_offset 7, -16
 146              		.cfi_offset 8, -12
 147              		.cfi_offset 9, -8
 148              		.cfi_offset 14, -4
 149 0004 254E     		ldr	r6, .L24
 150 0006 83B0     		sub	sp, sp, #12
 151              		.cfi_def_cfa_offset 40
 152              		.loc 1 46 0
 153 0008 3468     		ldr	r4, [r6]
 154 000a 0194     		str	r4, [sp, #4]
 155              	.LVL3:
 156              		.loc 1 49 0
 157 000c 042A     		cmp	r2, #4
 158              		.loc 1 46 0
 159 000e 9DF82890 		ldrb	r9, [sp, #40]	@ zero_extendqisi2
 160 0012 1446     		mov	r4, r2
 161 0014 0546     		mov	r5, r0
 162 0016 0F46     		mov	r7, r1
 163 0018 9846     		mov	r8, r3
 164              		.loc 1 49 0
 165 001a 39D9     		bls	.L21
 166              	.LVL4:
 167              	.L15:
 168              		.loc 1 56 0
 169 001c B9F1000F 		cmp	r9, #0
 170              		.loc 1 57 0
 171 0020 14BF     		ite	ne
ARM GAS  C:\Users\25521\AppData\Local\Temp\ccQSlqc2.s 			page 4


 172 0022 0022     		movne	r2, #0
 173 0024 4FF08052 		moveq	r2, #268435456
 174              		.loc 1 62 0
 175 0028 6400     		lsls	r4, r4, #1
 176              	.LVL5:
 177              		.loc 1 61 0
 178 002a 02EB0863 		add	r3, r2, r8, lsl #24
 179              		.loc 1 63 0
 180 002e 013C     		subs	r4, r4, #1
 181 0030 1C44     		add	r4, r4, r3
 182              		.loc 1 52 0
 183 0032 05F00F05 		and	r5, r5, #15
 184              	.LVL6:
 185              		.loc 1 53 0
 186 0036 27F01F07 		bic	r7, r7, #31
 187              	.LVL7:
 188              	.LBB56:
 189              	.LBB57:
 190              	.LBB58:
 191              	.LBB59:
 192              	.LBB60:
 193              		.file 2 ".//ChibiOS//os/ext/CMSIS/include/core_cmFunc.h"
 194              		.loc 2 548 0
 195 003a 2023     		movs	r3, #32
 196              		.syntax unified
 197              	@ 548 ".//ChibiOS//os/ext/CMSIS/include/core_cmFunc.h" 1
 198 003c 83F31188 		MSR basepri, r3
 199              	@ 0 "" 2
 200              	.LVL8:
 201              		.thumb
 202              		.syntax unified
 203              	.LBE60:
 204              	.LBE59:
 205              	.LBE58:
 206              		.file 3 ".//ChibiOS//os/rt/include/chsys.h"
 207              		.loc 3 349 0
 208 0040 FFF7FEFF 		bl	_stats_start_measure_crit_thd
 209              	.LVL9:
 210              	.LBE57:
 211              	.LBE56:
 212              		.loc 1 68 0
 213 0044 3D43     		orrs	r5, r5, r7
 214              	.LVL10:
 215              	.LBB62:
 216              	.LBB61:
 217              		.loc 3 350 0
 218 0046 FFF7FEFF 		bl	_dbg_check_lock
 219              	.LVL11:
 220              	.LBE61:
 221              	.LBE62:
 222              		.loc 1 68 0
 223 004a 154B     		ldr	r3, .L24+4
 224 004c 1035     		adds	r5, r5, #16
 225 004e DD60     		str	r5, [r3, #12]
 226              	.LVL12:
 227              		.loc 1 69 0
 228 0050 1C61     		str	r4, [r3, #16]
ARM GAS  C:\Users\25521\AppData\Local\Temp\ccQSlqc2.s 			page 5


 229              	.LBB63:
 230              	.LBB64:
 231              		.loc 3 360 0
 232 0052 FFF7FEFF 		bl	_dbg_check_unlock
 233              	.LVL13:
 234              		.loc 3 361 0
 235 0056 FFF7FEFF 		bl	_stats_stop_measure_crit_thd
 236              	.LVL14:
 237              		.loc 3 367 0
 238 005a 124B     		ldr	r3, .L24+8
 239 005c 1A68     		ldr	r2, [r3]
 240 005e 9A42     		cmp	r2, r3
 241 0060 04D0     		beq	.L17
 242 0062 9969     		ldr	r1, [r3, #24]
 243 0064 9368     		ldr	r3, [r2, #8]
 244 0066 8A68     		ldr	r2, [r1, #8]
 245 0068 9A42     		cmp	r2, r3
 246 006a 0DD3     		bcc	.L22
 247              	.L17:
 248              	.LVL15:
 249              	.LBB65:
 250              	.LBB66:
 251              	.LBB67:
 252              		.loc 2 548 0
 253 006c 0023     		movs	r3, #0
 254              		.syntax unified
 255              	@ 548 ".//ChibiOS//os/ext/CMSIS/include/core_cmFunc.h" 1
 256 006e 83F31188 		MSR basepri, r3
 257              	@ 0 "" 2
 258              	.LVL16:
 259              		.thumb
 260              		.syntax unified
 261              	.LBE67:
 262              	.LBE66:
 263              	.LBE65:
 264              	.LBE64:
 265              	.LBE63:
 266              	.LBB69:
 267              	.LBB70:
 268              		.file 4 ".//ChibiOS//os/ext/CMSIS/include/core_cmInstr.h"
 269              		.loc 4 467 0
 270              		.syntax unified
 271              	@ 467 ".//ChibiOS//os/ext/CMSIS/include/core_cmInstr.h" 1
 272 0072 BFF36F8F 		isb 0xF
 273              	@ 0 "" 2
 274              		.thumb
 275              		.syntax unified
 276              	.LBE70:
 277              	.LBE69:
 278              	.LBB71:
 279              	.LBB72:
 280              		.loc 4 478 0
 281              		.syntax unified
 282              	@ 478 ".//ChibiOS//os/ext/CMSIS/include/core_cmInstr.h" 1
 283 0076 BFF34F8F 		dsb 0xF
 284              	@ 0 "" 2
 285              		.thumb
ARM GAS  C:\Users\25521\AppData\Local\Temp\ccQSlqc2.s 			page 6


 286              		.syntax unified
 287              	.LBE72:
 288              	.LBE71:
 289              		.loc 1 76 0
 290 007a 019A     		ldr	r2, [sp, #4]
 291 007c 3368     		ldr	r3, [r6]
 292 007e 9A42     		cmp	r2, r3
 293 0080 0AD1     		bne	.L23
 294 0082 03B0     		add	sp, sp, #12
 295              		.cfi_remember_state
 296              		.cfi_def_cfa_offset 28
 297              		@ sp needed
 298 0084 BDE8F083 		pop	{r4, r5, r6, r7, r8, r9, pc}
 299              	.LVL17:
 300              	.L22:
 301              		.cfi_restore_state
 302              	.LBB73:
 303              	.LBB68:
 304              		.loc 3 367 0
 305 0088 0748     		ldr	r0, .L24+12
 306 008a FFF7FEFF 		bl	chSysHalt
 307              	.LVL18:
 308 008e EDE7     		b	.L17
 309              	.LVL19:
 310              	.L21:
 311              	.LBE68:
 312              	.LBE73:
 313              		.loc 1 49 0 discriminator 2
 314 0090 0648     		ldr	r0, .L24+16
 315              	.LVL20:
 316 0092 FFF7FEFF 		bl	chSysHalt
 317              	.LVL21:
 318 0096 C1E7     		b	.L15
 319              	.LVL22:
 320              	.L23:
 321              		.loc 1 76 0
 322 0098 FFF7FEFF 		bl	__stack_chk_fail
 323              	.LVL23:
 324              	.L25:
 325              		.align	2
 326              	.L24:
 327 009c 00000000 		.word	__stack_chk_guard
 328 00a0 90ED00E0 		.word	-536810096
 329 00a4 00000000 		.word	ch
 330 00a8 00000000 		.word	.LANCHOR1
 331 00ac 00000000 		.word	.LANCHOR0
 332              		.cfi_endproc
 333              	.LFE272:
 334              		.size	mpu_configure_region, .-mpu_configure_region
 335              		.section	.text.mpu_init,"ax",%progbits
 336              		.align	1
 337              		.p2align 4,,15
 338              		.global	mpu_init
 339              		.syntax unified
 340              		.thumb
 341              		.thumb_func
 342              		.fpu fpv4-sp-d16
ARM GAS  C:\Users\25521\AppData\Local\Temp\ccQSlqc2.s 			page 7


 343              		.type	mpu_init, %function
 344              	mpu_init:
 345              	.LFB273:
 346              		.loc 1 79 0
 347              		.cfi_startproc
 348              		@ args = 0, pretend = 0, frame = 8
 349              		@ frame_needed = 0, uses_anonymous_args = 0
 350 0000 30B5     		push	{r4, r5, lr}
 351              		.cfi_def_cfa_offset 12
 352              		.cfi_offset 4, -12
 353              		.cfi_offset 5, -8
 354              		.cfi_offset 14, -4
 355 0002 224D     		ldr	r5, .L32
 356              		.loc 1 81 0
 357 0004 224C     		ldr	r4, .L32+4
 358              		.loc 1 79 0
 359 0006 2B68     		ldr	r3, [r5]
 360              		.loc 1 84 0
 361 0008 224A     		ldr	r2, .L32+8
 362              		.loc 1 79 0
 363 000a 85B0     		sub	sp, sp, #20
 364              		.cfi_def_cfa_offset 32
 365              		.loc 1 79 0
 366 000c 0393     		str	r3, [sp, #12]
 367              		.loc 1 81 0
 368 000e 6368     		ldr	r3, [r4, #4]
 369 0010 43F00403 		orr	r3, r3, #4
 370 0014 6360     		str	r3, [r4, #4]
 371              		.loc 1 84 0
 372 0016 536A     		ldr	r3, [r2, #36]
 373 0018 43F48033 		orr	r3, r3, #65536
 374 001c 5362     		str	r3, [r2, #36]
 375              	.LVL24:
 376              	.LBB92:
 377              	.LBB93:
 378              	.LBB94:
 379              	.LBB95:
 380              	.LBB96:
 381              	.LBB97:
 382              	.LBB98:
 383              		.loc 2 548 0
 384 001e 2023     		movs	r3, #32
 385              		.syntax unified
 386              	@ 548 ".//ChibiOS//os/ext/CMSIS/include/core_cmFunc.h" 1
 387 0020 83F31188 		MSR basepri, r3
 388              	@ 0 "" 2
 389              	.LVL25:
 390              		.thumb
 391              		.syntax unified
 392              	.LBE98:
 393              	.LBE97:
 394              	.LBE96:
 395              		.loc 3 349 0
 396 0024 FFF7FEFF 		bl	_stats_start_measure_crit_thd
 397              	.LVL26:
 398              		.loc 3 350 0
 399 0028 FFF7FEFF 		bl	_dbg_check_lock
ARM GAS  C:\Users\25521\AppData\Local\Temp\ccQSlqc2.s 			page 8


 400              	.LVL27:
 401              	.LBE95:
 402              	.LBE94:
 403              		.loc 1 68 0
 404 002c 1722     		movs	r2, #23
 405              		.loc 1 69 0
 406 002e 1A4B     		ldr	r3, .L32+12
 407              		.loc 1 68 0
 408 0030 E260     		str	r2, [r4, #12]
 409              		.loc 1 69 0
 410 0032 2361     		str	r3, [r4, #16]
 411              	.LBB99:
 412              	.LBB100:
 413              		.loc 3 360 0
 414 0034 FFF7FEFF 		bl	_dbg_check_unlock
 415              	.LVL28:
 416              		.loc 3 361 0
 417 0038 FFF7FEFF 		bl	_stats_stop_measure_crit_thd
 418              	.LVL29:
 419              		.loc 3 367 0
 420 003c 174B     		ldr	r3, .L32+16
 421 003e 1A68     		ldr	r2, [r3]
 422 0040 9A42     		cmp	r2, r3
 423 0042 04D0     		beq	.L27
 424 0044 9969     		ldr	r1, [r3, #24]
 425 0046 9368     		ldr	r3, [r2, #8]
 426 0048 8A68     		ldr	r2, [r1, #8]
 427 004a 9A42     		cmp	r2, r3
 428 004c 18D3     		bcc	.L30
 429              	.L27:
 430              	.LVL30:
 431              	.LBB101:
 432              	.LBB102:
 433              	.LBB103:
 434              		.loc 2 548 0
 435 004e 0020     		movs	r0, #0
 436              		.syntax unified
 437              	@ 548 ".//ChibiOS//os/ext/CMSIS/include/core_cmFunc.h" 1
 438 0050 80F31188 		MSR basepri, r0
 439              	@ 0 "" 2
 440              	.LVL31:
 441              		.thumb
 442              		.syntax unified
 443              	.LBE103:
 444              	.LBE102:
 445              	.LBE101:
 446              	.LBE100:
 447              	.LBE99:
 448              	.LBB105:
 449              	.LBB106:
 450              		.loc 4 467 0
 451              		.syntax unified
 452              	@ 467 ".//ChibiOS//os/ext/CMSIS/include/core_cmInstr.h" 1
 453 0054 BFF36F8F 		isb 0xF
 454              	@ 0 "" 2
 455              		.thumb
 456              		.syntax unified
ARM GAS  C:\Users\25521\AppData\Local\Temp\ccQSlqc2.s 			page 9


 457              	.LBE106:
 458              	.LBE105:
 459              	.LBB107:
 460              	.LBB108:
 461              		.loc 4 478 0
 462              		.syntax unified
 463              	@ 478 ".//ChibiOS//os/ext/CMSIS/include/core_cmInstr.h" 1
 464 0058 BFF34F8F 		dsb 0xF
 465              	@ 0 "" 2
 466              	.LVL32:
 467              		.thumb
 468              		.syntax unified
 469              	.LBE108:
 470              	.LBE107:
 471              	.LBE93:
 472              	.LBE92:
 473              		.loc 1 96 0
 474 005c 0323     		movs	r3, #3
 475 005e 1D22     		movs	r2, #29
 476 0060 0090     		str	r0, [sp]
 477 0062 4FF00051 		mov	r1, #536870912
 478 0066 FFF7FEFF 		bl	mpu_configure_region
 479              	.LVL33:
 480              	.LBB111:
 481              	.LBB112:
 482              		.loc 1 36 0
 483 006a 094A     		ldr	r2, .L32+4
 484 006c 5368     		ldr	r3, [r2, #4]
 485 006e 43F00103 		orr	r3, r3, #1
 486 0072 5360     		str	r3, [r2, #4]
 487              	.LBE112:
 488              	.LBE111:
 489              		.loc 1 99 0
 490 0074 039A     		ldr	r2, [sp, #12]
 491 0076 2B68     		ldr	r3, [r5]
 492 0078 9A42     		cmp	r2, r3
 493 007a 05D1     		bne	.L31
 494 007c 05B0     		add	sp, sp, #20
 495              		.cfi_remember_state
 496              		.cfi_def_cfa_offset 12
 497              		@ sp needed
 498 007e 30BD     		pop	{r4, r5, pc}
 499              	.LVL34:
 500              	.L30:
 501              		.cfi_restore_state
 502              	.LBB113:
 503              	.LBB110:
 504              	.LBB109:
 505              	.LBB104:
 506              		.loc 3 367 0
 507 0080 0748     		ldr	r0, .L32+20
 508 0082 FFF7FEFF 		bl	chSysHalt
 509              	.LVL35:
 510 0086 E2E7     		b	.L27
 511              	.LVL36:
 512              	.L31:
 513              	.LBE104:
ARM GAS  C:\Users\25521\AppData\Local\Temp\ccQSlqc2.s 			page 10


 514              	.LBE109:
 515              	.LBE110:
 516              	.LBE113:
 517              		.loc 1 99 0
 518 0088 FFF7FEFF 		bl	__stack_chk_fail
 519              	.LVL37:
 520              	.L33:
 521              		.align	2
 522              	.L32:
 523 008c 00000000 		.word	__stack_chk_guard
 524 0090 90ED00E0 		.word	-536810096
 525 0094 00ED00E0 		.word	-536810240
 526 0098 09000010 		.word	268435465
 527 009c 00000000 		.word	ch
 528 00a0 00000000 		.word	.LANCHOR1
 529              		.cfi_endproc
 530              	.LFE273:
 531              		.size	mpu_init, .-mpu_init
 532              		.section	.text.MemManage_Handler,"ax",%progbits
 533              		.align	1
 534              		.p2align 4,,15
 535              		.global	MemManage_Handler
 536              		.syntax unified
 537              		.thumb
 538              		.thumb_func
 539              		.fpu fpv4-sp-d16
 540              		.type	MemManage_Handler, %function
 541              	MemManage_Handler:
 542              	.LFB274:
 543              		.loc 1 102 0
 544              		.cfi_startproc
 545              		@ args = 0, pretend = 0, frame = 112
 546              		@ frame_needed = 0, uses_anonymous_args = 0
 547 0000 70B5     		push	{r4, r5, r6, lr}
 548              		.cfi_def_cfa_offset 16
 549              		.cfi_offset 4, -16
 550              		.cfi_offset 5, -12
 551              		.cfi_offset 6, -8
 552              		.cfi_offset 14, -4
 553              		.loc 1 106 0
 554 0002 1A4D     		ldr	r5, .L48
 555 0004 1A4C     		ldr	r4, .L48+4
 556              		.loc 1 102 0
 557 0006 1B4E     		ldr	r6, .L48+8
 558              		.loc 1 106 0
 559 0008 0FCD     		ldmia	r5!, {r0, r1, r2, r3}
 560 000a 0FC4     		stmia	r4!, {r0, r1, r2, r3}
 561              		.loc 1 102 0
 562 000c 9EB0     		sub	sp, sp, #120
 563              		.cfi_def_cfa_offset 136
 564              		.loc 1 106 0
 565 000e 2A68     		ldr	r2, [r5]
 566              		.loc 1 102 0
 567 0010 3368     		ldr	r3, [r6]
 568              		.loc 1 106 0
 569 0012 2280     		strh	r2, [r4]	@ movhi
 570              		.loc 1 102 0
ARM GAS  C:\Users\25521\AppData\Local\Temp\ccQSlqc2.s 			page 11


 571 0014 1D93     		str	r3, [sp, #116]
 572              	.LBB114:
 573              	.LBB115:
 574              		.loc 2 430 0
 575              		.syntax unified
 576              	@ 430 ".//ChibiOS//os/ext/CMSIS/include/core_cmFunc.h" 1
 577 0016 EFF30981 		MRS r1, psp
 578              	
 579              	@ 0 "" 2
 580              		.thumb
 581              		.syntax unified
 582              	.LBE115:
 583              	.LBE114:
 584              		.loc 1 111 0
 585 001a 6822     		movs	r2, #104
 586 001c 03A8     		add	r0, sp, #12
 587 001e FFF7FEFF 		bl	memcpy
 588              	.LVL38:
 589              		.loc 1 114 0
 590 0022 154B     		ldr	r3, .L48+12
 591 0024 9D6A     		ldr	r5, [r3, #40]
 592              	.LVL39:
 593              		.loc 1 117 0
 594 0026 AA07     		lsls	r2, r5, #30
 595 0028 14D4     		bmi	.L46
 596              	.L35:
 597              		.loc 1 123 0
 598 002a EB07     		lsls	r3, r5, #31
 599 002c 08D5     		bpl	.L36
 600              		.loc 1 126 0
 601 002e 124B     		ldr	r3, .L48+12
 602              		.loc 1 124 0
 603 0030 0899     		ldr	r1, [sp, #32]
 604              		.loc 1 126 0
 605 0032 5B6B     		ldr	r3, [r3, #52]
 606              		.loc 1 124 0
 607 0034 114A     		ldr	r2, .L48+16
 608 0036 0091     		str	r1, [sp]
 609 0038 0D48     		ldr	r0, .L48+4
 610 003a 8021     		movs	r1, #128
 611 003c FFF7FEFF 		bl	snprintf
 612              	.LVL40:
 613              	.L36:
 614              		.loc 1 129 0
 615 0040 1D9A     		ldr	r2, [sp, #116]
 616 0042 3368     		ldr	r3, [r6]
 617 0044 9A42     		cmp	r2, r3
 618 0046 0FD1     		bne	.L47
 619 0048 0948     		ldr	r0, .L48+4
 620              		.loc 1 130 0
 621 004a 1EB0     		add	sp, sp, #120
 622              		.cfi_remember_state
 623              		.cfi_def_cfa_offset 16
 624              		@ sp needed
 625 004c BDE87040 		pop	{r4, r5, r6, lr}
 626              		.cfi_restore 14
 627              		.cfi_restore 6
ARM GAS  C:\Users\25521\AppData\Local\Temp\ccQSlqc2.s 			page 12


 628              		.cfi_restore 5
 629              		.cfi_restore 4
 630              		.cfi_def_cfa_offset 0
 631              	.LVL41:
 632              		.loc 1 129 0
 633 0050 FFF7FEBF 		b	chSysHalt
 634              	.LVL42:
 635              	.L46:
 636              		.cfi_restore_state
 637              		.loc 1 118 0
 638 0054 099A     		ldr	r2, [sp, #36]
 639              		.loc 1 119 0
 640 0056 5B6B     		ldr	r3, [r3, #52]
 641              		.loc 1 118 0
 642 0058 0092     		str	r2, [sp]
 643 005a A4F11000 		sub	r0, r4, #16
 644 005e 084A     		ldr	r2, .L48+20
 645 0060 8021     		movs	r1, #128
 646 0062 FFF7FEFF 		bl	snprintf
 647              	.LVL43:
 648 0066 E0E7     		b	.L35
 649              	.L47:
 650              		.loc 1 129 0
 651 0068 FFF7FEFF 		bl	__stack_chk_fail
 652              	.LVL44:
 653              	.L49:
 654              		.align	2
 655              	.L48:
 656 006c 44000000 		.word	.LC0
 657 0070 00000000 		.word	.LANCHOR2
 658 0074 00000000 		.word	__stack_chk_guard
 659 0078 00ED00E0 		.word	-536810240
 660 007c 20000000 		.word	.LC2
 661 0080 00000000 		.word	.LC1
 662              		.cfi_endproc
 663              	.LFE274:
 664              		.size	MemManage_Handler, .-MemManage_Handler
 665              		.section	.bss.msg.11672,"aw",%nobits
 666              		.align	2
 667              		.set	.LANCHOR2,. + 0
 668              		.type	msg.11672, %object
 669              		.size	msg.11672, 128
 670              	msg.11672:
 671 0000 00000000 		.space	128
 671      00000000 
 671      00000000 
 671      00000000 
 671      00000000 
 672              		.section	.rodata.MemManage_Handler.str1.4,"aMS",%progbits,1
 673              		.align	2
 674              	.LC1:
 675 0000 496E7661 		.ascii	"Invalid access to %p (pc=%p)\000"
 675      6C696420 
 675      61636365 
 675      73732074 
 675      6F202570 
 676 001d 000000   		.space	3
ARM GAS  C:\Users\25521\AppData\Local\Temp\ccQSlqc2.s 			page 13


 677              	.LC2:
 678 0020 4A756D70 		.ascii	"Jumped to XN region %p (lr_thd=%p)\000"
 678      65642074 
 678      6F20584E 
 678      20726567 
 678      696F6E20 
 679 0043 00       		.space	1
 680              	.LC0:
 681 0044 4D656D4D 		.ascii	"MemManage_Handler\000"
 681      616E6167 
 681      655F4861 
 681      6E646C65 
 681      7200
 682              		.section	.rodata.__func__.11663,"a",%progbits
 683              		.align	2
 684              		.set	.LANCHOR0,. + 0
 685              		.type	__func__.11663, %object
 686              		.size	__func__.11663, 21
 687              	__func__.11663:
 688 0000 6D70755F 		.ascii	"mpu_configure_region\000"
 688      636F6E66 
 688      69677572 
 688      655F7265 
 688      67696F6E 
 689              		.section	.rodata.__func__.8938,"a",%progbits
 690              		.align	2
 691              		.set	.LANCHOR1,. + 0
 692              		.type	__func__.8938, %object
 693              		.size	__func__.8938, 12
 694              	__func__.8938:
 695 0000 63685379 		.ascii	"chSysUnlock\000"
 695      73556E6C 
 695      6F636B00 
 696              		.text
 697              	.Letext0:
 698              		.file 5 "d:\\eclipse_e-puck2_win32_11_apr_2018\\eclipse_e-puck2\\tools\\gcc-arm-none-eabi-7-2017-q
 699              		.file 6 "d:\\eclipse_e-puck2_win32_11_apr_2018\\eclipse_e-puck2\\tools\\gcc-arm-none-eabi-7-2017-q
 700              		.file 7 "d:\\eclipse_e-puck2_win32_11_apr_2018\\eclipse_e-puck2\\tools\\gcc-arm-none-eabi-7-2017-q
 701              		.file 8 "d:\\eclipse_e-puck2_win32_11_apr_2018\\eclipse_e-puck2\\tools\\gcc-arm-none-eabi-7-2017-q
 702              		.file 9 "d:\\eclipse_e-puck2_win32_11_apr_2018\\eclipse_e-puck2\\tools\\gcc-arm-none-eabi-7-2017-q
 703              		.file 10 "d:\\eclipse_e-puck2_win32_11_apr_2018\\eclipse_e-puck2\\tools\\gcc-arm-none-eabi-7-2017-
 704              		.file 11 "d:\\eclipse_e-puck2_win32_11_apr_2018\\eclipse_e-puck2\\tools\\gcc-arm-none-eabi-7-2017-
 705              		.file 12 ".//ChibiOS//os/rt/ports/ARMCMx/compilers/GCC/chtypes.h"
 706              		.file 13 ".//ChibiOS//os/rt/include/chsystypes.h"
 707              		.file 14 ".//ChibiOS//os/rt/include/chschd.h"
 708              		.file 15 ".//ChibiOS//os/ext/CMSIS/include/core_cm4.h"
 709              		.file 16 ".//ChibiOS//os/ext/CMSIS/ST/system_stm32f4xx.h"
 710              		.file 17 ".//ChibiOS//os/ext/CMSIS/ST/stm32f407xx.h"
 711              		.file 18 ".//ChibiOS//os/rt/ports/ARMCMx/chcore.h"
 712              		.file 19 ".//ChibiOS//os/rt/ports/ARMCMx/chcore_v7m.h"
 713              		.file 20 ".//ChibiOS//os/rt/include/chdebug.h"
 714              		.file 21 ".//ChibiOS//os/rt/include/chtm.h"
 715              		.file 22 ".//ChibiOS//os/rt/include/chstats.h"
 716              		.file 23 ".//ChibiOS//os/rt/include/chsem.h"
 717              		.file 24 ".//ChibiOS//os/rt/include/chmtx.h"
 718              		.file 25 ".//ChibiOS//os/rt/include/chregistry.h"
 719              		.file 26 ".//ChibiOS//os/rt/include/chevents.h"
ARM GAS  C:\Users\25521\AppData\Local\Temp\ccQSlqc2.s 			page 14


 720              		.file 27 ".//ChibiOS//os/rt/include/chqueues.h"
 721              		.file 28 ".//ChibiOS//os/hal/ports/STM32/LLD/DMAv2/stm32_dma.h"
 722              		.file 29 ".//ChibiOS//os/hal/include/hal_ioblock.h"
 723              		.file 30 ".//ChibiOS//os/hal/ports/STM32/LLD/GPIOv2/pal_lld.h"
 724              		.file 31 ".//ChibiOS//os/hal/include/adc.h"
 725              		.file 32 ".//ChibiOS//os/hal/ports/STM32/LLD/ADCv2/adc_lld.h"
 726              		.file 33 ".//ChibiOS//os/hal/include/can.h"
 727              		.file 34 ".//ChibiOS//os/hal/ports/STM32/LLD/CANv1/can_lld.h"
 728              		.file 35 ".//ChibiOS//os/hal/include/dac.h"
 729              		.file 36 ".//ChibiOS//os/hal/ports/STM32/LLD/DACv1/dac_lld.h"
 730              		.file 37 ".//ChibiOS//os/hal/include/ext.h"
 731              		.file 38 ".//ChibiOS//os/hal/ports/STM32/LLD/EXTIv1/ext_lld.h"
 732              		.file 39 ".//ChibiOS//os/hal/include/gpt.h"
 733              		.file 40 ".//ChibiOS//os/hal/ports/STM32/LLD/TIMv1/gpt_lld.h"
 734              		.file 41 ".//ChibiOS//os/hal/ports/STM32/LLD/TIMv1/stm32_tim.h"
 735              		.file 42 ".//ChibiOS//os/hal/include/i2c.h"
 736              		.file 43 ".//ChibiOS//os/hal/ports/STM32/LLD/I2Cv1/i2c_lld.h"
 737              		.file 44 ".//ChibiOS//os/hal/include/i2s.h"
 738              		.file 45 ".//ChibiOS//os/hal/ports/STM32/LLD/SPIv1/i2s_lld.h"
 739              		.file 46 ".//ChibiOS//os/hal/include/pwm.h"
 740              		.file 47 ".//ChibiOS//os/hal/ports/STM32/LLD/TIMv1/pwm_lld.h"
 741              		.file 48 ".//ChibiOS//os/hal/include/serial.h"
 742              		.file 49 ".//ChibiOS//os/hal/ports/STM32/LLD/USARTv1/serial_lld.h"
 743              		.file 50 ".//ChibiOS//os/hal/include/sdc.h"
 744              		.file 51 ".//ChibiOS//os/hal/ports/STM32/LLD/SDIOv1/sdc_lld.h"
 745              		.file 52 ".//ChibiOS//os/hal/include/spi.h"
 746              		.file 53 ".//ChibiOS//os/hal/ports/STM32/LLD/SPIv1/spi_lld.h"
 747              		.file 54 ".//ChibiOS//os/hal/include/usb.h"
 748              		.file 55 ".//ChibiOS//os/hal/ports/STM32/LLD/OTGv1/usb_lld.h"
 749              		.file 56 ".//ChibiOS//os/hal/ports/STM32/LLD/OTGv1/stm32_otg.h"
 750              		.file 57 ".//src/memory_protection.h"
 751              		.file 58 "d:\\eclipse_e-puck2_win32_11_apr_2018\\eclipse_e-puck2\\tools\\gcc-arm-none-eabi-7-2017-
 752              		.file 59 "<built-in>"