ARM GAS  C:\Users\25521\AppData\Local\Temp\ccoR8V9M.s 			page 1


   1              		.cpu cortex-m4
   2              		.eabi_attribute 27, 1
   3              		.eabi_attribute 28, 1
   4              		.eabi_attribute 20, 1
   5              		.eabi_attribute 21, 1
   6              		.eabi_attribute 23, 3
   7              		.eabi_attribute 24, 1
   8              		.eabi_attribute 25, 1
   9              		.eabi_attribute 26, 1
  10              		.eabi_attribute 30, 2
  11              		.eabi_attribute 34, 1
  12              		.eabi_attribute 18, 4
  13              		.file	"messagebus.c"
  14              		.text
  15              	.Ltext0:
  16              		.cfi_sections	.debug_frame
  17              		.section	.text.messagebus_init,"ax",%progbits
  18              		.align	1
  19              		.p2align 4,,15
  20              		.global	messagebus_init
  21              		.syntax unified
  22              		.thumb
  23              		.thumb_func
  24              		.fpu fpv4-sp-d16
  25              		.type	messagebus_init, %function
  26              	messagebus_init:
  27              	.LFB1:
  28              		.file 1 ".//src/msgbus/messagebus.c"
  29              		.loc 1 17 0
  30              		.cfi_startproc
  31              		@ args = 0, pretend = 0, frame = 8
  32              		@ frame_needed = 0, uses_anonymous_args = 0
  33              	.LVL0:
  34 0000 30B5     		push	{r4, r5, lr}
  35              		.cfi_def_cfa_offset 12
  36              		.cfi_offset 4, -12
  37              		.cfi_offset 5, -8
  38              		.cfi_offset 14, -4
  39 0002 084C     		ldr	r4, .L6
  40 0004 83B0     		sub	sp, sp, #12
  41              		.cfi_def_cfa_offset 24
  42              		.loc 1 17 0
  43 0006 2368     		ldr	r3, [r4]
  44 0008 0193     		str	r3, [sp, #4]
  45              		.loc 1 18 0
  46 000a 0023     		movs	r3, #0
  47 000c 0360     		str	r3, [r0]	@ unaligned
  48              		.loc 1 21 0
  49 000e 019D     		ldr	r5, [sp, #4]
  50 0010 2468     		ldr	r4, [r4]
  51              		.loc 1 18 0
  52 0012 4360     		str	r3, [r0, #4]	@ unaligned
  53              		.loc 1 21 0
  54 0014 A542     		cmp	r5, r4
  55              		.loc 1 20 0
  56 0016 C0E90212 		strd	r1, r2, [r0, #8]
  57              		.loc 1 21 0
ARM GAS  C:\Users\25521\AppData\Local\Temp\ccoR8V9M.s 			page 2


  58 001a 01D1     		bne	.L5
  59 001c 03B0     		add	sp, sp, #12
  60              		.cfi_remember_state
  61              		.cfi_def_cfa_offset 12
  62              		@ sp needed
  63 001e 30BD     		pop	{r4, r5, pc}
  64              	.L5:
  65              		.cfi_restore_state
  66 0020 FFF7FEFF 		bl	__stack_chk_fail
  67              	.LVL1:
  68              	.L7:
  69              		.align	2
  70              	.L6:
  71 0024 00000000 		.word	__stack_chk_guard
  72              		.cfi_endproc
  73              	.LFE1:
  74              		.size	messagebus_init, .-messagebus_init
  75              		.section	.text.messagebus_topic_init,"ax",%progbits
  76              		.align	1
  77              		.p2align 4,,15
  78              		.global	messagebus_topic_init
  79              		.syntax unified
  80              		.thumb
  81              		.thumb_func
  82              		.fpu fpv4-sp-d16
  83              		.type	messagebus_topic_init, %function
  84              	messagebus_topic_init:
  85              	.LFB2:
  86              		.loc 1 25 0
  87              		.cfi_startproc
  88              		@ args = 4, pretend = 0, frame = 8
  89              		@ frame_needed = 0, uses_anonymous_args = 0
  90              	.LVL2:
  91 0000 2DE9F043 		push	{r4, r5, r6, r7, r8, r9, lr}
  92              		.cfi_def_cfa_offset 28
  93              		.cfi_offset 4, -28
  94              		.cfi_offset 5, -24
  95              		.cfi_offset 6, -20
  96              		.cfi_offset 7, -16
  97              		.cfi_offset 8, -12
  98              		.cfi_offset 9, -8
  99              		.cfi_offset 14, -4
 100 0004 0E4D     		ldr	r5, .L12
 101 0006 83B0     		sub	sp, sp, #12
 102              		.cfi_def_cfa_offset 40
 103              		.loc 1 25 0
 104 0008 2C68     		ldr	r4, [r5]
 105 000a 0194     		str	r4, [sp, #4]
 106 000c 0446     		mov	r4, r0
 107 000e 9946     		mov	r9, r3
 108 0010 0F46     		mov	r7, r1
 109 0012 1646     		mov	r6, r2
 110              		.loc 1 26 0
 111 0014 1030     		adds	r0, r0, #16
 112              	.LVL3:
 113 0016 5022     		movs	r2, #80
 114              	.LVL4:
ARM GAS  C:\Users\25521\AppData\Local\Temp\ccoR8V9M.s 			page 3


 115 0018 0021     		movs	r1, #0
 116              	.LVL5:
 117              		.loc 1 25 0
 118 001a DDF82880 		ldr	r8, [sp, #40]
 119              		.loc 1 26 0
 120 001e FFF7FEFF 		bl	memset
 121              	.LVL6:
 122              		.loc 1 27 0
 123 0022 C4F80090 		str	r9, [r4]
 124              		.loc 1 31 0
 125 0026 019A     		ldr	r2, [sp, #4]
 126 0028 2B68     		ldr	r3, [r5]
 127              		.loc 1 30 0
 128 002a E660     		str	r6, [r4, #12]
 129              		.loc 1 31 0
 130 002c 9A42     		cmp	r2, r3
 131              		.loc 1 29 0
 132 002e C4E90187 		strd	r8, r7, [r4, #4]
 133              		.loc 1 31 0
 134 0032 02D1     		bne	.L11
 135 0034 03B0     		add	sp, sp, #12
 136              		.cfi_remember_state
 137              		.cfi_def_cfa_offset 28
 138              		@ sp needed
 139 0036 BDE8F083 		pop	{r4, r5, r6, r7, r8, r9, pc}
 140              	.LVL7:
 141              	.L11:
 142              		.cfi_restore_state
 143 003a FFF7FEFF 		bl	__stack_chk_fail
 144              	.LVL8:
 145              	.L13:
 146 003e 00BF     		.align	2
 147              	.L12:
 148 0040 00000000 		.word	__stack_chk_guard
 149              		.cfi_endproc
 150              	.LFE2:
 151              		.size	messagebus_topic_init, .-messagebus_topic_init
 152              		.section	.text.messagebus_advertise_topic,"ax",%progbits
 153              		.align	1
 154              		.p2align 4,,15
 155              		.global	messagebus_advertise_topic
 156              		.syntax unified
 157              		.thumb
 158              		.thumb_func
 159              		.fpu fpv4-sp-d16
 160              		.type	messagebus_advertise_topic, %function
 161              	messagebus_advertise_topic:
 162              	.LFB3:
 163              		.loc 1 34 0
 164              		.cfi_startproc
 165              		@ args = 0, pretend = 0, frame = 8
 166              		@ frame_needed = 0, uses_anonymous_args = 0
 167              	.LVL9:
 168 0000 F0B5     		push	{r4, r5, r6, r7, lr}
 169              		.cfi_def_cfa_offset 20
 170              		.cfi_offset 4, -20
 171              		.cfi_offset 5, -16
ARM GAS  C:\Users\25521\AppData\Local\Temp\ccoR8V9M.s 			page 4


 172              		.cfi_offset 6, -12
 173              		.cfi_offset 7, -8
 174              		.cfi_offset 14, -4
 175 0002 194F     		ldr	r7, .L29
 176 0004 83B0     		sub	sp, sp, #12
 177              		.cfi_def_cfa_offset 32
 178              		.loc 1 35 0
 179 0006 01F11003 		add	r3, r1, #16
 180              		.loc 1 34 0
 181 000a 1446     		mov	r4, r2
 182 000c 3A68     		ldr	r2, [r7]
 183              	.LVL10:
 184 000e 0192     		str	r2, [sp, #4]
 185 0010 0546     		mov	r5, r0
 186              		.loc 1 35 0
 187 0012 4122     		movs	r2, #65
 188 0014 1846     		mov	r0, r3
 189              	.LVL11:
 190              		.loc 1 34 0
 191 0016 0E46     		mov	r6, r1
 192              		.loc 1 35 0
 193 0018 0021     		movs	r1, #0
 194              	.LVL12:
 195 001a FFF7FEFF 		bl	memset
 196              	.LVL13:
 197              		.loc 1 36 0
 198 001e 2146     		mov	r1, r4
 199 0020 4022     		movs	r2, #64
 200 0022 FFF7FEFF 		bl	strncpy
 201              	.LVL14:
 202              		.loc 1 38 0
 203 0026 A868     		ldr	r0, [r5, #8]
 204 0028 FFF7FEFF 		bl	messagebus_lock_acquire
 205              	.LVL15:
 206              		.loc 1 40 0
 207 002c 2B68     		ldr	r3, [r5]
 208 002e 03B1     		cbz	r3, .L15
 209              		.loc 1 41 0
 210 0030 B365     		str	r3, [r6, #88]
 211              	.L15:
 212              	.LBB6:
 213              		.loc 1 45 0
 214 0032 6C68     		ldr	r4, [r5, #4]
 215              	.LVL16:
 216              	.LBE6:
 217              		.loc 1 43 0
 218 0034 2E60     		str	r6, [r5]
 219              	.LBB7:
 220              		.loc 1 45 0
 221 0036 3CB1     		cbz	r4, .L16
 222              	.L17:
 223              		.loc 1 46 0 discriminator 3
 224 0038 D4E90032 		ldrd	r3, r2, [r4]
 225 003c 3146     		mov	r1, r6
 226 003e 2846     		mov	r0, r5
 227 0040 9847     		blx	r3
 228              	.LVL17:
ARM GAS  C:\Users\25521\AppData\Local\Temp\ccoR8V9M.s 			page 5


 229              		.loc 1 45 0 discriminator 3
 230 0042 A468     		ldr	r4, [r4, #8]
 231              	.LVL18:
 232 0044 002C     		cmp	r4, #0
 233 0046 F7D1     		bne	.L17
 234              	.L16:
 235              	.LBE7:
 236              		.loc 1 49 0
 237 0048 E868     		ldr	r0, [r5, #12]
 238 004a FFF7FEFF 		bl	messagebus_condvar_broadcast
 239              	.LVL19:
 240              		.loc 1 51 0
 241 004e 019A     		ldr	r2, [sp, #4]
 242 0050 3B68     		ldr	r3, [r7]
 243 0052 9A42     		cmp	r2, r3
 244 0054 05D1     		bne	.L28
 245 0056 A868     		ldr	r0, [r5, #8]
 246              		.loc 1 52 0
 247 0058 03B0     		add	sp, sp, #12
 248              		.cfi_remember_state
 249              		.cfi_def_cfa_offset 20
 250              		@ sp needed
 251 005a BDE8F040 		pop	{r4, r5, r6, r7, lr}
 252              		.cfi_restore 14
 253              		.cfi_restore 7
 254              		.cfi_restore 6
 255              		.cfi_restore 5
 256              		.cfi_restore 4
 257              		.cfi_def_cfa_offset 0
 258              	.LVL20:
 259              		.loc 1 51 0
 260 005e FFF7FEBF 		b	messagebus_lock_release
 261              	.LVL21:
 262              	.L28:
 263              		.cfi_restore_state
 264 0062 FFF7FEFF 		bl	__stack_chk_fail
 265              	.LVL22:
 266              	.L30:
 267 0066 00BF     		.align	2
 268              	.L29:
 269 0068 00000000 		.word	__stack_chk_guard
 270              		.cfi_endproc
 271              	.LFE3:
 272              		.size	messagebus_advertise_topic, .-messagebus_advertise_topic
 273              		.section	.text.messagebus_find_topic,"ax",%progbits
 274              		.align	1
 275              		.p2align 4,,15
 276              		.global	messagebus_find_topic
 277              		.syntax unified
 278              		.thumb
 279              		.thumb_func
 280              		.fpu fpv4-sp-d16
 281              		.type	messagebus_find_topic, %function
 282              	messagebus_find_topic:
 283              	.LFB4:
 284              		.loc 1 55 0
 285              		.cfi_startproc
ARM GAS  C:\Users\25521\AppData\Local\Temp\ccoR8V9M.s 			page 6


 286              		@ args = 0, pretend = 0, frame = 8
 287              		@ frame_needed = 0, uses_anonymous_args = 0
 288              	.LVL23:
 289 0000 F0B5     		push	{r4, r5, r6, r7, lr}
 290              		.cfi_def_cfa_offset 20
 291              		.cfi_offset 4, -20
 292              		.cfi_offset 5, -16
 293              		.cfi_offset 6, -12
 294              		.cfi_offset 7, -8
 295              		.cfi_offset 14, -4
 296 0002 104F     		ldr	r7, .L45
 297 0004 83B0     		sub	sp, sp, #12
 298              		.cfi_def_cfa_offset 32
 299              		.loc 1 55 0
 300 0006 0646     		mov	r6, r0
 301 0008 3B68     		ldr	r3, [r7]
 302              		.loc 1 58 0
 303 000a 8068     		ldr	r0, [r0, #8]
 304              	.LVL24:
 305              		.loc 1 55 0
 306 000c 0193     		str	r3, [sp, #4]
 307 000e 0D46     		mov	r5, r1
 308              		.loc 1 58 0
 309 0010 FFF7FEFF 		bl	messagebus_lock_acquire
 310              	.LVL25:
 311 0014 3468     		ldr	r4, [r6]
 312              	.LVL26:
 313              	.LBB8:
 314              	.LBB9:
 315              		.loc 1 7 0
 316 0016 14B9     		cbnz	r4, .L33
 317 0018 08E0     		b	.L32
 318              	.L43:
 319 001a A46D     		ldr	r4, [r4, #88]
 320              	.LVL27:
 321 001c 34B1     		cbz	r4, .L32
 322              	.L33:
 323              		.loc 1 8 0
 324 001e 04F11001 		add	r1, r4, #16
 325 0022 2846     		mov	r0, r5
 326 0024 FFF7FEFF 		bl	strcmp
 327              	.LVL28:
 328 0028 0028     		cmp	r0, #0
 329 002a F6D1     		bne	.L43
 330              	.L32:
 331              	.LVL29:
 332              	.LBE9:
 333              	.LBE8:
 334              		.loc 1 62 0
 335 002c B068     		ldr	r0, [r6, #8]
 336 002e FFF7FEFF 		bl	messagebus_lock_release
 337              	.LVL30:
 338              		.loc 1 65 0
 339 0032 019A     		ldr	r2, [sp, #4]
 340 0034 3B68     		ldr	r3, [r7]
 341 0036 9A42     		cmp	r2, r3
 342 0038 2046     		mov	r0, r4
ARM GAS  C:\Users\25521\AppData\Local\Temp\ccoR8V9M.s 			page 7


 343 003a 01D1     		bne	.L44
 344 003c 03B0     		add	sp, sp, #12
 345              		.cfi_remember_state
 346              		.cfi_def_cfa_offset 20
 347              		@ sp needed
 348 003e F0BD     		pop	{r4, r5, r6, r7, pc}
 349              	.LVL31:
 350              	.L44:
 351              		.cfi_restore_state
 352 0040 FFF7FEFF 		bl	__stack_chk_fail
 353              	.LVL32:
 354              	.L46:
 355              		.align	2
 356              	.L45:
 357 0044 00000000 		.word	__stack_chk_guard
 358              		.cfi_endproc
 359              	.LFE4:
 360              		.size	messagebus_find_topic, .-messagebus_find_topic
 361              		.section	.text.messagebus_find_topic_blocking,"ax",%progbits
 362              		.align	1
 363              		.p2align 4,,15
 364              		.global	messagebus_find_topic_blocking
 365              		.syntax unified
 366              		.thumb
 367              		.thumb_func
 368              		.fpu fpv4-sp-d16
 369              		.type	messagebus_find_topic_blocking, %function
 370              	messagebus_find_topic_blocking:
 371              	.LFB5:
 372              		.loc 1 68 0
 373              		.cfi_startproc
 374              		@ args = 0, pretend = 0, frame = 8
 375              		@ frame_needed = 0, uses_anonymous_args = 0
 376              	.LVL33:
 377 0000 F0B5     		push	{r4, r5, r6, r7, lr}
 378              		.cfi_def_cfa_offset 20
 379              		.cfi_offset 4, -20
 380              		.cfi_offset 5, -16
 381              		.cfi_offset 6, -12
 382              		.cfi_offset 7, -8
 383              		.cfi_offset 14, -4
 384 0002 124F     		ldr	r7, .L58
 385 0004 83B0     		sub	sp, sp, #12
 386              		.cfi_def_cfa_offset 32
 387              		.loc 1 68 0
 388 0006 0646     		mov	r6, r0
 389 0008 3B68     		ldr	r3, [r7]
 390              		.loc 1 71 0
 391 000a 8068     		ldr	r0, [r0, #8]
 392              	.LVL34:
 393              		.loc 1 68 0
 394 000c 0193     		str	r3, [sp, #4]
 395              	.LVL35:
 396 000e 0D46     		mov	r5, r1
 397              		.loc 1 71 0
 398 0010 FFF7FEFF 		bl	messagebus_lock_acquire
 399              	.LVL36:
ARM GAS  C:\Users\25521\AppData\Local\Temp\ccoR8V9M.s 			page 8


 400              	.L48:
 401 0014 3468     		ldr	r4, [r6]
 402              	.LVL37:
 403              	.LBB10:
 404              	.LBB11:
 405              		.loc 1 7 0
 406 0016 14B9     		cbnz	r4, .L50
 407 0018 12E0     		b	.L51
 408              	.LVL38:
 409              	.L56:
 410 001a A46D     		ldr	r4, [r4, #88]
 411              	.LVL39:
 412 001c 84B1     		cbz	r4, .L51
 413              	.LVL40:
 414              	.L50:
 415              		.loc 1 8 0
 416 001e 04F11001 		add	r1, r4, #16
 417 0022 2846     		mov	r0, r5
 418 0024 FFF7FEFF 		bl	strcmp
 419              	.LVL41:
 420 0028 0028     		cmp	r0, #0
 421 002a F6D1     		bne	.L56
 422              	.LVL42:
 423              	.LBE11:
 424              	.LBE10:
 425              		.loc 1 81 0
 426 002c B068     		ldr	r0, [r6, #8]
 427 002e FFF7FEFF 		bl	messagebus_lock_release
 428              	.LVL43:
 429              		.loc 1 84 0
 430 0032 019A     		ldr	r2, [sp, #4]
 431 0034 3B68     		ldr	r3, [r7]
 432 0036 9A42     		cmp	r2, r3
 433 0038 2046     		mov	r0, r4
 434 003a 05D1     		bne	.L57
 435 003c 03B0     		add	sp, sp, #12
 436              		.cfi_remember_state
 437              		.cfi_def_cfa_offset 20
 438              		@ sp needed
 439 003e F0BD     		pop	{r4, r5, r6, r7, pc}
 440              	.LVL44:
 441              	.L51:
 442              		.cfi_restore_state
 443              		.loc 1 77 0
 444 0040 F068     		ldr	r0, [r6, #12]
 445 0042 FFF7FEFF 		bl	messagebus_condvar_wait
 446              	.LVL45:
 447 0046 E5E7     		b	.L48
 448              	.LVL46:
 449              	.L57:
 450              		.loc 1 84 0
 451 0048 FFF7FEFF 		bl	__stack_chk_fail
 452              	.LVL47:
 453              	.L59:
 454              		.align	2
 455              	.L58:
 456 004c 00000000 		.word	__stack_chk_guard
ARM GAS  C:\Users\25521\AppData\Local\Temp\ccoR8V9M.s 			page 9


 457              		.cfi_endproc
 458              	.LFE5:
 459              		.size	messagebus_find_topic_blocking, .-messagebus_find_topic_blocking
 460              		.section	.text.messagebus_topic_publish,"ax",%progbits
 461              		.align	1
 462              		.p2align 4,,15
 463              		.global	messagebus_topic_publish
 464              		.syntax unified
 465              		.thumb
 466              		.thumb_func
 467              		.fpu fpv4-sp-d16
 468              		.type	messagebus_topic_publish, %function
 469              	messagebus_topic_publish:
 470              	.LFB6:
 471              		.loc 1 87 0
 472              		.cfi_startproc
 473              		@ args = 0, pretend = 0, frame = 8
 474              		@ frame_needed = 0, uses_anonymous_args = 0
 475              	.LVL48:
 476 0000 F0B5     		push	{r4, r5, r6, r7, lr}
 477              		.cfi_def_cfa_offset 20
 478              		.cfi_offset 4, -20
 479              		.cfi_offset 5, -16
 480              		.cfi_offset 6, -12
 481              		.cfi_offset 7, -8
 482              		.cfi_offset 14, -4
 483 0002 1C4E     		ldr	r6, .L73
 484              		.loc 1 88 0
 485 0004 4368     		ldr	r3, [r0, #4]
 486              		.loc 1 87 0
 487 0006 83B0     		sub	sp, sp, #12
 488              		.cfi_def_cfa_offset 32
 489              		.loc 1 87 0
 490 0008 0546     		mov	r5, r0
 491              		.loc 1 88 0
 492 000a 9342     		cmp	r3, r2
 493              		.loc 1 87 0
 494 000c 3068     		ldr	r0, [r6]
 495              	.LVL49:
 496 000e 0190     		str	r0, [sp, #4]
 497              		.loc 1 88 0
 498 0010 06D2     		bcs	.L71
 499              		.loc 1 89 0
 500 0012 0020     		movs	r0, #0
 501              	.LVL50:
 502              	.L61:
 503              		.loc 1 109 0
 504 0014 019A     		ldr	r2, [sp, #4]
 505 0016 3368     		ldr	r3, [r6]
 506 0018 9A42     		cmp	r2, r3
 507 001a 29D1     		bne	.L72
 508 001c 03B0     		add	sp, sp, #12
 509              		.cfi_remember_state
 510              		.cfi_def_cfa_offset 20
 511              		@ sp needed
 512 001e F0BD     		pop	{r4, r5, r6, r7, pc}
 513              	.LVL51:
ARM GAS  C:\Users\25521\AppData\Local\Temp\ccoR8V9M.s 			page 10


 514              	.L71:
 515              		.cfi_restore_state
 516 0020 1446     		mov	r4, r2
 517 0022 0F46     		mov	r7, r1
 518              		.loc 1 92 0
 519 0024 A868     		ldr	r0, [r5, #8]
 520 0026 FFF7FEFF 		bl	messagebus_lock_acquire
 521              	.LVL52:
 522              		.loc 1 94 0
 523 002a 2246     		mov	r2, r4
 524 002c 3946     		mov	r1, r7
 525 002e 2868     		ldr	r0, [r5]
 526 0030 FFF7FEFF 		bl	memcpy
 527              	.LVL53:
 528              		.loc 1 95 0
 529 0034 0123     		movs	r3, #1
 530 0036 85F85130 		strb	r3, [r5, #81]
 531              		.loc 1 96 0
 532 003a E868     		ldr	r0, [r5, #12]
 533 003c FFF7FEFF 		bl	messagebus_condvar_broadcast
 534              	.LVL54:
 535              		.loc 1 99 0
 536 0040 6C6D     		ldr	r4, [r5, #84]
 537              	.LVL55:
 538 0042 84B1     		cbz	r4, .L62
 539              	.L63:
 540              		.loc 1 100 0 discriminator 3
 541 0044 2368     		ldr	r3, [r4]
 542 0046 1868     		ldr	r0, [r3]
 543 0048 FFF7FEFF 		bl	messagebus_lock_acquire
 544              	.LVL56:
 545              		.loc 1 101 0 discriminator 3
 546 004c 2368     		ldr	r3, [r4]
 547 004e 9D60     		str	r5, [r3, #8]
 548              		.loc 1 102 0 discriminator 3
 549 0050 2368     		ldr	r3, [r4]
 550 0052 5868     		ldr	r0, [r3, #4]
 551 0054 FFF7FEFF 		bl	messagebus_condvar_broadcast
 552              	.LVL57:
 553              		.loc 1 103 0 discriminator 3
 554 0058 2368     		ldr	r3, [r4]
 555 005a 1868     		ldr	r0, [r3]
 556 005c FFF7FEFF 		bl	messagebus_lock_release
 557              	.LVL58:
 558              		.loc 1 99 0 discriminator 3
 559 0060 6468     		ldr	r4, [r4, #4]
 560              	.LVL59:
 561 0062 002C     		cmp	r4, #0
 562 0064 EED1     		bne	.L63
 563              	.L62:
 564              		.loc 1 106 0
 565 0066 A868     		ldr	r0, [r5, #8]
 566 0068 FFF7FEFF 		bl	messagebus_lock_release
 567              	.LVL60:
 568              		.loc 1 108 0
 569 006c 0120     		movs	r0, #1
 570 006e D1E7     		b	.L61
ARM GAS  C:\Users\25521\AppData\Local\Temp\ccoR8V9M.s 			page 11


 571              	.LVL61:
 572              	.L72:
 573              		.loc 1 109 0
 574 0070 FFF7FEFF 		bl	__stack_chk_fail
 575              	.LVL62:
 576              	.L74:
 577              		.align	2
 578              	.L73:
 579 0074 00000000 		.word	__stack_chk_guard
 580              		.cfi_endproc
 581              	.LFE6:
 582              		.size	messagebus_topic_publish, .-messagebus_topic_publish
 583              		.section	.text.messagebus_topic_read,"ax",%progbits
 584              		.align	1
 585              		.p2align 4,,15
 586              		.global	messagebus_topic_read
 587              		.syntax unified
 588              		.thumb
 589              		.thumb_func
 590              		.fpu fpv4-sp-d16
 591              		.type	messagebus_topic_read, %function
 592              	messagebus_topic_read:
 593              	.LFB7:
 594              		.loc 1 112 0
 595              		.cfi_startproc
 596              		@ args = 0, pretend = 0, frame = 8
 597              		@ frame_needed = 0, uses_anonymous_args = 0
 598              	.LVL63:
 599 0000 2DE9F041 		push	{r4, r5, r6, r7, r8, lr}
 600              		.cfi_def_cfa_offset 24
 601              		.cfi_offset 4, -24
 602              		.cfi_offset 5, -20
 603              		.cfi_offset 6, -16
 604              		.cfi_offset 7, -12
 605              		.cfi_offset 8, -8
 606              		.cfi_offset 14, -4
 607 0004 0F4D     		ldr	r5, .L83
 608 0006 82B0     		sub	sp, sp, #8
 609              		.cfi_def_cfa_offset 32
 610              		.loc 1 112 0
 611 0008 0446     		mov	r4, r0
 612 000a 2B68     		ldr	r3, [r5]
 613              		.loc 1 114 0
 614 000c 8068     		ldr	r0, [r0, #8]
 615              	.LVL64:
 616              		.loc 1 112 0
 617 000e 0193     		str	r3, [sp, #4]
 618              	.LVL65:
 619 0010 0F46     		mov	r7, r1
 620 0012 9046     		mov	r8, r2
 621              		.loc 1 114 0
 622 0014 FFF7FEFF 		bl	messagebus_lock_acquire
 623              	.LVL66:
 624              		.loc 1 116 0
 625 0018 94F85160 		ldrb	r6, [r4, #81]	@ zero_extendqisi2
 626 001c 26B1     		cbz	r6, .L76
 627              	.LVL67:
ARM GAS  C:\Users\25521\AppData\Local\Temp\ccoR8V9M.s 			page 12


 628              		.loc 1 118 0
 629 001e 4246     		mov	r2, r8
 630 0020 3846     		mov	r0, r7
 631 0022 2168     		ldr	r1, [r4]
 632 0024 FFF7FEFF 		bl	memcpy
 633              	.LVL68:
 634              	.L76:
 635              		.loc 1 121 0
 636 0028 A068     		ldr	r0, [r4, #8]
 637 002a FFF7FEFF 		bl	messagebus_lock_release
 638              	.LVL69:
 639              		.loc 1 124 0
 640 002e 019A     		ldr	r2, [sp, #4]
 641 0030 2B68     		ldr	r3, [r5]
 642 0032 9A42     		cmp	r2, r3
 643 0034 3046     		mov	r0, r6
 644 0036 02D1     		bne	.L82
 645 0038 02B0     		add	sp, sp, #8
 646              		.cfi_remember_state
 647              		.cfi_def_cfa_offset 24
 648              		@ sp needed
 649 003a BDE8F081 		pop	{r4, r5, r6, r7, r8, pc}
 650              	.LVL70:
 651              	.L82:
 652              		.cfi_restore_state
 653 003e FFF7FEFF 		bl	__stack_chk_fail
 654              	.LVL71:
 655              	.L84:
 656 0042 00BF     		.align	2
 657              	.L83:
 658 0044 00000000 		.word	__stack_chk_guard
 659              		.cfi_endproc
 660              	.LFE7:
 661              		.size	messagebus_topic_read, .-messagebus_topic_read
 662              		.section	.text.messagebus_topic_wait,"ax",%progbits
 663              		.align	1
 664              		.p2align 4,,15
 665              		.global	messagebus_topic_wait
 666              		.syntax unified
 667              		.thumb
 668              		.thumb_func
 669              		.fpu fpv4-sp-d16
 670              		.type	messagebus_topic_wait, %function
 671              	messagebus_topic_wait:
 672              	.LFB8:
 673              		.loc 1 127 0
 674              		.cfi_startproc
 675              		@ args = 0, pretend = 0, frame = 8
 676              		@ frame_needed = 0, uses_anonymous_args = 0
 677              	.LVL72:
 678 0000 F0B5     		push	{r4, r5, r6, r7, lr}
 679              		.cfi_def_cfa_offset 20
 680              		.cfi_offset 4, -20
 681              		.cfi_offset 5, -16
 682              		.cfi_offset 6, -12
 683              		.cfi_offset 7, -8
 684              		.cfi_offset 14, -4
ARM GAS  C:\Users\25521\AppData\Local\Temp\ccoR8V9M.s 			page 13


 685 0002 0F4D     		ldr	r5, .L90
 686 0004 83B0     		sub	sp, sp, #12
 687              		.cfi_def_cfa_offset 32
 688              		.loc 1 127 0
 689 0006 0446     		mov	r4, r0
 690 0008 2B68     		ldr	r3, [r5]
 691              		.loc 1 128 0
 692 000a 8068     		ldr	r0, [r0, #8]
 693              	.LVL73:
 694              		.loc 1 127 0
 695 000c 0193     		str	r3, [sp, #4]
 696 000e 0E46     		mov	r6, r1
 697 0010 1746     		mov	r7, r2
 698              		.loc 1 128 0
 699 0012 FFF7FEFF 		bl	messagebus_lock_acquire
 700              	.LVL74:
 701              		.loc 1 129 0
 702 0016 E068     		ldr	r0, [r4, #12]
 703 0018 FFF7FEFF 		bl	messagebus_condvar_wait
 704              	.LVL75:
 705              		.loc 1 131 0
 706 001c 3A46     		mov	r2, r7
 707 001e 3046     		mov	r0, r6
 708 0020 2168     		ldr	r1, [r4]
 709 0022 FFF7FEFF 		bl	memcpy
 710              	.LVL76:
 711              		.loc 1 133 0
 712 0026 019A     		ldr	r2, [sp, #4]
 713 0028 2B68     		ldr	r3, [r5]
 714 002a 9A42     		cmp	r2, r3
 715 002c 05D1     		bne	.L89
 716 002e A068     		ldr	r0, [r4, #8]
 717              		.loc 1 134 0
 718 0030 03B0     		add	sp, sp, #12
 719              		.cfi_remember_state
 720              		.cfi_def_cfa_offset 20
 721              		@ sp needed
 722 0032 BDE8F040 		pop	{r4, r5, r6, r7, lr}
 723              		.cfi_restore 14
 724              		.cfi_restore 7
 725              		.cfi_restore 6
 726              		.cfi_restore 5
 727              		.cfi_restore 4
 728              		.cfi_def_cfa_offset 0
 729              	.LVL77:
 730              		.loc 1 133 0
 731 0036 FFF7FEBF 		b	messagebus_lock_release
 732              	.LVL78:
 733              	.L89:
 734              		.cfi_restore_state
 735 003a FFF7FEFF 		bl	__stack_chk_fail
 736              	.LVL79:
 737              	.L91:
 738 003e 00BF     		.align	2
 739              	.L90:
 740 0040 00000000 		.word	__stack_chk_guard
 741              		.cfi_endproc
ARM GAS  C:\Users\25521\AppData\Local\Temp\ccoR8V9M.s 			page 14


 742              	.LFE8:
 743              		.size	messagebus_topic_wait, .-messagebus_topic_wait
 744              		.section	.text.messagebus_watchgroup_init,"ax",%progbits
 745              		.align	1
 746              		.p2align 4,,15
 747              		.global	messagebus_watchgroup_init
 748              		.syntax unified
 749              		.thumb
 750              		.thumb_func
 751              		.fpu fpv4-sp-d16
 752              		.type	messagebus_watchgroup_init, %function
 753              	messagebus_watchgroup_init:
 754              	.LFB9:
 755              		.loc 1 138 0
 756              		.cfi_startproc
 757              		@ args = 0, pretend = 0, frame = 8
 758              		@ frame_needed = 0, uses_anonymous_args = 0
 759              	.LVL80:
 760 0000 10B5     		push	{r4, lr}
 761              		.cfi_def_cfa_offset 8
 762              		.cfi_offset 4, -8
 763              		.cfi_offset 14, -4
 764 0002 074B     		ldr	r3, .L96
 765              		.loc 1 140 0
 766 0004 4260     		str	r2, [r0, #4]
 767              		.loc 1 138 0
 768 0006 82B0     		sub	sp, sp, #8
 769              		.cfi_def_cfa_offset 16
 770              		.loc 1 138 0
 771 0008 1C68     		ldr	r4, [r3]
 772 000a 0194     		str	r4, [sp, #4]
 773              		.loc 1 139 0
 774 000c 0160     		str	r1, [r0]
 775              		.loc 1 141 0
 776 000e 0199     		ldr	r1, [sp, #4]
 777              	.LVL81:
 778 0010 1B68     		ldr	r3, [r3]
 779 0012 9942     		cmp	r1, r3
 780 0014 01D1     		bne	.L95
 781 0016 02B0     		add	sp, sp, #8
 782              		.cfi_remember_state
 783              		.cfi_def_cfa_offset 8
 784              		@ sp needed
 785 0018 10BD     		pop	{r4, pc}
 786              	.L95:
 787              		.cfi_restore_state
 788 001a FFF7FEFF 		bl	__stack_chk_fail
 789              	.LVL82:
 790              	.L97:
 791 001e 00BF     		.align	2
 792              	.L96:
 793 0020 00000000 		.word	__stack_chk_guard
 794              		.cfi_endproc
 795              	.LFE9:
 796              		.size	messagebus_watchgroup_init, .-messagebus_watchgroup_init
 797              		.section	.text.messagebus_watchgroup_watch,"ax",%progbits
 798              		.align	1
ARM GAS  C:\Users\25521\AppData\Local\Temp\ccoR8V9M.s 			page 15


 799              		.p2align 4,,15
 800              		.global	messagebus_watchgroup_watch
 801              		.syntax unified
 802              		.thumb
 803              		.thumb_func
 804              		.fpu fpv4-sp-d16
 805              		.type	messagebus_watchgroup_watch, %function
 806              	messagebus_watchgroup_watch:
 807              	.LFB10:
 808              		.loc 1 146 0
 809              		.cfi_startproc
 810              		@ args = 0, pretend = 0, frame = 8
 811              		@ frame_needed = 0, uses_anonymous_args = 0
 812              	.LVL83:
 813 0000 F0B5     		push	{r4, r5, r6, r7, lr}
 814              		.cfi_def_cfa_offset 20
 815              		.cfi_offset 4, -20
 816              		.cfi_offset 5, -16
 817              		.cfi_offset 6, -12
 818              		.cfi_offset 7, -8
 819              		.cfi_offset 14, -4
 820 0002 104F     		ldr	r7, .L103
 821 0004 0D46     		mov	r5, r1
 822 0006 83B0     		sub	sp, sp, #12
 823              		.cfi_def_cfa_offset 32
 824              		.loc 1 146 0
 825 0008 0646     		mov	r6, r0
 826 000a 3B68     		ldr	r3, [r7]
 827              		.loc 1 147 0
 828 000c 9068     		ldr	r0, [r2, #8]
 829              	.LVL84:
 830              		.loc 1 146 0
 831 000e 0193     		str	r3, [sp, #4]
 832 0010 1446     		mov	r4, r2
 833              		.loc 1 147 0
 834 0012 FFF7FEFF 		bl	messagebus_lock_acquire
 835              	.LVL85:
 836              		.loc 1 148 0
 837 0016 2868     		ldr	r0, [r5]
 838 0018 FFF7FEFF 		bl	messagebus_lock_acquire
 839              	.LVL86:
 840              		.loc 1 150 0
 841 001c 3560     		str	r5, [r6]
 842              		.loc 1 152 0
 843 001e 636D     		ldr	r3, [r4, #84]
 844 0020 7360     		str	r3, [r6, #4]
 845              		.loc 1 153 0
 846 0022 6665     		str	r6, [r4, #84]
 847              		.loc 1 155 0
 848 0024 2868     		ldr	r0, [r5]
 849 0026 FFF7FEFF 		bl	messagebus_lock_release
 850              	.LVL87:
 851              		.loc 1 156 0
 852 002a 019A     		ldr	r2, [sp, #4]
 853 002c 3B68     		ldr	r3, [r7]
 854 002e 9A42     		cmp	r2, r3
 855 0030 05D1     		bne	.L102
ARM GAS  C:\Users\25521\AppData\Local\Temp\ccoR8V9M.s 			page 16


 856 0032 A068     		ldr	r0, [r4, #8]
 857              		.loc 1 157 0
 858 0034 03B0     		add	sp, sp, #12
 859              		.cfi_remember_state
 860              		.cfi_def_cfa_offset 20
 861              		@ sp needed
 862 0036 BDE8F040 		pop	{r4, r5, r6, r7, lr}
 863              		.cfi_restore 14
 864              		.cfi_restore 7
 865              		.cfi_restore 6
 866              		.cfi_restore 5
 867              		.cfi_restore 4
 868              		.cfi_def_cfa_offset 0
 869              	.LVL88:
 870              		.loc 1 156 0
 871 003a FFF7FEBF 		b	messagebus_lock_release
 872              	.LVL89:
 873              	.L102:
 874              		.cfi_restore_state
 875 003e FFF7FEFF 		bl	__stack_chk_fail
 876              	.LVL90:
 877              	.L104:
 878 0042 00BF     		.align	2
 879              	.L103:
 880 0044 00000000 		.word	__stack_chk_guard
 881              		.cfi_endproc
 882              	.LFE10:
 883              		.size	messagebus_watchgroup_watch, .-messagebus_watchgroup_watch
 884              		.section	.text.messagebus_watchgroup_wait,"ax",%progbits
 885              		.align	1
 886              		.p2align 4,,15
 887              		.global	messagebus_watchgroup_wait
 888              		.syntax unified
 889              		.thumb
 890              		.thumb_func
 891              		.fpu fpv4-sp-d16
 892              		.type	messagebus_watchgroup_wait, %function
 893              	messagebus_watchgroup_wait:
 894              	.LFB11:
 895              		.loc 1 160 0
 896              		.cfi_startproc
 897              		@ args = 0, pretend = 0, frame = 8
 898              		@ frame_needed = 0, uses_anonymous_args = 0
 899              	.LVL91:
 900 0000 70B5     		push	{r4, r5, r6, lr}
 901              		.cfi_def_cfa_offset 16
 902              		.cfi_offset 4, -16
 903              		.cfi_offset 5, -12
 904              		.cfi_offset 6, -8
 905              		.cfi_offset 14, -4
 906 0002 0C4D     		ldr	r5, .L109
 907 0004 82B0     		sub	sp, sp, #8
 908              		.cfi_def_cfa_offset 24
 909              		.loc 1 160 0
 910 0006 0446     		mov	r4, r0
 911 0008 2B68     		ldr	r3, [r5]
 912              		.loc 1 163 0
ARM GAS  C:\Users\25521\AppData\Local\Temp\ccoR8V9M.s 			page 17


 913 000a 0068     		ldr	r0, [r0]
 914              	.LVL92:
 915              		.loc 1 160 0
 916 000c 0193     		str	r3, [sp, #4]
 917              		.loc 1 163 0
 918 000e FFF7FEFF 		bl	messagebus_lock_acquire
 919              	.LVL93:
 920              		.loc 1 164 0
 921 0012 6068     		ldr	r0, [r4, #4]
 922 0014 FFF7FEFF 		bl	messagebus_condvar_wait
 923              	.LVL94:
 924              		.loc 1 168 0
 925 0018 2068     		ldr	r0, [r4]
 926              		.loc 1 166 0
 927 001a A668     		ldr	r6, [r4, #8]
 928              	.LVL95:
 929              		.loc 1 168 0
 930 001c FFF7FEFF 		bl	messagebus_lock_release
 931              	.LVL96:
 932              		.loc 1 171 0
 933 0020 019A     		ldr	r2, [sp, #4]
 934 0022 2B68     		ldr	r3, [r5]
 935 0024 9A42     		cmp	r2, r3
 936 0026 02D1     		bne	.L108
 937 0028 3046     		mov	r0, r6
 938 002a 02B0     		add	sp, sp, #8
 939              		.cfi_remember_state
 940              		.cfi_def_cfa_offset 16
 941              		@ sp needed
 942 002c 70BD     		pop	{r4, r5, r6, pc}
 943              	.LVL97:
 944              	.L108:
 945              		.cfi_restore_state
 946 002e FFF7FEFF 		bl	__stack_chk_fail
 947              	.LVL98:
 948              	.L110:
 949 0032 00BF     		.align	2
 950              	.L109:
 951 0034 00000000 		.word	__stack_chk_guard
 952              		.cfi_endproc
 953              	.LFE11:
 954              		.size	messagebus_watchgroup_wait, .-messagebus_watchgroup_wait
 955              		.section	.text.messagebus_new_topic_callback_register,"ax",%progbits
 956              		.align	1
 957              		.p2align 4,,15
 958              		.global	messagebus_new_topic_callback_register
 959              		.syntax unified
 960              		.thumb
 961              		.thumb_func
 962              		.fpu fpv4-sp-d16
 963              		.type	messagebus_new_topic_callback_register, %function
 964              	messagebus_new_topic_callback_register:
 965              	.LFB12:
 966              		.loc 1 179 0
 967              		.cfi_startproc
 968              		@ args = 0, pretend = 0, frame = 8
 969              		@ frame_needed = 0, uses_anonymous_args = 0
ARM GAS  C:\Users\25521\AppData\Local\Temp\ccoR8V9M.s 			page 18


 970              	.LVL99:
 971 0000 2DE9F041 		push	{r4, r5, r6, r7, r8, lr}
 972              		.cfi_def_cfa_offset 24
 973              		.cfi_offset 4, -24
 974              		.cfi_offset 5, -20
 975              		.cfi_offset 6, -16
 976              		.cfi_offset 7, -12
 977              		.cfi_offset 8, -8
 978              		.cfi_offset 14, -4
 979 0004 0D4E     		ldr	r6, .L116
 980 0006 82B0     		sub	sp, sp, #8
 981              		.cfi_def_cfa_offset 32
 982              		.loc 1 179 0
 983 0008 3468     		ldr	r4, [r6]
 984 000a 0194     		str	r4, [sp, #4]
 985 000c 0546     		mov	r5, r0
 986 000e 0C46     		mov	r4, r1
 987 0010 9046     		mov	r8, r2
 988 0012 1F46     		mov	r7, r3
 989              		.loc 1 180 0
 990 0014 8068     		ldr	r0, [r0, #8]
 991              	.LVL100:
 992 0016 FFF7FEFF 		bl	messagebus_lock_acquire
 993              	.LVL101:
 994              		.loc 1 182 0
 995 001a C4E90087 		strd	r8, r7, [r4]
 996              		.loc 1 187 0
 997 001e 019A     		ldr	r2, [sp, #4]
 998 0020 3368     		ldr	r3, [r6]
 999              		.loc 1 184 0
 1000 0022 6968     		ldr	r1, [r5, #4]
 1001 0024 A160     		str	r1, [r4, #8]
 1002              		.loc 1 187 0
 1003 0026 9A42     		cmp	r2, r3
 1004              		.loc 1 185 0
 1005 0028 6C60     		str	r4, [r5, #4]
 1006              		.loc 1 187 0
 1007 002a 05D1     		bne	.L115
 1008 002c A868     		ldr	r0, [r5, #8]
 1009              		.loc 1 188 0
 1010 002e 02B0     		add	sp, sp, #8
 1011              		.cfi_remember_state
 1012              		.cfi_def_cfa_offset 24
 1013              		@ sp needed
 1014 0030 BDE8F041 		pop	{r4, r5, r6, r7, r8, lr}
 1015              		.cfi_restore 14
 1016              		.cfi_restore 8
 1017              		.cfi_restore 7
 1018              		.cfi_restore 6
 1019              		.cfi_restore 5
 1020              		.cfi_restore 4
 1021              		.cfi_def_cfa_offset 0
 1022              	.LVL102:
 1023              		.loc 1 187 0
 1024 0034 FFF7FEBF 		b	messagebus_lock_release
 1025              	.LVL103:
 1026              	.L115:
ARM GAS  C:\Users\25521\AppData\Local\Temp\ccoR8V9M.s 			page 19


 1027              		.cfi_restore_state
 1028 0038 FFF7FEFF 		bl	__stack_chk_fail
 1029              	.LVL104:
 1030              	.L117:
 1031              		.align	2
 1032              	.L116:
 1033 003c 00000000 		.word	__stack_chk_guard
 1034              		.cfi_endproc
 1035              	.LFE12:
 1036              		.size	messagebus_new_topic_callback_register, .-messagebus_new_topic_callback_register
 1037              		.text
 1038              	.Letext0:
 1039              		.file 2 "d:\\eclipse_e-puck2_win32_11_apr_2018\\eclipse_e-puck2\\tools\\gcc-arm-none-eabi-7-2017-q
 1040              		.file 3 "d:\\eclipse_e-puck2_win32_11_apr_2018\\eclipse_e-puck2\\tools\\gcc-arm-none-eabi-7-2017-q
 1041              		.file 4 "d:\\eclipse_e-puck2_win32_11_apr_2018\\eclipse_e-puck2\\tools\\gcc-arm-none-eabi-7-2017-q
 1042              		.file 5 "d:\\eclipse_e-puck2_win32_11_apr_2018\\eclipse_e-puck2\\tools\\gcc-arm-none-eabi-7-2017-q
 1043              		.file 6 ".//src/msgbus/messagebus.h"
 1044              		.file 7 "d:\\eclipse_e-puck2_win32_11_apr_2018\\eclipse_e-puck2\\tools\\gcc-arm-none-eabi-7-2017-q
 1045              		.file 8 "d:\\eclipse_e-puck2_win32_11_apr_2018\\eclipse_e-puck2\\tools\\gcc-arm-none-eabi-7-2017-q
 1046              		.file 9 "<built-in>"