ARM GAS  C:\Users\25521\AppData\Local\Temp\ccoR8V9M.s 			page 1


   1              		.cpu cortex-m4
   2              		.eabi_attribute 27, 1
   3              		.eabi_attribute 28, 1
   4              		.eabi_attribute 20, 1
   5              		.eabi_attribute 21, 1
   6              		.eabi_attribute 23, 3
   7              		.eabi_attribute 24, 1
   8              		.eabi_attribute 25, 1
   9              		.eabi_attribute 26, 1
  10              		.eabi_attribute 30, 2
  11              		.eabi_attribute 34, 1
  12              		.eabi_attribute 18, 4
  13              		.file	"messagebus.c"
  14              		.text
  15              	.Ltext0:
  16              		.cfi_sections	.debug_frame
  17              		.section	.text.messagebus_init,"ax",%progbits
  18              		.align	1
  19              		.p2align 4,,15
  20              		.global	messagebus_init
  21              		.syntax unified
  22              		.thumb
  23              		.thumb_func
  24              		.fpu fpv4-sp-d16
  25              		.type	messagebus_init, %function
  26              	messagebus_init:
  27              	.LFB1:
  28              		.file 1 ".//src/msgbus/messagebus.c"
  29              		.loc 1 17 0
  30              		.cfi_startproc
  31              		@ args = 0, pretend = 0, frame = 8
  32              		@ frame_needed = 0, uses_anonymous_args = 0
  33              	.LVL0:
  34 0000 30B5     		push	{r4, r5, lr}
  35              		.cfi_def_cfa_offset 12
  36              		.cfi_offset 4, -12
  37              		.cfi_offset 5, -8
  38              		.cfi_offset 14, -4
  39 0002 084C     		ldr	r4, .L6
  40 0004 83B0     		sub	sp, sp, #12
  41              		.cfi_def_cfa_offset 24
  42              		.loc 1 17 0
  43 0006 2368     		ldr	r3, [r4]
  44 0008 0193     		str	r3, [sp, #4]
  45              		.loc 1 18 0
  46 000a 0023     		movs	r3, #0
  47 000c 0360     		str	r3, [r0]	@ unaligned
  48              		.loc 1 21 0
  49 000e 019D     		ldr	r5, [sp, #4]
  50 0010 2468     		ldr	r4, [r4]
  51              		.loc 1 18 0
  52 0012 4360     		str	r3, [r0, #4]	@ unaligned
  53              		.loc 1 21 0
  54 0014 A542     		cmp	r5, r4
  55              		.loc 1 20 0
  56 0016 C0E90212 		strd	r1, r2, [r0, #8]
  57              		.loc 1 21 0
ARM GAS  C:\Users\25521\AppData\Local\Temp\ccoR8V9M.s 			page 2


  58 001a 01D1     		bne	.L5
  59 001c 03B0     		add	sp, sp, #12
  60              		.cfi_remember_state
  61              		.cfi_def_cfa_offset 12
  62              		@ sp needed
  63 001e 30BD     		pop	{r4, r5, pc}
  64              	.L5:
  65              		.cfi_restore_state
  66 0020 FFF7FEFF 		bl	__stack_chk_fail
  67              	.LVL1:
  68              	.L7:
  69              		.align	2
  70              	.L6:
  71 0024 00000000 		.word	__stack_chk_guard
  72              		.cfi_endproc
  73              	.LFE1:
  74              		.size	messagebus_init, .-messagebus_init
  75              		.section	.text.messagebus_topic_init,"ax",%progbits
  76              		.align	1
  77              		.p2align 4,,15
  78              		.global	messagebus_topic_init
  79              		.syntax unified
  80              		.thumb
  81              		.thumb_func
  82              		.fpu fpv4-sp-d16
  83              		.type	messagebus_topic_init, %function
  84              	messagebus_topic_init:
  85              	.LFB2:
  86              		.loc 1 25 0
  87              		.cfi_startproc
  88              		@ args = 4, pretend = 0, frame = 8
  89              		@ frame_needed = 0, uses_anonymous_args = 0
  90              	.LVL2:
  91 0000 2DE9F043 		push	{r4, r5, r6, r7, r8, r9, lr}
  92              		.cfi_def_cfa_offset 28
  93              		.cfi_offset 4, -28
  94              		.cfi_offset 5, -24
  95              		.cfi_offset 6, -20
  96              		.cfi_offset 7, -16
  97              		.cfi_offset 8, -12
  98              		.cfi_offset 9, -8
  99              		.cfi_offset 14, -4
 100 0004 0E4D     		ldr	r5, .L12
 101 0006 83B0     		sub	sp, sp, #12
 102              		.cfi_def_cfa_offset 40
 103              		.loc 1 25 0
 104 0008 2C68     		ldr	r4, [r5]
 105 000a 0194     		str	r4, [sp, #4]
 106 000c 0446     		mov	r4, r0
 107 000e 9946     		mov	r9, r3
 108 0010 0F46     		mov	r7, r1
 109 0012 1646     		mov	r6, r2
 110              		.loc 1 26 0
 111 0014 1030     		adds	r0, r0, #16
 112              	.LVL3:
 113 0016 5022     		movs	r2, #80
 114              	.LVL4:
ARM GAS  C:\Users\25521\AppData\Local\Temp\ccoR8V9M.s 			page 3


 115 0018 0021     		movs	r1, #0
 116              	.LVL5:
 117              		.loc 1 25 0
 118 001a DDF82880 		ldr	r8, [sp, #40]
 119              		.loc 1 26 0
 120 001e FFF7FEFF 		bl	memset
 121              	.LVL6:
 122              		.loc 1 27 0
 123 0022 C4F80090 		str	r9, [r4]
 124              		.loc 1 31 0
 125 0026 019A     		ldr	r2, [sp, #4]
 126 0028 2B68     		ldr	r3, [r5]
 127              		.loc 1 30 0
 128 002a E660     		str	r6, [r4, #12]
 129              		.loc 1 31 0
 130 002c 9A42     		cmp	r2, r3
 131              		.loc 1 29 0
 132 002e C4E90187 		strd	r8, r7, [r4, #4]
 133              		.loc 1 31 0
 134 0032 02D1     		bne	.L11
 135 0034 03B0     		add	sp, sp, #12
 136              		.cfi_remember_state
 137              		.cfi_def_cfa_offset 28
 138              		@ sp needed
 139 0036 BDE8F083 		pop	{r4, r5, r6, r7, r8, r9, pc}
 140              	.LVL7:
 141              	.L11:
 142              		.cfi_restore_state
 143 003a FFF7FEFF 		bl	__stack_chk_fail
 144              	.LVL8:
 145              	.L13:
 146 003e 00BF     		.align	2
 147              	.L12:
 148 0040 00000000 		.word	__stack_chk_guard
 149              		.cfi_endproc
 150              	.LFE2:
 151              		.size	messagebus_topic_init, .-messagebus_topic_init
 152              		.section	.text.messagebus_advertise_topic,"ax",%progbits
 153              		.align	1
 154              		.p2align 4,,15
 155              		.global	messagebus_advertise_topic
 156              		.syntax unified
 157              		.thumb
 158              		.thumb_func
 159              		.fpu fpv4-sp-d16
 160              		.type	messagebus_advertise_topic, %function
 161              	messagebus_advertise_topic:
 162              	.LFB3:
 163              		.loc 1 34 0
 164              		.cfi_startproc
 165              		@ args = 0, pretend = 0, frame = 8
 166              		@ frame_needed = 0, uses_anonymous_args = 0
 167              	.LVL9:
 168 0000 F0B5     		push	{r4, r5, r6, r7, lr}
 169              		.cfi_def_cfa_offset 20
 170              		.cfi_offset 4, -20
 171              		.cfi_offset 5, -16
ARM GAS  C:\Users\25521\AppData\Local\Temp\ccoR8V9M.s 			page 4


 172              		.cfi_offset 6, -12
 173              		.cfi_offset 7, -8
 174              		.cfi_offset 14, -4
 175 0002 194F     		ldr	r7, .L29
 176 0004 83B0     		sub	sp, sp, #12
 177              		.cfi_def_cfa_offset 32
 178              		.loc 1 35 0
 179 0006 01F11003 		add	r3, r1, #16
 180              		.loc 1 34 0
 181 000a 1446     		mov	r4, r2
 182 000c 3A68     		ldr	r2, [r7]
 183              	.LVL10:
 184 000e 0192     		str	r2, [sp, #4]
 185 0010 0546     		mov	r5, r0
 186              		.loc 1 35 0
 187 0012 4122     		movs	r2, #65
 188 0014 1846     		mov	r0, r3
 189              	.LVL11:
 190              		.loc 1 34 0
 191 0016 0E46     		mov	r6, r1
 192              		.loc 1 35 0
 193 0018 0021     		movs	r1, #0
 194              	.LVL12:
 195 001a FFF7FEFF 		bl	memset
 196              	.LVL13:
 197              		.loc 1 36 0
 198 001e 2146     		mov	r1, r4
 199 0020 4022     		movs	r2, #64
 200 0022 FFF7FEFF 		bl	strncpy
 201              	.LVL14:
 202              		.loc 1 38 0
 203 0026 A868     		ldr	r0, [r5, #8]
 204 0028 FFF7FEFF 		bl	messagebus_lock_acquire
 205              	.LVL15:
 206              		.loc 1 40 0
 207 002c 2B68     		ldr	r3, [r5]
 208 002e 03B1     		cbz	r3, .L15
 209              		.loc 1 41 0
 210 0030 B365     		str	r3, [r6, #88]
 211              	.L15:
 212              	.LBB6:
 213              		.loc 1 45 0
 214 0032 6C68     		ldr	r4, [r5, #4]
 215              	.LVL16:
 216              	.LBE6:
 217              		.loc 1 43 0
 218 0034 2E60     		str	r6, [r5]
 219              	.LBB7:
 220              		.loc 1 45 0
 221 0036 3CB1     		cbz	r4, .L16
 222              	.L17:
 223              		.loc 1 46 0 discriminator 3
 224 0038 D4E90032 		ldrd	r3, r2, [r4]
 225 003c 3146     		mov	r1, r6
 226 003e 2846     		mov	r0, r5
 227 0040 9847     		blx	r3
 228              	.LVL17:
ARM GAS  C:\Users\25521\AppData\Local\Temp\ccoR8V9M.s 			page 5


 229              		.loc 1 45 0 discriminator 3
 230 0042 A468     		ldr	r4, [r4, #8]
 231              	.LVL18:
 232 0044 002C     		cmp	r4, #0
 233 0046 F7D1     		bne	.L17
 234              	.L16:
 235              	.LBE7:
 236              		.loc 1 49 0
 237 0048 E868     		ldr	r0, [r5, #12]
 238 004a FFF7FEFF 		bl	messagebus_condvar_broadcast
 239              	.LVL19:
 240              		.loc 1 51 0
 241 004e 019A     		ldr	r2, [sp, #4]
 242 0050 3B68     		ldr	r3, [r7]
 243 0052 9A42     		cmp	r2, r3
 244 0054 05D1     		bne	.L28
 245 0056 A868     		ldr	r0, [r5, #8]
 246              		.loc 1 52 0
 247 0058 03B0     		add	sp, sp, #12
 248              		.cfi_remember_state
 249              		.cfi_def_cfa_offset 20
 250              		@ sp needed
 251 005a BDE8F040 		pop	{r4, r5, r6, r7, lr}
 252              		.cfi_restore 14
 253              		.cfi_restore 7
 254              		.cfi_restore 6
 255              		.cfi_restore 5
 256              		.cfi_restore 4
 257              		.cfi_def_cfa_offset 0
 258              	.LVL20:
 259              		.loc 1 51 0
 260 005e FFF7FEBF 		b	messagebus_lock_release
 261              	.LVL21:
 262              	.L28:
 263              		.cfi_restore_state
 264 0062 FFF7FEFF 		bl	__stack_chk_fail
 265              	.LVL22:
 266              	.L30:
 267 0066 00BF     		.align	2
 268              	.L29:
 269 0068 00000000 		.word	__stack_chk_guard
 270              		.cfi_endproc
 271              	.LFE3:
 272              		.size	messagebus_advertise_topic, .-messagebus_advertise_topic
 273              		.section	.text.messagebus_find_topic,"ax",%progbits
 274              		.align	1
 275              		.p2align 4,,15
 276              		.global	messagebus_find_topic
 277              		.syntax unified
 278              		.thumb
 279              		.thumb_func
 280              		.fpu fpv4-sp-d16
 281              		.type	messagebus_find_topic, %function
 282              	messagebus_find_topic:
 283              	.LFB4:
 284              		.loc 1 55 0
 285              		.cfi_startproc
ARM GAS  C:\Users\25521\AppData\Local\Temp\ccoR8V9M.s 			page 6


 286              		@ args = 0, pretend = 0, frame = 8
 287              		@ frame_needed = 0, uses_anonymous_args = 0
 288              	.LVL23:
 289 0000 F0B5     		push	{r4, r5, r6, r7, lr}
 290              		.cfi_def_cfa_offset 20
 291              		.cfi_offset 4, -20
 292              		.cfi_offset 5, -16
 293              		.cfi_offset 6, -12
 294              		.cfi_offset 7, -8
 295              		.cfi_offset 14, -4
 296 0002 104F     		ldr	r7, .L45
 297 0004 83B0     		sub	sp, sp, #12
 298              		.cfi_def_cfa_offset 32
 299              		.loc 1 55 0
 300 0006 0646     		mov	r6, r0
 301 0008 3B68     		ldr	r3, [r7]
 302              		.loc 1 58 0
 303 000a 8068     		ldr	r0, [r0, #8]
 304              	.LVL24:
 305              		.loc 1 55 0
 306 000c 0193     		str	r3, [sp, #4]
 307 000e 0D46     		mov	r5, r1
 308              		.loc 1 58 0
 309 0010 FFF7FEFF 		bl	messagebus_lock_acquire
 310              	.LVL25:
 311 0014 3468     		ldr	r4, [r6]
 312              	.LVL26:
 313              	.LBB8:
 314              	.LBB9:
 315              		.loc 1 7 0
 316 0016 14B9     		cbnz	r4, .L33
 317 0018 08E0     		b	.L32
 318              	.L43:
 319 001a A46D     		ldr	r4, [r4, #88]
 320              	.LVL27:
 321 001c 34B1     		cbz	r4, .L32
 322              	.L33:
 323              		.loc 1 8 0
 324 001e 04F11001 		add	r1, r4, #16
 325 0022 2846     		mov	r0, r5
 326 0024 FFF7FEFF 		bl	strcmp
 327              	.LVL28:
 328 0028 0028     		cmp	r0, #0
 329 002a F6D1     		bne	.L43
 330              	.L32:
 331              	.LVL29:
 332              	.LBE9:
 333              	.LBE8:
 334              		.loc 1 62 0
 335 002c B068     		ldr	r0, [r6, #8]
 336 002e FFF7FEFF 		bl	messagebus_lock_release
 337              	.LVL30:
 338              		.loc 1 65 0
 339 0032 019A     		ldr	r2, [sp, #4]
 340 0034 3B68     		ldr	r3, [r7]
 341 0036 9A42     		cmp	r2, r3
 342 0038 2046     		mov	r0, r4
ARM GAS  C:\Users\25521\AppData\Local\Temp\ccoR8V9M.s 			page 7


 343 003a 01D1     		bne	.L44
 344 003c 03B0     		add	sp, sp, #12
 345              		.cfi_remember_state
 346              		.cfi_def_cfa_offset 20
 347              		@ sp needed
 348 003e F0BD     		pop	{r4, r5, r6, r7, pc}
 349              	.LVL31:
 350              	.L44:
 351              		.cfi_restore_state
 352 0040 FFF7FEFF 		bl	__stack_chk_fail
 353              	.LVL32:
 354              	.L46:
 355              		.align	2
 356              	.L45:
 357 0044 00000000 		.word	__stack_chk_guard
 358              		.cfi_endproc
 359              	.LFE4:
 360              		.size	messagebus_find_topic, .-messagebus_find_topic
 361              		.section	.text.messagebus_find_topic_blocking,"ax",%progbits
 362              		.align	1
 363              		.p2align 4,,15
 364              		.global	messagebus_find_topic_blocking
 365              		.syntax unified
 366              		.thumb
 367              		.thumb_func
 368              		.fpu fpv4-sp-d16
 369              		.type	messagebus_find_topic_blocking, %function
 370              	messagebus_find_topic_blocking:
 371              	.LFB5:
 372              		.loc 1 68 0
 373              		.cfi_startproc
 374              		@ args = 0, pretend = 0, frame = 8
 375              		@ frame_needed = 0, uses_anonymous_args = 0
 376              	.LVL33:
 377 0000 F0B5     		push	{r4, r5, r6, r7, lr}
 378              		.cfi_def_cfa_offset 20
 379              		.cfi_offset 4, -20
 380              		.cfi_offset 5, -16
 381              		.cfi_offset 6, -12
 382              		.cfi_offset 7, -8
 383              		.cfi_offset 14, -4
 384 0002 124F     		ldr	r7, .L58
 385 0004 83B0     		sub	sp, sp, #12
 386              		.cfi_def_cfa_offset 32
 387              		.loc 1 68 0
 388 0006 0646     		mov	r6, r0
 389 0008 3B68     		ldr	r3, [r7]
 390              		.loc 1 71 0
 391 000a 8068     		ldr	r0, [r0, #8]
 392              	.LVL34:
 393              		.loc 1 68 0
 394 000c 0193     		str	r3, [sp, #4]
 395              	.LVL35:
 396 000e 0D46     		mov	r5, r1
 397              		.loc 1 71 0
 398 0010 FFF7FEFF 		bl	messagebus_lock_acquire
 399              	.LVL36:
ARM GAS  C:\Users\25521\AppData\Local\Temp\ccoR8V9M.s 			page 8


 400              	.L48:
 401 0014 3468     		ldr	r4, [r6]
 402              	.LVL37:
 403              	.LBB10:
 404              	.LBB11:
 405              		.loc 1 7 0
 406 0016 14B9     		cbnz	r4, .L50
 407 0018 12E0     		b	.L51
 408              	.LVL38:
 409              	.L56:
 410 001a A46D     		ldr	r4, [r4, #88]
 411              	.LVL39:
 412 001c 84B1     		cbz	r4, .L51
 413              	.LVL40:
 414              	.L50:
 415              		.loc 1 8 0
 416 001e 04F11001 		add	r1, r4, #16
 417 0022 2846     		mov	r0, r5
 418 0024 FFF7FEFF 		bl	strcmp
 419              	.LVL41:
 420 0028 0028     		cmp	r0, #0
 421 002a F6D1     		bne	.L56
 422              	.LVL42:
 423              	.LBE11:
 424              	.LBE10:
 425              		.loc 1 81 0
 426 002c B068     		ldr	r0, [r6, #8]
 427 002e FFF7FEFF 		bl	messagebus_lock_release
 428              	.LVL43:
 429              		.loc 1 84 0
 430 0032 019A     		ldr	r2, [sp, #4]
 431 0034 3B68     		ldr	r3, [r7]
 432 0036 9A42     		cmp	r2, r3
 433 0038 2046     		mov	r0, r4
 434 003a 05D1     		bne	.L57
 435 003c 03B0     		add	sp, sp, #12
 436              		.cfi_remember_state
 437              		.cfi_def_cfa_offset 20
 438              		@ sp needed
 439 003e F0BD     		pop	{r4, r5, r6, r7, pc}
 440              	.LVL44:
 441              	.L51:
 442              		.cfi_restore_state
 443              		.loc 1 77 0
 444 0040 F068     		ldr	r0, [r6, #12]
 445 0042 FFF7FEFF 		bl	messagebus_condvar_wait
 446              	.LVL45:
 447 0046 E5E7     		b	.L48
 448              	.LVL46:
 449              	.L57:
 450              		.loc 1 84 0
 451 0048 FFF7FEFF 		bl	__stack_chk_fail
 452              	.LVL47:
 453              	.L59:
 454              		.align	2
 455              	.L58:
 456 004c 00000000 		.word	__stack_chk_guard
ARM GAS  C:\Users\25521\AppData\Local\Temp\ccoR8V9M.s 			page 9


 457              		.cfi_endproc
 458              	.LFE5:
 459              		.size	messagebus_find_topic_blocking, .-messagebus_find_topic_blocking
 460              		.section	.text.messagebus_topic_publish,"ax",%progbits
 461              		.align	1
 462              		.p2align 4,,15
 463              		.global	messagebus_topic_publish
 464              		.syntax unified
 465              		.thumb
 466              		.thumb_func
 467              		.fpu fpv4-sp-d16
 468              		.type	messagebus_topic_publish, %function
 469              	messagebus_topic_publish:
 470              	.LFB6:
 471              		.loc 1 87 0
 472              		.cfi_startproc
 473              		@ args = 0, pretend = 0, frame = 8
 474              		@ frame_needed = 0, uses_anonymous_args = 0
 475              	.LVL48:
 476 0000 F0B5     		push	{r4, r5, r6, r7, lr}
 477              		.cfi_def_cfa_offset 20
 478              		.cfi_offset 4, -20
 479              		.cfi_offset 5, -16
 480              		.cfi_offset 6, -12
 481              		.cfi_offset 7, -8
 482              		.cfi_offset 14, -4
 483 0002 1C4E     		ldr	r6, .L73
 484              		.loc 1 88 0
 485 0004 4368     		ldr	r3, [r0, #4]
 486              		.loc 1 87 0
 487 0006 83B0     		sub	sp, sp, #12
 488              		.cfi_def_cfa_offset 32
 489              		.loc 1 87 0
 490 0008 0546     		mov	r5, r0
 491              		.loc 1 88 0
 492 000a 9342     		cmp	r3, r2
 493              		.loc 1 87 0
 494 000c 3068     		ldr	r0, [r6]
 495              	.LVL49:
 496 000e 0190     		str	r0, [sp, #4]
 497              		.loc 1 88 0
 498 0010 06D2     		bcs	.L71
 499              		.loc 1 89 0
 500 0012 0020     		movs	r0, #0
 501              	.LVL50:
 502              	.L61:
 503              		.loc 1 109 0
 504 0014 019A     		ldr	r2, [sp, #4]
 505 0016 3368     		ldr	r3, [r6]
 506 0018 9A42     		cmp	r2, r3
 507 001a 29D1     		bne	.L72
 508 001c 03B0     		add	sp, sp, #12
 509              		.cfi_remember_state
 510              		.cfi_def_cfa_offset 20
 511              		@ sp needed
 512 001e F0BD     		pop	{r4, r5, r6, r7, pc}
 513              	.LVL51:
ARM GAS  C:\Users\25521\AppData\Local\Temp\ccoR8V9M.s 			page 10


 514              	.L71:
 515              		.cfi_restore_state
 516 0020 1446     		mov	r4, r2
 517 0022 0F46     		mov	r7, r1
 518              		.loc 1 92 0
 519 0024 A868     		ldr	r0, [r5, #8]
 520 0026 FFF7FEFF 		bl	messagebus_lock_acquire
 521              	.LVL52:
 522              		.loc 1 94 0
 523 002a 2246     		mov	r2, r4
 524 002c 3946     		mov	r1, r7
 525 002e 2868     		ldr	r0, [r5]
 526 0030 FFF7FEFF 		bl	memcpy
 527              	.LVL53:
 528              		.loc 1 95 0
 529 0034 0123     		movs	r3, #1
 530 0036 85F85130 		strb	r3, [r5, #81]
 531              		.loc 1 96 0
 532 003a E868     		ldr	r0, [r5, #12]
 533 003c FFF7FEFF 		bl	messagebus_condvar_broadcast
 534              	.LVL54:
 535              		.loc 1 99 0
 536 0040 6C6D     		ldr	r4, [r5, #84]
 537              	.LVL55:
 538 0042 84B1     		cbz	r4, .L62
 539              	.L63:
 540              		.loc 1 100 0 discriminator 3
 541 0044 2368     		ldr	r3, [r4]
 542 0046 1868     		ldr	r0, [r3]
 543 0048 FFF7FEFF 		bl	messagebus_lock_acquire
 544              	.LVL56:
 545              		.loc 1 101 0 discriminator 3
 546 004c 2368     		ldr	r3, [r4]
 547 004e 9D60     		str	r5, [r3, #8]
 548              		.loc 1 102 0 discriminator 3
 549 0050 2368     		ldr	r3, [r4]
 550 0052 5868     		ldr	r0, [r3, #4]
 551 0054 FFF7FEFF 		bl	messagebus_condvar_broadcast
 552              	.LVL57:
 553              		.loc 1 103 0 discriminator 3
 554 0058 2368     		ldr	r3, [r4]
 555 005a 1868     		ldr	r0, [r3]
 556 005c FFF7FEFF 		bl	messagebus_lock_release
 557              	.LVL58:
 558              		.loc 1 99 0 discriminator 3
 559 0060 6468     		ldr	r4, [r4, #4]
 560              	.LVL59:
 561 0062 002C     		cmp	r4, #0
 562 0064 EED1     		bne	.L63
 563              	.L62:
 564              		.loc 1 106 0
 565 0066 A868     		ldr	r0, [r5, #8]
 566 0068 FFF7FEFF 		bl	messagebus_lock_release
 567              	.LVL60:
 568              		.loc 1 108 0
 569 006c 0120     		movs	r0, #1
 570 006e D1E7     		b	.L61
ARM GAS  C:\Users\25521\AppData\Local\Temp\ccoR8V9M.s 			page 11


 571              	.LVL61:
 572              	.L72:
 573              		.loc 1 109 0
 574 0070 FFF7FEFF 		bl	__stack_chk_fail
 575              	.LVL62:
 576              	.L74:
 577              		.align	2
 578              	.L73:
 579 0074 00000000 		.word	__stack_chk_guard
 580              		.cfi_endproc
 581              	.LFE6:
 582              		.size	messagebus_topic_publish, .-messagebus_topic_publish
 583              		.section	.text.messagebus_topic_read,"ax",%progbits
 584              		.align	1
 585              		.p2align 4,,15
 586              		.global	messagebus_topic_read
 587              		.syntax unified
 588              		.thumb
 589              		.thumb_func
 590              		.fpu fpv4-sp-d16
 591              		.type	messagebus_topic_read, %function
 592              	messagebus_topic_read:
 593              	.LFB7:
 594              		.loc 1 112 0
 595              		.cfi_startproc
 596              		@ args = 0, pretend = 0, frame = 8
 597              		@ frame_needed = 0, uses_anonymous_args = 0
 598              	.LVL63:
 599 0000 2DE9F041 		push	{r4, r5, r6, r7, r8, lr}
 600              		.cfi_def_cfa_offset 24
 601              		.cfi_offset 4, -24
 602              		.cfi_offset 5, -20
 603              		.cfi_offset 6, -16
 604              		.cfi_offset 7, -12
 605              		.cfi_offset 8, -8
 606              		.cfi_offset 14, -4
 607 0004 0F4D     		ldr	r5, .L83
 608 0006 82B0     		sub	sp, sp, #8
 609              		.cfi_def_cfa_offset 32
 610              		.loc 1 112 0
 611 0008 0446     		mov	r4, r0
 612 000a 2B68     		ldr	r3, [r5]
 613              		.loc 1 114 0
 614 000c 8068     		ldr	r0, [r0, #8]
 615              	.LVL64:
 616              		.loc 1 112 0
 617 000e 0193     		str	r3, [sp, #4]
 618              	.LVL65:
 619 0010 0F46     		mov	r7, r1
 620 0012 9046     		mov	r8, r2
 621              		.loc 1 114 0
 622 0014 FFF7FEFF 		bl	messagebus_lock_acquire
 623              	.LVL66:
 624              		.loc 1 116 0
 625 0018 94F85160 		ldrb	r6, [r4, #81]	@ zero_extendqisi2
 626 001c 26B1     		cbz	r6, .L76
 627              	.LVL67:
ARM GAS  C:\Users\25521\AppData\Local\Temp\ccoR8V9M.s 			page 12


 628              		.loc 1 118 0
 629 001e 4246     		mov	r2, r8
 630 0020 3846     		mov	r0, r7
 631 0022 2168     		ldr	r1, [r4]
 632 0024 FFF7FEFF 		bl	memcpy
 633              	.LVL68:
 634              	.L76:
 635              		.loc 1 121 0
 636 0028 A068     		ldr	r0, [r4, #8]
 637 002a FFF7FEFF 		bl	messagebus_lock_release
 638              	.LVL69:
 639              		.loc 1 124 0
 640 002e 019A     		ldr	r2, [sp, #4]
 641 0030 2B68     		ldr	r3, [r5]
 642 0032 9A42     		cmp	r2, r3
 643 0034 3046     		mov	r0, r6
 644 0036 02D1     		bne	.L82
 645 0038 02B0     		add	sp, sp, #8
 646              		.cfi_remember_state
 647              		.cfi_def_cfa_offset 24
 648              		@ sp needed
 649 003a BDE8F081 		pop	{r4, r5, r6, r7, r8, pc}
 650              	.LVL70:
 651              	.L82:
 652              		.cfi_restore_state
 653 003e FFF7FEFF 		bl	__stack_chk_fail
 654              	.LVL71:
 655              	.L84:
 656 0042 00BF     		.align	2
 657              	.L83:
 658 0044 00000000 		.word	__stack_chk_guard
 659              		.cfi_endproc
 660              	.LFE7:
 661              		.size	messagebus_topic_read, .-messagebus_topic_read
 662              		.section	.text.messagebus_topic_wait,"ax",%progbits
 663              		.align	1
 664              		.p2align 4,,15
 665              		.global	messagebus_topic_wait
 666              		.syntax unified
 667              		.thumb
 668              		.thumb_func
 669              		.fpu fpv4-sp-d16
 670              		.type	messagebus_topic_wait, %function
 671              	messagebus_topic_wait:
 672              	.LFB8:
 673              		.loc 1 127 0
 674              		.cfi_startproc
 675              		@ args = 0, pretend = 0, frame = 8
 676              		@ frame_needed = 0, uses_anonymous_args = 0
 677              	.LVL72:
 678 0000 F0B5     		push	{r4, r5, r6, r7, lr}
 679              		.cfi_def_cfa_offset 20
 680              		.cfi_offset 4, -20
 681              		.cfi_offset 5, -16
 682              		.cfi_offset 6, -12
 683              		.cfi_offset 7, -8
 684              		.cfi_offset 14, -4
ARM GAS  C:\Users\25521\AppData\Local\Temp\ccoR8V9M.s 			page 13


 685 0002 0F4D     		ldr	r5, .L90
 686 0004 83B0     		sub	sp, sp, #12
 687              		.cfi_def_cfa_offset 32
 688              		.loc 1 127 0
 689 0006 0446     		mov	r4, r0
 690 0008 2B68     		ldr	r3, [r5]
 691              		.loc 1 128 0
 692 000a 8068     		ldr	r0, [r0, #8]
 693              	.LVL73:
 694              		.loc 1 127 0
 695 000c 0193     		str	r3, [sp, #4]
 696 000e 0E46     		mov	r6, r1
 697 0010 1746     		mov	r7, r2
 698              		.loc 1 128 0
 699 0012 FFF7FEFF 		bl	messagebus_lock_acquire
 700              	.LVL74:
 701              		.loc 1 129 0
 702 0016 E068     		ldr	r0, [r4, #12]
 703 0018 FFF7FEFF 		bl	messagebus_condvar_wait
 704              	.LVL75:
 705              		.loc 1 131 0
 706 001c 3A46     		mov	r2, r7
 707 001e 3046     		mov	r0, r6
 708 0020 2168     		ldr	r1, [r4]
 709 0022 FFF7FEFF 		bl	memcpy
 710              	.LVL76:
 711              		.loc 1 133 0
 712 0026 019A     		ldr	r2, [sp, #4]
 713 0028 2B68     		ldr	r3, [r5]
 714 002a 9A42     		cmp	r2, r3
 715 002c 05D1     		bne	.L89
 716 002e A068     		ldr	r0, [r4, #8]
 717              		.loc 1 134 0
 718 0030 03B0     		add	sp, sp, #12
 719              		.cfi_remember_state
 720              		.cfi_def_cfa_offset 20
 721              		@ sp needed
 722 0032 BDE8F040 		pop	{r4, r5, r6, r7, lr}
 723              		.cfi_restore 14
 724              		.cfi_restore 7
 725              		.cfi_restore 6
 726              		.cfi_restore 5
 727              		.cfi_restore 4
 728              		.cfi_def_cfa_offset 0
 729              	.LVL77:
 730              		.loc 1 133 0
 731 0036 FFF7FEBF 		b	messagebus_lock_release
 732              	.LVL78:
 733              	.L89:
 734              		.cfi_restore_state
 735 003a FFF7FEFF 		bl	__stack_chk_fail
 736              	.LVL79:
 737              	.L91:
 738 003e 00BF     		.align	2
 739              	.L90:
 740 0040 00000000 		.word	__stack_chk_guard
 741              		.cfi_endproc
ARM GAS  C:\Users\25521\AppData\Local\Temp\ccoR8V9M.s 			page 14


 742              	.LFE8:
 743              		.size	messagebus_topic_wait, .-messagebus_topic_wait
 744              		.section	.text.messagebus_watchgroup_init,"ax",%progbits
 745              		.align	1
 746              		.p2align 4,,15
 747              		.global	messagebus_watchgroup_init
 748              		.syntax unified
 749              		.thumb
 750              		.thumb_func
 751              		.fpu fpv4-sp-d16
 752              		.type	messagebus_watchgroup_init, %function
 753              	messagebus_watchgroup_init:
 754              	.LFB9:
 755              		.loc 1 138 0
 756              		.cfi_startproc
 757              		@ args = 0, pretend = 0, frame = 8
 758              		@ frame_needed = 0, uses_anonymous_args = 0
 759              	.LVL80:
 760 0000 10B5     		push	{r4, lr}
 761              		.cfi_def_cfa_offset 8
 762              		.cfi_offset 4, -8
 763              		.cfi_offset 14, -4
 764 0002 074B     		ldr	r3, .L96
 765              		.loc 1 140 0
 766 0004 4260     		str	r2, [r0, #4]
 767              		.loc 1 138 0
 768 0006 82B0     		sub	sp, sp, #8
 769              		.cfi_def_cfa_offset 16
 770              		.loc 1 138 0
 771 0008 1C68     		ldr	r4, [r3]
 772 000a 0194     		str	r4, [sp, #4]
 773              		.loc 1 139 0
 774 000c 0160     		str	r1, [r0]
 775              		.loc 1 141 0
 776 000e 0199     		ldr	r1, [sp, #4]
 777              	.LVL81:
 778 0010 1B68     		ldr	r3, [r3]
 779 0012 9942     		cmp	r1, r3
 780 0014 01D1     		bne	.L95
 781 0016 02B0     		add	sp, sp, #8
 782              		.cfi_remember_state
 783              		.cfi_def_cfa_offset 8
 784              		@ sp needed
 785 0018 10BD     		pop	{r4, pc}
 786              	.L95:
 787              		.cfi_restore_state
 788 001a FFF7FEFF 		bl	__stack_chk_fail
 789              	.LVL82:
 790              	.L97:
 791 001e 00BF     		.align	2
 792              	.L96:
 793 0020 00000000 		.word	__stack_chk_guard
 794              		.cfi_endproc
 795              	.LFE9:
 796              		.size	messagebus_watchgroup_init, .-messagebus_watchgroup_init
 797              		.section	.text.messagebus_watchgroup_watch,"ax",%progbits
 798              		.align	1
ARM GAS  C:\Users\25521\AppData\Local\Temp\ccoR8V9M.s 			page 15


 799              		.p2align 4,,15
 800              		.global	messagebus_watchgroup_watch
 801              		.syntax unified
 802              		.thumb
 803              		.thumb_func
 804              		.fpu fpv4-sp-d16
 805              		.type	messagebus_watchgroup_watch, %function
 806              	messagebus_watchgroup_watch:
 807              	.LFB10:
 808              		.loc 1 146 0
 809              		.cfi_startproc
 810              		@ args = 0, pretend = 0, frame = 8
 811              		@ frame_needed = 0, uses_anonymous_args = 0
 812              	.LVL83:
 813 0000 F0B5     		push	{r4, r5, r6, r7, lr}
 814              		.cfi_def_cfa_offset 20
 815              		.cfi_offset 4, -20
 816              		.cfi_offset 5, -16
 817              		.cfi_offset 6, -12
 818              		.cfi_offset 7, -8
 819              		.cfi_offset 14, -4
 820 0002 104F     		ldr	r7, .L103
 821 0004 0D46     		mov	r5, r1
 822 0006 83B0     		sub	sp, sp, #12
 823              		.cfi_def_cfa_offset 32
 824              		.loc 1 146 0
 825 0008 0646     		mov	r6, r0
 826 000a 3B68     		ldr	r3, [r7]
 827              		.loc 1 147 0
 828 000c 9068     		ldr	r0, [r2, #8]
 829              	.LVL84:
 830              		.loc 1 146 0
 831 000e 0193     		str	r3, [sp, #4]
 832 0010 1446     		mov	r4, r2
 833              		.loc 1 147 0
 834 0012 FFF7FEFF 		bl	messagebus_lock_acquire
 835              	.LVL85:
 836              		.loc 1 148 0
 837 0016 2868     		ldr	r0, [r5]
 838 0018 FFF7FEFF 		bl	messagebus_lock_acquire
 839              	.LVL86:
 840              		.loc 1 150 0
 841 001c 3560     		str	r5, [r6]
 842              		.loc 1 152 0
 843 001e 636D     		ldr	r3, [r4, #84]
 844 0020 7360     		str	r3, [r6, #4]
 845              		.loc 1 153 0
 846 0022 6665     		str	r6, [r4, #84]
 847              		.loc 1 155 0
 848 0024 2868     		ldr	r0, [r5]
 849 0026 FFF7FEFF 		bl	messagebus_lock_release
 850              	.LVL87:
 851              		.loc 1 156 0
 852 002a 019A     		ldr	r2, [sp, #4]
 853 002c 3B68     		ldr	r3, [r7]
 854 002e 9A42     		cmp	r2, r3
 855 0030 05D1     		bne	.L102
ARM GAS  C:\Users\25521\AppData\Local\Temp\ccoR8V9M.s 			page 16


 856 0032 A068     		ldr	r0, [r4, #8]
 857              		.loc 1 157 0
 858 0034 03B0     		add	sp, sp, #12
 859              		.cfi_remember_state
 860              		.cfi_def_cfa_offset 20
 861              		@ sp needed
 862 0036 BDE8F040 		pop	{r4, r5, r6, r7, lr}
 863              		.cfi_restore 14
 864              		.cfi_restore 7
 865              		.cfi_restore 6
 866              		.cfi_restore 5
 867              		.cfi_restore 4
 868              		.cfi_def_cfa_offset 0
 869              	.LVL88:
 870              		.loc 1 156 0
 871 003a FFF7FEBF 		b	messagebus_lock_release
 872              	.LVL89:
 873              	.L102:
 874              		.cfi_restore_state
 875 003e FFF7FEFF 		bl	__stack_chk_fail
 876              	.LVL90:
 877              	.L104:
 878 0042 00BF     		.align	2
 879              	.L103:
 880 0044 00000000 		.word	__stack_chk_guard
 881              		.cfi_endproc
 882              	.LFE10:
 883              		.size	messagebus_watchgroup_watch, .-messagebus_watchgroup_watch
 884              		.section	.text.messagebus_watchgroup_wait,"ax",%progbits
 885              		.align	1
 886              		.p2align 4,,15
 887              		.global	messagebus_watchgroup_wait
 888              		.syntax unified
 889              		.thumb
 890              		.thumb_func
 891              		.fpu fpv4-sp-d16
 892              		.type	messagebus_watchgroup_wait, %function
 893              	messagebus_watchgroup_wait:
 894              	.LFB11:
 895              		.loc 1 160 0
 896              		.cfi_startproc
 897              		@ args = 0, pretend = 0, frame = 8
 898              		@ frame_needed = 0, uses_anonymous_args = 0
 899              	.LVL91:
 900 0000 70B5     		push	{r4, r5, r6, lr}
 901              		.cfi_def_cfa_offset 16
 902              		.cfi_offset 4, -16
 903              		.cfi_offset 5, -12
 904              		.cfi_offset 6, -8
 905              		.cfi_offset 14, -4
 906 0002 0C4D     		ldr	r5, .L109
 907 0004 82B0     		sub	sp, sp, #8
 908              		.cfi_def_cfa_offset 24
 909              		.loc 1 160 0
 910 0006 0446     		mov	r4, r0
 911 0008 2B68     		ldr	r3, [r5]
 912              		.loc 1 163 0
ARM GAS  C:\Users\25521\AppData\Local\Temp\ccoR8V9M.s 			page 17


 913 000a 0068     		ldr	r0, [r0]
 914              	.LVL92:
 915              		.loc 1 160 0
 916 000c 0193     		str	r3, [sp, #4]
 917              		.loc 1 163 0
 918 000e FFF7FEFF 		bl	messagebus_lock_acquire
 919              	.LVL93:
 920              		.loc 1 164 0
 921 0012 6068     		ldr	r0, [r4, #4]
 922 0014 FFF7FEFF 		bl	messagebus_condvar_wait
 923              	.LVL94:
 924              		.loc 1 168 0
 925 0018 2068     		ldr	r0, [r4]
 926              		.loc 1 166 0
 927 001a A668     		ldr	r6, [r4, #8]
 928              	.LVL95:
 929              		.loc 1 168 0
 930 001c FFF7FEFF 		bl	messagebus_lock_release
 931              	.LVL96:
 932              		.loc 1 171 0
 933 0020 019A     		ldr	r2, [sp, #4]
 934 0022 2B68     		ldr	r3, [r5]
 935 0024 9A42     		cmp	r2, r3
 936 0026 02D1     		bne	.L108
 937 0028 3046     		mov	r0, r6
 938 002a 02B0     		add	sp, sp, #8
 939              		.cfi_remember_state
 940              		.cfi_def_cfa_offset 16
 941              		@ sp needed
 942 002c 70BD     		pop	{r4, r5, r6, pc}
 943              	.LVL97:
 944              	.L108:
 945              		.cfi_restore_state
 946 002e FFF7FEFF 		bl	__stack_chk_fail
 947              	.LVL98:
 948              	.L110:
 949 0032 00BF     		.align	2
 950              	.L109:
 951 0034 00000000 		.word	__stack_chk_guard
 952              		.cfi_endproc
 953              	.LFE11:
 954              		.size	messagebus_watchgroup_wait, .-messagebus_watchgroup_wait
 955              		.section	.text.messagebus_new_topic_callback_register,"ax",%progbits
 956              		.align	1
 957              		.p2align 4,,15
 958              		.global	messagebus_new_topic_callback_register
 959              		.syntax unified
 960              		.thumb
 961              		.thumb_func
 962              		.fpu fpv4-sp-d16
 963              		.type	messagebus_new_topic_callback_register, %function
 964              	messagebus_new_topic_callback_register:
 965              	.LFB12:
 966              		.loc 1 179 0
 967              		.cfi_startproc
 968              		@ args = 0, pretend = 0, frame = 8
 969              		@ frame_needed = 0, uses_anonymous_args = 0
ARM GAS  C:\Users\25521\AppData\Local\Temp\ccoR8V9M.s 			page 18


 970              	.LVL99:
 971 0000 2DE9F041 		push	{r4, r5, r6, r7, r8, lr}
 972              		.cfi_def_cfa_offset 24
 973              		.cfi_offset 4, -24
 974              		.cfi_offset 5, -20
 975              		.cfi_offset 6, -16
 976              		.cfi_offset 7, -12
 977              		.cfi_offset 8, -8
 978              		.cfi_offset 14, -4
 979 0004 0D4E     		ldr	r6, .L116
 980 0006 82B0     		sub	sp, sp, #8
 981              		.cfi_def_cfa_offset 32
 982              		.loc 1 179 0
 983 0008 3468     		ldr	r4, [r6]
 984 000a 0194     		str	r4, [sp, #4]
 985 000c 0546     		mov	r5, r0
 986 000e 0C46     		mov	r4, r1
 987 0010 9046     		mov	r8, r2
 988 0012 1F46     		mov	r7, r3
 989              		.loc 1 180 0
 990 0014 8068     		ldr	r0, [r0, #8]
 991              	.LVL100:
 992 0016 FFF7FEFF 		bl	messagebus_lock_acquire
 993              	.LVL101:
 994              		.loc 1 182 0
 995 001a C4E90087 		strd	r8, r7, [r4]
 996              		.loc 1 187 0
 997 001e 019A     		ldr	r2, [sp, #4]
 998 0020 3368     		ldr	r3, [r6]
 999              		.loc 1 184 0
 1000 0022 6968     		ldr	r1, [r5, #4]
 1001 0024 A160     		str	r1, [r4, #8]
 1002              		.loc 1 187 0
 1003 0026 9A42     		cmp	r2, r3
 1004              		.loc 1 185 0
 1005 0028 6C60     		str	r4, [r5, #4]
 1006              		.loc 1 187 0
 1007 002a 05D1     		bne	.L115
 1008 002c A868     		ldr	r0, [r5, #8]
 1009              		.loc 1 188 0
 1010 002e 02B0     		add	sp, sp, #8
 1011              		.cfi_remember_state
 1012              		.cfi_def_cfa_offset 24
 1013              		@ sp needed
 1014 0030 BDE8F041 		pop	{r4, r5, r6, r7, r8, lr}
 1015              		.cfi_restore 14
 1016              		.cfi_restore 8
 1017              		.cfi_restore 7
 1018              		.cfi_restore 6
 1019              		.cfi_restore 5
 1020              		.cfi_restore 4
 1021              		.cfi_def_cfa_offset 0
 1022              	.LVL102:
 1023              		.loc 1 187 0
 1024 0034 FFF7FEBF 		b	messagebus_lock_release
 1025              	.LVL103:
 1026              	.L115:
ARM GAS  C:\Users\25521\AppData\Local\Temp\ccoR8V9M.s 			page 19


 1027              		.cfi_restore_state
 1028 0038 FFF7FEFF 		bl	__stack_chk_fail
 1029              	.LVL104:
 1030              	.L117:
 1031              		.align	2
 1032              	.L116:
 1033 003c 00000000 		.word	__stack_chk_guard
 1034              		.cfi_endproc
 1035              	.LFE12:
 1036              		.size	messagebus_new_topic_callback_register, .-messagebus_new_topic_callback_register
 1037              		.text
 1038              	.Letext0:
 1039              		.file 2 "d:\\eclipse_e-puck2_win32_11_apr_2018\\eclipse_e-puck2\\tools\\gcc-arm-none-eabi-7-2017-q
 1040              		.file 3 "d:\\eclipse_e-puck2_win32_11_apr_2018\\eclipse_e-puck2\\tools\\gcc-arm-none-eabi-7-2017-q
 1041              		.file 4 "d:\\eclipse_e-puck2_win32_11_apr_2018\\eclipse_e-puck2\\tools\\gcc-arm-none-eabi-7-2017-q
 1042              		.file 5 "d:\\eclipse_e-puck2_win32_11_apr_2018\\eclipse_e-puck2\\tools\\gcc-arm-none-eabi-7-2017-q
 1043              		.file 6 ".//src/msgbus/messagebus.h"
 1044              		.file 7 "d:\\eclipse_e-puck2_win32_11_apr_2018\\eclipse_e-puck2\\tools\\gcc-arm-none-eabi-7-2017-q
 1045              		.file 8 "d:\\eclipse_e-puck2_win32_11_apr_2018\\eclipse_e-puck2\\tools\\gcc-arm-none-eabi-7-2017-q
 1046              		.file 9 "<built-in>"
 1047              		.section	.debug_info,"",%progbits
 1048              	.Ldebug_info0:
 1049 0000 A4110000 		.4byte	0x11a4
 1050 0004 0400     		.2byte	0x4
 1051 0006 00000000 		.4byte	.Ldebug_abbrev0
 1052 000a 04       		.byte	0x4
 1053 000b 01       		.uleb128 0x1
 1054 000c E2020000 		.4byte	.LASF183
 1055 0010 0C       		.byte	0xc
 1056 0011 BB070000 		.4byte	.LASF184
 1057 0015 F9070000 		.4byte	.LASF185
 1058 0019 18000000 		.4byte	.Ldebug_ranges0+0x18
 1059 001d 00000000 		.4byte	0
 1060 0021 00000000 		.4byte	.Ldebug_line0
 1061 0025 02       		.uleb128 0x2
 1062 0026 01       		.byte	0x1
 1063 0027 06       		.byte	0x6
 1064 0028 69010000 		.4byte	.LASF0
 1065 002c 02       		.uleb128 0x2
 1066 002d 01       		.byte	0x1
 1067 002e 08       		.byte	0x8
 1068 002f 20060000 		.4byte	.LASF1
 1069 0033 02       		.uleb128 0x2
 1070 0034 02       		.byte	0x2
 1071 0035 05       		.byte	0x5
 1072 0036 84060000 		.4byte	.LASF2
 1073 003a 02       		.uleb128 0x2
 1074 003b 02       		.byte	0x2
 1075 003c 07       		.byte	0x7
 1076 003d 80040000 		.4byte	.LASF3
 1077 0041 02       		.uleb128 0x2
 1078 0042 04       		.byte	0x4
 1079 0043 05       		.byte	0x5
 1080 0044 BD010000 		.4byte	.LASF4
 1081 0048 02       		.uleb128 0x2
 1082 0049 04       		.byte	0x4
 1083 004a 07       		.byte	0x7
ARM GAS  C:\Users\25521\AppData\Local\Temp\ccoR8V9M.s 			page 20


 1084 004b 52040000 		.4byte	.LASF5
 1085 004f 02       		.uleb128 0x2
 1086 0050 08       		.byte	0x8
 1087 0051 05       		.byte	0x5
 1088 0052 5B010000 		.4byte	.LASF6
 1089 0056 02       		.uleb128 0x2
 1090 0057 08       		.byte	0x8
 1091 0058 07       		.byte	0x7
 1092 0059 D2000000 		.4byte	.LASF7
 1093 005d 03       		.uleb128 0x3
 1094 005e 04       		.byte	0x4
 1095 005f 05       		.byte	0x5
 1096 0060 696E7400 		.ascii	"int\000"
 1097 0064 02       		.uleb128 0x2
 1098 0065 04       		.byte	0x4
 1099 0066 07       		.byte	0x7
 1100 0067 D5020000 		.4byte	.LASF8
 1101 006b 04       		.uleb128 0x4
 1102 006c 38000000 		.4byte	.LASF10
 1103 0070 02       		.byte	0x2
 1104 0071 D8       		.byte	0xd8
 1105 0072 64000000 		.4byte	0x64
 1106 0076 02       		.uleb128 0x2
 1107 0077 08       		.byte	0x8
 1108 0078 04       		.byte	0x4
 1109 0079 6C050000 		.4byte	.LASF9
 1110 007d 04       		.uleb128 0x4
 1111 007e DD040000 		.4byte	.LASF11
 1112 0082 03       		.byte	0x3
 1113 0083 22       		.byte	0x22
 1114 0084 88000000 		.4byte	0x88
 1115 0088 05       		.uleb128 0x5
 1116 0089 04       		.byte	0x4
 1117 008a 8E000000 		.4byte	0x8e
 1118 008e 06       		.uleb128 0x6
 1119 008f 54070000 		.4byte	.LASF150
 1120 0093 04       		.uleb128 0x4
 1121 0094 BD050000 		.4byte	.LASF12
 1122 0098 04       		.byte	0x4
 1123 0099 2C       		.byte	0x2c
 1124 009a 41000000 		.4byte	0x41
 1125 009e 04       		.uleb128 0x4
 1126 009f 99070000 		.4byte	.LASF13
 1127 00a3 04       		.byte	0x4
 1128 00a4 72       		.byte	0x72
 1129 00a5 41000000 		.4byte	0x41
 1130 00a9 07       		.uleb128 0x7
 1131 00aa ED040000 		.4byte	.LASF14
 1132 00ae 02       		.byte	0x2
 1133 00af 6501     		.2byte	0x165
 1134 00b1 64000000 		.4byte	0x64
 1135 00b5 08       		.uleb128 0x8
 1136 00b6 04       		.byte	0x4
 1137 00b7 04       		.byte	0x4
 1138 00b8 A6       		.byte	0xa6
 1139 00b9 D4000000 		.4byte	0xd4
 1140 00bd 09       		.uleb128 0x9
ARM GAS  C:\Users\25521\AppData\Local\Temp\ccoR8V9M.s 			page 21


 1141 00be D0040000 		.4byte	.LASF15
 1142 00c2 04       		.byte	0x4
 1143 00c3 A8       		.byte	0xa8
 1144 00c4 A9000000 		.4byte	0xa9
 1145 00c8 09       		.uleb128 0x9
 1146 00c9 26040000 		.4byte	.LASF16
 1147 00cd 04       		.byte	0x4
 1148 00ce A9       		.byte	0xa9
 1149 00cf D4000000 		.4byte	0xd4
 1150 00d3 00       		.byte	0
 1151 00d4 0A       		.uleb128 0xa
 1152 00d5 2C000000 		.4byte	0x2c
 1153 00d9 E4000000 		.4byte	0xe4
 1154 00dd 0B       		.uleb128 0xb
 1155 00de 64000000 		.4byte	0x64
 1156 00e2 03       		.byte	0x3
 1157 00e3 00       		.byte	0
 1158 00e4 0C       		.uleb128 0xc
 1159 00e5 08       		.byte	0x8
 1160 00e6 04       		.byte	0x4
 1161 00e7 A3       		.byte	0xa3
 1162 00e8 05010000 		.4byte	0x105
 1163 00ec 0D       		.uleb128 0xd
 1164 00ed 4C070000 		.4byte	.LASF17
 1165 00f1 04       		.byte	0x4
 1166 00f2 A5       		.byte	0xa5
 1167 00f3 5D000000 		.4byte	0x5d
 1168 00f7 00       		.byte	0
 1169 00f8 0D       		.uleb128 0xd
 1170 00f9 5B070000 		.4byte	.LASF18
 1171 00fd 04       		.byte	0x4
 1172 00fe AA       		.byte	0xaa
 1173 00ff B5000000 		.4byte	0xb5
 1174 0103 04       		.byte	0x4
 1175 0104 00       		.byte	0
 1176 0105 04       		.uleb128 0x4
 1177 0106 AC060000 		.4byte	.LASF19
 1178 010a 04       		.byte	0x4
 1179 010b AB       		.byte	0xab
 1180 010c E4000000 		.4byte	0xe4
 1181 0110 04       		.uleb128 0x4
 1182 0111 92020000 		.4byte	.LASF20
 1183 0115 04       		.byte	0x4
 1184 0116 AF       		.byte	0xaf
 1185 0117 7D000000 		.4byte	0x7d
 1186 011b 0E       		.uleb128 0xe
 1187 011c 04       		.byte	0x4
 1188 011d 05       		.uleb128 0x5
 1189 011e 04       		.byte	0x4
 1190 011f 23010000 		.4byte	0x123
 1191 0123 02       		.uleb128 0x2
 1192 0124 01       		.byte	0x1
 1193 0125 08       		.byte	0x8
 1194 0126 B6070000 		.4byte	.LASF21
 1195 012a 0F       		.uleb128 0xf
 1196 012b 23010000 		.4byte	0x123
 1197 012f 10       		.uleb128 0x10
ARM GAS  C:\Users\25521\AppData\Local\Temp\ccoR8V9M.s 			page 22


 1198 0130 E5040000 		.4byte	.LASF22
 1199 0134 05       		.byte	0x5
 1200 0135 10       		.byte	0x10
 1201 0136 3A010000 		.4byte	0x13a
 1202 013a 05       		.uleb128 0x5
 1203 013b 04       		.byte	0x4
 1204 013c 1D010000 		.4byte	0x11d
 1205 0140 10       		.uleb128 0x10
 1206 0141 65050000 		.4byte	.LASF23
 1207 0145 05       		.byte	0x5
 1208 0146 E8       		.byte	0xe8
 1209 0147 1D010000 		.4byte	0x11d
 1210 014b 10       		.uleb128 0x10
 1211 014c 78050000 		.4byte	.LASF24
 1212 0150 05       		.byte	0x5
 1213 0151 E9       		.byte	0xe9
 1214 0152 5D000000 		.4byte	0x5d
 1215 0156 10       		.uleb128 0x10
 1216 0157 EC070000 		.4byte	.LASF25
 1217 015b 05       		.byte	0x5
 1218 015c E9       		.byte	0xe9
 1219 015d 5D000000 		.4byte	0x5d
 1220 0161 10       		.uleb128 0x10
 1221 0162 43040000 		.4byte	.LASF26
 1222 0166 05       		.byte	0x5
 1223 0167 E9       		.byte	0xe9
 1224 0168 5D000000 		.4byte	0x5d
 1225 016c 10       		.uleb128 0x10
 1226 016d 43050000 		.4byte	.LASF27
 1227 0171 05       		.byte	0x5
 1228 0172 EB       		.byte	0xeb
 1229 0173 5D000000 		.4byte	0x5d
 1230 0177 11       		.uleb128 0x11
 1231 0178 C8040000 		.4byte	.LASF38
 1232 017c 60       		.byte	0x60
 1233 017d 06       		.byte	0x6
 1234 017e 0C       		.byte	0xc
 1235 017f F0010000 		.4byte	0x1f0
 1236 0183 0D       		.uleb128 0xd
 1237 0184 E5070000 		.4byte	.LASF28
 1238 0188 06       		.byte	0x6
 1239 0189 0D       		.byte	0xd
 1240 018a 1B010000 		.4byte	0x11b
 1241 018e 00       		.byte	0
 1242 018f 0D       		.uleb128 0xd
 1243 0190 7D010000 		.4byte	.LASF29
 1244 0194 06       		.byte	0x6
 1245 0195 0E       		.byte	0xe
 1246 0196 6B000000 		.4byte	0x6b
 1247 019a 04       		.byte	0x4
 1248 019b 0D       		.uleb128 0xd
 1249 019c A4090000 		.4byte	.LASF30
 1250 01a0 06       		.byte	0x6
 1251 01a1 0F       		.byte	0xf
 1252 01a2 1B010000 		.4byte	0x11b
 1253 01a6 08       		.byte	0x8
 1254 01a7 0D       		.uleb128 0xd
ARM GAS  C:\Users\25521\AppData\Local\Temp\ccoR8V9M.s 			page 23


 1255 01a8 5D050000 		.4byte	.LASF31
 1256 01ac 06       		.byte	0x6
 1257 01ad 10       		.byte	0x10
 1258 01ae 1B010000 		.4byte	0x11b
 1259 01b2 0C       		.byte	0xc
 1260 01b3 0D       		.uleb128 0xd
 1261 01b4 6A040000 		.4byte	.LASF32
 1262 01b8 06       		.byte	0x6
 1263 01b9 11       		.byte	0x11
 1264 01ba F0010000 		.4byte	0x1f0
 1265 01be 10       		.byte	0x10
 1266 01bf 0D       		.uleb128 0xd
 1267 01c0 9D010000 		.4byte	.LASF33
 1268 01c4 06       		.byte	0x6
 1269 01c5 12       		.byte	0x12
 1270 01c6 00020000 		.4byte	0x200
 1271 01ca 51       		.byte	0x51
 1272 01cb 0D       		.uleb128 0xd
 1273 01cc EA060000 		.4byte	.LASF34
 1274 01d0 06       		.byte	0x6
 1275 01d1 13       		.byte	0x13
 1276 01d2 2C020000 		.4byte	0x22c
 1277 01d6 54       		.byte	0x54
 1278 01d7 0D       		.uleb128 0xd
 1279 01d8 35010000 		.4byte	.LASF35
 1280 01dc 06       		.byte	0x6
 1281 01dd 14       		.byte	0x14
 1282 01de 32020000 		.4byte	0x232
 1283 01e2 58       		.byte	0x58
 1284 01e3 0D       		.uleb128 0xd
 1285 01e4 3E070000 		.4byte	.LASF36
 1286 01e8 06       		.byte	0x6
 1287 01e9 15       		.byte	0x15
 1288 01ea 1B010000 		.4byte	0x11b
 1289 01ee 5C       		.byte	0x5c
 1290 01ef 00       		.byte	0
 1291 01f0 0A       		.uleb128 0xa
 1292 01f1 23010000 		.4byte	0x123
 1293 01f5 00020000 		.4byte	0x200
 1294 01f9 0B       		.uleb128 0xb
 1295 01fa 64000000 		.4byte	0x64
 1296 01fe 40       		.byte	0x40
 1297 01ff 00       		.byte	0
 1298 0200 02       		.uleb128 0x2
 1299 0201 01       		.byte	0x1
 1300 0202 02       		.byte	0x2
 1301 0203 1A060000 		.4byte	.LASF37
 1302 0207 11       		.uleb128 0x11
 1303 0208 63070000 		.4byte	.LASF39
 1304 020c 08       		.byte	0x8
 1305 020d 06       		.byte	0x6
 1306 020e 27       		.byte	0x27
 1307 020f 2C020000 		.4byte	0x22c
 1308 0213 0D       		.uleb128 0xd
 1309 0214 AF010000 		.4byte	.LASF40
 1310 0218 06       		.byte	0x6
 1311 0219 28       		.byte	0x28
ARM GAS  C:\Users\25521\AppData\Local\Temp\ccoR8V9M.s 			page 24


 1312 021a 15030000 		.4byte	0x315
 1313 021e 00       		.byte	0
 1314 021f 0D       		.uleb128 0xd
 1315 0220 35010000 		.4byte	.LASF35
 1316 0224 06       		.byte	0x6
 1317 0225 29       		.byte	0x29
 1318 0226 2C020000 		.4byte	0x22c
 1319 022a 04       		.byte	0x4
 1320 022b 00       		.byte	0
 1321 022c 05       		.uleb128 0x5
 1322 022d 04       		.byte	0x4
 1323 022e 07020000 		.4byte	0x207
 1324 0232 05       		.uleb128 0x5
 1325 0233 04       		.byte	0x4
 1326 0234 77010000 		.4byte	0x177
 1327 0238 04       		.uleb128 0x4
 1328 0239 9C040000 		.4byte	.LASF41
 1329 023d 06       		.byte	0x6
 1330 023e 16       		.byte	0x16
 1331 023f 77010000 		.4byte	0x177
 1332 0243 0C       		.uleb128 0xc
 1333 0244 04       		.byte	0x4
 1334 0245 06       		.byte	0x6
 1335 0246 19       		.byte	0x19
 1336 0247 58020000 		.4byte	0x258
 1337 024b 0D       		.uleb128 0xd
 1338 024c 47070000 		.4byte	.LASF42
 1339 0250 06       		.byte	0x6
 1340 0251 1A       		.byte	0x1a
 1341 0252 58020000 		.4byte	0x258
 1342 0256 00       		.byte	0
 1343 0257 00       		.byte	0
 1344 0258 05       		.uleb128 0x5
 1345 0259 04       		.byte	0x4
 1346 025a 38020000 		.4byte	0x238
 1347 025e 0C       		.uleb128 0xc
 1348 025f 10       		.byte	0x10
 1349 0260 06       		.byte	0x6
 1350 0261 18       		.byte	0x18
 1351 0262 97020000 		.4byte	0x297
 1352 0266 0D       		.uleb128 0xd
 1353 0267 4F080000 		.4byte	.LASF43
 1354 026b 06       		.byte	0x6
 1355 026c 1B       		.byte	0x1b
 1356 026d 43020000 		.4byte	0x243
 1357 0271 00       		.byte	0
 1358 0272 0D       		.uleb128 0xd
 1359 0273 11090000 		.4byte	.LASF44
 1360 0277 06       		.byte	0x6
 1361 0278 1C       		.byte	0x1c
 1362 0279 C8020000 		.4byte	0x2c8
 1363 027d 04       		.byte	0x4
 1364 027e 0D       		.uleb128 0xd
 1365 027f A4090000 		.4byte	.LASF30
 1366 0283 06       		.byte	0x6
 1367 0284 1D       		.byte	0x1d
 1368 0285 1B010000 		.4byte	0x11b
ARM GAS  C:\Users\25521\AppData\Local\Temp\ccoR8V9M.s 			page 25


 1369 0289 08       		.byte	0x8
 1370 028a 0D       		.uleb128 0xd
 1371 028b 5D050000 		.4byte	.LASF31
 1372 028f 06       		.byte	0x6
 1373 0290 1E       		.byte	0x1e
 1374 0291 1B010000 		.4byte	0x11b
 1375 0295 0C       		.byte	0xc
 1376 0296 00       		.byte	0
 1377 0297 11       		.uleb128 0x11
 1378 0298 49060000 		.4byte	.LASF45
 1379 029c 0C       		.byte	0xc
 1380 029d 06       		.byte	0x6
 1381 029e 2C       		.byte	0x2c
 1382 029f C8020000 		.4byte	0x2c8
 1383 02a3 0D       		.uleb128 0xd
 1384 02a4 19020000 		.4byte	.LASF46
 1385 02a8 06       		.byte	0x6
 1386 02a9 2D       		.byte	0x2d
 1387 02aa 41030000 		.4byte	0x341
 1388 02ae 00       		.byte	0
 1389 02af 0D       		.uleb128 0xd
 1390 02b0 47000000 		.4byte	.LASF47
 1391 02b4 06       		.byte	0x6
 1392 02b5 2E       		.byte	0x2e
 1393 02b6 1B010000 		.4byte	0x11b
 1394 02ba 04       		.byte	0x4
 1395 02bb 0D       		.uleb128 0xd
 1396 02bc 35010000 		.4byte	.LASF35
 1397 02c0 06       		.byte	0x6
 1398 02c1 2F       		.byte	0x2f
 1399 02c2 C8020000 		.4byte	0x2c8
 1400 02c6 08       		.byte	0x8
 1401 02c7 00       		.byte	0
 1402 02c8 05       		.uleb128 0x5
 1403 02c9 04       		.byte	0x4
 1404 02ca 97020000 		.4byte	0x297
 1405 02ce 04       		.uleb128 0x4
 1406 02cf A3000000 		.4byte	.LASF48
 1407 02d3 06       		.byte	0x6
 1408 02d4 1F       		.byte	0x1f
 1409 02d5 5E020000 		.4byte	0x25e
 1410 02d9 11       		.uleb128 0x11
 1411 02da 43010000 		.4byte	.LASF49
 1412 02de 0C       		.byte	0xc
 1413 02df 06       		.byte	0x6
 1414 02e0 21       		.byte	0x21
 1415 02e1 0A030000 		.4byte	0x30a
 1416 02e5 0D       		.uleb128 0xd
 1417 02e6 A4090000 		.4byte	.LASF30
 1418 02ea 06       		.byte	0x6
 1419 02eb 22       		.byte	0x22
 1420 02ec 1B010000 		.4byte	0x11b
 1421 02f0 00       		.byte	0
 1422 02f1 0D       		.uleb128 0xd
 1423 02f2 5D050000 		.4byte	.LASF31
 1424 02f6 06       		.byte	0x6
 1425 02f7 23       		.byte	0x23
ARM GAS  C:\Users\25521\AppData\Local\Temp\ccoR8V9M.s 			page 26


 1426 02f8 1B010000 		.4byte	0x11b
 1427 02fc 04       		.byte	0x4
 1428 02fd 0D       		.uleb128 0xd
 1429 02fe 09020000 		.4byte	.LASF50
 1430 0302 06       		.byte	0x6
 1431 0303 24       		.byte	0x24
 1432 0304 58020000 		.4byte	0x258
 1433 0308 08       		.byte	0x8
 1434 0309 00       		.byte	0
 1435 030a 04       		.uleb128 0x4
 1436 030b 63060000 		.4byte	.LASF51
 1437 030f 06       		.byte	0x6
 1438 0310 25       		.byte	0x25
 1439 0311 D9020000 		.4byte	0x2d9
 1440 0315 05       		.uleb128 0x5
 1441 0316 04       		.byte	0x4
 1442 0317 0A030000 		.4byte	0x30a
 1443 031b 04       		.uleb128 0x4
 1444 031c 78070000 		.4byte	.LASF52
 1445 0320 06       		.byte	0x6
 1446 0321 2A       		.byte	0x2a
 1447 0322 07020000 		.4byte	0x207
 1448 0326 12       		.uleb128 0x12
 1449 0327 3B030000 		.4byte	0x33b
 1450 032b 13       		.uleb128 0x13
 1451 032c 3B030000 		.4byte	0x33b
 1452 0330 13       		.uleb128 0x13
 1453 0331 58020000 		.4byte	0x258
 1454 0335 13       		.uleb128 0x13
 1455 0336 1B010000 		.4byte	0x11b
 1456 033a 00       		.byte	0
 1457 033b 05       		.uleb128 0x5
 1458 033c 04       		.byte	0x4
 1459 033d CE020000 		.4byte	0x2ce
 1460 0341 05       		.uleb128 0x5
 1461 0342 04       		.byte	0x4
 1462 0343 26030000 		.4byte	0x326
 1463 0347 04       		.uleb128 0x4
 1464 0348 5F000000 		.4byte	.LASF53
 1465 034c 06       		.byte	0x6
 1466 034d 30       		.byte	0x30
 1467 034e 97020000 		.4byte	0x297
 1468 0352 04       		.uleb128 0x4
 1469 0353 76080000 		.4byte	.LASF54
 1470 0357 07       		.byte	0x7
 1471 0358 16       		.byte	0x16
 1472 0359 48000000 		.4byte	0x48
 1473 035d 11       		.uleb128 0x11
 1474 035e A3020000 		.4byte	.LASF55
 1475 0362 18       		.byte	0x18
 1476 0363 07       		.byte	0x7
 1477 0364 2F       		.byte	0x2f
 1478 0365 B0030000 		.4byte	0x3b0
 1479 0369 0D       		.uleb128 0xd
 1480 036a BA020000 		.4byte	.LASF56
 1481 036e 07       		.byte	0x7
 1482 036f 31       		.byte	0x31
ARM GAS  C:\Users\25521\AppData\Local\Temp\ccoR8V9M.s 			page 27


 1483 0370 B0030000 		.4byte	0x3b0
 1484 0374 00       		.byte	0
 1485 0375 14       		.uleb128 0x14
 1486 0376 5F6B00   		.ascii	"_k\000"
 1487 0379 07       		.byte	0x7
 1488 037a 32       		.byte	0x32
 1489 037b 5D000000 		.4byte	0x5d
 1490 037f 04       		.byte	0x4
 1491 0380 0D       		.uleb128 0xd
 1492 0381 2F070000 		.4byte	.LASF57
 1493 0385 07       		.byte	0x7
 1494 0386 32       		.byte	0x32
 1495 0387 5D000000 		.4byte	0x5d
 1496 038b 08       		.byte	0x8
 1497 038c 0D       		.uleb128 0xd
 1498 038d 8C020000 		.4byte	.LASF58
 1499 0391 07       		.byte	0x7
 1500 0392 32       		.byte	0x32
 1501 0393 5D000000 		.4byte	0x5d
 1502 0397 0C       		.byte	0xc
 1503 0398 0D       		.uleb128 0xd
 1504 0399 AC080000 		.4byte	.LASF59
 1505 039d 07       		.byte	0x7
 1506 039e 32       		.byte	0x32
 1507 039f 5D000000 		.4byte	0x5d
 1508 03a3 10       		.byte	0x10
 1509 03a4 14       		.uleb128 0x14
 1510 03a5 5F7800   		.ascii	"_x\000"
 1511 03a8 07       		.byte	0x7
 1512 03a9 33       		.byte	0x33
 1513 03aa B6030000 		.4byte	0x3b6
 1514 03ae 14       		.byte	0x14
 1515 03af 00       		.byte	0
 1516 03b0 05       		.uleb128 0x5
 1517 03b1 04       		.byte	0x4
 1518 03b2 5D030000 		.4byte	0x35d
 1519 03b6 0A       		.uleb128 0xa
 1520 03b7 52030000 		.4byte	0x352
 1521 03bb C6030000 		.4byte	0x3c6
 1522 03bf 0B       		.uleb128 0xb
 1523 03c0 64000000 		.4byte	0x64
 1524 03c4 00       		.byte	0
 1525 03c5 00       		.byte	0
 1526 03c6 11       		.uleb128 0x11
 1527 03c7 D0020000 		.4byte	.LASF60
 1528 03cb 24       		.byte	0x24
 1529 03cc 07       		.byte	0x7
 1530 03cd 37       		.byte	0x37
 1531 03ce 3F040000 		.4byte	0x43f
 1532 03d2 0D       		.uleb128 0xd
 1533 03d3 3A010000 		.4byte	.LASF61
 1534 03d7 07       		.byte	0x7
 1535 03d8 39       		.byte	0x39
 1536 03d9 5D000000 		.4byte	0x5d
 1537 03dd 00       		.byte	0
 1538 03de 0D       		.uleb128 0xd
 1539 03df D6070000 		.4byte	.LASF62
ARM GAS  C:\Users\25521\AppData\Local\Temp\ccoR8V9M.s 			page 28


 1540 03e3 07       		.byte	0x7
 1541 03e4 3A       		.byte	0x3a
 1542 03e5 5D000000 		.4byte	0x5d
 1543 03e9 04       		.byte	0x4
 1544 03ea 0D       		.uleb128 0xd
 1545 03eb 8E010000 		.4byte	.LASF63
 1546 03ef 07       		.byte	0x7
 1547 03f0 3B       		.byte	0x3b
 1548 03f1 5D000000 		.4byte	0x5d
 1549 03f5 08       		.byte	0x8
 1550 03f6 0D       		.uleb128 0xd
 1551 03f7 A9090000 		.4byte	.LASF64
 1552 03fb 07       		.byte	0x7
 1553 03fc 3C       		.byte	0x3c
 1554 03fd 5D000000 		.4byte	0x5d
 1555 0401 0C       		.byte	0xc
 1556 0402 0D       		.uleb128 0xd
 1557 0403 A1050000 		.4byte	.LASF65
 1558 0407 07       		.byte	0x7
 1559 0408 3D       		.byte	0x3d
 1560 0409 5D000000 		.4byte	0x5d
 1561 040d 10       		.byte	0x10
 1562 040e 0D       		.uleb128 0xd
 1563 040f 53050000 		.4byte	.LASF66
 1564 0413 07       		.byte	0x7
 1565 0414 3E       		.byte	0x3e
 1566 0415 5D000000 		.4byte	0x5d
 1567 0419 14       		.byte	0x14
 1568 041a 0D       		.uleb128 0xd
 1569 041b B1080000 		.4byte	.LASF67
 1570 041f 07       		.byte	0x7
 1571 0420 3F       		.byte	0x3f
 1572 0421 5D000000 		.4byte	0x5d
 1573 0425 18       		.byte	0x18
 1574 0426 0D       		.uleb128 0xd
 1575 0427 8E060000 		.4byte	.LASF68
 1576 042b 07       		.byte	0x7
 1577 042c 40       		.byte	0x40
 1578 042d 5D000000 		.4byte	0x5d
 1579 0431 1C       		.byte	0x1c
 1580 0432 0D       		.uleb128 0xd
 1581 0433 6B090000 		.4byte	.LASF69
 1582 0437 07       		.byte	0x7
 1583 0438 41       		.byte	0x41
 1584 0439 5D000000 		.4byte	0x5d
 1585 043d 20       		.byte	0x20
 1586 043e 00       		.byte	0
 1587 043f 15       		.uleb128 0x15
 1588 0440 A1070000 		.4byte	.LASF70
 1589 0444 0801     		.2byte	0x108
 1590 0446 07       		.byte	0x7
 1591 0447 4A       		.byte	0x4a
 1592 0448 7F040000 		.4byte	0x47f
 1593 044c 0D       		.uleb128 0xd
 1594 044d 71020000 		.4byte	.LASF71
 1595 0451 07       		.byte	0x7
 1596 0452 4B       		.byte	0x4b
ARM GAS  C:\Users\25521\AppData\Local\Temp\ccoR8V9M.s 			page 29


 1597 0453 7F040000 		.4byte	0x47f
 1598 0457 00       		.byte	0
 1599 0458 0D       		.uleb128 0xd
 1600 0459 00000000 		.4byte	.LASF72
 1601 045d 07       		.byte	0x7
 1602 045e 4C       		.byte	0x4c
 1603 045f 7F040000 		.4byte	0x47f
 1604 0463 80       		.byte	0x80
 1605 0464 16       		.uleb128 0x16
 1606 0465 46080000 		.4byte	.LASF73
 1607 0469 07       		.byte	0x7
 1608 046a 4E       		.byte	0x4e
 1609 046b 52030000 		.4byte	0x352
 1610 046f 0001     		.2byte	0x100
 1611 0471 16       		.uleb128 0x16
 1612 0472 E5010000 		.4byte	.LASF74
 1613 0476 07       		.byte	0x7
 1614 0477 51       		.byte	0x51
 1615 0478 52030000 		.4byte	0x352
 1616 047c 0401     		.2byte	0x104
 1617 047e 00       		.byte	0
 1618 047f 0A       		.uleb128 0xa
 1619 0480 1B010000 		.4byte	0x11b
 1620 0484 8F040000 		.4byte	0x48f
 1621 0488 0B       		.uleb128 0xb
 1622 0489 64000000 		.4byte	0x64
 1623 048d 1F       		.byte	0x1f
 1624 048e 00       		.byte	0
 1625 048f 15       		.uleb128 0x15
 1626 0490 AA050000 		.4byte	.LASF75
 1627 0494 9001     		.2byte	0x190
 1628 0496 07       		.byte	0x7
 1629 0497 5D       		.byte	0x5d
 1630 0498 CD040000 		.4byte	0x4cd
 1631 049c 0D       		.uleb128 0xd
 1632 049d BA020000 		.4byte	.LASF56
 1633 04a1 07       		.byte	0x7
 1634 04a2 5E       		.byte	0x5e
 1635 04a3 CD040000 		.4byte	0x4cd
 1636 04a7 00       		.byte	0
 1637 04a8 0D       		.uleb128 0xd
 1638 04a9 E5060000 		.4byte	.LASF76
 1639 04ad 07       		.byte	0x7
 1640 04ae 5F       		.byte	0x5f
 1641 04af 5D000000 		.4byte	0x5d
 1642 04b3 04       		.byte	0x4
 1643 04b4 0D       		.uleb128 0xd
 1644 04b5 79020000 		.4byte	.LASF77
 1645 04b9 07       		.byte	0x7
 1646 04ba 61       		.byte	0x61
 1647 04bb D3040000 		.4byte	0x4d3
 1648 04bf 08       		.byte	0x8
 1649 04c0 0D       		.uleb128 0xd
 1650 04c1 A1070000 		.4byte	.LASF70
 1651 04c5 07       		.byte	0x7
 1652 04c6 62       		.byte	0x62
 1653 04c7 3F040000 		.4byte	0x43f
ARM GAS  C:\Users\25521\AppData\Local\Temp\ccoR8V9M.s 			page 30


 1654 04cb 88       		.byte	0x88
 1655 04cc 00       		.byte	0
 1656 04cd 05       		.uleb128 0x5
 1657 04ce 04       		.byte	0x4
 1658 04cf 8F040000 		.4byte	0x48f
 1659 04d3 0A       		.uleb128 0xa
 1660 04d4 E3040000 		.4byte	0x4e3
 1661 04d8 E3040000 		.4byte	0x4e3
 1662 04dc 0B       		.uleb128 0xb
 1663 04dd 64000000 		.4byte	0x64
 1664 04e1 1F       		.byte	0x1f
 1665 04e2 00       		.byte	0
 1666 04e3 05       		.uleb128 0x5
 1667 04e4 04       		.byte	0x4
 1668 04e5 E9040000 		.4byte	0x4e9
 1669 04e9 17       		.uleb128 0x17
 1670 04ea 11       		.uleb128 0x11
 1671 04eb 98060000 		.4byte	.LASF78
 1672 04ef 08       		.byte	0x8
 1673 04f0 07       		.byte	0x7
 1674 04f1 75       		.byte	0x75
 1675 04f2 0F050000 		.4byte	0x50f
 1676 04f6 0D       		.uleb128 0xd
 1677 04f7 88010000 		.4byte	.LASF79
 1678 04fb 07       		.byte	0x7
 1679 04fc 76       		.byte	0x76
 1680 04fd 0F050000 		.4byte	0x50f
 1681 0501 00       		.byte	0
 1682 0502 0D       		.uleb128 0xd
 1683 0503 2B000000 		.4byte	.LASF80
 1684 0507 07       		.byte	0x7
 1685 0508 77       		.byte	0x77
 1686 0509 5D000000 		.4byte	0x5d
 1687 050d 04       		.byte	0x4
 1688 050e 00       		.byte	0
 1689 050f 05       		.uleb128 0x5
 1690 0510 04       		.byte	0x4
 1691 0511 2C000000 		.4byte	0x2c
 1692 0515 11       		.uleb128 0x11
 1693 0516 B7060000 		.4byte	.LASF81
 1694 051a 68       		.byte	0x68
 1695 051b 07       		.byte	0x7
 1696 051c B5       		.byte	0xb5
 1697 051d 3F060000 		.4byte	0x63f
 1698 0521 14       		.uleb128 0x14
 1699 0522 5F7000   		.ascii	"_p\000"
 1700 0525 07       		.byte	0x7
 1701 0526 B6       		.byte	0xb6
 1702 0527 0F050000 		.4byte	0x50f
 1703 052b 00       		.byte	0
 1704 052c 14       		.uleb128 0x14
 1705 052d 5F7200   		.ascii	"_r\000"
 1706 0530 07       		.byte	0x7
 1707 0531 B7       		.byte	0xb7
 1708 0532 5D000000 		.4byte	0x5d
 1709 0536 04       		.byte	0x4
 1710 0537 14       		.uleb128 0x14
ARM GAS  C:\Users\25521\AppData\Local\Temp\ccoR8V9M.s 			page 31


 1711 0538 5F7700   		.ascii	"_w\000"
 1712 053b 07       		.byte	0x7
 1713 053c B8       		.byte	0xb8
 1714 053d 5D000000 		.4byte	0x5d
 1715 0541 08       		.byte	0x8
 1716 0542 0D       		.uleb128 0xd
 1717 0543 DE010000 		.4byte	.LASF82
 1718 0547 07       		.byte	0x7
 1719 0548 B9       		.byte	0xb9
 1720 0549 33000000 		.4byte	0x33
 1721 054d 0C       		.byte	0xc
 1722 054e 0D       		.uleb128 0xd
 1723 054f 64040000 		.4byte	.LASF83
 1724 0553 07       		.byte	0x7
 1725 0554 BA       		.byte	0xba
 1726 0555 33000000 		.4byte	0x33
 1727 0559 0E       		.byte	0xe
 1728 055a 14       		.uleb128 0x14
 1729 055b 5F626600 		.ascii	"_bf\000"
 1730 055f 07       		.byte	0x7
 1731 0560 BB       		.byte	0xbb
 1732 0561 EA040000 		.4byte	0x4ea
 1733 0565 10       		.byte	0x10
 1734 0566 0D       		.uleb128 0xd
 1735 0567 E9000000 		.4byte	.LASF84
 1736 056b 07       		.byte	0x7
 1737 056c BC       		.byte	0xbc
 1738 056d 5D000000 		.4byte	0x5d
 1739 0571 18       		.byte	0x18
 1740 0572 0D       		.uleb128 0xd
 1741 0573 A7010000 		.4byte	.LASF85
 1742 0577 07       		.byte	0x7
 1743 0578 C3       		.byte	0xc3
 1744 0579 1B010000 		.4byte	0x11b
 1745 057d 1C       		.byte	0x1c
 1746 057e 0D       		.uleb128 0xd
 1747 057f C0020000 		.4byte	.LASF86
 1748 0583 07       		.byte	0x7
 1749 0584 C5       		.byte	0xc5
 1750 0585 9A070000 		.4byte	0x79a
 1751 0589 20       		.byte	0x20
 1752 058a 0D       		.uleb128 0xd
 1753 058b 4C050000 		.4byte	.LASF87
 1754 058f 07       		.byte	0x7
 1755 0590 C7       		.byte	0xc7
 1756 0591 C4070000 		.4byte	0x7c4
 1757 0595 24       		.byte	0x24
 1758 0596 0D       		.uleb128 0xd
 1759 0597 2A080000 		.4byte	.LASF88
 1760 059b 07       		.byte	0x7
 1761 059c CA       		.byte	0xca
 1762 059d E8070000 		.4byte	0x7e8
 1763 05a1 28       		.byte	0x28
 1764 05a2 0D       		.uleb128 0xd
 1765 05a3 85090000 		.4byte	.LASF89
 1766 05a7 07       		.byte	0x7
 1767 05a8 CB       		.byte	0xcb
ARM GAS  C:\Users\25521\AppData\Local\Temp\ccoR8V9M.s 			page 32


 1768 05a9 02080000 		.4byte	0x802
 1769 05ad 2C       		.byte	0x2c
 1770 05ae 14       		.uleb128 0x14
 1771 05af 5F756200 		.ascii	"_ub\000"
 1772 05b3 07       		.byte	0x7
 1773 05b4 CE       		.byte	0xce
 1774 05b5 EA040000 		.4byte	0x4ea
 1775 05b9 30       		.byte	0x30
 1776 05ba 14       		.uleb128 0x14
 1777 05bb 5F757000 		.ascii	"_up\000"
 1778 05bf 07       		.byte	0x7
 1779 05c0 CF       		.byte	0xcf
 1780 05c1 0F050000 		.4byte	0x50f
 1781 05c5 38       		.byte	0x38
 1782 05c6 14       		.uleb128 0x14
 1783 05c7 5F757200 		.ascii	"_ur\000"
 1784 05cb 07       		.byte	0x7
 1785 05cc D0       		.byte	0xd0
 1786 05cd 5D000000 		.4byte	0x5d
 1787 05d1 3C       		.byte	0x3c
 1788 05d2 0D       		.uleb128 0xd
 1789 05d3 F4010000 		.4byte	.LASF90
 1790 05d7 07       		.byte	0x7
 1791 05d8 D3       		.byte	0xd3
 1792 05d9 08080000 		.4byte	0x808
 1793 05dd 40       		.byte	0x40
 1794 05de 0D       		.uleb128 0xd
 1795 05df 45090000 		.4byte	.LASF91
 1796 05e3 07       		.byte	0x7
 1797 05e4 D4       		.byte	0xd4
 1798 05e5 18080000 		.4byte	0x818
 1799 05e9 43       		.byte	0x43
 1800 05ea 14       		.uleb128 0x14
 1801 05eb 5F6C6200 		.ascii	"_lb\000"
 1802 05ef 07       		.byte	0x7
 1803 05f0 D7       		.byte	0xd7
 1804 05f1 EA040000 		.4byte	0x4ea
 1805 05f5 44       		.byte	0x44
 1806 05f6 0D       		.uleb128 0xd
 1807 05f7 FA010000 		.4byte	.LASF92
 1808 05fb 07       		.byte	0x7
 1809 05fc DA       		.byte	0xda
 1810 05fd 5D000000 		.4byte	0x5d
 1811 0601 4C       		.byte	0x4c
 1812 0602 0D       		.uleb128 0xd
 1813 0603 22020000 		.4byte	.LASF93
 1814 0607 07       		.byte	0x7
 1815 0608 DB       		.byte	0xdb
 1816 0609 93000000 		.4byte	0x93
 1817 060d 50       		.byte	0x50
 1818 060e 0D       		.uleb128 0xd
 1819 060f 86000000 		.4byte	.LASF94
 1820 0613 07       		.byte	0x7
 1821 0614 DE       		.byte	0xde
 1822 0615 5D060000 		.4byte	0x65d
 1823 0619 54       		.byte	0x54
 1824 061a 0D       		.uleb128 0xd
ARM GAS  C:\Users\25521\AppData\Local\Temp\ccoR8V9M.s 			page 33


 1825 061b 05050000 		.4byte	.LASF95
 1826 061f 07       		.byte	0x7
 1827 0620 E2       		.byte	0xe2
 1828 0621 10010000 		.4byte	0x110
 1829 0625 58       		.byte	0x58
 1830 0626 0D       		.uleb128 0xd
 1831 0627 BF060000 		.4byte	.LASF96
 1832 062b 07       		.byte	0x7
 1833 062c E4       		.byte	0xe4
 1834 062d 05010000 		.4byte	0x105
 1835 0631 5C       		.byte	0x5c
 1836 0632 0D       		.uleb128 0xd
 1837 0633 23050000 		.4byte	.LASF97
 1838 0637 07       		.byte	0x7
 1839 0638 E5       		.byte	0xe5
 1840 0639 5D000000 		.4byte	0x5d
 1841 063d 64       		.byte	0x64
 1842 063e 00       		.byte	0
 1843 063f 18       		.uleb128 0x18
 1844 0640 5D000000 		.4byte	0x5d
 1845 0644 5D060000 		.4byte	0x65d
 1846 0648 13       		.uleb128 0x13
 1847 0649 5D060000 		.4byte	0x65d
 1848 064d 13       		.uleb128 0x13
 1849 064e 1B010000 		.4byte	0x11b
 1850 0652 13       		.uleb128 0x13
 1851 0653 1D010000 		.4byte	0x11d
 1852 0657 13       		.uleb128 0x13
 1853 0658 5D000000 		.4byte	0x5d
 1854 065c 00       		.byte	0
 1855 065d 05       		.uleb128 0x5
 1856 065e 04       		.byte	0x4
 1857 065f 68060000 		.4byte	0x668
 1858 0663 0F       		.uleb128 0xf
 1859 0664 5D060000 		.4byte	0x65d
 1860 0668 19       		.uleb128 0x19
 1861 0669 37070000 		.4byte	.LASF98
 1862 066d 2804     		.2byte	0x428
 1863 066f 07       		.byte	0x7
 1864 0670 3902     		.2byte	0x239
 1865 0672 9A070000 		.4byte	0x79a
 1866 0676 1A       		.uleb128 0x1a
 1867 0677 AF070000 		.4byte	.LASF99
 1868 067b 07       		.byte	0x7
 1869 067c 3B02     		.2byte	0x23b
 1870 067e 5D000000 		.4byte	0x5d
 1871 0682 00       		.byte	0
 1872 0683 1A       		.uleb128 0x1a
 1873 0684 ED010000 		.4byte	.LASF100
 1874 0688 07       		.byte	0x7
 1875 0689 4002     		.2byte	0x240
 1876 068b 6F080000 		.4byte	0x86f
 1877 068f 04       		.byte	0x4
 1878 0690 1A       		.uleb128 0x1a
 1879 0691 3B040000 		.4byte	.LASF101
 1880 0695 07       		.byte	0x7
 1881 0696 4002     		.2byte	0x240
ARM GAS  C:\Users\25521\AppData\Local\Temp\ccoR8V9M.s 			page 34


 1882 0698 6F080000 		.4byte	0x86f
 1883 069c 08       		.byte	0x8
 1884 069d 1A       		.uleb128 0x1a
 1885 069e 9B020000 		.4byte	.LASF102
 1886 06a2 07       		.byte	0x7
 1887 06a3 4002     		.2byte	0x240
 1888 06a5 6F080000 		.4byte	0x86f
 1889 06a9 0C       		.byte	0xc
 1890 06aa 1A       		.uleb128 0x1a
 1891 06ab E0060000 		.4byte	.LASF103
 1892 06af 07       		.byte	0x7
 1893 06b0 4202     		.2byte	0x242
 1894 06b2 5D000000 		.4byte	0x5d
 1895 06b6 10       		.byte	0x10
 1896 06b7 1A       		.uleb128 0x1a
 1897 06b8 54000000 		.4byte	.LASF104
 1898 06bc 07       		.byte	0x7
 1899 06bd 4302     		.2byte	0x243
 1900 06bf 510A0000 		.4byte	0xa51
 1901 06c3 14       		.byte	0x14
 1902 06c4 1A       		.uleb128 0x1a
 1903 06c5 05070000 		.4byte	.LASF105
 1904 06c9 07       		.byte	0x7
 1905 06ca 4602     		.2byte	0x246
 1906 06cc 5D000000 		.4byte	0x5d
 1907 06d0 30       		.byte	0x30
 1908 06d1 1A       		.uleb128 0x1a
 1909 06d2 F3060000 		.4byte	.LASF106
 1910 06d6 07       		.byte	0x7
 1911 06d7 4702     		.2byte	0x247
 1912 06d9 660A0000 		.4byte	0xa66
 1913 06dd 34       		.byte	0x34
 1914 06de 1A       		.uleb128 0x1a
 1915 06df B2050000 		.4byte	.LASF107
 1916 06e3 07       		.byte	0x7
 1917 06e4 4902     		.2byte	0x249
 1918 06e6 5D000000 		.4byte	0x5d
 1919 06ea 38       		.byte	0x38
 1920 06eb 1A       		.uleb128 0x1a
 1921 06ec FB060000 		.4byte	.LASF108
 1922 06f0 07       		.byte	0x7
 1923 06f1 4B02     		.2byte	0x24b
 1924 06f3 770A0000 		.4byte	0xa77
 1925 06f7 3C       		.byte	0x3c
 1926 06f8 1A       		.uleb128 0x1a
 1927 06f9 2B050000 		.4byte	.LASF109
 1928 06fd 07       		.byte	0x7
 1929 06fe 4E02     		.2byte	0x24e
 1930 0700 B0030000 		.4byte	0x3b0
 1931 0704 40       		.byte	0x40
 1932 0705 1A       		.uleb128 0x1a
 1933 0706 C6020000 		.4byte	.LASF110
 1934 070a 07       		.byte	0x7
 1935 070b 4F02     		.2byte	0x24f
 1936 070d 5D000000 		.4byte	0x5d
 1937 0711 44       		.byte	0x44
 1938 0712 1A       		.uleb128 0x1a
ARM GAS  C:\Users\25521\AppData\Local\Temp\ccoR8V9M.s 			page 35


 1939 0713 9F090000 		.4byte	.LASF111
 1940 0717 07       		.byte	0x7
 1941 0718 5002     		.2byte	0x250
 1942 071a B0030000 		.4byte	0x3b0
 1943 071e 48       		.byte	0x48
 1944 071f 1A       		.uleb128 0x1a
 1945 0720 DD050000 		.4byte	.LASF112
 1946 0724 07       		.byte	0x7
 1947 0725 5102     		.2byte	0x251
 1948 0727 7D0A0000 		.4byte	0xa7d
 1949 072b 4C       		.byte	0x4c
 1950 072c 1A       		.uleb128 0x1a
 1951 072d 4A040000 		.4byte	.LASF113
 1952 0731 07       		.byte	0x7
 1953 0732 5402     		.2byte	0x254
 1954 0734 5D000000 		.4byte	0x5d
 1955 0738 50       		.byte	0x50
 1956 0739 1A       		.uleb128 0x1a
 1957 073a 12060000 		.4byte	.LASF114
 1958 073e 07       		.byte	0x7
 1959 073f 5502     		.2byte	0x255
 1960 0741 1D010000 		.4byte	0x11d
 1961 0745 54       		.byte	0x54
 1962 0746 1A       		.uleb128 0x1a
 1963 0747 44060000 		.4byte	.LASF115
 1964 074b 07       		.byte	0x7
 1965 074c 7802     		.2byte	0x278
 1966 074e 2F0A0000 		.4byte	0xa2f
 1967 0752 58       		.byte	0x58
 1968 0753 1B       		.uleb128 0x1b
 1969 0754 AA050000 		.4byte	.LASF75
 1970 0758 07       		.byte	0x7
 1971 0759 7C02     		.2byte	0x27c
 1972 075b CD040000 		.4byte	0x4cd
 1973 075f 4801     		.2byte	0x148
 1974 0761 1B       		.uleb128 0x1b
 1975 0762 93040000 		.4byte	.LASF116
 1976 0766 07       		.byte	0x7
 1977 0767 7D02     		.2byte	0x27d
 1978 0769 8F040000 		.4byte	0x48f
 1979 076d 4C01     		.2byte	0x14c
 1980 076f 1B       		.uleb128 0x1b
 1981 0770 76040000 		.4byte	.LASF117
 1982 0774 07       		.byte	0x7
 1983 0775 8102     		.2byte	0x281
 1984 0777 8E0A0000 		.4byte	0xa8e
 1985 077b DC02     		.2byte	0x2dc
 1986 077d 1B       		.uleb128 0x1b
 1987 077e B5010000 		.4byte	.LASF118
 1988 0782 07       		.byte	0x7
 1989 0783 8602     		.2byte	0x286
 1990 0785 34080000 		.4byte	0x834
 1991 0789 E002     		.2byte	0x2e0
 1992 078b 1B       		.uleb128 0x1b
 1993 078c 98010000 		.4byte	.LASF119
 1994 0790 07       		.byte	0x7
 1995 0791 8802     		.2byte	0x288
ARM GAS  C:\Users\25521\AppData\Local\Temp\ccoR8V9M.s 			page 36


 1996 0793 9A0A0000 		.4byte	0xa9a
 1997 0797 EC02     		.2byte	0x2ec
 1998 0799 00       		.byte	0
 1999 079a 05       		.uleb128 0x5
 2000 079b 04       		.byte	0x4
 2001 079c 3F060000 		.4byte	0x63f
 2002 07a0 18       		.uleb128 0x18
 2003 07a1 5D000000 		.4byte	0x5d
 2004 07a5 BE070000 		.4byte	0x7be
 2005 07a9 13       		.uleb128 0x13
 2006 07aa 5D060000 		.4byte	0x65d
 2007 07ae 13       		.uleb128 0x13
 2008 07af 1B010000 		.4byte	0x11b
 2009 07b3 13       		.uleb128 0x13
 2010 07b4 BE070000 		.4byte	0x7be
 2011 07b8 13       		.uleb128 0x13
 2012 07b9 5D000000 		.4byte	0x5d
 2013 07bd 00       		.byte	0
 2014 07be 05       		.uleb128 0x5
 2015 07bf 04       		.byte	0x4
 2016 07c0 2A010000 		.4byte	0x12a
 2017 07c4 05       		.uleb128 0x5
 2018 07c5 04       		.byte	0x4
 2019 07c6 A0070000 		.4byte	0x7a0
 2020 07ca 18       		.uleb128 0x18
 2021 07cb 9E000000 		.4byte	0x9e
 2022 07cf E8070000 		.4byte	0x7e8
 2023 07d3 13       		.uleb128 0x13
 2024 07d4 5D060000 		.4byte	0x65d
 2025 07d8 13       		.uleb128 0x13
 2026 07d9 1B010000 		.4byte	0x11b
 2027 07dd 13       		.uleb128 0x13
 2028 07de 9E000000 		.4byte	0x9e
 2029 07e2 13       		.uleb128 0x13
 2030 07e3 5D000000 		.4byte	0x5d
 2031 07e7 00       		.byte	0
 2032 07e8 05       		.uleb128 0x5
 2033 07e9 04       		.byte	0x4
 2034 07ea CA070000 		.4byte	0x7ca
 2035 07ee 18       		.uleb128 0x18
 2036 07ef 5D000000 		.4byte	0x5d
 2037 07f3 02080000 		.4byte	0x802
 2038 07f7 13       		.uleb128 0x13
 2039 07f8 5D060000 		.4byte	0x65d
 2040 07fc 13       		.uleb128 0x13
 2041 07fd 1B010000 		.4byte	0x11b
 2042 0801 00       		.byte	0
 2043 0802 05       		.uleb128 0x5
 2044 0803 04       		.byte	0x4
 2045 0804 EE070000 		.4byte	0x7ee
 2046 0808 0A       		.uleb128 0xa
 2047 0809 2C000000 		.4byte	0x2c
 2048 080d 18080000 		.4byte	0x818
 2049 0811 0B       		.uleb128 0xb
 2050 0812 64000000 		.4byte	0x64
 2051 0816 02       		.byte	0x2
 2052 0817 00       		.byte	0
ARM GAS  C:\Users\25521\AppData\Local\Temp\ccoR8V9M.s 			page 37


 2053 0818 0A       		.uleb128 0xa
 2054 0819 2C000000 		.4byte	0x2c
 2055 081d 28080000 		.4byte	0x828
 2056 0821 0B       		.uleb128 0xb
 2057 0822 64000000 		.4byte	0x64
 2058 0826 00       		.byte	0
 2059 0827 00       		.byte	0
 2060 0828 07       		.uleb128 0x7
 2061 0829 A5060000 		.4byte	.LASF120
 2062 082d 07       		.byte	0x7
 2063 082e 1F01     		.2byte	0x11f
 2064 0830 15050000 		.4byte	0x515
 2065 0834 1C       		.uleb128 0x1c
 2066 0835 BB080000 		.4byte	.LASF121
 2067 0839 0C       		.byte	0xc
 2068 083a 07       		.byte	0x7
 2069 083b 2301     		.2byte	0x123
 2070 083d 69080000 		.4byte	0x869
 2071 0841 1A       		.uleb128 0x1a
 2072 0842 BA020000 		.4byte	.LASF56
 2073 0846 07       		.byte	0x7
 2074 0847 2501     		.2byte	0x125
 2075 0849 69080000 		.4byte	0x869
 2076 084d 00       		.byte	0
 2077 084e 1A       		.uleb128 0x1a
 2078 084f 6F040000 		.4byte	.LASF122
 2079 0853 07       		.byte	0x7
 2080 0854 2601     		.2byte	0x126
 2081 0856 5D000000 		.4byte	0x5d
 2082 085a 04       		.byte	0x4
 2083 085b 1A       		.uleb128 0x1a
 2084 085c 9F060000 		.4byte	.LASF123
 2085 0860 07       		.byte	0x7
 2086 0861 2701     		.2byte	0x127
 2087 0863 6F080000 		.4byte	0x86f
 2088 0867 08       		.byte	0x8
 2089 0868 00       		.byte	0
 2090 0869 05       		.uleb128 0x5
 2091 086a 04       		.byte	0x4
 2092 086b 34080000 		.4byte	0x834
 2093 086f 05       		.uleb128 0x5
 2094 0870 04       		.byte	0x4
 2095 0871 28080000 		.4byte	0x828
 2096 0875 1C       		.uleb128 0x1c
 2097 0876 3F000000 		.4byte	.LASF124
 2098 087a 0E       		.byte	0xe
 2099 087b 07       		.byte	0x7
 2100 087c 3F01     		.2byte	0x13f
 2101 087e AA080000 		.4byte	0x8aa
 2102 0882 1A       		.uleb128 0x1a
 2103 0883 DF070000 		.4byte	.LASF125
 2104 0887 07       		.byte	0x7
 2105 0888 4001     		.2byte	0x140
 2106 088a AA080000 		.4byte	0x8aa
 2107 088e 00       		.byte	0
 2108 088f 1A       		.uleb128 0x1a
 2109 0890 F3070000 		.4byte	.LASF126
ARM GAS  C:\Users\25521\AppData\Local\Temp\ccoR8V9M.s 			page 38


 2110 0894 07       		.byte	0x7
 2111 0895 4101     		.2byte	0x141
 2112 0897 AA080000 		.4byte	0x8aa
 2113 089b 06       		.byte	0x6
 2114 089c 1A       		.uleb128 0x1a
 2115 089d 71080000 		.4byte	.LASF127
 2116 08a1 07       		.byte	0x7
 2117 08a2 4201     		.2byte	0x142
 2118 08a4 3A000000 		.4byte	0x3a
 2119 08a8 0C       		.byte	0xc
 2120 08a9 00       		.byte	0
 2121 08aa 0A       		.uleb128 0xa
 2122 08ab 3A000000 		.4byte	0x3a
 2123 08af BA080000 		.4byte	0x8ba
 2124 08b3 0B       		.uleb128 0xb
 2125 08b4 64000000 		.4byte	0x64
 2126 08b8 02       		.byte	0x2
 2127 08b9 00       		.byte	0
 2128 08ba 1D       		.uleb128 0x1d
 2129 08bb D0       		.byte	0xd0
 2130 08bc 07       		.byte	0x7
 2131 08bd 5902     		.2byte	0x259
 2132 08bf BB090000 		.4byte	0x9bb
 2133 08c3 1A       		.uleb128 0x1a
 2134 08c4 9F080000 		.4byte	.LASF128
 2135 08c8 07       		.byte	0x7
 2136 08c9 5B02     		.2byte	0x25b
 2137 08cb 64000000 		.4byte	0x64
 2138 08cf 00       		.byte	0
 2139 08d0 1A       		.uleb128 0x1a
 2140 08d1 56020000 		.4byte	.LASF129
 2141 08d5 07       		.byte	0x7
 2142 08d6 5C02     		.2byte	0x25c
 2143 08d8 1D010000 		.4byte	0x11d
 2144 08dc 04       		.byte	0x4
 2145 08dd 1A       		.uleb128 0x1a
 2146 08de BB040000 		.4byte	.LASF130
 2147 08e2 07       		.byte	0x7
 2148 08e3 5D02     		.2byte	0x25d
 2149 08e5 BB090000 		.4byte	0x9bb
 2150 08e9 08       		.byte	0x8
 2151 08ea 1A       		.uleb128 0x1a
 2152 08eb 76090000 		.4byte	.LASF131
 2153 08ef 07       		.byte	0x7
 2154 08f0 5E02     		.2byte	0x25e
 2155 08f2 C6030000 		.4byte	0x3c6
 2156 08f6 24       		.byte	0x24
 2157 08f7 1A       		.uleb128 0x1a
 2158 08f8 AB020000 		.4byte	.LASF132
 2159 08fc 07       		.byte	0x7
 2160 08fd 5F02     		.2byte	0x25f
 2161 08ff 5D000000 		.4byte	0x5d
 2162 0903 48       		.byte	0x48
 2163 0904 1A       		.uleb128 0x1a
 2164 0905 C8060000 		.4byte	.LASF133
 2165 0909 07       		.byte	0x7
 2166 090a 6002     		.2byte	0x260
ARM GAS  C:\Users\25521\AppData\Local\Temp\ccoR8V9M.s 			page 39


 2167 090c 56000000 		.4byte	0x56
 2168 0910 50       		.byte	0x50
 2169 0911 1A       		.uleb128 0x1a
 2170 0912 8C090000 		.4byte	.LASF134
 2171 0916 07       		.byte	0x7
 2172 0917 6102     		.2byte	0x261
 2173 0919 75080000 		.4byte	0x875
 2174 091d 58       		.byte	0x58
 2175 091e 1A       		.uleb128 0x1a
 2176 091f D3060000 		.4byte	.LASF135
 2177 0923 07       		.byte	0x7
 2178 0924 6202     		.2byte	0x262
 2179 0926 05010000 		.4byte	0x105
 2180 092a 68       		.byte	0x68
 2181 092b 1A       		.uleb128 0x1a
 2182 092c 91090000 		.4byte	.LASF136
 2183 0930 07       		.byte	0x7
 2184 0931 6302     		.2byte	0x263
 2185 0933 05010000 		.4byte	0x105
 2186 0937 70       		.byte	0x70
 2187 0938 1A       		.uleb128 0x1a
 2188 0939 04060000 		.4byte	.LASF137
 2189 093d 07       		.byte	0x7
 2190 093e 6402     		.2byte	0x264
 2191 0940 05010000 		.4byte	0x105
 2192 0944 78       		.byte	0x78
 2193 0945 1A       		.uleb128 0x1a
 2194 0946 F1080000 		.4byte	.LASF138
 2195 094a 07       		.byte	0x7
 2196 094b 6502     		.2byte	0x265
 2197 094d CB090000 		.4byte	0x9cb
 2198 0951 80       		.byte	0x80
 2199 0952 1A       		.uleb128 0x1a
 2200 0953 AF040000 		.4byte	.LASF139
 2201 0957 07       		.byte	0x7
 2202 0958 6602     		.2byte	0x266
 2203 095a DB090000 		.4byte	0x9db
 2204 095e 88       		.byte	0x88
 2205 095f 1A       		.uleb128 0x1a
 2206 0960 79000000 		.4byte	.LASF140
 2207 0964 07       		.byte	0x7
 2208 0965 6702     		.2byte	0x267
 2209 0967 5D000000 		.4byte	0x5d
 2210 096b A0       		.byte	0xa0
 2211 096c 1A       		.uleb128 0x1a
 2212 096d 63020000 		.4byte	.LASF141
 2213 0971 07       		.byte	0x7
 2214 0972 6802     		.2byte	0x268
 2215 0974 05010000 		.4byte	0x105
 2216 0978 A4       		.byte	0xa4
 2217 0979 1A       		.uleb128 0x1a
 2218 097a 26010000 		.4byte	.LASF142
 2219 097e 07       		.byte	0x7
 2220 097f 6902     		.2byte	0x269
 2221 0981 05010000 		.4byte	0x105
 2222 0985 AC       		.byte	0xac
 2223 0986 1A       		.uleb128 0x1a
ARM GAS  C:\Users\25521\AppData\Local\Temp\ccoR8V9M.s 			page 40


 2224 0987 45020000 		.4byte	.LASF143
 2225 098b 07       		.byte	0x7
 2226 098c 6A02     		.2byte	0x26a
 2227 098e 05010000 		.4byte	0x105
 2228 0992 B4       		.byte	0xb4
 2229 0993 1A       		.uleb128 0x1a
 2230 0994 94000000 		.4byte	.LASF144
 2231 0998 07       		.byte	0x7
 2232 0999 6B02     		.2byte	0x26b
 2233 099b 05010000 		.4byte	0x105
 2234 099f BC       		.byte	0xbc
 2235 09a0 1A       		.uleb128 0x1a
 2236 09a1 B0000000 		.4byte	.LASF145
 2237 09a5 07       		.byte	0x7
 2238 09a6 6C02     		.2byte	0x26c
 2239 09a8 05010000 		.4byte	0x105
 2240 09ac C4       		.byte	0xc4
 2241 09ad 1A       		.uleb128 0x1a
 2242 09ae 7B060000 		.4byte	.LASF146
 2243 09b2 07       		.byte	0x7
 2244 09b3 6D02     		.2byte	0x26d
 2245 09b5 5D000000 		.4byte	0x5d
 2246 09b9 CC       		.byte	0xcc
 2247 09ba 00       		.byte	0
 2248 09bb 0A       		.uleb128 0xa
 2249 09bc 23010000 		.4byte	0x123
 2250 09c0 CB090000 		.4byte	0x9cb
 2251 09c4 0B       		.uleb128 0xb
 2252 09c5 64000000 		.4byte	0x64
 2253 09c9 19       		.byte	0x19
 2254 09ca 00       		.byte	0
 2255 09cb 0A       		.uleb128 0xa
 2256 09cc 23010000 		.4byte	0x123
 2257 09d0 DB090000 		.4byte	0x9db
 2258 09d4 0B       		.uleb128 0xb
 2259 09d5 64000000 		.4byte	0x64
 2260 09d9 07       		.byte	0x7
 2261 09da 00       		.byte	0
 2262 09db 0A       		.uleb128 0xa
 2263 09dc 23010000 		.4byte	0x123
 2264 09e0 EB090000 		.4byte	0x9eb
 2265 09e4 0B       		.uleb128 0xb
 2266 09e5 64000000 		.4byte	0x64
 2267 09e9 17       		.byte	0x17
 2268 09ea 00       		.byte	0
 2269 09eb 1D       		.uleb128 0x1d
 2270 09ec F0       		.byte	0xf0
 2271 09ed 07       		.byte	0x7
 2272 09ee 7202     		.2byte	0x272
 2273 09f0 0F0A0000 		.4byte	0xa0f
 2274 09f4 1A       		.uleb128 0x1a
 2275 09f5 7F050000 		.4byte	.LASF147
 2276 09f9 07       		.byte	0x7
 2277 09fa 7502     		.2byte	0x275
 2278 09fc 0F0A0000 		.4byte	0xa0f
 2279 0a00 00       		.byte	0
 2280 0a01 1A       		.uleb128 0x1a
ARM GAS  C:\Users\25521\AppData\Local\Temp\ccoR8V9M.s 			page 41


 2281 0a02 E8080000 		.4byte	.LASF148
 2282 0a06 07       		.byte	0x7
 2283 0a07 7602     		.2byte	0x276
 2284 0a09 1F0A0000 		.4byte	0xa1f
 2285 0a0d 78       		.byte	0x78
 2286 0a0e 00       		.byte	0
 2287 0a0f 0A       		.uleb128 0xa
 2288 0a10 0F050000 		.4byte	0x50f
 2289 0a14 1F0A0000 		.4byte	0xa1f
 2290 0a18 0B       		.uleb128 0xb
 2291 0a19 64000000 		.4byte	0x64
 2292 0a1d 1D       		.byte	0x1d
 2293 0a1e 00       		.byte	0
 2294 0a1f 0A       		.uleb128 0xa
 2295 0a20 64000000 		.4byte	0x64
 2296 0a24 2F0A0000 		.4byte	0xa2f
 2297 0a28 0B       		.uleb128 0xb
 2298 0a29 64000000 		.4byte	0x64
 2299 0a2d 1D       		.byte	0x1d
 2300 0a2e 00       		.byte	0
 2301 0a2f 1E       		.uleb128 0x1e
 2302 0a30 F0       		.byte	0xf0
 2303 0a31 07       		.byte	0x7
 2304 0a32 5702     		.2byte	0x257
 2305 0a34 510A0000 		.4byte	0xa51
 2306 0a38 1F       		.uleb128 0x1f
 2307 0a39 37070000 		.4byte	.LASF98
 2308 0a3d 07       		.byte	0x7
 2309 0a3e 6E02     		.2byte	0x26e
 2310 0a40 BA080000 		.4byte	0x8ba
 2311 0a44 1F       		.uleb128 0x1f
 2312 0a45 4B090000 		.4byte	.LASF149
 2313 0a49 07       		.byte	0x7
 2314 0a4a 7702     		.2byte	0x277
 2315 0a4c EB090000 		.4byte	0x9eb
 2316 0a50 00       		.byte	0
 2317 0a51 0A       		.uleb128 0xa
 2318 0a52 23010000 		.4byte	0x123
 2319 0a56 610A0000 		.4byte	0xa61
 2320 0a5a 0B       		.uleb128 0xb
 2321 0a5b 64000000 		.4byte	0x64
 2322 0a5f 18       		.byte	0x18
 2323 0a60 00       		.byte	0
 2324 0a61 06       		.uleb128 0x6
 2325 0a62 10010000 		.4byte	.LASF151
 2326 0a66 05       		.uleb128 0x5
 2327 0a67 04       		.byte	0x4
 2328 0a68 610A0000 		.4byte	0xa61
 2329 0a6c 12       		.uleb128 0x12
 2330 0a6d 770A0000 		.4byte	0xa77
 2331 0a71 13       		.uleb128 0x13
 2332 0a72 5D060000 		.4byte	0x65d
 2333 0a76 00       		.byte	0
 2334 0a77 05       		.uleb128 0x5
 2335 0a78 04       		.byte	0x4
 2336 0a79 6C0A0000 		.4byte	0xa6c
 2337 0a7d 05       		.uleb128 0x5
ARM GAS  C:\Users\25521\AppData\Local\Temp\ccoR8V9M.s 			page 42


 2338 0a7e 04       		.byte	0x4
 2339 0a7f B0030000 		.4byte	0x3b0
 2340 0a83 12       		.uleb128 0x12
 2341 0a84 8E0A0000 		.4byte	0xa8e
 2342 0a88 13       		.uleb128 0x13
 2343 0a89 5D000000 		.4byte	0x5d
 2344 0a8d 00       		.byte	0
 2345 0a8e 05       		.uleb128 0x5
 2346 0a8f 04       		.byte	0x4
 2347 0a90 940A0000 		.4byte	0xa94
 2348 0a94 05       		.uleb128 0x5
 2349 0a95 04       		.byte	0x4
 2350 0a96 830A0000 		.4byte	0xa83
 2351 0a9a 0A       		.uleb128 0xa
 2352 0a9b 28080000 		.4byte	0x828
 2353 0a9f AA0A0000 		.4byte	0xaaa
 2354 0aa3 0B       		.uleb128 0xb
 2355 0aa4 64000000 		.4byte	0x64
 2356 0aa8 02       		.byte	0x2
 2357 0aa9 00       		.byte	0
 2358 0aaa 20       		.uleb128 0x20
 2359 0aab 8D070000 		.4byte	.LASF152
 2360 0aaf 07       		.byte	0x7
 2361 0ab0 0703     		.2byte	0x307
 2362 0ab2 5D060000 		.4byte	0x65d
 2363 0ab6 20       		.uleb128 0x20
 2364 0ab7 85080000 		.4byte	.LASF153
 2365 0abb 07       		.byte	0x7
 2366 0abc 0803     		.2byte	0x308
 2367 0abe 63060000 		.4byte	0x663
 2368 0ac2 21       		.uleb128 0x21
 2369 0ac3 C1080000 		.4byte	.LASF155
 2370 0ac7 01       		.byte	0x1
 2371 0ac8 AD       		.byte	0xad
 2372 0ac9 00000000 		.4byte	.LFB12
 2373 0acd 40000000 		.4byte	.LFE12-.LFB12
 2374 0ad1 01       		.uleb128 0x1
 2375 0ad2 9C       		.byte	0x9c
 2376 0ad3 2E0B0000 		.4byte	0xb2e
 2377 0ad7 22       		.uleb128 0x22
 2378 0ad8 62757300 		.ascii	"bus\000"
 2379 0adc 01       		.byte	0x1
 2380 0add AD       		.byte	0xad
 2381 0ade 3B030000 		.4byte	0x33b
 2382 0ae2 00000000 		.4byte	.LLST38
 2383 0ae6 22       		.uleb128 0x22
 2384 0ae7 636200   		.ascii	"cb\000"
 2385 0aea 01       		.byte	0x1
 2386 0aeb AE       		.byte	0xae
 2387 0aec 2E0B0000 		.4byte	0xb2e
 2388 0af0 37000000 		.4byte	.LLST39
 2389 0af4 23       		.uleb128 0x23
 2390 0af5 7E080000 		.4byte	.LASF154
 2391 0af9 01       		.byte	0x1
 2392 0afa AF       		.byte	0xaf
 2393 0afb 41030000 		.4byte	0x341
 2394 0aff 7D000000 		.4byte	.LLST40
ARM GAS  C:\Users\25521\AppData\Local\Temp\ccoR8V9M.s 			page 43


 2395 0b03 22       		.uleb128 0x22
 2396 0b04 61726700 		.ascii	"arg\000"
 2397 0b08 01       		.byte	0x1
 2398 0b09 B2       		.byte	0xb2
 2399 0b0a 1B010000 		.4byte	0x11b
 2400 0b0e B4000000 		.4byte	.LLST41
 2401 0b12 24       		.uleb128 0x24
 2402 0b13 1A000000 		.4byte	.LVL101
 2403 0b17 3E110000 		.4byte	0x113e
 2404 0b1b 25       		.uleb128 0x25
 2405 0b1c 38000000 		.4byte	.LVL103
 2406 0b20 49110000 		.4byte	0x1149
 2407 0b24 24       		.uleb128 0x24
 2408 0b25 3C000000 		.4byte	.LVL104
 2409 0b29 54110000 		.4byte	0x1154
 2410 0b2d 00       		.byte	0
 2411 0b2e 05       		.uleb128 0x5
 2412 0b2f 04       		.byte	0x4
 2413 0b30 47030000 		.4byte	0x347
 2414 0b34 26       		.uleb128 0x26
 2415 0b35 56080000 		.4byte	.LASF162
 2416 0b39 01       		.byte	0x1
 2417 0b3a 9F       		.byte	0x9f
 2418 0b3b 58020000 		.4byte	0x258
 2419 0b3f 00000000 		.4byte	.LFB11
 2420 0b43 38000000 		.4byte	.LFE11-.LFB11
 2421 0b47 01       		.uleb128 0x1
 2422 0b48 9C       		.byte	0x9c
 2423 0b49 8E0B0000 		.4byte	0xb8e
 2424 0b4d 23       		.uleb128 0x23
 2425 0b4e AF010000 		.4byte	.LASF40
 2426 0b52 01       		.byte	0x1
 2427 0b53 9F       		.byte	0x9f
 2428 0b54 15030000 		.4byte	0x315
 2429 0b58 EB000000 		.4byte	.LLST37
 2430 0b5c 27       		.uleb128 0x27
 2431 0b5d 72657300 		.ascii	"res\000"
 2432 0b61 01       		.byte	0x1
 2433 0b62 A1       		.byte	0xa1
 2434 0b63 58020000 		.4byte	0x258
 2435 0b67 01       		.uleb128 0x1
 2436 0b68 56       		.byte	0x56
 2437 0b69 24       		.uleb128 0x24
 2438 0b6a 12000000 		.4byte	.LVL93
 2439 0b6e 3E110000 		.4byte	0x113e
 2440 0b72 24       		.uleb128 0x24
 2441 0b73 18000000 		.4byte	.LVL94
 2442 0b77 5D110000 		.4byte	0x115d
 2443 0b7b 24       		.uleb128 0x24
 2444 0b7c 20000000 		.4byte	.LVL96
 2445 0b80 49110000 		.4byte	0x1149
 2446 0b84 24       		.uleb128 0x24
 2447 0b85 32000000 		.4byte	.LVL98
 2448 0b89 54110000 		.4byte	0x1154
 2449 0b8d 00       		.byte	0
 2450 0b8e 21       		.uleb128 0x21
 2451 0b8f 29090000 		.4byte	.LASF156
ARM GAS  C:\Users\25521\AppData\Local\Temp\ccoR8V9M.s 			page 44


 2452 0b93 01       		.byte	0x1
 2453 0b94 8F       		.byte	0x8f
 2454 0b95 00000000 		.4byte	.LFB10
 2455 0b99 48000000 		.4byte	.LFE10-.LFB10
 2456 0b9d 01       		.uleb128 0x1
 2457 0b9e 9C       		.byte	0x9c
 2458 0b9f FE0B0000 		.4byte	0xbfe
 2459 0ba3 23       		.uleb128 0x23
 2460 0ba4 08010000 		.4byte	.LASF157
 2461 0ba8 01       		.byte	0x1
 2462 0ba9 8F       		.byte	0x8f
 2463 0baa FE0B0000 		.4byte	0xbfe
 2464 0bae 09010000 		.4byte	.LLST34
 2465 0bb2 23       		.uleb128 0x23
 2466 0bb3 AF010000 		.4byte	.LASF40
 2467 0bb7 01       		.byte	0x1
 2468 0bb8 90       		.byte	0x90
 2469 0bb9 15030000 		.4byte	0x315
 2470 0bbd 40010000 		.4byte	.LLST35
 2471 0bc1 23       		.uleb128 0x23
 2472 0bc2 03020000 		.4byte	.LASF158
 2473 0bc6 01       		.byte	0x1
 2474 0bc7 91       		.byte	0x91
 2475 0bc8 58020000 		.4byte	0x258
 2476 0bcc 77010000 		.4byte	.LLST36
 2477 0bd0 24       		.uleb128 0x24
 2478 0bd1 16000000 		.4byte	.LVL85
 2479 0bd5 3E110000 		.4byte	0x113e
 2480 0bd9 24       		.uleb128 0x24
 2481 0bda 1C000000 		.4byte	.LVL86
 2482 0bde 3E110000 		.4byte	0x113e
 2483 0be2 24       		.uleb128 0x24
 2484 0be3 2A000000 		.4byte	.LVL87
 2485 0be7 49110000 		.4byte	0x1149
 2486 0beb 25       		.uleb128 0x25
 2487 0bec 3E000000 		.4byte	.LVL89
 2488 0bf0 49110000 		.4byte	0x1149
 2489 0bf4 24       		.uleb128 0x24
 2490 0bf5 42000000 		.4byte	.LVL90
 2491 0bf9 54110000 		.4byte	0x1154
 2492 0bfd 00       		.byte	0
 2493 0bfe 05       		.uleb128 0x5
 2494 0bff 04       		.byte	0x4
 2495 0c00 1B030000 		.4byte	0x31b
 2496 0c04 21       		.uleb128 0x21
 2497 0c05 2A020000 		.4byte	.LASF159
 2498 0c09 01       		.byte	0x1
 2499 0c0a 88       		.byte	0x88
 2500 0c0b 00000000 		.4byte	.LFB9
 2501 0c0f 24000000 		.4byte	.LFE9-.LFB9
 2502 0c13 01       		.uleb128 0x1
 2503 0c14 9C       		.byte	0x9c
 2504 0c15 500C0000 		.4byte	0xc50
 2505 0c19 23       		.uleb128 0x23
 2506 0c1a AF010000 		.4byte	.LASF40
 2507 0c1e 01       		.byte	0x1
 2508 0c1f 88       		.byte	0x88
ARM GAS  C:\Users\25521\AppData\Local\Temp\ccoR8V9M.s 			page 45


 2509 0c20 15030000 		.4byte	0x315
 2510 0c24 AE010000 		.4byte	.LLST31
 2511 0c28 23       		.uleb128 0x23
 2512 0c29 A4090000 		.4byte	.LASF30
 2513 0c2d 01       		.byte	0x1
 2514 0c2e 88       		.byte	0x88
 2515 0c2f 1B010000 		.4byte	0x11b
 2516 0c33 CF010000 		.4byte	.LLST32
 2517 0c37 23       		.uleb128 0x23
 2518 0c38 5D050000 		.4byte	.LASF31
 2519 0c3c 01       		.byte	0x1
 2520 0c3d 89       		.byte	0x89
 2521 0c3e 1B010000 		.4byte	0x11b
 2522 0c42 FC010000 		.4byte	.LLST33
 2523 0c46 24       		.uleb128 0x24
 2524 0c47 1E000000 		.4byte	.LVL82
 2525 0c4b 54110000 		.4byte	0x1154
 2526 0c4f 00       		.byte	0
 2527 0c50 21       		.uleb128 0x21
 2528 0c51 FB080000 		.4byte	.LASF160
 2529 0c55 01       		.byte	0x1
 2530 0c56 7E       		.byte	0x7e
 2531 0c57 00000000 		.4byte	.LFB8
 2532 0c5b 44000000 		.4byte	.LFE8-.LFB8
 2533 0c5f 01       		.uleb128 0x1
 2534 0c60 9C       		.byte	0x9c
 2535 0c61 D10C0000 		.4byte	0xcd1
 2536 0c65 23       		.uleb128 0x23
 2537 0c66 03020000 		.4byte	.LASF158
 2538 0c6a 01       		.byte	0x1
 2539 0c6b 7E       		.byte	0x7e
 2540 0c6c 58020000 		.4byte	0x258
 2541 0c70 1D020000 		.4byte	.LLST28
 2542 0c74 22       		.uleb128 0x22
 2543 0c75 62756600 		.ascii	"buf\000"
 2544 0c79 01       		.byte	0x1
 2545 0c7a 7E       		.byte	0x7e
 2546 0c7b 1B010000 		.4byte	0x11b
 2547 0c7f 54020000 		.4byte	.LLST29
 2548 0c83 23       		.uleb128 0x23
 2549 0c84 75010000 		.4byte	.LASF161
 2550 0c88 01       		.byte	0x1
 2551 0c89 7E       		.byte	0x7e
 2552 0c8a 6B000000 		.4byte	0x6b
 2553 0c8e 8B020000 		.4byte	.LLST30
 2554 0c92 24       		.uleb128 0x24
 2555 0c93 16000000 		.4byte	.LVL74
 2556 0c97 3E110000 		.4byte	0x113e
 2557 0c9b 24       		.uleb128 0x24
 2558 0c9c 1C000000 		.4byte	.LVL75
 2559 0ca0 5D110000 		.4byte	0x115d
 2560 0ca4 28       		.uleb128 0x28
 2561 0ca5 26000000 		.4byte	.LVL76
 2562 0ca9 68110000 		.4byte	0x1168
 2563 0cad BE0C0000 		.4byte	0xcbe
 2564 0cb1 29       		.uleb128 0x29
 2565 0cb2 01       		.uleb128 0x1
ARM GAS  C:\Users\25521\AppData\Local\Temp\ccoR8V9M.s 			page 46


 2566 0cb3 50       		.byte	0x50
 2567 0cb4 02       		.uleb128 0x2
 2568 0cb5 76       		.byte	0x76
 2569 0cb6 00       		.sleb128 0
 2570 0cb7 29       		.uleb128 0x29
 2571 0cb8 01       		.uleb128 0x1
 2572 0cb9 52       		.byte	0x52
 2573 0cba 02       		.uleb128 0x2
 2574 0cbb 77       		.byte	0x77
 2575 0cbc 00       		.sleb128 0
 2576 0cbd 00       		.byte	0
 2577 0cbe 25       		.uleb128 0x25
 2578 0cbf 3A000000 		.4byte	.LVL78
 2579 0cc3 49110000 		.4byte	0x1149
 2580 0cc7 24       		.uleb128 0x24
 2581 0cc8 3E000000 		.4byte	.LVL79
 2582 0ccc 54110000 		.4byte	0x1154
 2583 0cd0 00       		.byte	0
 2584 0cd1 26       		.uleb128 0x26
 2585 0cd2 2E060000 		.4byte	.LASF163
 2586 0cd6 01       		.byte	0x1
 2587 0cd7 6F       		.byte	0x6f
 2588 0cd8 00020000 		.4byte	0x200
 2589 0cdc 00000000 		.4byte	.LFB7
 2590 0ce0 48000000 		.4byte	.LFE7-.LFB7
 2591 0ce4 01       		.uleb128 0x1
 2592 0ce5 9C       		.byte	0x9c
 2593 0ce6 5C0D0000 		.4byte	0xd5c
 2594 0cea 23       		.uleb128 0x23
 2595 0ceb 03020000 		.4byte	.LASF158
 2596 0cef 01       		.byte	0x1
 2597 0cf0 6F       		.byte	0x6f
 2598 0cf1 58020000 		.4byte	0x258
 2599 0cf5 C2020000 		.4byte	.LLST24
 2600 0cf9 22       		.uleb128 0x22
 2601 0cfa 62756600 		.ascii	"buf\000"
 2602 0cfe 01       		.byte	0x1
 2603 0cff 6F       		.byte	0x6f
 2604 0d00 1B010000 		.4byte	0x11b
 2605 0d04 E0020000 		.4byte	.LLST25
 2606 0d08 23       		.uleb128 0x23
 2607 0d09 75010000 		.4byte	.LASF161
 2608 0d0d 01       		.byte	0x1
 2609 0d0e 6F       		.byte	0x6f
 2610 0d0f 6B000000 		.4byte	0x6b
 2611 0d13 FE020000 		.4byte	.LLST26
 2612 0d17 2A       		.uleb128 0x2a
 2613 0d18 B3090000 		.4byte	.LASF164
 2614 0d1c 01       		.byte	0x1
 2615 0d1d 71       		.byte	0x71
 2616 0d1e 00020000 		.4byte	0x200
 2617 0d22 1C030000 		.4byte	.LLST27
 2618 0d26 24       		.uleb128 0x24
 2619 0d27 18000000 		.4byte	.LVL66
 2620 0d2b 3E110000 		.4byte	0x113e
 2621 0d2f 28       		.uleb128 0x28
 2622 0d30 28000000 		.4byte	.LVL68
ARM GAS  C:\Users\25521\AppData\Local\Temp\ccoR8V9M.s 			page 47


 2623 0d34 68110000 		.4byte	0x1168
 2624 0d38 490D0000 		.4byte	0xd49
 2625 0d3c 29       		.uleb128 0x29
 2626 0d3d 01       		.uleb128 0x1
 2627 0d3e 50       		.byte	0x50
 2628 0d3f 02       		.uleb128 0x2
 2629 0d40 77       		.byte	0x77
 2630 0d41 00       		.sleb128 0
 2631 0d42 29       		.uleb128 0x29
 2632 0d43 01       		.uleb128 0x1
 2633 0d44 52       		.byte	0x52
 2634 0d45 02       		.uleb128 0x2
 2635 0d46 78       		.byte	0x78
 2636 0d47 00       		.sleb128 0
 2637 0d48 00       		.byte	0
 2638 0d49 24       		.uleb128 0x24
 2639 0d4a 2E000000 		.4byte	.LVL69
 2640 0d4e 49110000 		.4byte	0x1149
 2641 0d52 24       		.uleb128 0x24
 2642 0d53 42000000 		.4byte	.LVL71
 2643 0d57 54110000 		.4byte	0x1154
 2644 0d5b 00       		.byte	0
 2645 0d5c 26       		.uleb128 0x26
 2646 0d5d C4050000 		.4byte	.LASF165
 2647 0d61 01       		.byte	0x1
 2648 0d62 56       		.byte	0x56
 2649 0d63 00020000 		.4byte	0x200
 2650 0d67 00000000 		.4byte	.LFB6
 2651 0d6b 78000000 		.4byte	.LFE6-.LFB6
 2652 0d6f 01       		.uleb128 0x1
 2653 0d70 9C       		.byte	0x9c
 2654 0d71 090E0000 		.4byte	0xe09
 2655 0d75 23       		.uleb128 0x23
 2656 0d76 03020000 		.4byte	.LASF158
 2657 0d7a 01       		.byte	0x1
 2658 0d7b 56       		.byte	0x56
 2659 0d7c 58020000 		.4byte	0x258
 2660 0d80 47030000 		.4byte	.LLST20
 2661 0d84 22       		.uleb128 0x22
 2662 0d85 62756600 		.ascii	"buf\000"
 2663 0d89 01       		.byte	0x1
 2664 0d8a 56       		.byte	0x56
 2665 0d8b 090E0000 		.4byte	0xe09
 2666 0d8f 65030000 		.4byte	.LLST21
 2667 0d93 23       		.uleb128 0x23
 2668 0d94 75010000 		.4byte	.LASF161
 2669 0d98 01       		.byte	0x1
 2670 0d99 56       		.byte	0x56
 2671 0d9a 6B000000 		.4byte	0x6b
 2672 0d9e AA030000 		.4byte	.LLST22
 2673 0da2 2B       		.uleb128 0x2b
 2674 0da3 7700     		.ascii	"w\000"
 2675 0da5 01       		.byte	0x1
 2676 0da6 62       		.byte	0x62
 2677 0da7 FE0B0000 		.4byte	0xbfe
 2678 0dab EF030000 		.4byte	.LLST23
 2679 0daf 24       		.uleb128 0x24
ARM GAS  C:\Users\25521\AppData\Local\Temp\ccoR8V9M.s 			page 48


 2680 0db0 2A000000 		.4byte	.LVL52
 2681 0db4 3E110000 		.4byte	0x113e
 2682 0db8 28       		.uleb128 0x28
 2683 0db9 34000000 		.4byte	.LVL53
 2684 0dbd 68110000 		.4byte	0x1168
 2685 0dc1 D20D0000 		.4byte	0xdd2
 2686 0dc5 29       		.uleb128 0x29
 2687 0dc6 01       		.uleb128 0x1
 2688 0dc7 51       		.byte	0x51
 2689 0dc8 02       		.uleb128 0x2
 2690 0dc9 77       		.byte	0x77
 2691 0dca 00       		.sleb128 0
 2692 0dcb 29       		.uleb128 0x29
 2693 0dcc 01       		.uleb128 0x1
 2694 0dcd 52       		.byte	0x52
 2695 0dce 02       		.uleb128 0x2
 2696 0dcf 74       		.byte	0x74
 2697 0dd0 00       		.sleb128 0
 2698 0dd1 00       		.byte	0
 2699 0dd2 24       		.uleb128 0x24
 2700 0dd3 40000000 		.4byte	.LVL54
 2701 0dd7 77110000 		.4byte	0x1177
 2702 0ddb 24       		.uleb128 0x24
 2703 0ddc 4C000000 		.4byte	.LVL56
 2704 0de0 3E110000 		.4byte	0x113e
 2705 0de4 24       		.uleb128 0x24
 2706 0de5 58000000 		.4byte	.LVL57
 2707 0de9 77110000 		.4byte	0x1177
 2708 0ded 24       		.uleb128 0x24
 2709 0dee 60000000 		.4byte	.LVL58
 2710 0df2 49110000 		.4byte	0x1149
 2711 0df6 24       		.uleb128 0x24
 2712 0df7 6C000000 		.4byte	.LVL60
 2713 0dfb 49110000 		.4byte	0x1149
 2714 0dff 24       		.uleb128 0x24
 2715 0e00 74000000 		.4byte	.LVL62
 2716 0e04 54110000 		.4byte	0x1154
 2717 0e08 00       		.byte	0
 2718 0e09 05       		.uleb128 0x5
 2719 0e0a 04       		.byte	0x4
 2720 0e0b 0F0E0000 		.4byte	0xe0f
 2721 0e0f 2C       		.uleb128 0x2c
 2722 0e10 26       		.uleb128 0x26
 2723 0e11 0C000000 		.4byte	.LASF166
 2724 0e15 01       		.byte	0x1
 2725 0e16 43       		.byte	0x43
 2726 0e17 58020000 		.4byte	0x258
 2727 0e1b 00000000 		.4byte	.LFB5
 2728 0e1f 50000000 		.4byte	.LFE5-.LFB5
 2729 0e23 01       		.uleb128 0x1
 2730 0e24 9C       		.byte	0x9c
 2731 0e25 C40E0000 		.4byte	0xec4
 2732 0e29 22       		.uleb128 0x22
 2733 0e2a 62757300 		.ascii	"bus\000"
 2734 0e2e 01       		.byte	0x1
 2735 0e2f 43       		.byte	0x43
 2736 0e30 3B030000 		.4byte	0x33b
ARM GAS  C:\Users\25521\AppData\Local\Temp\ccoR8V9M.s 			page 49


 2737 0e34 02040000 		.4byte	.LLST16
 2738 0e38 23       		.uleb128 0x23
 2739 0e39 6A040000 		.4byte	.LASF32
 2740 0e3d 01       		.byte	0x1
 2741 0e3e 43       		.byte	0x43
 2742 0e3f BE070000 		.4byte	0x7be
 2743 0e43 20040000 		.4byte	.LLST17
 2744 0e47 2B       		.uleb128 0x2b
 2745 0e48 72657300 		.ascii	"res\000"
 2746 0e4c 01       		.byte	0x1
 2747 0e4d 45       		.byte	0x45
 2748 0e4e 58020000 		.4byte	0x258
 2749 0e52 3E040000 		.4byte	.LLST18
 2750 0e56 2D       		.uleb128 0x2d
 2751 0e57 0E110000 		.4byte	0x110e
 2752 0e5b 16000000 		.4byte	.LBB10
 2753 0e5f 16000000 		.4byte	.LBE10-.LBB10
 2754 0e63 01       		.byte	0x1
 2755 0e64 4A       		.byte	0x4a
 2756 0e65 9F0E0000 		.4byte	0xe9f
 2757 0e69 2E       		.uleb128 0x2e
 2758 0e6a 1E110000 		.4byte	0x111e
 2759 0e6e 01       		.uleb128 0x1
 2760 0e6f 56       		.byte	0x56
 2761 0e70 2F       		.uleb128 0x2f
 2762 0e71 29110000 		.4byte	0x1129
 2763 0e75 30       		.uleb128 0x30
 2764 0e76 16000000 		.4byte	.LBB11
 2765 0e7a 16000000 		.4byte	.LBE11-.LBB11
 2766 0e7e 31       		.uleb128 0x31
 2767 0e7f 34110000 		.4byte	0x1134
 2768 0e83 73040000 		.4byte	.LLST19
 2769 0e87 32       		.uleb128 0x32
 2770 0e88 28000000 		.4byte	.LVL41
 2771 0e8c 82110000 		.4byte	0x1182
 2772 0e90 29       		.uleb128 0x29
 2773 0e91 01       		.uleb128 0x1
 2774 0e92 50       		.byte	0x50
 2775 0e93 02       		.uleb128 0x2
 2776 0e94 75       		.byte	0x75
 2777 0e95 00       		.sleb128 0
 2778 0e96 29       		.uleb128 0x29
 2779 0e97 01       		.uleb128 0x1
 2780 0e98 51       		.byte	0x51
 2781 0e99 02       		.uleb128 0x2
 2782 0e9a 74       		.byte	0x74
 2783 0e9b 10       		.sleb128 16
 2784 0e9c 00       		.byte	0
 2785 0e9d 00       		.byte	0
 2786 0e9e 00       		.byte	0
 2787 0e9f 24       		.uleb128 0x24
 2788 0ea0 14000000 		.4byte	.LVL36
 2789 0ea4 3E110000 		.4byte	0x113e
 2790 0ea8 24       		.uleb128 0x24
 2791 0ea9 32000000 		.4byte	.LVL43
 2792 0ead 49110000 		.4byte	0x1149
 2793 0eb1 24       		.uleb128 0x24
ARM GAS  C:\Users\25521\AppData\Local\Temp\ccoR8V9M.s 			page 50


 2794 0eb2 46000000 		.4byte	.LVL45
 2795 0eb6 5D110000 		.4byte	0x115d
 2796 0eba 24       		.uleb128 0x24
 2797 0ebb 4C000000 		.4byte	.LVL47
 2798 0ebf 54110000 		.4byte	0x1154
 2799 0ec3 00       		.byte	0
 2800 0ec4 26       		.uleb128 0x26
 2801 0ec5 30080000 		.4byte	.LASF167
 2802 0ec9 01       		.byte	0x1
 2803 0eca 36       		.byte	0x36
 2804 0ecb 58020000 		.4byte	0x258
 2805 0ecf 00000000 		.4byte	.LFB4
 2806 0ed3 48000000 		.4byte	.LFE4-.LFB4
 2807 0ed7 01       		.uleb128 0x1
 2808 0ed8 9C       		.byte	0x9c
 2809 0ed9 6F0F0000 		.4byte	0xf6f
 2810 0edd 22       		.uleb128 0x22
 2811 0ede 62757300 		.ascii	"bus\000"
 2812 0ee2 01       		.byte	0x1
 2813 0ee3 36       		.byte	0x36
 2814 0ee4 3B030000 		.4byte	0x33b
 2815 0ee8 92040000 		.4byte	.LLST12
 2816 0eec 23       		.uleb128 0x23
 2817 0eed 6A040000 		.4byte	.LASF32
 2818 0ef1 01       		.byte	0x1
 2819 0ef2 36       		.byte	0x36
 2820 0ef3 BE070000 		.4byte	0x7be
 2821 0ef7 B0040000 		.4byte	.LLST13
 2822 0efb 33       		.uleb128 0x33
 2823 0efc 72657300 		.ascii	"res\000"
 2824 0f00 01       		.byte	0x1
 2825 0f01 38       		.byte	0x38
 2826 0f02 58020000 		.4byte	0x258
 2827 0f06 2D       		.uleb128 0x2d
 2828 0f07 0E110000 		.4byte	0x110e
 2829 0f0b 16000000 		.4byte	.LBB8
 2830 0f0f 16000000 		.4byte	.LBE8-.LBB8
 2831 0f13 01       		.byte	0x1
 2832 0f14 3C       		.byte	0x3c
 2833 0f15 530F0000 		.4byte	0xf53
 2834 0f19 2E       		.uleb128 0x2e
 2835 0f1a 1E110000 		.4byte	0x111e
 2836 0f1e 01       		.uleb128 0x1
 2837 0f1f 56       		.byte	0x56
 2838 0f20 34       		.uleb128 0x34
 2839 0f21 29110000 		.4byte	0x1129
 2840 0f25 CE040000 		.4byte	.LLST14
 2841 0f29 30       		.uleb128 0x30
 2842 0f2a 16000000 		.4byte	.LBB9
 2843 0f2e 16000000 		.4byte	.LBE9-.LBB9
 2844 0f32 31       		.uleb128 0x31
 2845 0f33 34110000 		.4byte	0x1134
 2846 0f37 E1040000 		.4byte	.LLST15
 2847 0f3b 32       		.uleb128 0x32
 2848 0f3c 28000000 		.4byte	.LVL28
 2849 0f40 82110000 		.4byte	0x1182
 2850 0f44 29       		.uleb128 0x29
ARM GAS  C:\Users\25521\AppData\Local\Temp\ccoR8V9M.s 			page 51


 2851 0f45 01       		.uleb128 0x1
 2852 0f46 50       		.byte	0x50
 2853 0f47 02       		.uleb128 0x2
 2854 0f48 75       		.byte	0x75
 2855 0f49 00       		.sleb128 0
 2856 0f4a 29       		.uleb128 0x29
 2857 0f4b 01       		.uleb128 0x1
 2858 0f4c 51       		.byte	0x51
 2859 0f4d 02       		.uleb128 0x2
 2860 0f4e 74       		.byte	0x74
 2861 0f4f 10       		.sleb128 16
 2862 0f50 00       		.byte	0
 2863 0f51 00       		.byte	0
 2864 0f52 00       		.byte	0
 2865 0f53 24       		.uleb128 0x24
 2866 0f54 14000000 		.4byte	.LVL25
 2867 0f58 3E110000 		.4byte	0x113e
 2868 0f5c 24       		.uleb128 0x24
 2869 0f5d 32000000 		.4byte	.LVL30
 2870 0f61 49110000 		.4byte	0x1149
 2871 0f65 24       		.uleb128 0x24
 2872 0f66 44000000 		.4byte	.LVL32
 2873 0f6a 54110000 		.4byte	0x1154
 2874 0f6e 00       		.byte	0
 2875 0f6f 21       		.uleb128 0x21
 2876 0f70 86050000 		.4byte	.LASF168
 2877 0f74 01       		.byte	0x1
 2878 0f75 21       		.byte	0x21
 2879 0f76 00000000 		.4byte	.LFB3
 2880 0f7a 6C000000 		.4byte	.LFE3-.LFB3
 2881 0f7e 01       		.uleb128 0x1
 2882 0f7f 9C       		.byte	0x9c
 2883 0f80 39100000 		.4byte	0x1039
 2884 0f84 22       		.uleb128 0x22
 2885 0f85 62757300 		.ascii	"bus\000"
 2886 0f89 01       		.byte	0x1
 2887 0f8a 21       		.byte	0x21
 2888 0f8b 3B030000 		.4byte	0x33b
 2889 0f8f F4040000 		.4byte	.LLST8
 2890 0f93 23       		.uleb128 0x23
 2891 0f94 03020000 		.4byte	.LASF158
 2892 0f98 01       		.byte	0x1
 2893 0f99 21       		.byte	0x21
 2894 0f9a 58020000 		.4byte	0x258
 2895 0f9e 2B050000 		.4byte	.LLST9
 2896 0fa2 23       		.uleb128 0x23
 2897 0fa3 6A040000 		.4byte	.LASF32
 2898 0fa7 01       		.byte	0x1
 2899 0fa8 21       		.byte	0x21
 2900 0fa9 BE070000 		.4byte	0x7be
 2901 0fad 62050000 		.4byte	.LLST10
 2902 0fb1 35       		.uleb128 0x35
 2903 0fb2 00000000 		.4byte	.Ldebug_ranges0+0
 2904 0fb6 DB0F0000 		.4byte	0xfdb
 2905 0fba 2B       		.uleb128 0x2b
 2906 0fbb 636200   		.ascii	"cb\000"
 2907 0fbe 01       		.byte	0x1
ARM GAS  C:\Users\25521\AppData\Local\Temp\ccoR8V9M.s 			page 52


 2908 0fbf 2D       		.byte	0x2d
 2909 0fc0 2E0B0000 		.4byte	0xb2e
 2910 0fc4 8E050000 		.4byte	.LLST11
 2911 0fc8 36       		.uleb128 0x36
 2912 0fc9 42000000 		.4byte	.LVL17
 2913 0fcd 29       		.uleb128 0x29
 2914 0fce 01       		.uleb128 0x1
 2915 0fcf 50       		.byte	0x50
 2916 0fd0 02       		.uleb128 0x2
 2917 0fd1 75       		.byte	0x75
 2918 0fd2 00       		.sleb128 0
 2919 0fd3 29       		.uleb128 0x29
 2920 0fd4 01       		.uleb128 0x1
 2921 0fd5 51       		.byte	0x51
 2922 0fd6 02       		.uleb128 0x2
 2923 0fd7 76       		.byte	0x76
 2924 0fd8 00       		.sleb128 0
 2925 0fd9 00       		.byte	0
 2926 0fda 00       		.byte	0
 2927 0fdb 28       		.uleb128 0x28
 2928 0fdc 1E000000 		.4byte	.LVL13
 2929 0fe0 8D110000 		.4byte	0x118d
 2930 0fe4 FA0F0000 		.4byte	0xffa
 2931 0fe8 29       		.uleb128 0x29
 2932 0fe9 01       		.uleb128 0x1
 2933 0fea 50       		.byte	0x50
 2934 0feb 02       		.uleb128 0x2
 2935 0fec 76       		.byte	0x76
 2936 0fed 10       		.sleb128 16
 2937 0fee 29       		.uleb128 0x29
 2938 0fef 01       		.uleb128 0x1
 2939 0ff0 51       		.byte	0x51
 2940 0ff1 01       		.uleb128 0x1
 2941 0ff2 30       		.byte	0x30
 2942 0ff3 29       		.uleb128 0x29
 2943 0ff4 01       		.uleb128 0x1
 2944 0ff5 52       		.byte	0x52
 2945 0ff6 02       		.uleb128 0x2
 2946 0ff7 08       		.byte	0x8
 2947 0ff8 41       		.byte	0x41
 2948 0ff9 00       		.byte	0
 2949 0ffa 28       		.uleb128 0x28
 2950 0ffb 26000000 		.4byte	.LVL14
 2951 0fff 9C110000 		.4byte	0x119c
 2952 1003 14100000 		.4byte	0x1014
 2953 1007 29       		.uleb128 0x29
 2954 1008 01       		.uleb128 0x1
 2955 1009 51       		.byte	0x51
 2956 100a 02       		.uleb128 0x2
 2957 100b 74       		.byte	0x74
 2958 100c 00       		.sleb128 0
 2959 100d 29       		.uleb128 0x29
 2960 100e 01       		.uleb128 0x1
 2961 100f 52       		.byte	0x52
 2962 1010 02       		.uleb128 0x2
 2963 1011 08       		.byte	0x8
 2964 1012 40       		.byte	0x40
ARM GAS  C:\Users\25521\AppData\Local\Temp\ccoR8V9M.s 			page 53


 2965 1013 00       		.byte	0
 2966 1014 24       		.uleb128 0x24
 2967 1015 2C000000 		.4byte	.LVL15
 2968 1019 3E110000 		.4byte	0x113e
 2969 101d 24       		.uleb128 0x24
 2970 101e 4E000000 		.4byte	.LVL19
 2971 1022 77110000 		.4byte	0x1177
 2972 1026 25       		.uleb128 0x25
 2973 1027 62000000 		.4byte	.LVL21
 2974 102b 49110000 		.4byte	0x1149
 2975 102f 24       		.uleb128 0x24
 2976 1030 66000000 		.4byte	.LVL22
 2977 1034 54110000 		.4byte	0x1154
 2978 1038 00       		.byte	0
 2979 1039 21       		.uleb128 0x21
 2980 103a F2000000 		.4byte	.LASF169
 2981 103e 01       		.byte	0x1
 2982 103f 17       		.byte	0x17
 2983 1040 00000000 		.4byte	.LFB2
 2984 1044 44000000 		.4byte	.LFE2-.LFB2
 2985 1048 01       		.uleb128 0x1
 2986 1049 9C       		.byte	0x9c
 2987 104a C2100000 		.4byte	0x10c2
 2988 104e 23       		.uleb128 0x23
 2989 104f 03020000 		.4byte	.LASF158
 2990 1053 01       		.byte	0x1
 2991 1054 17       		.byte	0x17
 2992 1055 58020000 		.4byte	0x258
 2993 1059 AC050000 		.4byte	.LLST3
 2994 105d 23       		.uleb128 0x23
 2995 105e 1B010000 		.4byte	.LASF170
 2996 1062 01       		.byte	0x1
 2997 1063 17       		.byte	0x17
 2998 1064 1B010000 		.4byte	0x11b
 2999 1068 CA050000 		.4byte	.LLST4
 3000 106c 23       		.uleb128 0x23
 3001 106d 7E020000 		.4byte	.LASF171
 3002 1071 01       		.byte	0x1
 3003 1072 17       		.byte	0x17
 3004 1073 1B010000 		.4byte	0x11b
 3005 1077 E8050000 		.4byte	.LLST5
 3006 107b 23       		.uleb128 0x23
 3007 107c E5070000 		.4byte	.LASF28
 3008 1080 01       		.byte	0x1
 3009 1081 18       		.byte	0x18
 3010 1082 1B010000 		.4byte	0x11b
 3011 1086 06060000 		.4byte	.LLST6
 3012 108a 23       		.uleb128 0x23
 3013 108b 7D010000 		.4byte	.LASF29
 3014 108f 01       		.byte	0x1
 3015 1090 18       		.byte	0x18
 3016 1091 6B000000 		.4byte	0x6b
 3017 1095 24060000 		.4byte	.LLST7
 3018 1099 28       		.uleb128 0x28
 3019 109a 22000000 		.4byte	.LVL6
 3020 109e 8D110000 		.4byte	0x118d
 3021 10a2 B8100000 		.4byte	0x10b8
ARM GAS  C:\Users\25521\AppData\Local\Temp\ccoR8V9M.s 			page 54


 3022 10a6 29       		.uleb128 0x29
 3023 10a7 01       		.uleb128 0x1
 3024 10a8 50       		.byte	0x50
 3025 10a9 02       		.uleb128 0x2
 3026 10aa 74       		.byte	0x74
 3027 10ab 10       		.sleb128 16
 3028 10ac 29       		.uleb128 0x29
 3029 10ad 01       		.uleb128 0x1
 3030 10ae 51       		.byte	0x51
 3031 10af 01       		.uleb128 0x1
 3032 10b0 30       		.byte	0x30
 3033 10b1 29       		.uleb128 0x29
 3034 10b2 01       		.uleb128 0x1
 3035 10b3 52       		.byte	0x52
 3036 10b4 02       		.uleb128 0x2
 3037 10b5 08       		.byte	0x8
 3038 10b6 50       		.byte	0x50
 3039 10b7 00       		.byte	0
 3040 10b8 24       		.uleb128 0x24
 3041 10b9 3E000000 		.4byte	.LVL8
 3042 10bd 54110000 		.4byte	0x1154
 3043 10c1 00       		.byte	0
 3044 10c2 21       		.uleb128 0x21
 3045 10c3 33050000 		.4byte	.LASF172
 3046 10c7 01       		.byte	0x1
 3047 10c8 10       		.byte	0x10
 3048 10c9 00000000 		.4byte	.LFB1
 3049 10cd 28000000 		.4byte	.LFE1-.LFB1
 3050 10d1 01       		.uleb128 0x1
 3051 10d2 9C       		.byte	0x9c
 3052 10d3 0E110000 		.4byte	0x110e
 3053 10d7 22       		.uleb128 0x22
 3054 10d8 62757300 		.ascii	"bus\000"
 3055 10dc 01       		.byte	0x1
 3056 10dd 10       		.byte	0x10
 3057 10de 3B030000 		.4byte	0x33b
 3058 10e2 44060000 		.4byte	.LLST0
 3059 10e6 23       		.uleb128 0x23
 3060 10e7 A4090000 		.4byte	.LASF30
 3061 10eb 01       		.byte	0x1
 3062 10ec 10       		.byte	0x10
 3063 10ed 1B010000 		.4byte	0x11b
 3064 10f1 65060000 		.4byte	.LLST1
 3065 10f5 23       		.uleb128 0x23
 3066 10f6 5D050000 		.4byte	.LASF31
 3067 10fa 01       		.byte	0x1
 3068 10fb 10       		.byte	0x10
 3069 10fc 1B010000 		.4byte	0x11b
 3070 1100 86060000 		.4byte	.LLST2
 3071 1104 24       		.uleb128 0x24
 3072 1105 24000000 		.4byte	.LVL1
 3073 1109 54110000 		.4byte	0x1154
 3074 110d 00       		.byte	0
 3075 110e 37       		.uleb128 0x37
 3076 110f 2D040000 		.4byte	.LASF186
 3077 1113 01       		.byte	0x1
 3078 1114 04       		.byte	0x4
ARM GAS  C:\Users\25521\AppData\Local\Temp\ccoR8V9M.s 			page 55


 3079 1115 58020000 		.4byte	0x258
 3080 1119 01       		.byte	0x1
 3081 111a 3E110000 		.4byte	0x113e
 3082 111e 38       		.uleb128 0x38
 3083 111f 62757300 		.ascii	"bus\000"
 3084 1123 01       		.byte	0x1
 3085 1124 04       		.byte	0x4
 3086 1125 3B030000 		.4byte	0x33b
 3087 1129 39       		.uleb128 0x39
 3088 112a 6A040000 		.4byte	.LASF32
 3089 112e 01       		.byte	0x1
 3090 112f 04       		.byte	0x4
 3091 1130 BE070000 		.4byte	0x7be
 3092 1134 33       		.uleb128 0x33
 3093 1135 7400     		.ascii	"t\000"
 3094 1137 01       		.byte	0x1
 3095 1138 06       		.byte	0x6
 3096 1139 58020000 		.4byte	0x258
 3097 113d 00       		.byte	0
 3098 113e 3A       		.uleb128 0x3a
 3099 113f 0B050000 		.4byte	.LASF173
 3100 1143 0B050000 		.4byte	.LASF173
 3101 1147 06       		.byte	0x6
 3102 1148 B0       		.byte	0xb0
 3103 1149 3A       		.uleb128 0x3a
 3104 114a 53090000 		.4byte	.LASF174
 3105 114e 53090000 		.4byte	.LASF174
 3106 1152 06       		.byte	0x6
 3107 1153 B3       		.byte	0xb3
 3108 1154 3B       		.uleb128 0x3b
 3109 1155 1E070000 		.4byte	.LASF187
 3110 1159 1E070000 		.4byte	.LASF187
 3111 115d 3A       		.uleb128 0x3a
 3112 115e C6010000 		.4byte	.LASF175
 3113 1162 C6010000 		.4byte	.LASF175
 3114 1166 06       		.byte	0x6
 3115 1167 B9       		.byte	0xb9
 3116 1168 3C       		.uleb128 0x3c
 3117 1169 D6040000 		.4byte	.LASF178
 3118 116d F4040000 		.4byte	.LASF180
 3119 1171 09       		.byte	0x9
 3120 1172 00       		.byte	0
 3121 1173 D6040000 		.4byte	.LASF178
 3122 1177 3A       		.uleb128 0x3a
 3123 1178 E7050000 		.4byte	.LASF176
 3124 117c E7050000 		.4byte	.LASF176
 3125 1180 06       		.byte	0x6
 3126 1181 B6       		.byte	0xb6
 3127 1182 3A       		.uleb128 0x3a
 3128 1183 31000000 		.4byte	.LASF177
 3129 1187 31000000 		.4byte	.LASF177
 3130 118b 08       		.byte	0x8
 3131 118c 24       		.byte	0x24
 3132 118d 3C       		.uleb128 0x3c
 3133 118e 98080000 		.4byte	.LASF179
 3134 1192 C1000000 		.4byte	.LASF181
 3135 1196 09       		.byte	0x9
ARM GAS  C:\Users\25521\AppData\Local\Temp\ccoR8V9M.s 			page 56


 3136 1197 00       		.byte	0
 3137 1198 98080000 		.4byte	.LASF179
 3138 119c 3A       		.uleb128 0x3a
 3139 119d 8C000000 		.4byte	.LASF182
 3140 11a1 8C000000 		.4byte	.LASF182
 3141 11a5 08       		.byte	0x8
 3142 11a6 2C       		.byte	0x2c
 3143 11a7 00       		.byte	0
 3144              		.section	.debug_abbrev,"",%progbits
 3145              	.Ldebug_abbrev0:
 3146 0000 01       		.uleb128 0x1
 3147 0001 11       		.uleb128 0x11
 3148 0002 01       		.byte	0x1
 3149 0003 25       		.uleb128 0x25
 3150 0004 0E       		.uleb128 0xe
 3151 0005 13       		.uleb128 0x13
 3152 0006 0B       		.uleb128 0xb
 3153 0007 03       		.uleb128 0x3
 3154 0008 0E       		.uleb128 0xe
 3155 0009 1B       		.uleb128 0x1b
 3156 000a 0E       		.uleb128 0xe
 3157 000b 55       		.uleb128 0x55
 3158 000c 17       		.uleb128 0x17
 3159 000d 11       		.uleb128 0x11
 3160 000e 01       		.uleb128 0x1
 3161 000f 10       		.uleb128 0x10
 3162 0010 17       		.uleb128 0x17
 3163 0011 00       		.byte	0
 3164 0012 00       		.byte	0
 3165 0013 02       		.uleb128 0x2
 3166 0014 24       		.uleb128 0x24
 3167 0015 00       		.byte	0
 3168 0016 0B       		.uleb128 0xb
 3169 0017 0B       		.uleb128 0xb
 3170 0018 3E       		.uleb128 0x3e
 3171 0019 0B       		.uleb128 0xb
 3172 001a 03       		.uleb128 0x3
 3173 001b 0E       		.uleb128 0xe
 3174 001c 00       		.byte	0
 3175 001d 00       		.byte	0
 3176 001e 03       		.uleb128 0x3
 3177 001f 24       		.uleb128 0x24
 3178 0020 00       		.byte	0
 3179 0021 0B       		.uleb128 0xb
 3180 0022 0B       		.uleb128 0xb
 3181 0023 3E       		.uleb128 0x3e
 3182 0024 0B       		.uleb128 0xb
 3183 0025 03       		.uleb128 0x3
 3184 0026 08       		.uleb128 0x8
 3185 0027 00       		.byte	0
 3186 0028 00       		.byte	0
 3187 0029 04       		.uleb128 0x4
 3188 002a 16       		.uleb128 0x16
 3189 002b 00       		.byte	0
 3190 002c 03       		.uleb128 0x3
 3191 002d 0E       		.uleb128 0xe
 3192 002e 3A       		.uleb128 0x3a
ARM GAS  C:\Users\25521\AppData\Local\Temp\ccoR8V9M.s 			page 57


 3193 002f 0B       		.uleb128 0xb
 3194 0030 3B       		.uleb128 0x3b
 3195 0031 0B       		.uleb128 0xb
 3196 0032 49       		.uleb128 0x49
 3197 0033 13       		.uleb128 0x13
 3198 0034 00       		.byte	0
 3199 0035 00       		.byte	0
 3200 0036 05       		.uleb128 0x5
 3201 0037 0F       		.uleb128 0xf
 3202 0038 00       		.byte	0
 3203 0039 0B       		.uleb128 0xb
 3204 003a 0B       		.uleb128 0xb
 3205 003b 49       		.uleb128 0x49
 3206 003c 13       		.uleb128 0x13
 3207 003d 00       		.byte	0
 3208 003e 00       		.byte	0
 3209 003f 06       		.uleb128 0x6
 3210 0040 13       		.uleb128 0x13
 3211 0041 00       		.byte	0
 3212 0042 03       		.uleb128 0x3
 3213 0043 0E       		.uleb128 0xe
 3214 0044 3C       		.uleb128 0x3c
 3215 0045 19       		.uleb128 0x19
 3216 0046 00       		.byte	0
 3217 0047 00       		.byte	0
 3218 0048 07       		.uleb128 0x7
 3219 0049 16       		.uleb128 0x16
 3220 004a 00       		.byte	0
 3221 004b 03       		.uleb128 0x3
 3222 004c 0E       		.uleb128 0xe
 3223 004d 3A       		.uleb128 0x3a
 3224 004e 0B       		.uleb128 0xb
 3225 004f 3B       		.uleb128 0x3b
 3226 0050 05       		.uleb128 0x5
 3227 0051 49       		.uleb128 0x49
 3228 0052 13       		.uleb128 0x13
 3229 0053 00       		.byte	0
 3230 0054 00       		.byte	0
 3231 0055 08       		.uleb128 0x8
 3232 0056 17       		.uleb128 0x17
 3233 0057 01       		.byte	0x1
 3234 0058 0B       		.uleb128 0xb
 3235 0059 0B       		.uleb128 0xb
 3236 005a 3A       		.uleb128 0x3a
 3237 005b 0B       		.uleb128 0xb
 3238 005c 3B       		.uleb128 0x3b
 3239 005d 0B       		.uleb128 0xb
 3240 005e 01       		.uleb128 0x1
 3241 005f 13       		.uleb128 0x13
 3242 0060 00       		.byte	0
 3243 0061 00       		.byte	0
 3244 0062 09       		.uleb128 0x9
 3245 0063 0D       		.uleb128 0xd
 3246 0064 00       		.byte	0
 3247 0065 03       		.uleb128 0x3
 3248 0066 0E       		.uleb128 0xe
 3249 0067 3A       		.uleb128 0x3a
ARM GAS  C:\Users\25521\AppData\Local\Temp\ccoR8V9M.s 			page 58


 3250 0068 0B       		.uleb128 0xb
 3251 0069 3B       		.uleb128 0x3b
 3252 006a 0B       		.uleb128 0xb
 3253 006b 49       		.uleb128 0x49
 3254 006c 13       		.uleb128 0x13
 3255 006d 00       		.byte	0
 3256 006e 00       		.byte	0
 3257 006f 0A       		.uleb128 0xa
 3258 0070 01       		.uleb128 0x1
 3259 0071 01       		.byte	0x1
 3260 0072 49       		.uleb128 0x49
 3261 0073 13       		.uleb128 0x13
 3262 0074 01       		.uleb128 0x1
 3263 0075 13       		.uleb128 0x13
 3264 0076 00       		.byte	0
 3265 0077 00       		.byte	0
 3266 0078 0B       		.uleb128 0xb
 3267 0079 21       		.uleb128 0x21
 3268 007a 00       		.byte	0
 3269 007b 49       		.uleb128 0x49
 3270 007c 13       		.uleb128 0x13
 3271 007d 2F       		.uleb128 0x2f
 3272 007e 0B       		.uleb128 0xb
 3273 007f 00       		.byte	0
 3274 0080 00       		.byte	0
 3275 0081 0C       		.uleb128 0xc
 3276 0082 13       		.uleb128 0x13
 3277 0083 01       		.byte	0x1
 3278 0084 0B       		.uleb128 0xb
 3279 0085 0B       		.uleb128 0xb
 3280 0086 3A       		.uleb128 0x3a
 3281 0087 0B       		.uleb128 0xb
 3282 0088 3B       		.uleb128 0x3b
 3283 0089 0B       		.uleb128 0xb
 3284 008a 01       		.uleb128 0x1
 3285 008b 13       		.uleb128 0x13
 3286 008c 00       		.byte	0
 3287 008d 00       		.byte	0
 3288 008e 0D       		.uleb128 0xd
 3289 008f 0D       		.uleb128 0xd
 3290 0090 00       		.byte	0
 3291 0091 03       		.uleb128 0x3
 3292 0092 0E       		.uleb128 0xe
 3293 0093 3A       		.uleb128 0x3a
 3294 0094 0B       		.uleb128 0xb
 3295 0095 3B       		.uleb128 0x3b
 3296 0096 0B       		.uleb128 0xb
 3297 0097 49       		.uleb128 0x49
 3298 0098 13       		.uleb128 0x13
 3299 0099 38       		.uleb128 0x38
 3300 009a 0B       		.uleb128 0xb
 3301 009b 00       		.byte	0
 3302 009c 00       		.byte	0
 3303 009d 0E       		.uleb128 0xe
 3304 009e 0F       		.uleb128 0xf
 3305 009f 00       		.byte	0
 3306 00a0 0B       		.uleb128 0xb
ARM GAS  C:\Users\25521\AppData\Local\Temp\ccoR8V9M.s 			page 59


 3307 00a1 0B       		.uleb128 0xb
 3308 00a2 00       		.byte	0
 3309 00a3 00       		.byte	0
 3310 00a4 0F       		.uleb128 0xf
 3311 00a5 26       		.uleb128 0x26
 3312 00a6 00       		.byte	0
 3313 00a7 49       		.uleb128 0x49
 3314 00a8 13       		.uleb128 0x13
 3315 00a9 00       		.byte	0
 3316 00aa 00       		.byte	0
 3317 00ab 10       		.uleb128 0x10
 3318 00ac 34       		.uleb128 0x34
 3319 00ad 00       		.byte	0
 3320 00ae 03       		.uleb128 0x3
 3321 00af 0E       		.uleb128 0xe
 3322 00b0 3A       		.uleb128 0x3a
 3323 00b1 0B       		.uleb128 0xb
 3324 00b2 3B       		.uleb128 0x3b
 3325 00b3 0B       		.uleb128 0xb
 3326 00b4 49       		.uleb128 0x49
 3327 00b5 13       		.uleb128 0x13
 3328 00b6 3F       		.uleb128 0x3f
 3329 00b7 19       		.uleb128 0x19
 3330 00b8 3C       		.uleb128 0x3c
 3331 00b9 19       		.uleb128 0x19
 3332 00ba 00       		.byte	0
 3333 00bb 00       		.byte	0
 3334 00bc 11       		.uleb128 0x11
 3335 00bd 13       		.uleb128 0x13
 3336 00be 01       		.byte	0x1
 3337 00bf 03       		.uleb128 0x3
 3338 00c0 0E       		.uleb128 0xe
 3339 00c1 0B       		.uleb128 0xb
 3340 00c2 0B       		.uleb128 0xb
 3341 00c3 3A       		.uleb128 0x3a
 3342 00c4 0B       		.uleb128 0xb
 3343 00c5 3B       		.uleb128 0x3b
 3344 00c6 0B       		.uleb128 0xb
 3345 00c7 01       		.uleb128 0x1
 3346 00c8 13       		.uleb128 0x13
 3347 00c9 00       		.byte	0
 3348 00ca 00       		.byte	0
 3349 00cb 12       		.uleb128 0x12
 3350 00cc 15       		.uleb128 0x15
 3351 00cd 01       		.byte	0x1
 3352 00ce 27       		.uleb128 0x27
 3353 00cf 19       		.uleb128 0x19
 3354 00d0 01       		.uleb128 0x1
 3355 00d1 13       		.uleb128 0x13
 3356 00d2 00       		.byte	0
 3357 00d3 00       		.byte	0
 3358 00d4 13       		.uleb128 0x13
 3359 00d5 05       		.uleb128 0x5
 3360 00d6 00       		.byte	0
 3361 00d7 49       		.uleb128 0x49
 3362 00d8 13       		.uleb128 0x13
 3363 00d9 00       		.byte	0
ARM GAS  C:\Users\25521\AppData\Local\Temp\ccoR8V9M.s 			page 60


 3364 00da 00       		.byte	0
 3365 00db 14       		.uleb128 0x14
 3366 00dc 0D       		.uleb128 0xd
 3367 00dd 00       		.byte	0
 3368 00de 03       		.uleb128 0x3
 3369 00df 08       		.uleb128 0x8
 3370 00e0 3A       		.uleb128 0x3a
 3371 00e1 0B       		.uleb128 0xb
 3372 00e2 3B       		.uleb128 0x3b
 3373 00e3 0B       		.uleb128 0xb
 3374 00e4 49       		.uleb128 0x49
 3375 00e5 13       		.uleb128 0x13
 3376 00e6 38       		.uleb128 0x38
 3377 00e7 0B       		.uleb128 0xb
 3378 00e8 00       		.byte	0
 3379 00e9 00       		.byte	0
 3380 00ea 15       		.uleb128 0x15
 3381 00eb 13       		.uleb128 0x13
 3382 00ec 01       		.byte	0x1
 3383 00ed 03       		.uleb128 0x3
 3384 00ee 0E       		.uleb128 0xe
 3385 00ef 0B       		.uleb128 0xb
 3386 00f0 05       		.uleb128 0x5
 3387 00f1 3A       		.uleb128 0x3a
 3388 00f2 0B       		.uleb128 0xb
 3389 00f3 3B       		.uleb128 0x3b
 3390 00f4 0B       		.uleb128 0xb
 3391 00f5 01       		.uleb128 0x1
 3392 00f6 13       		.uleb128 0x13
 3393 00f7 00       		.byte	0
 3394 00f8 00       		.byte	0
 3395 00f9 16       		.uleb128 0x16
 3396 00fa 0D       		.uleb128 0xd
 3397 00fb 00       		.byte	0
 3398 00fc 03       		.uleb128 0x3
 3399 00fd 0E       		.uleb128 0xe
 3400 00fe 3A       		.uleb128 0x3a
 3401 00ff 0B       		.uleb128 0xb
 3402 0100 3B       		.uleb128 0x3b
 3403 0101 0B       		.uleb128 0xb
 3404 0102 49       		.uleb128 0x49
 3405 0103 13       		.uleb128 0x13
 3406 0104 38       		.uleb128 0x38
 3407 0105 05       		.uleb128 0x5
 3408 0106 00       		.byte	0
 3409 0107 00       		.byte	0
 3410 0108 17       		.uleb128 0x17
 3411 0109 15       		.uleb128 0x15
 3412 010a 00       		.byte	0
 3413 010b 27       		.uleb128 0x27
 3414 010c 19       		.uleb128 0x19
 3415 010d 00       		.byte	0
 3416 010e 00       		.byte	0
 3417 010f 18       		.uleb128 0x18
 3418 0110 15       		.uleb128 0x15
 3419 0111 01       		.byte	0x1
 3420 0112 27       		.uleb128 0x27
ARM GAS  C:\Users\25521\AppData\Local\Temp\ccoR8V9M.s 			page 61


 3421 0113 19       		.uleb128 0x19
 3422 0114 49       		.uleb128 0x49
 3423 0115 13       		.uleb128 0x13
 3424 0116 01       		.uleb128 0x1
 3425 0117 13       		.uleb128 0x13
 3426 0118 00       		.byte	0
 3427 0119 00       		.byte	0
 3428 011a 19       		.uleb128 0x19
 3429 011b 13       		.uleb128 0x13
 3430 011c 01       		.byte	0x1
 3431 011d 03       		.uleb128 0x3
 3432 011e 0E       		.uleb128 0xe
 3433 011f 0B       		.uleb128 0xb
 3434 0120 05       		.uleb128 0x5
 3435 0121 3A       		.uleb128 0x3a
 3436 0122 0B       		.uleb128 0xb
 3437 0123 3B       		.uleb128 0x3b
 3438 0124 05       		.uleb128 0x5
 3439 0125 01       		.uleb128 0x1
 3440 0126 13       		.uleb128 0x13
 3441 0127 00       		.byte	0
 3442 0128 00       		.byte	0
 3443 0129 1A       		.uleb128 0x1a
 3444 012a 0D       		.uleb128 0xd
 3445 012b 00       		.byte	0
 3446 012c 03       		.uleb128 0x3
 3447 012d 0E       		.uleb128 0xe
 3448 012e 3A       		.uleb128 0x3a
 3449 012f 0B       		.uleb128 0xb
 3450 0130 3B       		.uleb128 0x3b
 3451 0131 05       		.uleb128 0x5
 3452 0132 49       		.uleb128 0x49
 3453 0133 13       		.uleb128 0x13
 3454 0134 38       		.uleb128 0x38
 3455 0135 0B       		.uleb128 0xb
 3456 0136 00       		.byte	0
 3457 0137 00       		.byte	0
 3458 0138 1B       		.uleb128 0x1b
 3459 0139 0D       		.uleb128 0xd
 3460 013a 00       		.byte	0
 3461 013b 03       		.uleb128 0x3
 3462 013c 0E       		.uleb128 0xe
 3463 013d 3A       		.uleb128 0x3a
 3464 013e 0B       		.uleb128 0xb
 3465 013f 3B       		.uleb128 0x3b
 3466 0140 05       		.uleb128 0x5
 3467 0141 49       		.uleb128 0x49
 3468 0142 13       		.uleb128 0x13
 3469 0143 38       		.uleb128 0x38
 3470 0144 05       		.uleb128 0x5
 3471 0145 00       		.byte	0
 3472 0146 00       		.byte	0
 3473 0147 1C       		.uleb128 0x1c
 3474 0148 13       		.uleb128 0x13
 3475 0149 01       		.byte	0x1
 3476 014a 03       		.uleb128 0x3
 3477 014b 0E       		.uleb128 0xe
ARM GAS  C:\Users\25521\AppData\Local\Temp\ccoR8V9M.s 			page 62


 3478 014c 0B       		.uleb128 0xb
 3479 014d 0B       		.uleb128 0xb
 3480 014e 3A       		.uleb128 0x3a
 3481 014f 0B       		.uleb128 0xb
 3482 0150 3B       		.uleb128 0x3b
 3483 0151 05       		.uleb128 0x5
 3484 0152 01       		.uleb128 0x1
 3485 0153 13       		.uleb128 0x13
 3486 0154 00       		.byte	0
 3487 0155 00       		.byte	0
 3488 0156 1D       		.uleb128 0x1d
 3489 0157 13       		.uleb128 0x13
 3490 0158 01       		.byte	0x1
 3491 0159 0B       		.uleb128 0xb
 3492 015a 0B       		.uleb128 0xb
 3493 015b 3A       		.uleb128 0x3a
 3494 015c 0B       		.uleb128 0xb
 3495 015d 3B       		.uleb128 0x3b
 3496 015e 05       		.uleb128 0x5
 3497 015f 01       		.uleb128 0x1
 3498 0160 13       		.uleb128 0x13
 3499 0161 00       		.byte	0
 3500 0162 00       		.byte	0
 3501 0163 1E       		.uleb128 0x1e
 3502 0164 17       		.uleb128 0x17
 3503 0165 01       		.byte	0x1
 3504 0166 0B       		.uleb128 0xb
 3505 0167 0B       		.uleb128 0xb
 3506 0168 3A       		.uleb128 0x3a
 3507 0169 0B       		.uleb128 0xb
 3508 016a 3B       		.uleb128 0x3b
 3509 016b 05       		.uleb128 0x5
 3510 016c 01       		.uleb128 0x1
 3511 016d 13       		.uleb128 0x13
 3512 016e 00       		.byte	0
 3513 016f 00       		.byte	0
 3514 0170 1F       		.uleb128 0x1f
 3515 0171 0D       		.uleb128 0xd
 3516 0172 00       		.byte	0
 3517 0173 03       		.uleb128 0x3
 3518 0174 0E       		.uleb128 0xe
 3519 0175 3A       		.uleb128 0x3a
 3520 0176 0B       		.uleb128 0xb
 3521 0177 3B       		.uleb128 0x3b
 3522 0178 05       		.uleb128 0x5
 3523 0179 49       		.uleb128 0x49
 3524 017a 13       		.uleb128 0x13
 3525 017b 00       		.byte	0
 3526 017c 00       		.byte	0
 3527 017d 20       		.uleb128 0x20
 3528 017e 34       		.uleb128 0x34
 3529 017f 00       		.byte	0
 3530 0180 03       		.uleb128 0x3
 3531 0181 0E       		.uleb128 0xe
 3532 0182 3A       		.uleb128 0x3a
 3533 0183 0B       		.uleb128 0xb
 3534 0184 3B       		.uleb128 0x3b
ARM GAS  C:\Users\25521\AppData\Local\Temp\ccoR8V9M.s 			page 63


 3535 0185 05       		.uleb128 0x5
 3536 0186 49       		.uleb128 0x49
 3537 0187 13       		.uleb128 0x13
 3538 0188 3F       		.uleb128 0x3f
 3539 0189 19       		.uleb128 0x19
 3540 018a 3C       		.uleb128 0x3c
 3541 018b 19       		.uleb128 0x19
 3542 018c 00       		.byte	0
 3543 018d 00       		.byte	0
 3544 018e 21       		.uleb128 0x21
 3545 018f 2E       		.uleb128 0x2e
 3546 0190 01       		.byte	0x1
 3547 0191 3F       		.uleb128 0x3f
 3548 0192 19       		.uleb128 0x19
 3549 0193 03       		.uleb128 0x3
 3550 0194 0E       		.uleb128 0xe
 3551 0195 3A       		.uleb128 0x3a
 3552 0196 0B       		.uleb128 0xb
 3553 0197 3B       		.uleb128 0x3b
 3554 0198 0B       		.uleb128 0xb
 3555 0199 27       		.uleb128 0x27
 3556 019a 19       		.uleb128 0x19
 3557 019b 11       		.uleb128 0x11
 3558 019c 01       		.uleb128 0x1
 3559 019d 12       		.uleb128 0x12
 3560 019e 06       		.uleb128 0x6
 3561 019f 40       		.uleb128 0x40
 3562 01a0 18       		.uleb128 0x18
 3563 01a1 9742     		.uleb128 0x2117
 3564 01a3 19       		.uleb128 0x19
 3565 01a4 01       		.uleb128 0x1
 3566 01a5 13       		.uleb128 0x13
 3567 01a6 00       		.byte	0
 3568 01a7 00       		.byte	0
 3569 01a8 22       		.uleb128 0x22
 3570 01a9 05       		.uleb128 0x5
 3571 01aa 00       		.byte	0
 3572 01ab 03       		.uleb128 0x3
 3573 01ac 08       		.uleb128 0x8
 3574 01ad 3A       		.uleb128 0x3a
 3575 01ae 0B       		.uleb128 0xb
 3576 01af 3B       		.uleb128 0x3b
 3577 01b0 0B       		.uleb128 0xb
 3578 01b1 49       		.uleb128 0x49
 3579 01b2 13       		.uleb128 0x13
 3580 01b3 02       		.uleb128 0x2
 3581 01b4 17       		.uleb128 0x17
 3582 01b5 00       		.byte	0
 3583 01b6 00       		.byte	0
 3584 01b7 23       		.uleb128 0x23
 3585 01b8 05       		.uleb128 0x5
 3586 01b9 00       		.byte	0
 3587 01ba 03       		.uleb128 0x3
 3588 01bb 0E       		.uleb128 0xe
 3589 01bc 3A       		.uleb128 0x3a
 3590 01bd 0B       		.uleb128 0xb
 3591 01be 3B       		.uleb128 0x3b
ARM GAS  C:\Users\25521\AppData\Local\Temp\ccoR8V9M.s 			page 64


 3592 01bf 0B       		.uleb128 0xb
 3593 01c0 49       		.uleb128 0x49
 3594 01c1 13       		.uleb128 0x13
 3595 01c2 02       		.uleb128 0x2
 3596 01c3 17       		.uleb128 0x17
 3597 01c4 00       		.byte	0
 3598 01c5 00       		.byte	0
 3599 01c6 24       		.uleb128 0x24
 3600 01c7 898201   		.uleb128 0x4109
 3601 01ca 00       		.byte	0
 3602 01cb 11       		.uleb128 0x11
 3603 01cc 01       		.uleb128 0x1
 3604 01cd 31       		.uleb128 0x31
 3605 01ce 13       		.uleb128 0x13
 3606 01cf 00       		.byte	0
 3607 01d0 00       		.byte	0
 3608 01d1 25       		.uleb128 0x25
 3609 01d2 898201   		.uleb128 0x4109
 3610 01d5 00       		.byte	0
 3611 01d6 11       		.uleb128 0x11
 3612 01d7 01       		.uleb128 0x1
 3613 01d8 9542     		.uleb128 0x2115
 3614 01da 19       		.uleb128 0x19
 3615 01db 31       		.uleb128 0x31
 3616 01dc 13       		.uleb128 0x13
 3617 01dd 00       		.byte	0
 3618 01de 00       		.byte	0
 3619 01df 26       		.uleb128 0x26
 3620 01e0 2E       		.uleb128 0x2e
 3621 01e1 01       		.byte	0x1
 3622 01e2 3F       		.uleb128 0x3f
 3623 01e3 19       		.uleb128 0x19
 3624 01e4 03       		.uleb128 0x3
 3625 01e5 0E       		.uleb128 0xe
 3626 01e6 3A       		.uleb128 0x3a
 3627 01e7 0B       		.uleb128 0xb
 3628 01e8 3B       		.uleb128 0x3b
 3629 01e9 0B       		.uleb128 0xb
 3630 01ea 27       		.uleb128 0x27
 3631 01eb 19       		.uleb128 0x19
 3632 01ec 49       		.uleb128 0x49
 3633 01ed 13       		.uleb128 0x13
 3634 01ee 11       		.uleb128 0x11
 3635 01ef 01       		.uleb128 0x1
 3636 01f0 12       		.uleb128 0x12
 3637 01f1 06       		.uleb128 0x6
 3638 01f2 40       		.uleb128 0x40
 3639 01f3 18       		.uleb128 0x18
 3640 01f4 9742     		.uleb128 0x2117
 3641 01f6 19       		.uleb128 0x19
 3642 01f7 01       		.uleb128 0x1
 3643 01f8 13       		.uleb128 0x13
 3644 01f9 00       		.byte	0
 3645 01fa 00       		.byte	0
 3646 01fb 27       		.uleb128 0x27
 3647 01fc 34       		.uleb128 0x34
 3648 01fd 00       		.byte	0
ARM GAS  C:\Users\25521\AppData\Local\Temp\ccoR8V9M.s 			page 65


 3649 01fe 03       		.uleb128 0x3
 3650 01ff 08       		.uleb128 0x8
 3651 0200 3A       		.uleb128 0x3a
 3652 0201 0B       		.uleb128 0xb
 3653 0202 3B       		.uleb128 0x3b
 3654 0203 0B       		.uleb128 0xb
 3655 0204 49       		.uleb128 0x49
 3656 0205 13       		.uleb128 0x13
 3657 0206 02       		.uleb128 0x2
 3658 0207 18       		.uleb128 0x18
 3659 0208 00       		.byte	0
 3660 0209 00       		.byte	0
 3661 020a 28       		.uleb128 0x28
 3662 020b 898201   		.uleb128 0x4109
 3663 020e 01       		.byte	0x1
 3664 020f 11       		.uleb128 0x11
 3665 0210 01       		.uleb128 0x1
 3666 0211 31       		.uleb128 0x31
 3667 0212 13       		.uleb128 0x13
 3668 0213 01       		.uleb128 0x1
 3669 0214 13       		.uleb128 0x13
 3670 0215 00       		.byte	0
 3671 0216 00       		.byte	0
 3672 0217 29       		.uleb128 0x29
 3673 0218 8A8201   		.uleb128 0x410a
 3674 021b 00       		.byte	0
 3675 021c 02       		.uleb128 0x2
 3676 021d 18       		.uleb128 0x18
 3677 021e 9142     		.uleb128 0x2111
 3678 0220 18       		.uleb128 0x18
 3679 0221 00       		.byte	0
 3680 0222 00       		.byte	0
 3681 0223 2A       		.uleb128 0x2a
 3682 0224 34       		.uleb128 0x34
 3683 0225 00       		.byte	0
 3684 0226 03       		.uleb128 0x3
 3685 0227 0E       		.uleb128 0xe
 3686 0228 3A       		.uleb128 0x3a
 3687 0229 0B       		.uleb128 0xb
 3688 022a 3B       		.uleb128 0x3b
 3689 022b 0B       		.uleb128 0xb
 3690 022c 49       		.uleb128 0x49
 3691 022d 13       		.uleb128 0x13
 3692 022e 02       		.uleb128 0x2
 3693 022f 17       		.uleb128 0x17
 3694 0230 00       		.byte	0
 3695 0231 00       		.byte	0
 3696 0232 2B       		.uleb128 0x2b
 3697 0233 34       		.uleb128 0x34
 3698 0234 00       		.byte	0
 3699 0235 03       		.uleb128 0x3
 3700 0236 08       		.uleb128 0x8
 3701 0237 3A       		.uleb128 0x3a
 3702 0238 0B       		.uleb128 0xb
 3703 0239 3B       		.uleb128 0x3b
 3704 023a 0B       		.uleb128 0xb
 3705 023b 49       		.uleb128 0x49
ARM GAS  C:\Users\25521\AppData\Local\Temp\ccoR8V9M.s 			page 66


 3706 023c 13       		.uleb128 0x13
 3707 023d 02       		.uleb128 0x2
 3708 023e 17       		.uleb128 0x17
 3709 023f 00       		.byte	0
 3710 0240 00       		.byte	0
 3711 0241 2C       		.uleb128 0x2c
 3712 0242 26       		.uleb128 0x26
 3713 0243 00       		.byte	0
 3714 0244 00       		.byte	0
 3715 0245 00       		.byte	0
 3716 0246 2D       		.uleb128 0x2d
 3717 0247 1D       		.uleb128 0x1d
 3718 0248 01       		.byte	0x1
 3719 0249 31       		.uleb128 0x31
 3720 024a 13       		.uleb128 0x13
 3721 024b 11       		.uleb128 0x11
 3722 024c 01       		.uleb128 0x1
 3723 024d 12       		.uleb128 0x12
 3724 024e 06       		.uleb128 0x6
 3725 024f 58       		.uleb128 0x58
 3726 0250 0B       		.uleb128 0xb
 3727 0251 59       		.uleb128 0x59
 3728 0252 0B       		.uleb128 0xb
 3729 0253 01       		.uleb128 0x1
 3730 0254 13       		.uleb128 0x13
 3731 0255 00       		.byte	0
 3732 0256 00       		.byte	0
 3733 0257 2E       		.uleb128 0x2e
 3734 0258 05       		.uleb128 0x5
 3735 0259 00       		.byte	0
 3736 025a 31       		.uleb128 0x31
 3737 025b 13       		.uleb128 0x13
 3738 025c 02       		.uleb128 0x2
 3739 025d 18       		.uleb128 0x18
 3740 025e 00       		.byte	0
 3741 025f 00       		.byte	0
 3742 0260 2F       		.uleb128 0x2f
 3743 0261 05       		.uleb128 0x5
 3744 0262 00       		.byte	0
 3745 0263 31       		.uleb128 0x31
 3746 0264 13       		.uleb128 0x13
 3747 0265 00       		.byte	0
 3748 0266 00       		.byte	0
 3749 0267 30       		.uleb128 0x30
 3750 0268 0B       		.uleb128 0xb
 3751 0269 01       		.byte	0x1
 3752 026a 11       		.uleb128 0x11
 3753 026b 01       		.uleb128 0x1
 3754 026c 12       		.uleb128 0x12
 3755 026d 06       		.uleb128 0x6
 3756 026e 00       		.byte	0
 3757 026f 00       		.byte	0
 3758 0270 31       		.uleb128 0x31
 3759 0271 34       		.uleb128 0x34
 3760 0272 00       		.byte	0
 3761 0273 31       		.uleb128 0x31
 3762 0274 13       		.uleb128 0x13
ARM GAS  C:\Users\25521\AppData\Local\Temp\ccoR8V9M.s 			page 67


 3763 0275 02       		.uleb128 0x2
 3764 0276 17       		.uleb128 0x17
 3765 0277 00       		.byte	0
 3766 0278 00       		.byte	0
 3767 0279 32       		.uleb128 0x32
 3768 027a 898201   		.uleb128 0x4109
 3769 027d 01       		.byte	0x1
 3770 027e 11       		.uleb128 0x11
 3771 027f 01       		.uleb128 0x1
 3772 0280 31       		.uleb128 0x31
 3773 0281 13       		.uleb128 0x13
 3774 0282 00       		.byte	0
 3775 0283 00       		.byte	0
 3776 0284 33       		.uleb128 0x33
 3777 0285 34       		.uleb128 0x34
 3778 0286 00       		.byte	0
 3779 0287 03       		.uleb128 0x3
 3780 0288 08       		.uleb128 0x8
 3781 0289 3A       		.uleb128 0x3a
 3782 028a 0B       		.uleb128 0xb
 3783 028b 3B       		.uleb128 0x3b
 3784 028c 0B       		.uleb128 0xb
 3785 028d 49       		.uleb128 0x49
 3786 028e 13       		.uleb128 0x13
 3787 028f 00       		.byte	0
 3788 0290 00       		.byte	0
 3789 0291 34       		.uleb128 0x34
 3790 0292 05       		.uleb128 0x5
 3791 0293 00       		.byte	0
 3792 0294 31       		.uleb128 0x31
 3793 0295 13       		.uleb128 0x13
 3794 0296 02       		.uleb128 0x2
 3795 0297 17       		.uleb128 0x17
 3796 0298 00       		.byte	0
 3797 0299 00       		.byte	0
 3798 029a 35       		.uleb128 0x35
 3799 029b 0B       		.uleb128 0xb
 3800 029c 01       		.byte	0x1
 3801 029d 55       		.uleb128 0x55
 3802 029e 17       		.uleb128 0x17
 3803 029f 01       		.uleb128 0x1
 3804 02a0 13       		.uleb128 0x13
 3805 02a1 00       		.byte	0
 3806 02a2 00       		.byte	0
 3807 02a3 36       		.uleb128 0x36
 3808 02a4 898201   		.uleb128 0x4109
 3809 02a7 01       		.byte	0x1
 3810 02a8 11       		.uleb128 0x11
 3811 02a9 01       		.uleb128 0x1
 3812 02aa 00       		.byte	0
 3813 02ab 00       		.byte	0
 3814 02ac 37       		.uleb128 0x37
 3815 02ad 2E       		.uleb128 0x2e
 3816 02ae 01       		.byte	0x1
 3817 02af 03       		.uleb128 0x3
 3818 02b0 0E       		.uleb128 0xe
 3819 02b1 3A       		.uleb128 0x3a
ARM GAS  C:\Users\25521\AppData\Local\Temp\ccoR8V9M.s 			page 68


 3820 02b2 0B       		.uleb128 0xb
 3821 02b3 3B       		.uleb128 0x3b
 3822 02b4 0B       		.uleb128 0xb
 3823 02b5 27       		.uleb128 0x27
 3824 02b6 19       		.uleb128 0x19
 3825 02b7 49       		.uleb128 0x49
 3826 02b8 13       		.uleb128 0x13
 3827 02b9 20       		.uleb128 0x20
 3828 02ba 0B       		.uleb128 0xb
 3829 02bb 01       		.uleb128 0x1
 3830 02bc 13       		.uleb128 0x13
 3831 02bd 00       		.byte	0
 3832 02be 00       		.byte	0
 3833 02bf 38       		.uleb128 0x38
 3834 02c0 05       		.uleb128 0x5
 3835 02c1 00       		.byte	0
 3836 02c2 03       		.uleb128 0x3
 3837 02c3 08       		.uleb128 0x8
 3838 02c4 3A       		.uleb128 0x3a
 3839 02c5 0B       		.uleb128 0xb
 3840 02c6 3B       		.uleb128 0x3b
 3841 02c7 0B       		.uleb128 0xb
 3842 02c8 49       		.uleb128 0x49
 3843 02c9 13       		.uleb128 0x13
 3844 02ca 00       		.byte	0
 3845 02cb 00       		.byte	0
 3846 02cc 39       		.uleb128 0x39
 3847 02cd 05       		.uleb128 0x5
 3848 02ce 00       		.byte	0
 3849 02cf 03       		.uleb128 0x3
 3850 02d0 0E       		.uleb128 0xe
 3851 02d1 3A       		.uleb128 0x3a
 3852 02d2 0B       		.uleb128 0xb
 3853 02d3 3B       		.uleb128 0x3b
 3854 02d4 0B       		.uleb128 0xb
 3855 02d5 49       		.uleb128 0x49
 3856 02d6 13       		.uleb128 0x13
 3857 02d7 00       		.byte	0
 3858 02d8 00       		.byte	0
 3859 02d9 3A       		.uleb128 0x3a
 3860 02da 2E       		.uleb128 0x2e
 3861 02db 00       		.byte	0
 3862 02dc 3F       		.uleb128 0x3f
 3863 02dd 19       		.uleb128 0x19
 3864 02de 3C       		.uleb128 0x3c
 3865 02df 19       		.uleb128 0x19
 3866 02e0 6E       		.uleb128 0x6e
 3867 02e1 0E       		.uleb128 0xe
 3868 02e2 03       		.uleb128 0x3
 3869 02e3 0E       		.uleb128 0xe
 3870 02e4 3A       		.uleb128 0x3a
 3871 02e5 0B       		.uleb128 0xb
 3872 02e6 3B       		.uleb128 0x3b
 3873 02e7 0B       		.uleb128 0xb
 3874 02e8 00       		.byte	0
 3875 02e9 00       		.byte	0
 3876 02ea 3B       		.uleb128 0x3b
ARM GAS  C:\Users\25521\AppData\Local\Temp\ccoR8V9M.s 			page 69


 3877 02eb 2E       		.uleb128 0x2e
 3878 02ec 00       		.byte	0
 3879 02ed 3F       		.uleb128 0x3f
 3880 02ee 19       		.uleb128 0x19
 3881 02ef 3C       		.uleb128 0x3c
 3882 02f0 19       		.uleb128 0x19
 3883 02f1 6E       		.uleb128 0x6e
 3884 02f2 0E       		.uleb128 0xe
 3885 02f3 03       		.uleb128 0x3
 3886 02f4 0E       		.uleb128 0xe
 3887 02f5 00       		.byte	0
 3888 02f6 00       		.byte	0
 3889 02f7 3C       		.uleb128 0x3c
 3890 02f8 2E       		.uleb128 0x2e
 3891 02f9 00       		.byte	0
 3892 02fa 3F       		.uleb128 0x3f
 3893 02fb 19       		.uleb128 0x19
 3894 02fc 3C       		.uleb128 0x3c
 3895 02fd 19       		.uleb128 0x19
 3896 02fe 6E       		.uleb128 0x6e
 3897 02ff 0E       		.uleb128 0xe
 3898 0300 03       		.uleb128 0x3
 3899 0301 0E       		.uleb128 0xe
 3900 0302 3A       		.uleb128 0x3a
 3901 0303 0B       		.uleb128 0xb
 3902 0304 3B       		.uleb128 0x3b
 3903 0305 0B       		.uleb128 0xb
 3904 0306 6E       		.uleb128 0x6e
 3905 0307 0E       		.uleb128 0xe
 3906 0308 00       		.byte	0
 3907 0309 00       		.byte	0
 3908 030a 00       		.byte	0
 3909              		.section	.debug_loc,"",%progbits
 3910              	.Ldebug_loc0:
 3911              	.LLST38:
 3912 0000 00000000 		.4byte	.LVL99
 3913 0004 16000000 		.4byte	.LVL100
 3914 0008 0100     		.2byte	0x1
 3915 000a 50       		.byte	0x50
 3916 000b 16000000 		.4byte	.LVL100
 3917 000f 34000000 		.4byte	.LVL102
 3918 0013 0100     		.2byte	0x1
 3919 0015 55       		.byte	0x55
 3920 0016 34000000 		.4byte	.LVL102
 3921 001a 38000000 		.4byte	.LVL103
 3922 001e 0400     		.2byte	0x4
 3923 0020 F3       		.byte	0xf3
 3924 0021 01       		.uleb128 0x1
 3925 0022 50       		.byte	0x50
 3926 0023 9F       		.byte	0x9f
 3927 0024 38000000 		.4byte	.LVL103
 3928 0028 40000000 		.4byte	.LFE12
 3929 002c 0100     		.2byte	0x1
 3930 002e 55       		.byte	0x55
 3931 002f 00000000 		.4byte	0
 3932 0033 00000000 		.4byte	0
 3933              	.LLST39:
ARM GAS  C:\Users\25521\AppData\Local\Temp\ccoR8V9M.s 			page 70


 3934 0037 00000000 		.4byte	.LVL99
 3935 003b 19000000 		.4byte	.LVL101-1
 3936 003f 0100     		.2byte	0x1
 3937 0041 51       		.byte	0x51
 3938 0042 19000000 		.4byte	.LVL101-1
 3939 0046 34000000 		.4byte	.LVL102
 3940 004a 0100     		.2byte	0x1
 3941 004c 54       		.byte	0x54
 3942 004d 34000000 		.4byte	.LVL102
 3943 0051 37000000 		.4byte	.LVL103-1
 3944 0055 0500     		.2byte	0x5
 3945 0057 F3       		.byte	0xf3
 3946 0058 01       		.uleb128 0x1
 3947 0059 50       		.byte	0x50
 3948 005a 23       		.byte	0x23
 3949 005b 04       		.uleb128 0x4
 3950 005c 37000000 		.4byte	.LVL103-1
 3951 0060 38000000 		.4byte	.LVL103
 3952 0064 0400     		.2byte	0x4
 3953 0066 F3       		.byte	0xf3
 3954 0067 01       		.uleb128 0x1
 3955 0068 51       		.byte	0x51
 3956 0069 9F       		.byte	0x9f
 3957 006a 38000000 		.4byte	.LVL103
 3958 006e 40000000 		.4byte	.LFE12
 3959 0072 0100     		.2byte	0x1
 3960 0074 54       		.byte	0x54
 3961 0075 00000000 		.4byte	0
 3962 0079 00000000 		.4byte	0
 3963              	.LLST40:
 3964 007d 00000000 		.4byte	.LVL99
 3965 0081 19000000 		.4byte	.LVL101-1
 3966 0085 0100     		.2byte	0x1
 3967 0087 52       		.byte	0x52
 3968 0088 19000000 		.4byte	.LVL101-1
 3969 008c 34000000 		.4byte	.LVL102
 3970 0090 0100     		.2byte	0x1
 3971 0092 58       		.byte	0x58
 3972 0093 34000000 		.4byte	.LVL102
 3973 0097 38000000 		.4byte	.LVL103
 3974 009b 0400     		.2byte	0x4
 3975 009d F3       		.byte	0xf3
 3976 009e 01       		.uleb128 0x1
 3977 009f 52       		.byte	0x52
 3978 00a0 9F       		.byte	0x9f
 3979 00a1 38000000 		.4byte	.LVL103
 3980 00a5 40000000 		.4byte	.LFE12
 3981 00a9 0100     		.2byte	0x1
 3982 00ab 58       		.byte	0x58
 3983 00ac 00000000 		.4byte	0
 3984 00b0 00000000 		.4byte	0
 3985              	.LLST41:
 3986 00b4 00000000 		.4byte	.LVL99
 3987 00b8 19000000 		.4byte	.LVL101-1
 3988 00bc 0100     		.2byte	0x1
 3989 00be 53       		.byte	0x53
 3990 00bf 19000000 		.4byte	.LVL101-1
ARM GAS  C:\Users\25521\AppData\Local\Temp\ccoR8V9M.s 			page 71


 3991 00c3 34000000 		.4byte	.LVL102
 3992 00c7 0100     		.2byte	0x1
 3993 00c9 57       		.byte	0x57
 3994 00ca 34000000 		.4byte	.LVL102
 3995 00ce 38000000 		.4byte	.LVL103
 3996 00d2 0400     		.2byte	0x4
 3997 00d4 F3       		.byte	0xf3
 3998 00d5 01       		.uleb128 0x1
 3999 00d6 53       		.byte	0x53
 4000 00d7 9F       		.byte	0x9f
 4001 00d8 38000000 		.4byte	.LVL103
 4002 00dc 40000000 		.4byte	.LFE12
 4003 00e0 0100     		.2byte	0x1
 4004 00e2 57       		.byte	0x57
 4005 00e3 00000000 		.4byte	0
 4006 00e7 00000000 		.4byte	0
 4007              	.LLST37:
 4008 00eb 00000000 		.4byte	.LVL91
 4009 00ef 0C000000 		.4byte	.LVL92
 4010 00f3 0100     		.2byte	0x1
 4011 00f5 50       		.byte	0x50
 4012 00f6 0C000000 		.4byte	.LVL92
 4013 00fa 38000000 		.4byte	.LFE11
 4014 00fe 0100     		.2byte	0x1
 4015 0100 54       		.byte	0x54
 4016 0101 00000000 		.4byte	0
 4017 0105 00000000 		.4byte	0
 4018              	.LLST34:
 4019 0109 00000000 		.4byte	.LVL83
 4020 010d 0E000000 		.4byte	.LVL84
 4021 0111 0100     		.2byte	0x1
 4022 0113 50       		.byte	0x50
 4023 0114 0E000000 		.4byte	.LVL84
 4024 0118 3A000000 		.4byte	.LVL88
 4025 011c 0100     		.2byte	0x1
 4026 011e 56       		.byte	0x56
 4027 011f 3A000000 		.4byte	.LVL88
 4028 0123 3E000000 		.4byte	.LVL89
 4029 0127 0400     		.2byte	0x4
 4030 0129 F3       		.byte	0xf3
 4031 012a 01       		.uleb128 0x1
 4032 012b 50       		.byte	0x50
 4033 012c 9F       		.byte	0x9f
 4034 012d 3E000000 		.4byte	.LVL89
 4035 0131 48000000 		.4byte	.LFE10
 4036 0135 0100     		.2byte	0x1
 4037 0137 56       		.byte	0x56
 4038 0138 00000000 		.4byte	0
 4039 013c 00000000 		.4byte	0
 4040              	.LLST35:
 4041 0140 00000000 		.4byte	.LVL83
 4042 0144 15000000 		.4byte	.LVL85-1
 4043 0148 0100     		.2byte	0x1
 4044 014a 51       		.byte	0x51
 4045 014b 15000000 		.4byte	.LVL85-1
 4046 014f 3A000000 		.4byte	.LVL88
 4047 0153 0100     		.2byte	0x1
ARM GAS  C:\Users\25521\AppData\Local\Temp\ccoR8V9M.s 			page 72


 4048 0155 55       		.byte	0x55
 4049 0156 3A000000 		.4byte	.LVL88
 4050 015a 3E000000 		.4byte	.LVL89
 4051 015e 0400     		.2byte	0x4
 4052 0160 F3       		.byte	0xf3
 4053 0161 01       		.uleb128 0x1
 4054 0162 51       		.byte	0x51
 4055 0163 9F       		.byte	0x9f
 4056 0164 3E000000 		.4byte	.LVL89
 4057 0168 48000000 		.4byte	.LFE10
 4058 016c 0100     		.2byte	0x1
 4059 016e 55       		.byte	0x55
 4060 016f 00000000 		.4byte	0
 4061 0173 00000000 		.4byte	0
 4062              	.LLST36:
 4063 0177 00000000 		.4byte	.LVL83
 4064 017b 15000000 		.4byte	.LVL85-1
 4065 017f 0100     		.2byte	0x1
 4066 0181 52       		.byte	0x52
 4067 0182 15000000 		.4byte	.LVL85-1
 4068 0186 3A000000 		.4byte	.LVL88
 4069 018a 0100     		.2byte	0x1
 4070 018c 54       		.byte	0x54
 4071 018d 3A000000 		.4byte	.LVL88
 4072 0191 3E000000 		.4byte	.LVL89
 4073 0195 0400     		.2byte	0x4
 4074 0197 F3       		.byte	0xf3
 4075 0198 01       		.uleb128 0x1
 4076 0199 52       		.byte	0x52
 4077 019a 9F       		.byte	0x9f
 4078 019b 3E000000 		.4byte	.LVL89
 4079 019f 48000000 		.4byte	.LFE10
 4080 01a3 0100     		.2byte	0x1
 4081 01a5 54       		.byte	0x54
 4082 01a6 00000000 		.4byte	0
 4083 01aa 00000000 		.4byte	0
 4084              	.LLST31:
 4085 01ae 00000000 		.4byte	.LVL80
 4086 01b2 1D000000 		.4byte	.LVL82-1
 4087 01b6 0100     		.2byte	0x1
 4088 01b8 50       		.byte	0x50
 4089 01b9 1D000000 		.4byte	.LVL82-1
 4090 01bd 24000000 		.4byte	.LFE9
 4091 01c1 0400     		.2byte	0x4
 4092 01c3 F3       		.byte	0xf3
 4093 01c4 01       		.uleb128 0x1
 4094 01c5 50       		.byte	0x50
 4095 01c6 9F       		.byte	0x9f
 4096 01c7 00000000 		.4byte	0
 4097 01cb 00000000 		.4byte	0
 4098              	.LLST32:
 4099 01cf 00000000 		.4byte	.LVL80
 4100 01d3 10000000 		.4byte	.LVL81
 4101 01d7 0100     		.2byte	0x1
 4102 01d9 51       		.byte	0x51
 4103 01da 10000000 		.4byte	.LVL81
 4104 01de 1D000000 		.4byte	.LVL82-1
ARM GAS  C:\Users\25521\AppData\Local\Temp\ccoR8V9M.s 			page 73


 4105 01e2 0200     		.2byte	0x2
 4106 01e4 70       		.byte	0x70
 4107 01e5 00       		.sleb128 0
 4108 01e6 1D000000 		.4byte	.LVL82-1
 4109 01ea 24000000 		.4byte	.LFE9
 4110 01ee 0400     		.2byte	0x4
 4111 01f0 F3       		.byte	0xf3
 4112 01f1 01       		.uleb128 0x1
 4113 01f2 51       		.byte	0x51
 4114 01f3 9F       		.byte	0x9f
 4115 01f4 00000000 		.4byte	0
 4116 01f8 00000000 		.4byte	0
 4117              	.LLST33:
 4118 01fc 00000000 		.4byte	.LVL80
 4119 0200 1D000000 		.4byte	.LVL82-1
 4120 0204 0100     		.2byte	0x1
 4121 0206 52       		.byte	0x52
 4122 0207 1D000000 		.4byte	.LVL82-1
 4123 020b 24000000 		.4byte	.LFE9
 4124 020f 0400     		.2byte	0x4
 4125 0211 F3       		.byte	0xf3
 4126 0212 01       		.uleb128 0x1
 4127 0213 52       		.byte	0x52
 4128 0214 9F       		.byte	0x9f
 4129 0215 00000000 		.4byte	0
 4130 0219 00000000 		.4byte	0
 4131              	.LLST28:
 4132 021d 00000000 		.4byte	.LVL72
 4133 0221 0C000000 		.4byte	.LVL73
 4134 0225 0100     		.2byte	0x1
 4135 0227 50       		.byte	0x50
 4136 0228 0C000000 		.4byte	.LVL73
 4137 022c 36000000 		.4byte	.LVL77
 4138 0230 0100     		.2byte	0x1
 4139 0232 54       		.byte	0x54
 4140 0233 36000000 		.4byte	.LVL77
 4141 0237 3A000000 		.4byte	.LVL78
 4142 023b 0400     		.2byte	0x4
 4143 023d F3       		.byte	0xf3
 4144 023e 01       		.uleb128 0x1
 4145 023f 50       		.byte	0x50
 4146 0240 9F       		.byte	0x9f
 4147 0241 3A000000 		.4byte	.LVL78
 4148 0245 44000000 		.4byte	.LFE8
 4149 0249 0100     		.2byte	0x1
 4150 024b 54       		.byte	0x54
 4151 024c 00000000 		.4byte	0
 4152 0250 00000000 		.4byte	0
 4153              	.LLST29:
 4154 0254 00000000 		.4byte	.LVL72
 4155 0258 15000000 		.4byte	.LVL74-1
 4156 025c 0100     		.2byte	0x1
 4157 025e 51       		.byte	0x51
 4158 025f 15000000 		.4byte	.LVL74-1
 4159 0263 36000000 		.4byte	.LVL77
 4160 0267 0100     		.2byte	0x1
 4161 0269 56       		.byte	0x56
ARM GAS  C:\Users\25521\AppData\Local\Temp\ccoR8V9M.s 			page 74


 4162 026a 36000000 		.4byte	.LVL77
 4163 026e 3A000000 		.4byte	.LVL78
 4164 0272 0400     		.2byte	0x4
 4165 0274 F3       		.byte	0xf3
 4166 0275 01       		.uleb128 0x1
 4167 0276 51       		.byte	0x51
 4168 0277 9F       		.byte	0x9f
 4169 0278 3A000000 		.4byte	.LVL78
 4170 027c 44000000 		.4byte	.LFE8
 4171 0280 0100     		.2byte	0x1
 4172 0282 56       		.byte	0x56
 4173 0283 00000000 		.4byte	0
 4174 0287 00000000 		.4byte	0
 4175              	.LLST30:
 4176 028b 00000000 		.4byte	.LVL72
 4177 028f 15000000 		.4byte	.LVL74-1
 4178 0293 0100     		.2byte	0x1
 4179 0295 52       		.byte	0x52
 4180 0296 15000000 		.4byte	.LVL74-1
 4181 029a 36000000 		.4byte	.LVL77
 4182 029e 0100     		.2byte	0x1
 4183 02a0 57       		.byte	0x57
 4184 02a1 36000000 		.4byte	.LVL77
 4185 02a5 3A000000 		.4byte	.LVL78
 4186 02a9 0400     		.2byte	0x4
 4187 02ab F3       		.byte	0xf3
 4188 02ac 01       		.uleb128 0x1
 4189 02ad 52       		.byte	0x52
 4190 02ae 9F       		.byte	0x9f
 4191 02af 3A000000 		.4byte	.LVL78
 4192 02b3 44000000 		.4byte	.LFE8
 4193 02b7 0100     		.2byte	0x1
 4194 02b9 57       		.byte	0x57
 4195 02ba 00000000 		.4byte	0
 4196 02be 00000000 		.4byte	0
 4197              	.LLST24:
 4198 02c2 00000000 		.4byte	.LVL63
 4199 02c6 0E000000 		.4byte	.LVL64
 4200 02ca 0100     		.2byte	0x1
 4201 02cc 50       		.byte	0x50
 4202 02cd 0E000000 		.4byte	.LVL64
 4203 02d1 48000000 		.4byte	.LFE7
 4204 02d5 0100     		.2byte	0x1
 4205 02d7 54       		.byte	0x54
 4206 02d8 00000000 		.4byte	0
 4207 02dc 00000000 		.4byte	0
 4208              	.LLST25:
 4209 02e0 00000000 		.4byte	.LVL63
 4210 02e4 17000000 		.4byte	.LVL66-1
 4211 02e8 0100     		.2byte	0x1
 4212 02ea 51       		.byte	0x51
 4213 02eb 17000000 		.4byte	.LVL66-1
 4214 02ef 48000000 		.4byte	.LFE7
 4215 02f3 0100     		.2byte	0x1
 4216 02f5 57       		.byte	0x57
 4217 02f6 00000000 		.4byte	0
 4218 02fa 00000000 		.4byte	0
ARM GAS  C:\Users\25521\AppData\Local\Temp\ccoR8V9M.s 			page 75


 4219              	.LLST26:
 4220 02fe 00000000 		.4byte	.LVL63
 4221 0302 17000000 		.4byte	.LVL66-1
 4222 0306 0100     		.2byte	0x1
 4223 0308 52       		.byte	0x52
 4224 0309 17000000 		.4byte	.LVL66-1
 4225 030d 48000000 		.4byte	.LFE7
 4226 0311 0100     		.2byte	0x1
 4227 0313 58       		.byte	0x58
 4228 0314 00000000 		.4byte	0
 4229 0318 00000000 		.4byte	0
 4230              	.LLST27:
 4231 031c 10000000 		.4byte	.LVL65
 4232 0320 1E000000 		.4byte	.LVL67
 4233 0324 0200     		.2byte	0x2
 4234 0326 30       		.byte	0x30
 4235 0327 9F       		.byte	0x9f
 4236 0328 1E000000 		.4byte	.LVL67
 4237 032c 28000000 		.4byte	.LVL68
 4238 0330 0200     		.2byte	0x2
 4239 0332 31       		.byte	0x31
 4240 0333 9F       		.byte	0x9f
 4241 0334 28000000 		.4byte	.LVL68
 4242 0338 48000000 		.4byte	.LFE7
 4243 033c 0100     		.2byte	0x1
 4244 033e 56       		.byte	0x56
 4245 033f 00000000 		.4byte	0
 4246 0343 00000000 		.4byte	0
 4247              	.LLST20:
 4248 0347 00000000 		.4byte	.LVL48
 4249 034b 0E000000 		.4byte	.LVL49
 4250 034f 0100     		.2byte	0x1
 4251 0351 50       		.byte	0x50
 4252 0352 0E000000 		.4byte	.LVL49
 4253 0356 78000000 		.4byte	.LFE6
 4254 035a 0100     		.2byte	0x1
 4255 035c 55       		.byte	0x55
 4256 035d 00000000 		.4byte	0
 4257 0361 00000000 		.4byte	0
 4258              	.LLST21:
 4259 0365 00000000 		.4byte	.LVL48
 4260 0369 14000000 		.4byte	.LVL50
 4261 036d 0100     		.2byte	0x1
 4262 036f 51       		.byte	0x51
 4263 0370 14000000 		.4byte	.LVL50
 4264 0374 20000000 		.4byte	.LVL51
 4265 0378 0400     		.2byte	0x4
 4266 037a F3       		.byte	0xf3
 4267 037b 01       		.uleb128 0x1
 4268 037c 51       		.byte	0x51
 4269 037d 9F       		.byte	0x9f
 4270 037e 20000000 		.4byte	.LVL51
 4271 0382 29000000 		.4byte	.LVL52-1
 4272 0386 0100     		.2byte	0x1
 4273 0388 51       		.byte	0x51
 4274 0389 29000000 		.4byte	.LVL52-1
 4275 038d 70000000 		.4byte	.LVL61
ARM GAS  C:\Users\25521\AppData\Local\Temp\ccoR8V9M.s 			page 76


 4276 0391 0100     		.2byte	0x1
 4277 0393 57       		.byte	0x57
 4278 0394 70000000 		.4byte	.LVL61
 4279 0398 78000000 		.4byte	.LFE6
 4280 039c 0400     		.2byte	0x4
 4281 039e F3       		.byte	0xf3
 4282 039f 01       		.uleb128 0x1
 4283 03a0 51       		.byte	0x51
 4284 03a1 9F       		.byte	0x9f
 4285 03a2 00000000 		.4byte	0
 4286 03a6 00000000 		.4byte	0
 4287              	.LLST22:
 4288 03aa 00000000 		.4byte	.LVL48
 4289 03ae 14000000 		.4byte	.LVL50
 4290 03b2 0100     		.2byte	0x1
 4291 03b4 52       		.byte	0x52
 4292 03b5 14000000 		.4byte	.LVL50
 4293 03b9 20000000 		.4byte	.LVL51
 4294 03bd 0400     		.2byte	0x4
 4295 03bf F3       		.byte	0xf3
 4296 03c0 01       		.uleb128 0x1
 4297 03c1 52       		.byte	0x52
 4298 03c2 9F       		.byte	0x9f
 4299 03c3 20000000 		.4byte	.LVL51
 4300 03c7 29000000 		.4byte	.LVL52-1
 4301 03cb 0100     		.2byte	0x1
 4302 03cd 52       		.byte	0x52
 4303 03ce 29000000 		.4byte	.LVL52-1
 4304 03d2 42000000 		.4byte	.LVL55
 4305 03d6 0100     		.2byte	0x1
 4306 03d8 54       		.byte	0x54
 4307 03d9 42000000 		.4byte	.LVL55
 4308 03dd 78000000 		.4byte	.LFE6
 4309 03e1 0400     		.2byte	0x4
 4310 03e3 F3       		.byte	0xf3
 4311 03e4 01       		.uleb128 0x1
 4312 03e5 52       		.byte	0x52
 4313 03e6 9F       		.byte	0x9f
 4314 03e7 00000000 		.4byte	0
 4315 03eb 00000000 		.4byte	0
 4316              	.LLST23:
 4317 03ef 42000000 		.4byte	.LVL55
 4318 03f3 70000000 		.4byte	.LVL61
 4319 03f7 0100     		.2byte	0x1
 4320 03f9 54       		.byte	0x54
 4321 03fa 00000000 		.4byte	0
 4322 03fe 00000000 		.4byte	0
 4323              	.LLST16:
 4324 0402 00000000 		.4byte	.LVL33
 4325 0406 0C000000 		.4byte	.LVL34
 4326 040a 0100     		.2byte	0x1
 4327 040c 50       		.byte	0x50
 4328 040d 0C000000 		.4byte	.LVL34
 4329 0411 50000000 		.4byte	.LFE5
 4330 0415 0100     		.2byte	0x1
 4331 0417 56       		.byte	0x56
 4332 0418 00000000 		.4byte	0
ARM GAS  C:\Users\25521\AppData\Local\Temp\ccoR8V9M.s 			page 77


 4333 041c 00000000 		.4byte	0
 4334              	.LLST17:
 4335 0420 00000000 		.4byte	.LVL33
 4336 0424 13000000 		.4byte	.LVL36-1
 4337 0428 0100     		.2byte	0x1
 4338 042a 51       		.byte	0x51
 4339 042b 13000000 		.4byte	.LVL36-1
 4340 042f 50000000 		.4byte	.LFE5
 4341 0433 0100     		.2byte	0x1
 4342 0435 55       		.byte	0x55
 4343 0436 00000000 		.4byte	0
 4344 043a 00000000 		.4byte	0
 4345              	.LLST18:
 4346 043e 0E000000 		.4byte	.LVL35
 4347 0442 2C000000 		.4byte	.LVL42
 4348 0446 0200     		.2byte	0x2
 4349 0448 30       		.byte	0x30
 4350 0449 9F       		.byte	0x9f
 4351 044a 2C000000 		.4byte	.LVL42
 4352 044e 40000000 		.4byte	.LVL44
 4353 0452 0100     		.2byte	0x1
 4354 0454 54       		.byte	0x54
 4355 0455 48000000 		.4byte	.LVL46
 4356 0459 4B000000 		.4byte	.LVL47-1
 4357 045d 0100     		.2byte	0x1
 4358 045f 50       		.byte	0x50
 4359 0460 4B000000 		.4byte	.LVL47-1
 4360 0464 50000000 		.4byte	.LFE5
 4361 0468 0100     		.2byte	0x1
 4362 046a 54       		.byte	0x54
 4363 046b 00000000 		.4byte	0
 4364 046f 00000000 		.4byte	0
 4365              	.LLST19:
 4366 0473 16000000 		.4byte	.LVL37
 4367 0477 1A000000 		.4byte	.LVL38
 4368 047b 0200     		.2byte	0x2
 4369 047d 76       		.byte	0x76
 4370 047e 00       		.sleb128 0
 4371 047f 1A000000 		.4byte	.LVL38
 4372 0483 2C000000 		.4byte	.LVL42
 4373 0487 0100     		.2byte	0x1
 4374 0489 54       		.byte	0x54
 4375 048a 00000000 		.4byte	0
 4376 048e 00000000 		.4byte	0
 4377              	.LLST12:
 4378 0492 00000000 		.4byte	.LVL23
 4379 0496 0C000000 		.4byte	.LVL24
 4380 049a 0100     		.2byte	0x1
 4381 049c 50       		.byte	0x50
 4382 049d 0C000000 		.4byte	.LVL24
 4383 04a1 48000000 		.4byte	.LFE4
 4384 04a5 0100     		.2byte	0x1
 4385 04a7 56       		.byte	0x56
 4386 04a8 00000000 		.4byte	0
 4387 04ac 00000000 		.4byte	0
 4388              	.LLST13:
 4389 04b0 00000000 		.4byte	.LVL23
ARM GAS  C:\Users\25521\AppData\Local\Temp\ccoR8V9M.s 			page 78


 4390 04b4 13000000 		.4byte	.LVL25-1
 4391 04b8 0100     		.2byte	0x1
 4392 04ba 51       		.byte	0x51
 4393 04bb 13000000 		.4byte	.LVL25-1
 4394 04bf 48000000 		.4byte	.LFE4
 4395 04c3 0100     		.2byte	0x1
 4396 04c5 55       		.byte	0x55
 4397 04c6 00000000 		.4byte	0
 4398 04ca 00000000 		.4byte	0
 4399              	.LLST14:
 4400 04ce 16000000 		.4byte	.LVL26
 4401 04d2 2C000000 		.4byte	.LVL29
 4402 04d6 0100     		.2byte	0x1
 4403 04d8 55       		.byte	0x55
 4404 04d9 00000000 		.4byte	0
 4405 04dd 00000000 		.4byte	0
 4406              	.LLST15:
 4407 04e1 16000000 		.4byte	.LVL26
 4408 04e5 2C000000 		.4byte	.LVL29
 4409 04e9 0100     		.2byte	0x1
 4410 04eb 54       		.byte	0x54
 4411 04ec 00000000 		.4byte	0
 4412 04f0 00000000 		.4byte	0
 4413              	.LLST8:
 4414 04f4 00000000 		.4byte	.LVL9
 4415 04f8 16000000 		.4byte	.LVL11
 4416 04fc 0100     		.2byte	0x1
 4417 04fe 50       		.byte	0x50
 4418 04ff 16000000 		.4byte	.LVL11
 4419 0503 5E000000 		.4byte	.LVL20
 4420 0507 0100     		.2byte	0x1
 4421 0509 55       		.byte	0x55
 4422 050a 5E000000 		.4byte	.LVL20
 4423 050e 62000000 		.4byte	.LVL21
 4424 0512 0400     		.2byte	0x4
 4425 0514 F3       		.byte	0xf3
 4426 0515 01       		.uleb128 0x1
 4427 0516 50       		.byte	0x50
 4428 0517 9F       		.byte	0x9f
 4429 0518 62000000 		.4byte	.LVL21
 4430 051c 6C000000 		.4byte	.LFE3
 4431 0520 0100     		.2byte	0x1
 4432 0522 55       		.byte	0x55
 4433 0523 00000000 		.4byte	0
 4434 0527 00000000 		.4byte	0
 4435              	.LLST9:
 4436 052b 00000000 		.4byte	.LVL9
 4437 052f 1A000000 		.4byte	.LVL12
 4438 0533 0100     		.2byte	0x1
 4439 0535 51       		.byte	0x51
 4440 0536 1A000000 		.4byte	.LVL12
 4441 053a 5E000000 		.4byte	.LVL20
 4442 053e 0100     		.2byte	0x1
 4443 0540 56       		.byte	0x56
 4444 0541 5E000000 		.4byte	.LVL20
 4445 0545 62000000 		.4byte	.LVL21
 4446 0549 0400     		.2byte	0x4
ARM GAS  C:\Users\25521\AppData\Local\Temp\ccoR8V9M.s 			page 79


 4447 054b F3       		.byte	0xf3
 4448 054c 01       		.uleb128 0x1
 4449 054d 51       		.byte	0x51
 4450 054e 9F       		.byte	0x9f
 4451 054f 62000000 		.4byte	.LVL21
 4452 0553 6C000000 		.4byte	.LFE3
 4453 0557 0100     		.2byte	0x1
 4454 0559 56       		.byte	0x56
 4455 055a 00000000 		.4byte	0
 4456 055e 00000000 		.4byte	0
 4457              	.LLST10:
 4458 0562 00000000 		.4byte	.LVL9
 4459 0566 0E000000 		.4byte	.LVL10
 4460 056a 0100     		.2byte	0x1
 4461 056c 52       		.byte	0x52
 4462 056d 0E000000 		.4byte	.LVL10
 4463 0571 34000000 		.4byte	.LVL16
 4464 0575 0100     		.2byte	0x1
 4465 0577 54       		.byte	0x54
 4466 0578 34000000 		.4byte	.LVL16
 4467 057c 6C000000 		.4byte	.LFE3
 4468 0580 0400     		.2byte	0x4
 4469 0582 F3       		.byte	0xf3
 4470 0583 01       		.uleb128 0x1
 4471 0584 52       		.byte	0x52
 4472 0585 9F       		.byte	0x9f
 4473 0586 00000000 		.4byte	0
 4474 058a 00000000 		.4byte	0
 4475              	.LLST11:
 4476 058e 34000000 		.4byte	.LVL16
 4477 0592 5E000000 		.4byte	.LVL20
 4478 0596 0100     		.2byte	0x1
 4479 0598 54       		.byte	0x54
 4480 0599 62000000 		.4byte	.LVL21
 4481 059d 6C000000 		.4byte	.LFE3
 4482 05a1 0100     		.2byte	0x1
 4483 05a3 54       		.byte	0x54
 4484 05a4 00000000 		.4byte	0
 4485 05a8 00000000 		.4byte	0
 4486              	.LLST3:
 4487 05ac 00000000 		.4byte	.LVL2
 4488 05b0 16000000 		.4byte	.LVL3
 4489 05b4 0100     		.2byte	0x1
 4490 05b6 50       		.byte	0x50
 4491 05b7 16000000 		.4byte	.LVL3
 4492 05bb 44000000 		.4byte	.LFE2
 4493 05bf 0100     		.2byte	0x1
 4494 05c1 54       		.byte	0x54
 4495 05c2 00000000 		.4byte	0
 4496 05c6 00000000 		.4byte	0
 4497              	.LLST4:
 4498 05ca 00000000 		.4byte	.LVL2
 4499 05ce 1A000000 		.4byte	.LVL5
 4500 05d2 0100     		.2byte	0x1
 4501 05d4 51       		.byte	0x51
 4502 05d5 1A000000 		.4byte	.LVL5
 4503 05d9 44000000 		.4byte	.LFE2
ARM GAS  C:\Users\25521\AppData\Local\Temp\ccoR8V9M.s 			page 80


 4504 05dd 0100     		.2byte	0x1
 4505 05df 57       		.byte	0x57
 4506 05e0 00000000 		.4byte	0
 4507 05e4 00000000 		.4byte	0
 4508              	.LLST5:
 4509 05e8 00000000 		.4byte	.LVL2
 4510 05ec 18000000 		.4byte	.LVL4
 4511 05f0 0100     		.2byte	0x1
 4512 05f2 52       		.byte	0x52
 4513 05f3 18000000 		.4byte	.LVL4
 4514 05f7 44000000 		.4byte	.LFE2
 4515 05fb 0100     		.2byte	0x1
 4516 05fd 56       		.byte	0x56
 4517 05fe 00000000 		.4byte	0
 4518 0602 00000000 		.4byte	0
 4519              	.LLST6:
 4520 0606 00000000 		.4byte	.LVL2
 4521 060a 21000000 		.4byte	.LVL6-1
 4522 060e 0100     		.2byte	0x1
 4523 0610 53       		.byte	0x53
 4524 0611 21000000 		.4byte	.LVL6-1
 4525 0615 44000000 		.4byte	.LFE2
 4526 0619 0100     		.2byte	0x1
 4527 061b 59       		.byte	0x59
 4528 061c 00000000 		.4byte	0
 4529 0620 00000000 		.4byte	0
 4530              	.LLST7:
 4531 0624 00000000 		.4byte	.LVL2
 4532 0628 3A000000 		.4byte	.LVL7
 4533 062c 0200     		.2byte	0x2
 4534 062e 91       		.byte	0x91
 4535 062f 00       		.sleb128 0
 4536 0630 3A000000 		.4byte	.LVL7
 4537 0634 44000000 		.4byte	.LFE2
 4538 0638 0200     		.2byte	0x2
 4539 063a 91       		.byte	0x91
 4540 063b 00       		.sleb128 0
 4541 063c 00000000 		.4byte	0
 4542 0640 00000000 		.4byte	0
 4543              	.LLST0:
 4544 0644 00000000 		.4byte	.LVL0
 4545 0648 23000000 		.4byte	.LVL1-1
 4546 064c 0100     		.2byte	0x1
 4547 064e 50       		.byte	0x50
 4548 064f 23000000 		.4byte	.LVL1-1
 4549 0653 28000000 		.4byte	.LFE1
 4550 0657 0400     		.2byte	0x4
 4551 0659 F3       		.byte	0xf3
 4552 065a 01       		.uleb128 0x1
 4553 065b 50       		.byte	0x50
 4554 065c 9F       		.byte	0x9f
 4555 065d 00000000 		.4byte	0
 4556 0661 00000000 		.4byte	0
 4557              	.LLST1:
 4558 0665 00000000 		.4byte	.LVL0
 4559 0669 23000000 		.4byte	.LVL1-1
 4560 066d 0100     		.2byte	0x1
ARM GAS  C:\Users\25521\AppData\Local\Temp\ccoR8V9M.s 			page 81


 4561 066f 51       		.byte	0x51
 4562 0670 23000000 		.4byte	.LVL1-1
 4563 0674 28000000 		.4byte	.LFE1
 4564 0678 0400     		.2byte	0x4
 4565 067a F3       		.byte	0xf3
 4566 067b 01       		.uleb128 0x1
 4567 067c 51       		.byte	0x51
 4568 067d 9F       		.byte	0x9f
 4569 067e 00000000 		.4byte	0
 4570 0682 00000000 		.4byte	0
 4571              	.LLST2:
 4572 0686 00000000 		.4byte	.LVL0
 4573 068a 23000000 		.4byte	.LVL1-1
 4574 068e 0100     		.2byte	0x1
 4575 0690 52       		.byte	0x52
 4576 0691 23000000 		.4byte	.LVL1-1
 4577 0695 28000000 		.4byte	.LFE1
 4578 0699 0400     		.2byte	0x4
 4579 069b F3       		.byte	0xf3
 4580 069c 01       		.uleb128 0x1
 4581 069d 52       		.byte	0x52
 4582 069e 9F       		.byte	0x9f
 4583 069f 00000000 		.4byte	0
 4584 06a3 00000000 		.4byte	0
 4585              		.section	.debug_aranges,"",%progbits
 4586 0000 74000000 		.4byte	0x74
 4587 0004 0200     		.2byte	0x2
 4588 0006 00000000 		.4byte	.Ldebug_info0
 4589 000a 04       		.byte	0x4
 4590 000b 00       		.byte	0
 4591 000c 0000     		.2byte	0
 4592 000e 0000     		.2byte	0
 4593 0010 00000000 		.4byte	.LFB1
 4594 0014 28000000 		.4byte	.LFE1-.LFB1
 4595 0018 00000000 		.4byte	.LFB2
 4596 001c 44000000 		.4byte	.LFE2-.LFB2
 4597 0020 00000000 		.4byte	.LFB3
 4598 0024 6C000000 		.4byte	.LFE3-.LFB3
 4599 0028 00000000 		.4byte	.LFB4
 4600 002c 48000000 		.4byte	.LFE4-.LFB4
 4601 0030 00000000 		.4byte	.LFB5
 4602 0034 50000000 		.4byte	.LFE5-.LFB5
 4603 0038 00000000 		.4byte	.LFB6
 4604 003c 78000000 		.4byte	.LFE6-.LFB6
 4605 0040 00000000 		.4byte	.LFB7
 4606 0044 48000000 		.4byte	.LFE7-.LFB7
 4607 0048 00000000 		.4byte	.LFB8
 4608 004c 44000000 		.4byte	.LFE8-.LFB8
 4609 0050 00000000 		.4byte	.LFB9
 4610 0054 24000000 		.4byte	.LFE9-.LFB9
 4611 0058 00000000 		.4byte	.LFB10
 4612 005c 48000000 		.4byte	.LFE10-.LFB10
 4613 0060 00000000 		.4byte	.LFB11
 4614 0064 38000000 		.4byte	.LFE11-.LFB11
 4615 0068 00000000 		.4byte	.LFB12
 4616 006c 40000000 		.4byte	.LFE12-.LFB12
 4617 0070 00000000 		.4byte	0
ARM GAS  C:\Users\25521\AppData\Local\Temp\ccoR8V9M.s 			page 82


 4618 0074 00000000 		.4byte	0
 4619              		.section	.debug_ranges,"",%progbits
 4620              	.Ldebug_ranges0:
 4621 0000 32000000 		.4byte	.LBB6
 4622 0004 34000000 		.4byte	.LBE6
 4623 0008 36000000 		.4byte	.LBB7
 4624 000c 48000000 		.4byte	.LBE7
 4625 0010 00000000 		.4byte	0
 4626 0014 00000000 		.4byte	0
 4627 0018 00000000 		.4byte	.LFB1
 4628 001c 28000000 		.4byte	.LFE1
 4629 0020 00000000 		.4byte	.LFB2
 4630 0024 44000000 		.4byte	.LFE2
 4631 0028 00000000 		.4byte	.LFB3
 4632 002c 6C000000 		.4byte	.LFE3
 4633 0030 00000000 		.4byte	.LFB4
 4634 0034 48000000 		.4byte	.LFE4
 4635 0038 00000000 		.4byte	.LFB5
 4636 003c 50000000 		.4byte	.LFE5
 4637 0040 00000000 		.4byte	.LFB6
 4638 0044 78000000 		.4byte	.LFE6
 4639 0048 00000000 		.4byte	.LFB7
 4640 004c 48000000 		.4byte	.LFE7
 4641 0050 00000000 		.4byte	.LFB8
 4642 0054 44000000 		.4byte	.LFE8
 4643 0058 00000000 		.4byte	.LFB9
 4644 005c 24000000 		.4byte	.LFE9
 4645 0060 00000000 		.4byte	.LFB10
 4646 0064 48000000 		.4byte	.LFE10
 4647 0068 00000000 		.4byte	.LFB11
 4648 006c 38000000 		.4byte	.LFE11
 4649 0070 00000000 		.4byte	.LFB12
 4650 0074 40000000 		.4byte	.LFE12
 4651 0078 00000000 		.4byte	0
 4652 007c 00000000 		.4byte	0
 4653              		.section	.debug_line,"",%progbits
 4654              	.Ldebug_line0:
 4655 0000 7D030000 		.section	.debug_str,"MS",%progbits,1
 4655      02001102 
 4655      00000201 
 4655      FB0E0D00 
 4655      01010101 
 4656              	.LASF72:
 4657 0000 5F64736F 		.ascii	"_dso_handle\000"
 4657      5F68616E 
 4657      646C6500 
 4658              	.LASF166:
 4659 000c 6D657373 		.ascii	"messagebus_find_topic_blocking\000"
 4659      61676562 
 4659      75735F66 
 4659      696E645F 
 4659      746F7069 
 4660              	.LASF80:
 4661 002b 5F73697A 		.ascii	"_size\000"
 4661      6500
 4662              	.LASF177:
 4663 0031 73747263 		.ascii	"strcmp\000"
ARM GAS  C:\Users\25521\AppData\Local\Temp\ccoR8V9M.s 			page 83


 4663      6D7000
 4664              	.LASF10:
 4665 0038 73697A65 		.ascii	"size_t\000"
 4665      5F7400
 4666              	.LASF124:
 4667 003f 5F72616E 		.ascii	"_rand48\000"
 4667      64343800 
 4668              	.LASF47:
 4669 0047 63616C6C 		.ascii	"callback_arg\000"
 4669      6261636B 
 4669      5F617267 
 4669      00
 4670              	.LASF104:
 4671 0054 5F656D65 		.ascii	"_emergency\000"
 4671      7267656E 
 4671      637900
 4672              	.LASF53:
 4673 005f 6D657373 		.ascii	"messagebus_new_topic_cb_t\000"
 4673      61676562 
 4673      75735F6E 
 4673      65775F74 
 4673      6F706963 
 4674              	.LASF140:
 4675 0079 5F676574 		.ascii	"_getdate_err\000"
 4675      64617465 
 4675      5F657272 
 4675      00
 4676              	.LASF94:
 4677 0086 5F646174 		.ascii	"_data\000"
 4677      6100
 4678              	.LASF182:
 4679 008c 7374726E 		.ascii	"strncpy\000"
 4679      63707900 
 4680              	.LASF144:
 4681 0094 5F776372 		.ascii	"_wcrtomb_state\000"
 4681      746F6D62 
 4681      5F737461 
 4681      746500
 4682              	.LASF48:
 4683 00a3 6D657373 		.ascii	"messagebus_t\000"
 4683      61676562 
 4683      75735F74 
 4683      00
 4684              	.LASF145:
 4685 00b0 5F776373 		.ascii	"_wcsrtombs_state\000"
 4685      72746F6D 
 4685      62735F73 
 4685      74617465 
 4685      00
 4686              	.LASF181:
 4687 00c1 5F5F6275 		.ascii	"__builtin_memset\000"
 4687      696C7469 
 4687      6E5F6D65 
 4687      6D736574 
 4687      00
 4688              	.LASF7:
 4689 00d2 6C6F6E67 		.ascii	"long long unsigned int\000"
ARM GAS  C:\Users\25521\AppData\Local\Temp\ccoR8V9M.s 			page 84


 4689      206C6F6E 
 4689      6720756E 
 4689      7369676E 
 4689      65642069 
 4690              	.LASF84:
 4691 00e9 5F6C6266 		.ascii	"_lbfsize\000"
 4691      73697A65 
 4691      00
 4692              	.LASF169:
 4693 00f2 6D657373 		.ascii	"messagebus_topic_init\000"
 4693      61676562 
 4693      75735F74 
 4693      6F706963 
 4693      5F696E69 
 4694              	.LASF157:
 4695 0108 77617463 		.ascii	"watcher\000"
 4695      68657200 
 4696              	.LASF151:
 4697 0110 5F5F6C6F 		.ascii	"__locale_t\000"
 4697      63616C65 
 4697      5F7400
 4698              	.LASF170:
 4699 011b 746F7069 		.ascii	"topic_lock\000"
 4699      635F6C6F 
 4699      636B00
 4700              	.LASF142:
 4701 0126 5F6D6272 		.ascii	"_mbrtowc_state\000"
 4701      746F7763 
 4701      5F737461 
 4701      746500
 4702              	.LASF35:
 4703 0135 6E657874 		.ascii	"next\000"
 4703      00
 4704              	.LASF61:
 4705 013a 5F5F746D 		.ascii	"__tm_sec\000"
 4705      5F736563 
 4705      00
 4706              	.LASF49:
 4707 0143 6D657373 		.ascii	"messagebus_watchgroup_s\000"
 4707      61676562 
 4707      75735F77 
 4707      61746368 
 4707      67726F75 
 4708              	.LASF6:
 4709 015b 6C6F6E67 		.ascii	"long long int\000"
 4709      206C6F6E 
 4709      6720696E 
 4709      7400
 4710              	.LASF0:
 4711 0169 7369676E 		.ascii	"signed char\000"
 4711      65642063 
 4711      68617200 
 4712              	.LASF161:
 4713 0175 6275665F 		.ascii	"buf_len\000"
 4713      6C656E00 
 4714              	.LASF29:
 4715 017d 62756666 		.ascii	"buffer_len\000"
ARM GAS  C:\Users\25521\AppData\Local\Temp\ccoR8V9M.s 			page 85


 4715      65725F6C 
 4715      656E00
 4716              	.LASF79:
 4717 0188 5F626173 		.ascii	"_base\000"
 4717      6500
 4718              	.LASF63:
 4719 018e 5F5F746D 		.ascii	"__tm_hour\000"
 4719      5F686F75 
 4719      7200
 4720              	.LASF119:
 4721 0198 5F5F7366 		.ascii	"__sf\000"
 4721      00
 4722              	.LASF33:
 4723 019d 7075626C 		.ascii	"published\000"
 4723      69736865 
 4723      6400
 4724              	.LASF85:
 4725 01a7 5F636F6F 		.ascii	"_cookie\000"
 4725      6B696500 
 4726              	.LASF40:
 4727 01af 67726F75 		.ascii	"group\000"
 4727      7000
 4728              	.LASF118:
 4729 01b5 5F5F7367 		.ascii	"__sglue\000"
 4729      6C756500 
 4730              	.LASF4:
 4731 01bd 6C6F6E67 		.ascii	"long int\000"
 4731      20696E74 
 4731      00
 4732              	.LASF175:
 4733 01c6 6D657373 		.ascii	"messagebus_condvar_wait\000"
 4733      61676562 
 4733      75735F63 
 4733      6F6E6476 
 4733      61725F77 
 4734              	.LASF82:
 4735 01de 5F666C61 		.ascii	"_flags\000"
 4735      677300
 4736              	.LASF74:
 4737 01e5 5F69735F 		.ascii	"_is_cxa\000"
 4737      63786100 
 4738              	.LASF100:
 4739 01ed 5F737464 		.ascii	"_stdin\000"
 4739      696E00
 4740              	.LASF90:
 4741 01f4 5F756275 		.ascii	"_ubuf\000"
 4741      6600
 4742              	.LASF92:
 4743 01fa 5F626C6B 		.ascii	"_blksize\000"
 4743      73697A65 
 4743      00
 4744              	.LASF158:
 4745 0203 746F7069 		.ascii	"topic\000"
 4745      6300
 4746              	.LASF50:
 4747 0209 7075626C 		.ascii	"published_topic\000"
 4747      69736865 
ARM GAS  C:\Users\25521\AppData\Local\Temp\ccoR8V9M.s 			page 86


 4747      645F746F 
 4747      70696300 
 4748              	.LASF46:
 4749 0219 63616C6C 		.ascii	"callback\000"
 4749      6261636B 
 4749      00
 4750              	.LASF93:
 4751 0222 5F6F6666 		.ascii	"_offset\000"
 4751      73657400 
 4752              	.LASF159:
 4753 022a 6D657373 		.ascii	"messagebus_watchgroup_init\000"
 4753      61676562 
 4753      75735F77 
 4753      61746368 
 4753      67726F75 
 4754              	.LASF143:
 4755 0245 5F6D6273 		.ascii	"_mbsrtowcs_state\000"
 4755      72746F77 
 4755      63735F73 
 4755      74617465 
 4755      00
 4756              	.LASF129:
 4757 0256 5F737472 		.ascii	"_strtok_last\000"
 4757      746F6B5F 
 4757      6C617374 
 4757      00
 4758              	.LASF141:
 4759 0263 5F6D6272 		.ascii	"_mbrlen_state\000"
 4759      6C656E5F 
 4759      73746174 
 4759      6500
 4760              	.LASF71:
 4761 0271 5F666E61 		.ascii	"_fnargs\000"
 4761      72677300 
 4762              	.LASF77:
 4763 0279 5F666E73 		.ascii	"_fns\000"
 4763      00
 4764              	.LASF171:
 4765 027e 746F7069 		.ascii	"topic_condvar\000"
 4765      635F636F 
 4765      6E647661 
 4765      7200
 4766              	.LASF58:
 4767 028c 5F736967 		.ascii	"_sign\000"
 4767      6E00
 4768              	.LASF20:
 4769 0292 5F666C6F 		.ascii	"_flock_t\000"
 4769      636B5F74 
 4769      00
 4770              	.LASF102:
 4771 029b 5F737464 		.ascii	"_stderr\000"
 4771      65727200 
 4772              	.LASF55:
 4773 02a3 5F426967 		.ascii	"_Bigint\000"
 4773      696E7400 
 4774              	.LASF132:
 4775 02ab 5F67616D 		.ascii	"_gamma_signgam\000"
ARM GAS  C:\Users\25521\AppData\Local\Temp\ccoR8V9M.s 			page 87


 4775      6D615F73 
 4775      69676E67 
 4775      616D00
 4776              	.LASF56:
 4777 02ba 5F6E6578 		.ascii	"_next\000"
 4777      7400
 4778              	.LASF86:
 4779 02c0 5F726561 		.ascii	"_read\000"
 4779      6400
 4780              	.LASF110:
 4781 02c6 5F726573 		.ascii	"_result_k\000"
 4781      756C745F 
 4781      6B00
 4782              	.LASF60:
 4783 02d0 5F5F746D 		.ascii	"__tm\000"
 4783      00
 4784              	.LASF8:
 4785 02d5 756E7369 		.ascii	"unsigned int\000"
 4785      676E6564 
 4785      20696E74 
 4785      00
 4786              	.LASF183:
 4787 02e2 474E5520 		.ascii	"GNU C11 7.2.1 20170904 (release) [ARM/embedded-7-br"
 4787      43313120 
 4787      372E322E 
 4787      31203230 
 4787      31373039 
 4788 0315 616E6368 		.ascii	"anch revision 255204] -mcpu=cortex-m4 -mfloat-abi=h"
 4788      20726576 
 4788      6973696F 
 4788      6E203235 
 4788      35323034 
 4789 0348 61726420 		.ascii	"ard -mfpu=fpv4-sp-d16 -mno-thumb-interwork -mthumb "
 4789      2D6D6670 
 4789      753D6670 
 4789      76342D73 
 4789      702D6431 
 4790 037b 2D676764 		.ascii	"-ggdb -O2 -fomit-frame-pointer -falign-functions=16"
 4790      62202D4F 
 4790      32202D66 
 4790      6F6D6974 
 4790      2D667261 
 4791 03ae 202D666E 		.ascii	" -fno-strict-aliasing -fstack-protector-all -ffunct"
 4791      6F2D7374 
 4791      72696374 
 4791      2D616C69 
 4791      6173696E 
 4792 03e1 696F6E2D 		.ascii	"ion-sections -fdata-sections -fno-common -fsingle-p"
 4792      73656374 
 4792      696F6E73 
 4792      202D6664 
 4792      6174612D 
 4793 0414 72656369 		.ascii	"recision-constant\000"
 4793      73696F6E 
 4793      2D636F6E 
 4793      7374616E 
 4793      7400
ARM GAS  C:\Users\25521\AppData\Local\Temp\ccoR8V9M.s 			page 88


 4794              	.LASF16:
 4795 0426 5F5F7763 		.ascii	"__wchb\000"
 4795      686200
 4796              	.LASF186:
 4797 042d 746F7069 		.ascii	"topic_by_name\000"
 4797      635F6279 
 4797      5F6E616D 
 4797      6500
 4798              	.LASF101:
 4799 043b 5F737464 		.ascii	"_stdout\000"
 4799      6F757400 
 4800              	.LASF26:
 4801 0443 6F70746F 		.ascii	"optopt\000"
 4801      707400
 4802              	.LASF113:
 4803 044a 5F637674 		.ascii	"_cvtlen\000"
 4803      6C656E00 
 4804              	.LASF5:
 4805 0452 6C6F6E67 		.ascii	"long unsigned int\000"
 4805      20756E73 
 4805      69676E65 
 4805      6420696E 
 4805      7400
 4806              	.LASF83:
 4807 0464 5F66696C 		.ascii	"_file\000"
 4807      6500
 4808              	.LASF32:
 4809 046a 6E616D65 		.ascii	"name\000"
 4809      00
 4810              	.LASF122:
 4811 046f 5F6E696F 		.ascii	"_niobs\000"
 4811      627300
 4812              	.LASF117:
 4813 0476 5F736967 		.ascii	"_sig_func\000"
 4813      5F66756E 
 4813      6300
 4814              	.LASF3:
 4815 0480 73686F72 		.ascii	"short unsigned int\000"
 4815      7420756E 
 4815      7369676E 
 4815      65642069 
 4815      6E7400
 4816              	.LASF116:
 4817 0493 5F617465 		.ascii	"_atexit0\000"
 4817      78697430 
 4817      00
 4818              	.LASF41:
 4819 049c 6D657373 		.ascii	"messagebus_topic_t\000"
 4819      61676562 
 4819      75735F74 
 4819      6F706963 
 4819      5F7400
 4820              	.LASF139:
 4821 04af 5F736967 		.ascii	"_signal_buf\000"
 4821      6E616C5F 
 4821      62756600 
 4822              	.LASF130:
ARM GAS  C:\Users\25521\AppData\Local\Temp\ccoR8V9M.s 			page 89


 4823 04bb 5F617363 		.ascii	"_asctime_buf\000"
 4823      74696D65 
 4823      5F627566 
 4823      00
 4824              	.LASF38:
 4825 04c8 746F7069 		.ascii	"topic_s\000"
 4825      635F7300 
 4826              	.LASF15:
 4827 04d0 5F5F7763 		.ascii	"__wch\000"
 4827      6800
 4828              	.LASF178:
 4829 04d6 6D656D63 		.ascii	"memcpy\000"
 4829      707900
 4830              	.LASF11:
 4831 04dd 5F4C4F43 		.ascii	"_LOCK_T\000"
 4831      4B5F5400 
 4832              	.LASF22:
 4833 04e5 656E7669 		.ascii	"environ\000"
 4833      726F6E00 
 4834              	.LASF14:
 4835 04ed 77696E74 		.ascii	"wint_t\000"
 4835      5F7400
 4836              	.LASF180:
 4837 04f4 5F5F6275 		.ascii	"__builtin_memcpy\000"
 4837      696C7469 
 4837      6E5F6D65 
 4837      6D637079 
 4837      00
 4838              	.LASF95:
 4839 0505 5F6C6F63 		.ascii	"_lock\000"
 4839      6B00
 4840              	.LASF173:
 4841 050b 6D657373 		.ascii	"messagebus_lock_acquire\000"
 4841      61676562 
 4841      75735F6C 
 4841      6F636B5F 
 4841      61637175 
 4842              	.LASF97:
 4843 0523 5F666C61 		.ascii	"_flags2\000"
 4843      67733200 
 4844              	.LASF109:
 4845 052b 5F726573 		.ascii	"_result\000"
 4845      756C7400 
 4846              	.LASF172:
 4847 0533 6D657373 		.ascii	"messagebus_init\000"
 4847      61676562 
 4847      75735F69 
 4847      6E697400 
 4848              	.LASF27:
 4849 0543 6F707472 		.ascii	"optreset\000"
 4849      65736574 
 4849      00
 4850              	.LASF87:
 4851 054c 5F777269 		.ascii	"_write\000"
 4851      746500
 4852              	.LASF66:
 4853 0553 5F5F746D 		.ascii	"__tm_year\000"
ARM GAS  C:\Users\25521\AppData\Local\Temp\ccoR8V9M.s 			page 90


 4853      5F796561 
 4853      7200
 4854              	.LASF31:
 4855 055d 636F6E64 		.ascii	"condvar\000"
 4855      76617200 
 4856              	.LASF23:
 4857 0565 6F707461 		.ascii	"optarg\000"
 4857      726700
 4858              	.LASF9:
 4859 056c 6C6F6E67 		.ascii	"long double\000"
 4859      20646F75 
 4859      626C6500 
 4860              	.LASF24:
 4861 0578 6F707469 		.ascii	"optind\000"
 4861      6E6400
 4862              	.LASF147:
 4863 057f 5F6E6578 		.ascii	"_nextf\000"
 4863      746600
 4864              	.LASF168:
 4865 0586 6D657373 		.ascii	"messagebus_advertise_topic\000"
 4865      61676562 
 4865      75735F61 
 4865      64766572 
 4865      74697365 
 4866              	.LASF65:
 4867 05a1 5F5F746D 		.ascii	"__tm_mon\000"
 4867      5F6D6F6E 
 4867      00
 4868              	.LASF75:
 4869 05aa 5F617465 		.ascii	"_atexit\000"
 4869      78697400 
 4870              	.LASF107:
 4871 05b2 5F5F7364 		.ascii	"__sdidinit\000"
 4871      6964696E 
 4871      697400
 4872              	.LASF12:
 4873 05bd 5F6F6666 		.ascii	"_off_t\000"
 4873      5F7400
 4874              	.LASF165:
 4875 05c4 6D657373 		.ascii	"messagebus_topic_publish\000"
 4875      61676562 
 4875      75735F74 
 4875      6F706963 
 4875      5F707562 
 4876              	.LASF112:
 4877 05dd 5F667265 		.ascii	"_freelist\000"
 4877      656C6973 
 4877      7400
 4878              	.LASF176:
 4879 05e7 6D657373 		.ascii	"messagebus_condvar_broadcast\000"
 4879      61676562 
 4879      75735F63 
 4879      6F6E6476 
 4879      61725F62 
 4880              	.LASF137:
 4881 0604 5F776374 		.ascii	"_wctomb_state\000"
 4881      6F6D625F 
ARM GAS  C:\Users\25521\AppData\Local\Temp\ccoR8V9M.s 			page 91


 4881      73746174 
 4881      6500
 4882              	.LASF114:
 4883 0612 5F637674 		.ascii	"_cvtbuf\000"
 4883      62756600 
 4884              	.LASF37:
 4885 061a 5F426F6F 		.ascii	"_Bool\000"
 4885      6C00
 4886              	.LASF1:
 4887 0620 756E7369 		.ascii	"unsigned char\000"
 4887      676E6564 
 4887      20636861 
 4887      7200
 4888              	.LASF163:
 4889 062e 6D657373 		.ascii	"messagebus_topic_read\000"
 4889      61676562 
 4889      75735F74 
 4889      6F706963 
 4889      5F726561 
 4890              	.LASF115:
 4891 0644 5F6E6577 		.ascii	"_new\000"
 4891      00
 4892              	.LASF45:
 4893 0649 6D657373 		.ascii	"messagebus_new_topic_cb_s\000"
 4893      61676562 
 4893      75735F6E 
 4893      65775F74 
 4893      6F706963 
 4894              	.LASF51:
 4895 0663 6D657373 		.ascii	"messagebus_watchgroup_t\000"
 4895      61676562 
 4895      75735F77 
 4895      61746368 
 4895      67726F75 
 4896              	.LASF146:
 4897 067b 5F685F65 		.ascii	"_h_errno\000"
 4897      72726E6F 
 4897      00
 4898              	.LASF2:
 4899 0684 73686F72 		.ascii	"short int\000"
 4899      7420696E 
 4899      7400
 4900              	.LASF68:
 4901 068e 5F5F746D 		.ascii	"__tm_yday\000"
 4901      5F796461 
 4901      7900
 4902              	.LASF78:
 4903 0698 5F5F7362 		.ascii	"__sbuf\000"
 4903      756600
 4904              	.LASF123:
 4905 069f 5F696F62 		.ascii	"_iobs\000"
 4905      7300
 4906              	.LASF120:
 4907 06a5 5F5F4649 		.ascii	"__FILE\000"
 4907      4C4500
 4908              	.LASF19:
 4909 06ac 5F6D6273 		.ascii	"_mbstate_t\000"
ARM GAS  C:\Users\25521\AppData\Local\Temp\ccoR8V9M.s 			page 92


 4909      74617465 
 4909      5F7400
 4910              	.LASF81:
 4911 06b7 5F5F7346 		.ascii	"__sFILE\000"
 4911      494C4500 
 4912              	.LASF96:
 4913 06bf 5F6D6273 		.ascii	"_mbstate\000"
 4913      74617465 
 4913      00
 4914              	.LASF133:
 4915 06c8 5F72616E 		.ascii	"_rand_next\000"
 4915      645F6E65 
 4915      787400
 4916              	.LASF135:
 4917 06d3 5F6D626C 		.ascii	"_mblen_state\000"
 4917      656E5F73 
 4917      74617465 
 4917      00
 4918              	.LASF103:
 4919 06e0 5F696E63 		.ascii	"_inc\000"
 4919      00
 4920              	.LASF76:
 4921 06e5 5F696E64 		.ascii	"_ind\000"
 4921      00
 4922              	.LASF34:
 4923 06ea 77617463 		.ascii	"watchers\000"
 4923      68657273 
 4923      00
 4924              	.LASF106:
 4925 06f3 5F6C6F63 		.ascii	"_locale\000"
 4925      616C6500 
 4926              	.LASF108:
 4927 06fb 5F5F636C 		.ascii	"__cleanup\000"
 4927      65616E75 
 4927      7000
 4928              	.LASF105:
 4929 0705 5F756E73 		.ascii	"_unspecified_locale_info\000"
 4929      70656369 
 4929      66696564 
 4929      5F6C6F63 
 4929      616C655F 
 4930              	.LASF187:
 4931 071e 5F5F7374 		.ascii	"__stack_chk_fail\000"
 4931      61636B5F 
 4931      63686B5F 
 4931      6661696C 
 4931      00
 4932              	.LASF57:
 4933 072f 5F6D6178 		.ascii	"_maxwds\000"
 4933      77647300 
 4934              	.LASF98:
 4935 0737 5F726565 		.ascii	"_reent\000"
 4935      6E7400
 4936              	.LASF36:
 4937 073e 6D657461 		.ascii	"metadata\000"
 4937      64617461 
 4937      00
ARM GAS  C:\Users\25521\AppData\Local\Temp\ccoR8V9M.s 			page 93


 4938              	.LASF42:
 4939 0747 68656164 		.ascii	"head\000"
 4939      00
 4940              	.LASF17:
 4941 074c 5F5F636F 		.ascii	"__count\000"
 4941      756E7400 
 4942              	.LASF150:
 4943 0754 5F5F6C6F 		.ascii	"__lock\000"
 4943      636B00
 4944              	.LASF18:
 4945 075b 5F5F7661 		.ascii	"__value\000"
 4945      6C756500 
 4946              	.LASF39:
 4947 0763 6D657373 		.ascii	"messagebus_watcher_s\000"
 4947      61676562 
 4947      75735F77 
 4947      61746368 
 4947      65725F73 
 4948              	.LASF52:
 4949 0778 6D657373 		.ascii	"messagebus_watcher_t\000"
 4949      61676562 
 4949      75735F77 
 4949      61746368 
 4949      65725F74 
 4950              	.LASF152:
 4951 078d 5F696D70 		.ascii	"_impure_ptr\000"
 4951      7572655F 
 4951      70747200 
 4952              	.LASF13:
 4953 0799 5F66706F 		.ascii	"_fpos_t\000"
 4953      735F7400 
 4954              	.LASF70:
 4955 07a1 5F6F6E5F 		.ascii	"_on_exit_args\000"
 4955      65786974 
 4955      5F617267 
 4955      7300
 4956              	.LASF99:
 4957 07af 5F657272 		.ascii	"_errno\000"
 4957      6E6F00
 4958              	.LASF21:
 4959 07b6 63686172 		.ascii	"char\000"
 4959      00
 4960              	.LASF184:
 4961 07bb 2E2F2F73 		.ascii	".//src/msgbus/messagebus.c\000"
 4961      72632F6D 
 4961      73676275 
 4961      732F6D65 
 4961      73736167 
 4962              	.LASF62:
 4963 07d6 5F5F746D 		.ascii	"__tm_min\000"
 4963      5F6D696E 
 4963      00
 4964              	.LASF125:
 4965 07df 5F736565 		.ascii	"_seed\000"
 4965      6400
 4966              	.LASF28:
 4967 07e5 62756666 		.ascii	"buffer\000"
ARM GAS  C:\Users\25521\AppData\Local\Temp\ccoR8V9M.s 			page 94


 4967      657200
 4968              	.LASF25:
 4969 07ec 6F707465 		.ascii	"opterr\000"
 4969      727200
 4970              	.LASF126:
 4971 07f3 5F6D756C 		.ascii	"_mult\000"
 4971      7400
 4972              	.LASF185:
 4973 07f9 473A5C30 		.ascii	"G:\\00Epuck\\00e-puck2_code\\e-puck2_main-processor"
 4973      30457075 
 4973      636B5C30 
 4973      30652D70 
 4973      75636B32 
 4974 0829 00       		.ascii	"\000"
 4975              	.LASF88:
 4976 082a 5F736565 		.ascii	"_seek\000"
 4976      6B00
 4977              	.LASF167:
 4978 0830 6D657373 		.ascii	"messagebus_find_topic\000"
 4978      61676562 
 4978      75735F66 
 4978      696E645F 
 4978      746F7069 
 4979              	.LASF73:
 4980 0846 5F666E74 		.ascii	"_fntypes\000"
 4980      79706573 
 4980      00
 4981              	.LASF43:
 4982 084f 746F7069 		.ascii	"topics\000"
 4982      637300
 4983              	.LASF162:
 4984 0856 6D657373 		.ascii	"messagebus_watchgroup_wait\000"
 4984      61676562 
 4984      75735F77 
 4984      61746368 
 4984      67726F75 
 4985              	.LASF127:
 4986 0871 5F616464 		.ascii	"_add\000"
 4986      00
 4987              	.LASF54:
 4988 0876 5F5F554C 		.ascii	"__ULong\000"
 4988      6F6E6700 
 4989              	.LASF154:
 4990 087e 63625F66 		.ascii	"cb_fun\000"
 4990      756E00
 4991              	.LASF153:
 4992 0885 5F676C6F 		.ascii	"_global_impure_ptr\000"
 4992      62616C5F 
 4992      696D7075 
 4992      72655F70 
 4992      747200
 4993              	.LASF179:
 4994 0898 6D656D73 		.ascii	"memset\000"
 4994      657400
 4995              	.LASF128:
 4996 089f 5F756E75 		.ascii	"_unused_rand\000"
 4996      7365645F 
ARM GAS  C:\Users\25521\AppData\Local\Temp\ccoR8V9M.s 			page 95


 4996      72616E64 
 4996      00
 4997              	.LASF59:
 4998 08ac 5F776473 		.ascii	"_wds\000"
 4998      00
 4999              	.LASF67:
 5000 08b1 5F5F746D 		.ascii	"__tm_wday\000"
 5000      5F776461 
 5000      7900
 5001              	.LASF121:
 5002 08bb 5F676C75 		.ascii	"_glue\000"
 5002      6500
 5003              	.LASF155:
 5004 08c1 6D657373 		.ascii	"messagebus_new_topic_callback_register\000"
 5004      61676562 
 5004      75735F6E 
 5004      65775F74 
 5004      6F706963 
 5005              	.LASF148:
 5006 08e8 5F6E6D61 		.ascii	"_nmalloc\000"
 5006      6C6C6F63 
 5006      00
 5007              	.LASF138:
 5008 08f1 5F6C3634 		.ascii	"_l64a_buf\000"
 5008      615F6275 
 5008      6600
 5009              	.LASF160:
 5010 08fb 6D657373 		.ascii	"messagebus_topic_wait\000"
 5010      61676562 
 5010      75735F74 
 5010      6F706963 
 5010      5F776169 
 5011              	.LASF44:
 5012 0911 6E65775F 		.ascii	"new_topic_callback_list\000"
 5012      746F7069 
 5012      635F6361 
 5012      6C6C6261 
 5012      636B5F6C 
 5013              	.LASF156:
 5014 0929 6D657373 		.ascii	"messagebus_watchgroup_watch\000"
 5014      61676562 
 5014      75735F77 
 5014      61746368 
 5014      67726F75 
 5015              	.LASF91:
 5016 0945 5F6E6275 		.ascii	"_nbuf\000"
 5016      6600
 5017              	.LASF149:
 5018 094b 5F756E75 		.ascii	"_unused\000"
 5018      73656400 
 5019              	.LASF174:
 5020 0953 6D657373 		.ascii	"messagebus_lock_release\000"
 5020      61676562 
 5020      75735F6C 
 5020      6F636B5F 
 5020      72656C65 
 5021              	.LASF69:
ARM GAS  C:\Users\25521\AppData\Local\Temp\ccoR8V9M.s 			page 96


 5022 096b 5F5F746D 		.ascii	"__tm_isdst\000"
 5022      5F697364 
 5022      737400
 5023              	.LASF131:
 5024 0976 5F6C6F63 		.ascii	"_localtime_buf\000"
 5024      616C7469 
 5024      6D655F62 
 5024      756600
 5025              	.LASF89:
 5026 0985 5F636C6F 		.ascii	"_close\000"
 5026      736500
 5027              	.LASF134:
 5028 098c 5F723438 		.ascii	"_r48\000"
 5028      00
 5029              	.LASF136:
 5030 0991 5F6D6274 		.ascii	"_mbtowc_state\000"
 5030      6F77635F 
 5030      73746174 
 5030      6500
 5031              	.LASF111:
 5032 099f 5F703573 		.ascii	"_p5s\000"
 5032      00
 5033              	.LASF30:
 5034 09a4 6C6F636B 		.ascii	"lock\000"
 5034      00
 5035              	.LASF64:
 5036 09a9 5F5F746D 		.ascii	"__tm_mday\000"
 5036      5F6D6461 
 5036      7900
 5037              	.LASF164:
 5038 09b3 73756363 		.ascii	"success\000"
 5038      65737300 
 5039              		.ident	"GCC: (GNU Tools for Arm Embedded Processors 7-2017-q4-major) 7.2.1 20170904 (release) [ARM
ARM GAS  C:\Users\25521\AppData\Local\Temp\ccoR8V9M.s 			page 97


DEFINED SYMBOLS
                            *ABS*:00000000 messagebus.c
C:\Users\25521\AppData\Local\Temp\ccoR8V9M.s:18     .text.messagebus_init:00000000 $t
C:\Users\25521\AppData\Local\Temp\ccoR8V9M.s:26     .text.messagebus_init:00000000 messagebus_init
C:\Users\25521\AppData\Local\Temp\ccoR8V9M.s:71     .text.messagebus_init:00000024 $d
C:\Users\25521\AppData\Local\Temp\ccoR8V9M.s:76     .text.messagebus_topic_init:00000000 $t
C:\Users\25521\AppData\Local\Temp\ccoR8V9M.s:84     .text.messagebus_topic_init:00000000 messagebus_topic_init
C:\Users\25521\AppData\Local\Temp\ccoR8V9M.s:148    .text.messagebus_topic_init:00000040 $d
C:\Users\25521\AppData\Local\Temp\ccoR8V9M.s:153    .text.messagebus_advertise_topic:00000000 $t
C:\Users\25521\AppData\Local\Temp\ccoR8V9M.s:161    .text.messagebus_advertise_topic:00000000 messagebus_advertise_topic
C:\Users\25521\AppData\Local\Temp\ccoR8V9M.s:269    .text.messagebus_advertise_topic:00000068 $d
C:\Users\25521\AppData\Local\Temp\ccoR8V9M.s:274    .text.messagebus_find_topic:00000000 $t
C:\Users\25521\AppData\Local\Temp\ccoR8V9M.s:282    .text.messagebus_find_topic:00000000 messagebus_find_topic
C:\Users\25521\AppData\Local\Temp\ccoR8V9M.s:357    .text.messagebus_find_topic:00000044 $d
C:\Users\25521\AppData\Local\Temp\ccoR8V9M.s:362    .text.messagebus_find_topic_blocking:00000000 $t
C:\Users\25521\AppData\Local\Temp\ccoR8V9M.s:370    .text.messagebus_find_topic_blocking:00000000 messagebus_find_topic_blocking
C:\Users\25521\AppData\Local\Temp\ccoR8V9M.s:456    .text.messagebus_find_topic_blocking:0000004c $d
C:\Users\25521\AppData\Local\Temp\ccoR8V9M.s:461    .text.messagebus_topic_publish:00000000 $t
C:\Users\25521\AppData\Local\Temp\ccoR8V9M.s:469    .text.messagebus_topic_publish:00000000 messagebus_topic_publish
C:\Users\25521\AppData\Local\Temp\ccoR8V9M.s:579    .text.messagebus_topic_publish:00000074 $d
C:\Users\25521\AppData\Local\Temp\ccoR8V9M.s:584    .text.messagebus_topic_read:00000000 $t
C:\Users\25521\AppData\Local\Temp\ccoR8V9M.s:592    .text.messagebus_topic_read:00000000 messagebus_topic_read
C:\Users\25521\AppData\Local\Temp\ccoR8V9M.s:658    .text.messagebus_topic_read:00000044 $d
C:\Users\25521\AppData\Local\Temp\ccoR8V9M.s:663    .text.messagebus_topic_wait:00000000 $t
C:\Users\25521\AppData\Local\Temp\ccoR8V9M.s:671    .text.messagebus_topic_wait:00000000 messagebus_topic_wait
C:\Users\25521\AppData\Local\Temp\ccoR8V9M.s:740    .text.messagebus_topic_wait:00000040 $d
C:\Users\25521\AppData\Local\Temp\ccoR8V9M.s:745    .text.messagebus_watchgroup_init:00000000 $t
C:\Users\25521\AppData\Local\Temp\ccoR8V9M.s:753    .text.messagebus_watchgroup_init:00000000 messagebus_watchgroup_init
C:\Users\25521\AppData\Local\Temp\ccoR8V9M.s:793    .text.messagebus_watchgroup_init:00000020 $d
C:\Users\25521\AppData\Local\Temp\ccoR8V9M.s:798    .text.messagebus_watchgroup_watch:00000000 $t
C:\Users\25521\AppData\Local\Temp\ccoR8V9M.s:806    .text.messagebus_watchgroup_watch:00000000 messagebus_watchgroup_watch
C:\Users\25521\AppData\Local\Temp\ccoR8V9M.s:880    .text.messagebus_watchgroup_watch:00000044 $d
C:\Users\25521\AppData\Local\Temp\ccoR8V9M.s:885    .text.messagebus_watchgroup_wait:00000000 $t
C:\Users\25521\AppData\Local\Temp\ccoR8V9M.s:893    .text.messagebus_watchgroup_wait:00000000 messagebus_watchgroup_wait
C:\Users\25521\AppData\Local\Temp\ccoR8V9M.s:951    .text.messagebus_watchgroup_wait:00000034 $d
C:\Users\25521\AppData\Local\Temp\ccoR8V9M.s:956    .text.messagebus_new_topic_callback_register:00000000 $t
C:\Users\25521\AppData\Local\Temp\ccoR8V9M.s:964    .text.messagebus_new_topic_callback_register:00000000 messagebus_new_topic_callback_register
C:\Users\25521\AppData\Local\Temp\ccoR8V9M.s:1033   .text.messagebus_new_topic_callback_register:0000003c $d

UNDEFINED SYMBOLS
__stack_chk_fail
__stack_chk_guard
memset
strncpy
messagebus_lock_acquire
messagebus_condvar_broadcast
messagebus_lock_release
strcmp
messagebus_condvar_wait
memcpy
