ARM GAS  C:\Users\25521\AppData\Local\Temp\cc1T5Mom.s 			page 1


   1              		.cpu cortex-m4
   2              		.eabi_attribute 27, 1
   3              		.eabi_attribute 28, 1
   4              		.eabi_attribute 20, 1
   5              		.eabi_attribute 21, 1
   6              		.eabi_attribute 23, 3
   7              		.eabi_attribute 24, 1
   8              		.eabi_attribute 25, 1
   9              		.eabi_attribute 26, 1
  10              		.eabi_attribute 30, 2
  11              		.eabi_attribute 34, 1
  12              		.eabi_attribute 18, 4
  13              		.file	"ov2640.c"
  14              		.text
  15              	.Ltext0:
  16              		.cfi_sections	.debug_frame
  17              		.section	.text.ov2640_set_bank,"ax",%progbits
  18              		.align	1
  19              		.p2align 4,,15
  20              		.global	ov2640_set_bank
  21              		.syntax unified
  22              		.thumb
  23              		.thumb_func
  24              		.fpu fpv4-sp-d16
  25              		.type	ov2640_set_bank, %function
  26              	ov2640_set_bank:
  27              	.LFB268:
  28              		.file 1 ".//src/camera/ov2640.c"
  29              		.loc 1 367 0
  30              		.cfi_startproc
  31              		@ args = 0, pretend = 0, frame = 8
  32              		@ frame_needed = 0, uses_anonymous_args = 0
  33              	.LVL0:
  34 0000 00B5     		push	{lr}
  35              		.cfi_def_cfa_offset 4
  36              		.cfi_offset 14, -4
  37 0002 094B     		ldr	r3, .L7
  38 0004 83B0     		sub	sp, sp, #12
  39              		.cfi_def_cfa_offset 16
  40              		.loc 1 367 0
  41 0006 1A68     		ldr	r2, [r3]
  42 0008 0192     		str	r2, [sp, #4]
  43              		.loc 1 368 0
  44 000a 0199     		ldr	r1, [sp, #4]
  45 000c 1B68     		ldr	r3, [r3]
  46 000e 9942     		cmp	r1, r3
  47 0010 07D1     		bne	.L6
  48 0012 0246     		mov	r2, r0
  49 0014 FF21     		movs	r1, #255
  50 0016 3020     		movs	r0, #48
  51              	.LVL1:
  52              		.loc 1 369 0
  53 0018 03B0     		add	sp, sp, #12
  54              		.cfi_remember_state
  55              		.cfi_def_cfa_offset 4
  56              		@ sp needed
  57 001a 5DF804EB 		ldr	lr, [sp], #4
ARM GAS  C:\Users\25521\AppData\Local\Temp\cc1T5Mom.s 			page 2


  58              		.cfi_restore 14
  59              		.cfi_def_cfa_offset 0
  60              		.loc 1 368 0
  61 001e FFF7FEBF 		b	write_reg
  62              	.LVL2:
  63              	.L6:
  64              		.cfi_restore_state
  65 0022 FFF7FEFF 		bl	__stack_chk_fail
  66              	.LVL3:
  67              	.L8:
  68 0026 00BF     		.align	2
  69              	.L7:
  70 0028 00000000 		.word	__stack_chk_guard
  71              		.cfi_endproc
  72              	.LFE268:
  73              		.size	ov2640_set_bank, .-ov2640_set_bank
  74              		.section	.text.ov2640_read_id,"ax",%progbits
  75              		.align	1
  76              		.p2align 4,,15
  77              		.global	ov2640_read_id
  78              		.syntax unified
  79              		.thumb
  80              		.thumb_func
  81              		.fpu fpv4-sp-d16
  82              		.type	ov2640_read_id, %function
  83              	ov2640_read_id:
  84              	.LFB269:
  85              		.loc 1 381 0
  86              		.cfi_startproc
  87              		@ args = 0, pretend = 0, frame = 8
  88              		@ frame_needed = 0, uses_anonymous_args = 0
  89              	.LVL4:
  90 0000 70B5     		push	{r4, r5, r6, lr}
  91              		.cfi_def_cfa_offset 16
  92              		.cfi_offset 4, -16
  93              		.cfi_offset 5, -12
  94              		.cfi_offset 6, -8
  95              		.cfi_offset 14, -4
  96 0002 82B0     		sub	sp, sp, #8
  97              		.cfi_def_cfa_offset 24
  98              		.loc 1 382 0
  99 0004 02AC     		add	r4, sp, #8
 100 0006 0022     		movs	r2, #0
 101              		.loc 1 381 0
 102 0008 144D     		ldr	r5, .L15
 103              		.loc 1 382 0
 104 000a 24F8082D 		strh	r2, [r4, #-8]!	@ movhi
 105              	.LVL5:
 106              		.loc 1 381 0
 107 000e 2B68     		ldr	r3, [r5]
 108 0010 0193     		str	r3, [sp, #4]
 109              	.LBB4:
 110              	.LBB5:
 111              		.loc 1 368 0
 112 0012 0122     		movs	r2, #1
 113 0014 FF21     		movs	r1, #255
 114              	.LBE5:
ARM GAS  C:\Users\25521\AppData\Local\Temp\cc1T5Mom.s 			page 3


 115              	.LBE4:
 116              		.loc 1 381 0
 117 0016 0646     		mov	r6, r0
 118              	.LBB7:
 119              	.LBB6:
 120              		.loc 1 368 0
 121 0018 3020     		movs	r0, #48
 122              	.LVL6:
 123 001a FFF7FEFF 		bl	write_reg
 124              	.LVL7:
 125              	.LBE6:
 126              	.LBE7:
 127              		.loc 1 387 0
 128 001e 2246     		mov	r2, r4
 129 0020 0A21     		movs	r1, #10
 130 0022 3020     		movs	r0, #48
 131 0024 FFF7FEFF 		bl	read_reg
 132              	.LVL8:
 133 0028 28B1     		cbz	r0, .L13
 134              	.L10:
 135              		.loc 1 396 0
 136 002a 019A     		ldr	r2, [sp, #4]
 137 002c 2B68     		ldr	r3, [r5]
 138 002e 9A42     		cmp	r2, r3
 139 0030 11D1     		bne	.L14
 140 0032 02B0     		add	sp, sp, #8
 141              		.cfi_remember_state
 142              		.cfi_def_cfa_offset 16
 143              		@ sp needed
 144 0034 70BD     		pop	{r4, r5, r6, pc}
 145              	.LVL9:
 146              	.L13:
 147              		.cfi_restore_state
 148              		.loc 1 390 0
 149 0036 0DF10102 		add	r2, sp, #1
 150 003a 0B21     		movs	r1, #11
 151 003c 3020     		movs	r0, #48
 152              	.LVL10:
 153 003e FFF7FEFF 		bl	read_reg
 154              	.LVL11:
 155 0042 0028     		cmp	r0, #0
 156 0044 F1D1     		bne	.L10
 157              		.loc 1 393 0
 158 0046 9DF80020 		ldrb	r2, [sp]	@ zero_extendqisi2
 159 004a 9DF80130 		ldrb	r3, [sp, #1]	@ zero_extendqisi2
 160 004e 43EA0223 		orr	r3, r3, r2, lsl #8
 161 0052 3380     		strh	r3, [r6]	@ movhi
 162              		.loc 1 395 0
 163 0054 E9E7     		b	.L10
 164              	.L14:
 165              		.loc 1 396 0
 166 0056 FFF7FEFF 		bl	__stack_chk_fail
 167              	.LVL12:
 168              	.L16:
 169 005a 00BF     		.align	2
 170              	.L15:
 171 005c 00000000 		.word	__stack_chk_guard
ARM GAS  C:\Users\25521\AppData\Local\Temp\cc1T5Mom.s 			page 4


 172              		.cfi_endproc
 173              	.LFE269:
 174              		.size	ov2640_read_id, .-ov2640_read_id
 175              		.section	.text.ov2640_set_qqvga,"ax",%progbits
 176              		.align	1
 177              		.p2align 4,,15
 178              		.global	ov2640_set_qqvga
 179              		.syntax unified
 180              		.thumb
 181              		.thumb_func
 182              		.fpu fpv4-sp-d16
 183              		.type	ov2640_set_qqvga, %function
 184              	ov2640_set_qqvga:
 185              	.LFB270:
 186              		.loc 1 406 0
 187              		.cfi_startproc
 188              		@ args = 0, pretend = 0, frame = 8
 189              		@ frame_needed = 0, uses_anonymous_args = 0
 190 0000 70B5     		push	{r4, r5, r6, lr}
 191              		.cfi_def_cfa_offset 16
 192              		.cfi_offset 4, -16
 193              		.cfi_offset 5, -12
 194              		.cfi_offset 6, -8
 195              		.cfi_offset 14, -4
 196 0002 114E     		ldr	r6, .L25
 197 0004 114C     		ldr	r4, .L25+4
 198 0006 3368     		ldr	r3, [r6]
 199 0008 82B0     		sub	sp, sp, #8
 200              		.cfi_def_cfa_offset 24
 201 000a 04F5DB75 		add	r5, r4, #438
 202              		.loc 1 406 0
 203 000e 0193     		str	r3, [sp, #4]
 204              	.LVL13:
 205 0010 0022     		movs	r2, #0
 206 0012 FF21     		movs	r1, #255
 207 0014 04E0     		b	.L20
 208              	.LVL14:
 209              	.L23:
 210              		.loc 1 409 0 discriminator 2
 211 0016 AC42     		cmp	r4, r5
 212 0018 0DD0     		beq	.L19
 213 001a A178     		ldrb	r1, [r4, #2]	@ zero_extendqisi2
 214 001c E278     		ldrb	r2, [r4, #3]	@ zero_extendqisi2
 215 001e 0234     		adds	r4, r4, #2
 216              	.LVL15:
 217              	.L20:
 218              		.loc 1 410 0
 219 0020 3020     		movs	r0, #48
 220 0022 FFF7FEFF 		bl	write_reg
 221              	.LVL16:
 222 0026 0028     		cmp	r0, #0
 223 0028 F5D0     		beq	.L23
 224              	.L18:
 225              		.loc 1 421 0
 226 002a 019A     		ldr	r2, [sp, #4]
 227 002c 3368     		ldr	r3, [r6]
 228 002e 9A42     		cmp	r2, r3
ARM GAS  C:\Users\25521\AppData\Local\Temp\cc1T5Mom.s 			page 5


 229 0030 08D1     		bne	.L24
 230 0032 02B0     		add	sp, sp, #8
 231              		.cfi_remember_state
 232              		.cfi_def_cfa_offset 16
 233              		@ sp needed
 234 0034 70BD     		pop	{r4, r5, r6, pc}
 235              	.L19:
 236              		.cfi_restore_state
 237              	.LBB10:
 238              	.LBB11:
 239              		.loc 1 415 0
 240 0036 064B     		ldr	r3, .L25+8
 241 0038 064A     		ldr	r2, .L25+12
 242 003a 1A60     		str	r2, [r3]
 243              		.loc 1 417 0
 244 003c 8022     		movs	r2, #128
 245 003e 5A71     		strb	r2, [r3, #5]
 246              		.loc 1 418 0
 247 0040 9A71     		strb	r2, [r3, #6]
 248 0042 F2E7     		b	.L18
 249              	.L24:
 250              	.LBE11:
 251              	.LBE10:
 252              		.loc 1 421 0
 253 0044 FFF7FEFF 		bl	__stack_chk_fail
 254              	.LVL17:
 255              	.L26:
 256              		.align	2
 257              	.L25:
 258 0048 00000000 		.word	__stack_chk_guard
 259 004c 00000000 		.word	.LANCHOR0
 260 0050 00000000 		.word	.LANCHOR1
 261 0054 A0007800 		.word	7864480
 262              		.cfi_endproc
 263              	.LFE270:
 264              		.size	ov2640_set_qqvga, .-ov2640_set_qqvga
 265              		.section	.text.ov2640_start,"ax",%progbits
 266              		.align	1
 267              		.p2align 4,,15
 268              		.global	ov2640_start
 269              		.syntax unified
 270              		.thumb
 271              		.thumb_func
 272              		.fpu fpv4-sp-d16
 273              		.type	ov2640_start, %function
 274              	ov2640_start:
 275              	.LFB271:
 276              		.loc 1 428 0
 277              		.cfi_startproc
 278              		@ args = 0, pretend = 0, frame = 8
 279              		@ frame_needed = 0, uses_anonymous_args = 0
 280 0000 00B5     		push	{lr}
 281              		.cfi_def_cfa_offset 4
 282              		.cfi_offset 14, -4
 283 0002 094B     		ldr	r3, .L32
 284              		.loc 1 435 0
 285 0004 0949     		ldr	r1, .L32+4
ARM GAS  C:\Users\25521\AppData\Local\Temp\cc1T5Mom.s 			page 6


 286              		.loc 1 428 0
 287 0006 1A68     		ldr	r2, [r3]
 288 0008 83B0     		sub	sp, sp, #12
 289              		.cfi_def_cfa_offset 16
 290              		.loc 1 435 0
 291 000a 0820     		movs	r0, #8
 292              		.loc 1 428 0
 293 000c 0192     		str	r2, [sp, #4]
 294              		.loc 1 436 0
 295 000e 019A     		ldr	r2, [sp, #4]
 296 0010 1B68     		ldr	r3, [r3]
 297              		.loc 1 435 0
 298 0012 0871     		strb	r0, [r1, #4]
 299              		.loc 1 436 0
 300 0014 9A42     		cmp	r2, r3
 301 0016 04D1     		bne	.L31
 302              		.loc 1 437 0
 303 0018 03B0     		add	sp, sp, #12
 304              		.cfi_remember_state
 305              		.cfi_def_cfa_offset 4
 306              		@ sp needed
 307 001a 5DF804EB 		ldr	lr, [sp], #4
 308              		.cfi_restore 14
 309              		.cfi_def_cfa_offset 0
 310              		.loc 1 436 0
 311 001e FFF7FEBF 		b	ov2640_set_qqvga
 312              	.LVL18:
 313              	.L31:
 314              		.cfi_restore_state
 315 0022 FFF7FEFF 		bl	__stack_chk_fail
 316              	.LVL19:
 317              	.L33:
 318 0026 00BF     		.align	2
 319              	.L32:
 320 0028 00000000 		.word	__stack_chk_guard
 321 002c 00000000 		.word	.LANCHOR1
 322              		.cfi_endproc
 323              	.LFE271:
 324              		.size	ov2640_start, .-ov2640_start
 325              		.section	.text.ov2640_get_image_size,"ax",%progbits
 326              		.align	1
 327              		.p2align 4,,15
 328              		.global	ov2640_get_image_size
 329              		.syntax unified
 330              		.thumb
 331              		.thumb_func
 332              		.fpu fpv4-sp-d16
 333              		.type	ov2640_get_image_size, %function
 334              	ov2640_get_image_size:
 335              	.LFB272:
 336              		.loc 1 441 0
 337              		.cfi_startproc
 338              		@ args = 0, pretend = 0, frame = 8
 339              		@ frame_needed = 0, uses_anonymous_args = 0
 340 0000 10B5     		push	{r4, lr}
 341              		.cfi_def_cfa_offset 8
 342              		.cfi_offset 4, -8
ARM GAS  C:\Users\25521\AppData\Local\Temp\cc1T5Mom.s 			page 7


 343              		.cfi_offset 14, -4
 344 0002 0A4B     		ldr	r3, .L42
 345 0004 0A4A     		ldr	r2, .L42+4
 346 0006 1988     		ldrh	r1, [r3]
 347 0008 1468     		ldr	r4, [r2]
 348 000a 5888     		ldrh	r0, [r3, #2]
 349              		.loc 1 442 0
 350 000c 1B79     		ldrb	r3, [r3, #4]	@ zero_extendqisi2
 351              		.loc 1 441 0
 352 000e 82B0     		sub	sp, sp, #8
 353              		.cfi_def_cfa_offset 16
 354              		.loc 1 442 0
 355 0010 402B     		cmp	r3, #64
 356              		.loc 1 441 0
 357 0012 0194     		str	r4, [sp, #4]
 358 0014 00FB01F0 		mul	r0, r0, r1
 359              		.loc 1 447 0
 360 0018 0199     		ldr	r1, [sp, #4]
 361 001a 1368     		ldr	r3, [r2]
 362              		.loc 1 445 0
 363 001c 18BF     		it	ne
 364 001e 4000     		lslne	r0, r0, #1
 365              		.loc 1 447 0
 366 0020 9942     		cmp	r1, r3
 367 0022 01D1     		bne	.L41
 368 0024 02B0     		add	sp, sp, #8
 369              		.cfi_remember_state
 370              		.cfi_def_cfa_offset 8
 371              		@ sp needed
 372 0026 10BD     		pop	{r4, pc}
 373              	.L41:
 374              		.cfi_restore_state
 375 0028 FFF7FEFF 		bl	__stack_chk_fail
 376              	.LVL20:
 377              	.L43:
 378              		.align	2
 379              	.L42:
 380 002c 00000000 		.word	.LANCHOR1
 381 0030 00000000 		.word	__stack_chk_guard
 382              		.cfi_endproc
 383              	.LFE272:
 384              		.size	ov2640_get_image_size, .-ov2640_get_image_size
 385              		.section	.text.ov2640_is_connected,"ax",%progbits
 386              		.align	1
 387              		.p2align 4,,15
 388              		.global	ov2640_is_connected
 389              		.syntax unified
 390              		.thumb
 391              		.thumb_func
 392              		.fpu fpv4-sp-d16
 393              		.type	ov2640_is_connected, %function
 394              	ov2640_is_connected:
 395              	.LFB273:
 396              		.loc 1 449 0
 397              		.cfi_startproc
 398              		@ args = 0, pretend = 0, frame = 8
 399              		@ frame_needed = 0, uses_anonymous_args = 0
ARM GAS  C:\Users\25521\AppData\Local\Temp\cc1T5Mom.s 			page 8


 400 0000 30B5     		push	{r4, r5, lr}
 401              		.cfi_def_cfa_offset 12
 402              		.cfi_offset 4, -12
 403              		.cfi_offset 5, -8
 404              		.cfi_offset 14, -4
 405 0002 83B0     		sub	sp, sp, #12
 406              		.cfi_def_cfa_offset 24
 407              		.loc 1 450 0
 408 0004 02A8     		add	r0, sp, #8
 409              		.loc 1 449 0
 410 0006 0D4D     		ldr	r5, .L50
 411              		.loc 1 450 0
 412 0008 0024     		movs	r4, #0
 413              		.loc 1 449 0
 414 000a 2B68     		ldr	r3, [r5]
 415              		.loc 1 450 0
 416 000c 20F8064D 		strh	r4, [r0, #-6]!	@ movhi
 417              		.loc 1 449 0
 418 0010 0193     		str	r3, [sp, #4]
 419              		.loc 1 451 0
 420 0012 FFF7FEFF 		bl	ov2640_read_id
 421              	.LVL21:
 422              		.loc 1 452 0
 423 0016 68B9     		cbnz	r0, .L47
 424              		.loc 1 452 0 is_stmt 0 discriminator 1
 425 0018 BDF80200 		ldrh	r0, [sp, #2]
 426              	.LVL22:
 427 001c 42F24164 		movw	r4, #9793
 428              		.loc 1 453 0 is_stmt 1 discriminator 1
 429 0020 001B     		subs	r0, r0, r4
 430 0022 B0FA80F0 		clz	r0, r0
 431 0026 4009     		lsrs	r0, r0, #5
 432              	.L45:
 433              		.loc 1 457 0
 434 0028 019A     		ldr	r2, [sp, #4]
 435 002a 2B68     		ldr	r3, [r5]
 436 002c 9A42     		cmp	r2, r3
 437 002e 03D1     		bne	.L49
 438 0030 03B0     		add	sp, sp, #12
 439              		.cfi_remember_state
 440              		.cfi_def_cfa_offset 12
 441              		@ sp needed
 442 0032 30BD     		pop	{r4, r5, pc}
 443              	.LVL23:
 444              	.L47:
 445              		.cfi_restore_state
 446              		.loc 1 455 0
 447 0034 2046     		mov	r0, r4
 448              	.LVL24:
 449 0036 F7E7     		b	.L45
 450              	.L49:
 451              		.loc 1 457 0
 452 0038 FFF7FEFF 		bl	__stack_chk_fail
 453              	.LVL25:
 454              	.L51:
 455              		.align	2
 456              	.L50:
ARM GAS  C:\Users\25521\AppData\Local\Temp\cc1T5Mom.s 			page 9


 457 003c 00000000 		.word	__stack_chk_guard
 458              		.cfi_endproc
 459              	.LFE273:
 460              		.size	ov2640_is_connected, .-ov2640_is_connected
 461              		.global	OV2640_QQVGA
 462              		.section	.bss.ov2640_conf,"aw",%nobits
 463              		.align	2
 464              		.set	.LANCHOR1,. + 0
 465              		.type	ov2640_conf, %object
 466              		.size	ov2640_conf, 8
 467              	ov2640_conf:
 468 0000 00000000 		.space	8
 468      00000000 
 469              		.section	.rodata.OV2640_QQVGA,"a",%progbits
 470              		.align	2
 471              		.set	.LANCHOR0,. + 0
 472              		.type	OV2640_QQVGA, %object
 473              		.size	OV2640_QQVGA, 440
 474              	OV2640_QQVGA:
 475 0000 FF       		.byte	-1
 476 0001 00       		.byte	0
 477 0002 2C       		.byte	44
 478 0003 FF       		.byte	-1
 479 0004 2E       		.byte	46
 480 0005 DF       		.byte	-33
 481 0006 FF       		.byte	-1
 482 0007 01       		.byte	1
 483 0008 3C       		.byte	60
 484 0009 32       		.byte	50
 485 000a 11       		.byte	17
 486 000b 00       		.byte	0
 487 000c 09       		.byte	9
 488 000d 02       		.byte	2
 489 000e 04       		.byte	4
 490 000f A8       		.byte	-88
 491 0010 13       		.byte	19
 492 0011 E5       		.byte	-27
 493 0012 14       		.byte	20
 494 0013 48       		.byte	72
 495 0014 2C       		.byte	44
 496 0015 0C       		.byte	12
 497 0016 33       		.byte	51
 498 0017 78       		.byte	120
 499 0018 3A       		.byte	58
 500 0019 33       		.byte	51
 501 001a 3B       		.byte	59
 502 001b FB       		.byte	-5
 503 001c 3E       		.byte	62
 504 001d 00       		.byte	0
 505 001e 43       		.byte	67
 506 001f 11       		.byte	17
 507 0020 16       		.byte	22
 508 0021 10       		.byte	16
 509 0022 4A       		.byte	74
 510 0023 81       		.byte	-127
 511 0024 21       		.byte	33
 512 0025 99       		.byte	-103
ARM GAS  C:\Users\25521\AppData\Local\Temp\cc1T5Mom.s 			page 10


 513 0026 24       		.byte	36
 514 0027 40       		.byte	64
 515 0028 25       		.byte	37
 516 0029 38       		.byte	56
 517 002a 26       		.byte	38
 518 002b 82       		.byte	-126
 519 002c 5C       		.byte	92
 520 002d 00       		.byte	0
 521 002e 63       		.byte	99
 522 002f 00       		.byte	0
 523 0030 46       		.byte	70
 524 0031 3F       		.byte	63
 525 0032 0C       		.byte	12
 526 0033 3C       		.byte	60
 527 0034 61       		.byte	97
 528 0035 70       		.byte	112
 529 0036 62       		.byte	98
 530 0037 80       		.byte	-128
 531 0038 7C       		.byte	124
 532 0039 05       		.byte	5
 533 003a 20       		.byte	32
 534 003b 80       		.byte	-128
 535 003c 28       		.byte	40
 536 003d 30       		.byte	48
 537 003e 6C       		.byte	108
 538 003f 00       		.byte	0
 539 0040 6D       		.byte	109
 540 0041 80       		.byte	-128
 541 0042 6E       		.byte	110
 542 0043 00       		.byte	0
 543 0044 70       		.byte	112
 544 0045 02       		.byte	2
 545 0046 71       		.byte	113
 546 0047 94       		.byte	-108
 547 0048 73       		.byte	115
 548 0049 C1       		.byte	-63
 549 004a 3D       		.byte	61
 550 004b 34       		.byte	52
 551 004c 5A       		.byte	90
 552 004d 57       		.byte	87
 553 004e 12       		.byte	18
 554 004f 00       		.byte	0
 555 0050 11       		.byte	17
 556 0051 00       		.byte	0
 557 0052 17       		.byte	23
 558 0053 11       		.byte	17
 559 0054 18       		.byte	24
 560 0055 75       		.byte	117
 561 0056 19       		.byte	25
 562 0057 01       		.byte	1
 563 0058 1A       		.byte	26
 564 0059 97       		.byte	-105
 565 005a 32       		.byte	50
 566 005b 36       		.byte	54
 567 005c 03       		.byte	3
 568 005d 0F       		.byte	15
 569 005e 37       		.byte	55
ARM GAS  C:\Users\25521\AppData\Local\Temp\cc1T5Mom.s 			page 11


 570 005f 40       		.byte	64
 571 0060 4F       		.byte	79
 572 0061 BB       		.byte	-69
 573 0062 50       		.byte	80
 574 0063 9C       		.byte	-100
 575 0064 5A       		.byte	90
 576 0065 57       		.byte	87
 577 0066 6D       		.byte	109
 578 0067 80       		.byte	-128
 579 0068 6D       		.byte	109
 580 0069 38       		.byte	56
 581 006a 39       		.byte	57
 582 006b 02       		.byte	2
 583 006c 35       		.byte	53
 584 006d 88       		.byte	-120
 585 006e 22       		.byte	34
 586 006f 0A       		.byte	10
 587 0070 37       		.byte	55
 588 0071 40       		.byte	64
 589 0072 23       		.byte	35
 590 0073 00       		.byte	0
 591 0074 34       		.byte	52
 592 0075 A0       		.byte	-96
 593 0076 36       		.byte	54
 594 0077 1A       		.byte	26
 595 0078 06       		.byte	6
 596 0079 02       		.byte	2
 597 007a 07       		.byte	7
 598 007b C0       		.byte	-64
 599 007c 0D       		.byte	13
 600 007d B7       		.byte	-73
 601 007e 0E       		.byte	14
 602 007f 01       		.byte	1
 603 0080 4C       		.byte	76
 604 0081 00       		.byte	0
 605 0082 FF       		.byte	-1
 606 0083 00       		.byte	0
 607 0084 E5       		.byte	-27
 608 0085 7F       		.byte	127
 609 0086 F9       		.byte	-7
 610 0087 C0       		.byte	-64
 611 0088 41       		.byte	65
 612 0089 24       		.byte	36
 613 008a E0       		.byte	-32
 614 008b 14       		.byte	20
 615 008c 76       		.byte	118
 616 008d FF       		.byte	-1
 617 008e 33       		.byte	51
 618 008f A0       		.byte	-96
 619 0090 42       		.byte	66
 620 0091 20       		.byte	32
 621 0092 43       		.byte	67
 622 0093 18       		.byte	24
 623 0094 4C       		.byte	76
 624 0095 00       		.byte	0
 625 0096 87       		.byte	-121
 626 0097 D0       		.byte	-48
ARM GAS  C:\Users\25521\AppData\Local\Temp\cc1T5Mom.s 			page 12


 627 0098 88       		.byte	-120
 628 0099 3F       		.byte	63
 629 009a D7       		.byte	-41
 630 009b 03       		.byte	3
 631 009c D9       		.byte	-39
 632 009d 10       		.byte	16
 633 009e D3       		.byte	-45
 634 009f 82       		.byte	-126
 635 00a0 C8       		.byte	-56
 636 00a1 08       		.byte	8
 637 00a2 C9       		.byte	-55
 638 00a3 80       		.byte	-128
 639 00a4 7D       		.byte	125
 640 00a5 00       		.byte	0
 641 00a6 7C       		.byte	124
 642 00a7 03       		.byte	3
 643 00a8 7D       		.byte	125
 644 00a9 48       		.byte	72
 645 00aa 7C       		.byte	124
 646 00ab 08       		.byte	8
 647 00ac 7D       		.byte	125
 648 00ad 20       		.byte	32
 649 00ae 7D       		.byte	125
 650 00af 10       		.byte	16
 651 00b0 7D       		.byte	125
 652 00b1 0E       		.byte	14
 653 00b2 90       		.byte	-112
 654 00b3 00       		.byte	0
 655 00b4 91       		.byte	-111
 656 00b5 0E       		.byte	14
 657 00b6 91       		.byte	-111
 658 00b7 1A       		.byte	26
 659 00b8 91       		.byte	-111
 660 00b9 31       		.byte	49
 661 00ba 91       		.byte	-111
 662 00bb 5A       		.byte	90
 663 00bc 91       		.byte	-111
 664 00bd 69       		.byte	105
 665 00be 91       		.byte	-111
 666 00bf 75       		.byte	117
 667 00c0 91       		.byte	-111
 668 00c1 7E       		.byte	126
 669 00c2 91       		.byte	-111
 670 00c3 88       		.byte	-120
 671 00c4 91       		.byte	-111
 672 00c5 8F       		.byte	-113
 673 00c6 91       		.byte	-111
 674 00c7 96       		.byte	-106
 675 00c8 91       		.byte	-111
 676 00c9 A3       		.byte	-93
 677 00ca 91       		.byte	-111
 678 00cb AF       		.byte	-81
 679 00cc 91       		.byte	-111
 680 00cd C4       		.byte	-60
 681 00ce 91       		.byte	-111
 682 00cf D7       		.byte	-41
 683 00d0 91       		.byte	-111
ARM GAS  C:\Users\25521\AppData\Local\Temp\cc1T5Mom.s 			page 13


 684 00d1 E8       		.byte	-24
 685 00d2 91       		.byte	-111
 686 00d3 20       		.byte	32
 687 00d4 92       		.byte	-110
 688 00d5 00       		.byte	0
 689 00d6 93       		.byte	-109
 690 00d7 06       		.byte	6
 691 00d8 93       		.byte	-109
 692 00d9 E3       		.byte	-29
 693 00da 93       		.byte	-109
 694 00db 02       		.byte	2
 695 00dc 93       		.byte	-109
 696 00dd 02       		.byte	2
 697 00de 93       		.byte	-109
 698 00df 00       		.byte	0
 699 00e0 93       		.byte	-109
 700 00e1 04       		.byte	4
 701 00e2 93       		.byte	-109
 702 00e3 00       		.byte	0
 703 00e4 93       		.byte	-109
 704 00e5 03       		.byte	3
 705 00e6 93       		.byte	-109
 706 00e7 00       		.byte	0
 707 00e8 93       		.byte	-109
 708 00e9 00       		.byte	0
 709 00ea 93       		.byte	-109
 710 00eb 00       		.byte	0
 711 00ec 93       		.byte	-109
 712 00ed 00       		.byte	0
 713 00ee 93       		.byte	-109
 714 00ef 00       		.byte	0
 715 00f0 93       		.byte	-109
 716 00f1 00       		.byte	0
 717 00f2 93       		.byte	-109
 718 00f3 00       		.byte	0
 719 00f4 96       		.byte	-106
 720 00f5 00       		.byte	0
 721 00f6 97       		.byte	-105
 722 00f7 08       		.byte	8
 723 00f8 97       		.byte	-105
 724 00f9 19       		.byte	25
 725 00fa 97       		.byte	-105
 726 00fb 02       		.byte	2
 727 00fc 97       		.byte	-105
 728 00fd 0C       		.byte	12
 729 00fe 97       		.byte	-105
 730 00ff 24       		.byte	36
 731 0100 97       		.byte	-105
 732 0101 30       		.byte	48
 733 0102 97       		.byte	-105
 734 0103 28       		.byte	40
 735 0104 97       		.byte	-105
 736 0105 26       		.byte	38
 737 0106 97       		.byte	-105
 738 0107 02       		.byte	2
 739 0108 97       		.byte	-105
 740 0109 98       		.byte	-104
ARM GAS  C:\Users\25521\AppData\Local\Temp\cc1T5Mom.s 			page 14


 741 010a 97       		.byte	-105
 742 010b 80       		.byte	-128
 743 010c 97       		.byte	-105
 744 010d 00       		.byte	0
 745 010e 97       		.byte	-105
 746 010f 00       		.byte	0
 747 0110 C3       		.byte	-61
 748 0111 EF       		.byte	-17
 749 0112 FF       		.byte	-1
 750 0113 00       		.byte	0
 751 0114 BA       		.byte	-70
 752 0115 DC       		.byte	-36
 753 0116 BB       		.byte	-69
 754 0117 08       		.byte	8
 755 0118 B6       		.byte	-74
 756 0119 24       		.byte	36
 757 011a B8       		.byte	-72
 758 011b 33       		.byte	51
 759 011c B7       		.byte	-73
 760 011d 20       		.byte	32
 761 011e B9       		.byte	-71
 762 011f 30       		.byte	48
 763 0120 B3       		.byte	-77
 764 0121 B4       		.byte	-76
 765 0122 B4       		.byte	-76
 766 0123 CA       		.byte	-54
 767 0124 B5       		.byte	-75
 768 0125 43       		.byte	67
 769 0126 B0       		.byte	-80
 770 0127 5C       		.byte	92
 771 0128 B1       		.byte	-79
 772 0129 4F       		.byte	79
 773 012a B2       		.byte	-78
 774 012b 06       		.byte	6
 775 012c C7       		.byte	-57
 776 012d 00       		.byte	0
 777 012e C6       		.byte	-58
 778 012f 51       		.byte	81
 779 0130 C5       		.byte	-59
 780 0131 11       		.byte	17
 781 0132 C4       		.byte	-60
 782 0133 9C       		.byte	-100
 783 0134 BF       		.byte	-65
 784 0135 00       		.byte	0
 785 0136 BC       		.byte	-68
 786 0137 64       		.byte	100
 787 0138 A6       		.byte	-90
 788 0139 00       		.byte	0
 789 013a A7       		.byte	-89
 790 013b 1E       		.byte	30
 791 013c A7       		.byte	-89
 792 013d 6B       		.byte	107
 793 013e A7       		.byte	-89
 794 013f 47       		.byte	71
 795 0140 A7       		.byte	-89
 796 0141 33       		.byte	51
 797 0142 A7       		.byte	-89
ARM GAS  C:\Users\25521\AppData\Local\Temp\cc1T5Mom.s 			page 15


 798 0143 00       		.byte	0
 799 0144 A7       		.byte	-89
 800 0145 23       		.byte	35
 801 0146 A7       		.byte	-89
 802 0147 2E       		.byte	46
 803 0148 A7       		.byte	-89
 804 0149 85       		.byte	-123
 805 014a A7       		.byte	-89
 806 014b 42       		.byte	66
 807 014c A7       		.byte	-89
 808 014d 33       		.byte	51
 809 014e A7       		.byte	-89
 810 014f 00       		.byte	0
 811 0150 A7       		.byte	-89
 812 0151 23       		.byte	35
 813 0152 A7       		.byte	-89
 814 0153 1B       		.byte	27
 815 0154 A7       		.byte	-89
 816 0155 74       		.byte	116
 817 0156 A7       		.byte	-89
 818 0157 42       		.byte	66
 819 0158 A7       		.byte	-89
 820 0159 33       		.byte	51
 821 015a A7       		.byte	-89
 822 015b 00       		.byte	0
 823 015c A7       		.byte	-89
 824 015d 23       		.byte	35
 825 015e C0       		.byte	-64
 826 015f C8       		.byte	-56
 827 0160 C1       		.byte	-63
 828 0161 96       		.byte	-106
 829 0162 8C       		.byte	-116
 830 0163 00       		.byte	0
 831 0164 86       		.byte	-122
 832 0165 3D       		.byte	61
 833 0166 50       		.byte	80
 834 0167 92       		.byte	-110
 835 0168 51       		.byte	81
 836 0169 90       		.byte	-112
 837 016a 52       		.byte	82
 838 016b 2C       		.byte	44
 839 016c 53       		.byte	83
 840 016d 00       		.byte	0
 841 016e 54       		.byte	84
 842 016f 00       		.byte	0
 843 0170 55       		.byte	85
 844 0171 88       		.byte	-120
 845 0172 5A       		.byte	90
 846 0173 50       		.byte	80
 847 0174 5B       		.byte	91
 848 0175 3C       		.byte	60
 849 0176 5C       		.byte	92
 850 0177 00       		.byte	0
 851 0178 D3       		.byte	-45
 852 0179 04       		.byte	4
 853 017a 7F       		.byte	127
 854 017b 00       		.byte	0
ARM GAS  C:\Users\25521\AppData\Local\Temp\cc1T5Mom.s 			page 16


 855 017c DA       		.byte	-38
 856 017d 00       		.byte	0
 857 017e E5       		.byte	-27
 858 017f 1F       		.byte	31
 859 0180 E1       		.byte	-31
 860 0181 67       		.byte	103
 861 0182 E0       		.byte	-32
 862 0183 00       		.byte	0
 863 0184 DD       		.byte	-35
 864 0185 7F       		.byte	127
 865 0186 05       		.byte	5
 866 0187 00       		.byte	0
 867 0188 FF       		.byte	-1
 868 0189 00       		.byte	0
 869 018a E0       		.byte	-32
 870 018b 04       		.byte	4
 871 018c C0       		.byte	-64
 872 018d C8       		.byte	-56
 873 018e C1       		.byte	-63
 874 018f 96       		.byte	-106
 875 0190 86       		.byte	-122
 876 0191 3D       		.byte	61
 877 0192 50       		.byte	80
 878 0193 92       		.byte	-110
 879 0194 51       		.byte	81
 880 0195 90       		.byte	-112
 881 0196 52       		.byte	82
 882 0197 2C       		.byte	44
 883 0198 53       		.byte	83
 884 0199 00       		.byte	0
 885 019a 54       		.byte	84
 886 019b 00       		.byte	0
 887 019c 55       		.byte	85
 888 019d 88       		.byte	-120
 889 019e 57       		.byte	87
 890 019f 00       		.byte	0
 891 01a0 5A       		.byte	90
 892 01a1 28       		.byte	40
 893 01a2 5B       		.byte	91
 894 01a3 1E       		.byte	30
 895 01a4 5C       		.byte	92
 896 01a5 00       		.byte	0
 897 01a6 D3       		.byte	-45
 898 01a7 08       		.byte	8
 899 01a8 E0       		.byte	-32
 900 01a9 00       		.byte	0
 901 01aa FF       		.byte	-1
 902 01ab 00       		.byte	0
 903 01ac 05       		.byte	5
 904 01ad 00       		.byte	0
 905 01ae DA       		.byte	-38
 906 01af 08       		.byte	8
 907 01b0 DA       		.byte	-38
 908 01b1 09       		.byte	9
 909 01b2 98       		.byte	-104
 910 01b3 00       		.byte	0
 911 01b4 99       		.byte	-103
ARM GAS  C:\Users\25521\AppData\Local\Temp\cc1T5Mom.s 			page 17


 912 01b5 00       		.byte	0
 913 01b6 00       		.byte	0
 914 01b7 00       		.byte	0
 915              		.text
 916              	.Letext0:
 917              		.file 2 "d:\\eclipse_e-puck2_win32_11_apr_2018\\eclipse_e-puck2\\tools\\gcc-arm-none-eabi-7-2017-q
 918              		.file 3 "d:\\eclipse_e-puck2_win32_11_apr_2018\\eclipse_e-puck2\\tools\\gcc-arm-none-eabi-7-2017-q
 919              		.file 4 "d:\\eclipse_e-puck2_win32_11_apr_2018\\eclipse_e-puck2\\tools\\gcc-arm-none-eabi-7-2017-q
 920              		.file 5 ".//ChibiOS//os/rt/ports/ARMCMx/compilers/GCC/chtypes.h"
 921              		.file 6 ".//ChibiOS//os/rt/include/chsystypes.h"
 922              		.file 7 ".//ChibiOS//os/rt/include/chschd.h"
 923              		.file 8 ".//ChibiOS//os/ext/CMSIS/include/core_cm4.h"
 924              		.file 9 ".//ChibiOS//os/ext/CMSIS/ST/system_stm32f4xx.h"
 925              		.file 10 ".//ChibiOS//os/ext/CMSIS/ST/stm32f407xx.h"
 926              		.file 11 ".//ChibiOS//os/rt/ports/ARMCMx/chcore.h"
 927              		.file 12 ".//ChibiOS//os/rt/ports/ARMCMx/chcore_v7m.h"
 928              		.file 13 ".//ChibiOS//os/rt/include/chdebug.h"
 929              		.file 14 ".//ChibiOS//os/rt/include/chtm.h"
 930              		.file 15 ".//ChibiOS//os/rt/include/chstats.h"
 931              		.file 16 ".//ChibiOS//os/rt/include/chsem.h"
 932              		.file 17 ".//ChibiOS//os/rt/include/chmtx.h"
 933              		.file 18 ".//ChibiOS//os/rt/include/chregistry.h"
 934              		.file 19 ".//ChibiOS//os/rt/include/chevents.h"
 935              		.file 20 ".//ChibiOS//os/rt/include/chqueues.h"
 936              		.file 21 ".//ChibiOS//os/hal/ports/STM32/LLD/DMAv2/stm32_dma.h"
 937              		.file 22 ".//ChibiOS//os/hal/include/hal_ioblock.h"
 938              		.file 23 ".//ChibiOS//os/hal/ports/STM32/LLD/GPIOv2/pal_lld.h"
 939              		.file 24 ".//ChibiOS//os/hal/include/adc.h"
 940              		.file 25 ".//ChibiOS//os/hal/ports/STM32/LLD/ADCv2/adc_lld.h"
 941              		.file 26 ".//ChibiOS//os/hal/include/can.h"
 942              		.file 27 ".//ChibiOS//os/hal/ports/STM32/LLD/CANv1/can_lld.h"
 943              		.file 28 ".//ChibiOS//os/hal/include/dac.h"
 944              		.file 29 ".//ChibiOS//os/hal/ports/STM32/LLD/DACv1/dac_lld.h"
 945              		.file 30 ".//ChibiOS//os/hal/include/ext.h"
 946              		.file 31 ".//ChibiOS//os/hal/ports/STM32/LLD/EXTIv1/ext_lld.h"
 947              		.file 32 ".//ChibiOS//os/hal/include/gpt.h"
 948              		.file 33 ".//ChibiOS//os/hal/ports/STM32/LLD/TIMv1/gpt_lld.h"
 949              		.file 34 ".//ChibiOS//os/hal/ports/STM32/LLD/TIMv1/stm32_tim.h"
 950              		.file 35 ".//ChibiOS//os/hal/include/i2c.h"
 951              		.file 36 ".//ChibiOS//os/hal/ports/STM32/LLD/I2Cv1/i2c_lld.h"
 952              		.file 37 ".//ChibiOS//os/hal/include/i2s.h"
 953              		.file 38 ".//ChibiOS//os/hal/ports/STM32/LLD/SPIv1/i2s_lld.h"
 954              		.file 39 ".//ChibiOS//os/hal/include/pwm.h"
 955              		.file 40 ".//ChibiOS//os/hal/ports/STM32/LLD/TIMv1/pwm_lld.h"
 956              		.file 41 ".//ChibiOS//os/hal/include/serial.h"
 957              		.file 42 ".//ChibiOS//os/hal/ports/STM32/LLD/USARTv1/serial_lld.h"
 958              		.file 43 ".//ChibiOS//os/hal/include/sdc.h"
 959              		.file 44 ".//ChibiOS//os/hal/ports/STM32/LLD/SDIOv1/sdc_lld.h"
 960              		.file 45 ".//ChibiOS//os/hal/include/spi.h"
 961              		.file 46 ".//ChibiOS//os/hal/ports/STM32/LLD/SPIv1/spi_lld.h"
 962              		.file 47 ".//ChibiOS//os/hal/include/usb.h"
 963              		.file 48 ".//ChibiOS//os/hal/ports/STM32/LLD/OTGv1/usb_lld.h"
 964              		.file 49 ".//ChibiOS//os/hal/ports/STM32/LLD/OTGv1/stm32_otg.h"
 965              		.file 50 ".//ChibiOS//os/hal/include/serial_usb.h"
 966              		.file 51 ".//src/camera/camera.h"
 967              		.file 52 ".//src/camera/ov2640.h"
 968              		.file 53 ".//src/usbcfg.h"
ARM GAS  C:\Users\25521\AppData\Local\Temp\cc1T5Mom.s 			page 18


 969              		.file 54 ".//src/camera/../i2c_bus.h"