ARM GAS  C:\Users\25521\AppData\Local\Temp\ccN6nSuc.s 			page 1


   1              		.cpu cortex-m4
   2              		.eabi_attribute 27, 1
   3              		.eabi_attribute 28, 1
   4              		.eabi_attribute 20, 1
   5              		.eabi_attribute 21, 1
   6              		.eabi_attribute 23, 3
   7              		.eabi_attribute 24, 1
   8              		.eabi_attribute 25, 1
   9              		.eabi_attribute 26, 1
  10              		.eabi_attribute 30, 2
  11              		.eabi_attribute 34, 1
  12              		.eabi_attribute 18, 4
  13              		.file	"pal.c"
  14              		.text
  15              	.Ltext0:
  16              		.cfi_sections	.debug_frame
  17              		.section	.text.palReadBus,"ax",%progbits
  18              		.align	1
  19              		.p2align 4,,15
  20              		.global	palReadBus
  21              		.syntax unified
  22              		.thumb
  23              		.thumb_func
  24              		.fpu fpv4-sp-d16
  25              		.type	palReadBus, %function
  26              	palReadBus:
  27              	.LFB267:
  28              		.file 1 ".//ChibiOS//os/hal/src/pal.c"
  29              		.loc 1 65 0
  30              		.cfi_startproc
  31              		@ args = 0, pretend = 0, frame = 8
  32              		@ frame_needed = 0, uses_anonymous_args = 0
  33              	.LVL0:
  34 0000 30B5     		push	{r4, r5, lr}
  35              		.cfi_def_cfa_offset 12
  36              		.cfi_offset 4, -12
  37              		.cfi_offset 5, -8
  38              		.cfi_offset 14, -4
  39 0002 0D4D     		ldr	r5, .L11
  40 0004 83B0     		sub	sp, sp, #12
  41              		.cfi_def_cfa_offset 24
  42              		.loc 1 65 0
  43 0006 2B68     		ldr	r3, [r5]
  44 0008 0193     		str	r3, [sp, #4]
  45              		.loc 1 67 0
  46 000a 0446     		mov	r4, r0
  47 000c 10B1     		cbz	r0, .L2
  48              		.loc 1 67 0 is_stmt 0 discriminator 3
  49 000e 8268     		ldr	r2, [r0, #8]
  50 0010 0F2A     		cmp	r2, #15
  51 0012 03D9     		bls	.L3
  52              	.L2:
  53              		.loc 1 67 0 discriminator 4
  54 0014 0948     		ldr	r0, .L11+4
  55              	.LVL1:
  56 0016 FFF7FEFF 		bl	chSysHalt
  57              	.LVL2:
ARM GAS  C:\Users\25521\AppData\Local\Temp\ccN6nSuc.s 			page 2


  58 001a A268     		ldr	r2, [r4, #8]
  59              	.L3:
  60              		.loc 1 69 0 is_stmt 1
  61 001c D4E90030 		ldrd	r3, r0, [r4]
  62 0020 1B69     		ldr	r3, [r3, #16]
  63              		.loc 1 70 0
  64 0022 019C     		ldr	r4, [sp, #4]
  65              	.LVL3:
  66 0024 2968     		ldr	r1, [r5]
  67              		.loc 1 69 0
  68 0026 D340     		lsrs	r3, r3, r2
  69              		.loc 1 70 0
  70 0028 8C42     		cmp	r4, r1
  71 002a 00EA0300 		and	r0, r0, r3
  72 002e 01D1     		bne	.L10
  73 0030 03B0     		add	sp, sp, #12
  74              		.cfi_remember_state
  75              		.cfi_def_cfa_offset 12
  76              		@ sp needed
  77 0032 30BD     		pop	{r4, r5, pc}
  78              	.L10:
  79              		.cfi_restore_state
  80 0034 FFF7FEFF 		bl	__stack_chk_fail
  81              	.LVL4:
  82              	.L12:
  83              		.align	2
  84              	.L11:
  85 0038 00000000 		.word	__stack_chk_guard
  86 003c 00000000 		.word	.LANCHOR0
  87              		.cfi_endproc
  88              	.LFE267:
  89              		.size	palReadBus, .-palReadBus
  90              		.section	.text.palWriteBus,"ax",%progbits
  91              		.align	1
  92              		.p2align 4,,15
  93              		.global	palWriteBus
  94              		.syntax unified
  95              		.thumb
  96              		.thumb_func
  97              		.fpu fpv4-sp-d16
  98              		.type	palWriteBus, %function
  99              	palWriteBus:
 100              	.LFB268:
 101              		.loc 1 90 0
 102              		.cfi_startproc
 103              		@ args = 0, pretend = 0, frame = 8
 104              		@ frame_needed = 0, uses_anonymous_args = 0
 105              	.LVL5:
 106 0000 70B5     		push	{r4, r5, r6, lr}
 107              		.cfi_def_cfa_offset 16
 108              		.cfi_offset 4, -16
 109              		.cfi_offset 5, -12
 110              		.cfi_offset 6, -8
 111              		.cfi_offset 14, -4
 112 0002 114D     		ldr	r5, .L22
 113 0004 82B0     		sub	sp, sp, #8
 114              		.cfi_def_cfa_offset 24
ARM GAS  C:\Users\25521\AppData\Local\Temp\ccN6nSuc.s 			page 3


 115              		.loc 1 90 0
 116 0006 2B68     		ldr	r3, [r5]
 117 0008 0193     		str	r3, [sp, #4]
 118 000a 0E46     		mov	r6, r1
 119              		.loc 1 92 0
 120 000c 0446     		mov	r4, r0
 121 000e 10B1     		cbz	r0, .L14
 122              		.loc 1 92 0 is_stmt 0 discriminator 3
 123 0010 8068     		ldr	r0, [r0, #8]
 124              	.LVL6:
 125 0012 0F28     		cmp	r0, #15
 126 0014 03D9     		bls	.L15
 127              	.L14:
 128              		.loc 1 92 0 discriminator 4
 129 0016 0D48     		ldr	r0, .L22+4
 130 0018 FFF7FEFF 		bl	chSysHalt
 131              	.LVL7:
 132 001c A068     		ldr	r0, [r4, #8]
 133              	.L15:
 134              		.loc 1 94 0 is_stmt 1
 135 001e D4E90043 		ldrd	r4, r3, [r4]
 136              	.LVL8:
 137 0022 00F11001 		add	r1, r0, #16
 138 0026 23EA0602 		bic	r2, r3, r6
 139 002a 3340     		ands	r3, r3, r6
 140 002c 02FA01F1 		lsl	r1, r2, r1
 141 0030 8340     		lsls	r3, r3, r0
 142 0032 0B43     		orrs	r3, r3, r1
 143 0034 A361     		str	r3, [r4, #24]
 144              		.loc 1 95 0
 145 0036 019A     		ldr	r2, [sp, #4]
 146 0038 2B68     		ldr	r3, [r5]
 147 003a 9A42     		cmp	r2, r3
 148 003c 01D1     		bne	.L21
 149 003e 02B0     		add	sp, sp, #8
 150              		.cfi_remember_state
 151              		.cfi_def_cfa_offset 16
 152              		@ sp needed
 153 0040 70BD     		pop	{r4, r5, r6, pc}
 154              	.LVL9:
 155              	.L21:
 156              		.cfi_restore_state
 157 0042 FFF7FEFF 		bl	__stack_chk_fail
 158              	.LVL10:
 159              	.L23:
 160 0046 00BF     		.align	2
 161              	.L22:
 162 0048 00000000 		.word	__stack_chk_guard
 163 004c 00000000 		.word	.LANCHOR1
 164              		.cfi_endproc
 165              	.LFE268:
 166              		.size	palWriteBus, .-palWriteBus
 167              		.section	.text.palSetBusMode,"ax",%progbits
 168              		.align	1
 169              		.p2align 4,,15
 170              		.global	palSetBusMode
 171              		.syntax unified
ARM GAS  C:\Users\25521\AppData\Local\Temp\ccN6nSuc.s 			page 4


 172              		.thumb
 173              		.thumb_func
 174              		.fpu fpv4-sp-d16
 175              		.type	palSetBusMode, %function
 176              	palSetBusMode:
 177              	.LFB269:
 178              		.loc 1 113 0
 179              		.cfi_startproc
 180              		@ args = 0, pretend = 0, frame = 8
 181              		@ frame_needed = 0, uses_anonymous_args = 0
 182              	.LVL11:
 183 0000 F0B5     		push	{r4, r5, r6, r7, lr}
 184              		.cfi_def_cfa_offset 20
 185              		.cfi_offset 4, -20
 186              		.cfi_offset 5, -16
 187              		.cfi_offset 6, -12
 188              		.cfi_offset 7, -8
 189              		.cfi_offset 14, -4
 190 0002 0E4D     		ldr	r5, .L34
 191 0004 83B0     		sub	sp, sp, #12
 192              		.cfi_def_cfa_offset 32
 193              		.loc 1 113 0
 194 0006 2B68     		ldr	r3, [r5]
 195 0008 0193     		str	r3, [sp, #4]
 196 000a 0F46     		mov	r7, r1
 197              		.loc 1 115 0
 198 000c 0446     		mov	r4, r0
 199 000e 10B1     		cbz	r0, .L25
 200              		.loc 1 115 0 is_stmt 0 discriminator 3
 201 0010 8368     		ldr	r3, [r0, #8]
 202 0012 0F2B     		cmp	r3, #15
 203 0014 03D9     		bls	.L26
 204              	.L25:
 205              		.loc 1 115 0 discriminator 4
 206 0016 0A48     		ldr	r0, .L34+4
 207              	.LVL12:
 208 0018 FFF7FEFF 		bl	chSysHalt
 209              	.LVL13:
 210 001c A368     		ldr	r3, [r4, #8]
 211              	.L26:
 212              		.loc 1 117 0 is_stmt 1
 213 001e 019E     		ldr	r6, [sp, #4]
 214 0020 2868     		ldr	r0, [r5]
 215 0022 8642     		cmp	r6, r0
 216 0024 08D1     		bne	.L33
 217 0026 D4E90001 		ldrd	r0, r1, [r4]
 218 002a 3A46     		mov	r2, r7
 219 002c 9940     		lsls	r1, r1, r3
 220              		.loc 1 118 0
 221 002e 03B0     		add	sp, sp, #12
 222              		.cfi_remember_state
 223              		.cfi_def_cfa_offset 20
 224              		@ sp needed
 225 0030 BDE8F040 		pop	{r4, r5, r6, r7, lr}
 226              		.cfi_restore 14
 227              		.cfi_restore 7
 228              		.cfi_restore 6
ARM GAS  C:\Users\25521\AppData\Local\Temp\ccN6nSuc.s 			page 5


 229              		.cfi_restore 5
 230              		.cfi_restore 4
 231              		.cfi_def_cfa_offset 0
 232              	.LVL14:
 233              		.loc 1 117 0
 234 0034 FFF7FEBF 		b	_pal_lld_setgroupmode
 235              	.LVL15:
 236              	.L33:
 237              		.cfi_restore_state
 238 0038 FFF7FEFF 		bl	__stack_chk_fail
 239              	.LVL16:
 240              	.L35:
 241              		.align	2
 242              	.L34:
 243 003c 00000000 		.word	__stack_chk_guard
 244 0040 00000000 		.word	.LANCHOR2
 245              		.cfi_endproc
 246              	.LFE269:
 247              		.size	palSetBusMode, .-palSetBusMode
 248              		.section	.rodata.__func__.9909,"a",%progbits
 249              		.align	2
 250              		.set	.LANCHOR0,. + 0
 251              		.type	__func__.9909, %object
 252              		.size	__func__.9909, 11
 253              	__func__.9909:
 254 0000 70616C52 		.ascii	"palReadBus\000"
 254      65616442 
 254      757300
 255              		.section	.rodata.__func__.9914,"a",%progbits
 256              		.align	2
 257              		.set	.LANCHOR1,. + 0
 258              		.type	__func__.9914, %object
 259              		.size	__func__.9914, 12
 260              	__func__.9914:
 261 0000 70616C57 		.ascii	"palWriteBus\000"
 261      72697465 
 261      42757300 
 262              		.section	.rodata.__func__.9919,"a",%progbits
 263              		.align	2
 264              		.set	.LANCHOR2,. + 0
 265              		.type	__func__.9919, %object
 266              		.size	__func__.9919, 14
 267              	__func__.9919:
 268 0000 70616C53 		.ascii	"palSetBusMode\000"
 268      65744275 
 268      734D6F64 
 268      6500
 269              		.text
 270              	.Letext0:
 271              		.file 2 "d:\\eclipse_e-puck2_win32_11_apr_2018\\eclipse_e-puck2\\tools\\gcc-arm-none-eabi-7-2017-q
 272              		.file 3 "d:\\eclipse_e-puck2_win32_11_apr_2018\\eclipse_e-puck2\\tools\\gcc-arm-none-eabi-7-2017-q
 273              		.file 4 "d:\\eclipse_e-puck2_win32_11_apr_2018\\eclipse_e-puck2\\tools\\gcc-arm-none-eabi-7-2017-q
 274              		.file 5 "d:\\eclipse_e-puck2_win32_11_apr_2018\\eclipse_e-puck2\\tools\\gcc-arm-none-eabi-7-2017-q
 275              		.file 6 ".//ChibiOS//os/rt/ports/ARMCMx/compilers/GCC/chtypes.h"
 276              		.file 7 ".//ChibiOS//os/rt/include/chsystypes.h"
 277              		.file 8 ".//ChibiOS//os/rt/include/chschd.h"
 278              		.file 9 ".//ChibiOS//os/ext/CMSIS/include/core_cm4.h"
ARM GAS  C:\Users\25521\AppData\Local\Temp\ccN6nSuc.s 			page 6


 279              		.file 10 ".//ChibiOS//os/ext/CMSIS/ST/system_stm32f4xx.h"
 280              		.file 11 ".//ChibiOS//os/ext/CMSIS/ST/stm32f407xx.h"
 281              		.file 12 ".//ChibiOS//os/rt/ports/ARMCMx/chcore.h"
 282              		.file 13 ".//ChibiOS//os/rt/ports/ARMCMx/chcore_v7m.h"
 283              		.file 14 ".//ChibiOS//os/rt/include/chdebug.h"
 284              		.file 15 ".//ChibiOS//os/rt/include/chtm.h"
 285              		.file 16 ".//ChibiOS//os/rt/include/chstats.h"
 286              		.file 17 ".//ChibiOS//os/rt/include/chsem.h"
 287              		.file 18 ".//ChibiOS//os/rt/include/chmtx.h"
 288              		.file 19 ".//ChibiOS//os/rt/include/chregistry.h"
 289              		.file 20 ".//ChibiOS//os/rt/include/chevents.h"
 290              		.file 21 ".//ChibiOS//os/rt/include/chqueues.h"
 291              		.file 22 ".//ChibiOS//os/hal/ports/STM32/LLD/DMAv2/stm32_dma.h"
 292              		.file 23 ".//ChibiOS//os/hal/include/hal_ioblock.h"
 293              		.file 24 ".//ChibiOS//os/hal/ports/STM32/LLD/GPIOv2/pal_lld.h"
 294              		.file 25 ".//ChibiOS//os/hal/include/pal.h"
 295              		.file 26 ".//ChibiOS//os/hal/include/adc.h"
 296              		.file 27 ".//ChibiOS//os/hal/ports/STM32/LLD/ADCv2/adc_lld.h"
 297              		.file 28 ".//ChibiOS//os/hal/include/can.h"
 298              		.file 29 ".//ChibiOS//os/hal/ports/STM32/LLD/CANv1/can_lld.h"
 299              		.file 30 ".//ChibiOS//os/hal/include/dac.h"
 300              		.file 31 ".//ChibiOS//os/hal/ports/STM32/LLD/DACv1/dac_lld.h"
 301              		.file 32 ".//ChibiOS//os/hal/include/ext.h"
 302              		.file 33 ".//ChibiOS//os/hal/ports/STM32/LLD/EXTIv1/ext_lld.h"
 303              		.file 34 ".//ChibiOS//os/hal/include/gpt.h"
 304              		.file 35 ".//ChibiOS//os/hal/ports/STM32/LLD/TIMv1/gpt_lld.h"
 305              		.file 36 ".//ChibiOS//os/hal/ports/STM32/LLD/TIMv1/stm32_tim.h"
 306              		.file 37 ".//ChibiOS//os/hal/include/i2c.h"
 307              		.file 38 ".//ChibiOS//os/hal/ports/STM32/LLD/I2Cv1/i2c_lld.h"
 308              		.file 39 ".//ChibiOS//os/hal/include/i2s.h"
 309              		.file 40 ".//ChibiOS//os/hal/ports/STM32/LLD/SPIv1/i2s_lld.h"
 310              		.file 41 ".//ChibiOS//os/hal/include/pwm.h"
 311              		.file 42 ".//ChibiOS//os/hal/ports/STM32/LLD/TIMv1/pwm_lld.h"
 312              		.file 43 ".//ChibiOS//os/hal/include/serial.h"
 313              		.file 44 ".//ChibiOS//os/hal/ports/STM32/LLD/USARTv1/serial_lld.h"
 314              		.file 45 ".//ChibiOS//os/hal/include/sdc.h"
 315              		.file 46 ".//ChibiOS//os/hal/ports/STM32/LLD/SDIOv1/sdc_lld.h"
 316              		.file 47 ".//ChibiOS//os/hal/include/spi.h"
 317              		.file 48 ".//ChibiOS//os/hal/ports/STM32/LLD/SPIv1/spi_lld.h"
 318              		.file 49 ".//ChibiOS//os/hal/include/usb.h"
 319              		.file 50 ".//ChibiOS//os/hal/ports/STM32/LLD/OTGv1/usb_lld.h"
 320              		.file 51 ".//ChibiOS//os/hal/ports/STM32/LLD/OTGv1/stm32_otg.h"
 321              		.file 52 ".//ChibiOS//os/rt/include/chsys.h"