ARM GAS  C:\Users\25521\AppData\Local\Temp\ccDmagyc.s 			page 1


   1              		.cpu cortex-m4
   2              		.eabi_attribute 27, 1
   3              		.eabi_attribute 28, 1
   4              		.eabi_attribute 20, 1
   5              		.eabi_attribute 21, 1
   6              		.eabi_attribute 23, 3
   7              		.eabi_attribute 24, 1
   8              		.eabi_attribute 25, 1
   9              		.eabi_attribute 26, 1
  10              		.eabi_attribute 30, 2
  11              		.eabi_attribute 34, 1
  12              		.eabi_attribute 18, 4
  13              		.file	"parameter.c"
  14              		.text
  15              	.Ltext0:
  16              		.cfi_sections	.debug_frame
  17              		.section	.text.get_subnamespace.part.0,"ax",%progbits
  18              		.align	1
  19              		.p2align 4,,15
  20              		.syntax unified
  21              		.thumb
  22              		.thumb_func
  23              		.fpu fpv4-sp-d16
  24              		.type	get_subnamespace.part.0, %function
  25              	get_subnamespace.part.0:
  26              	.LFB48:
  27              		.file 1 ".//src/parameter/parameter.c"
  28              		.loc 1 46 0
  29              		.cfi_startproc
  30              		@ args = 0, pretend = 0, frame = 8
  31              		@ frame_needed = 0, uses_anonymous_args = 0
  32              	.LVL0:
  33 0000 2DE9F041 		push	{r4, r5, r6, r7, r8, lr}
  34              		.cfi_def_cfa_offset 24
  35              		.cfi_offset 4, -24
  36              		.cfi_offset 5, -20
  37              		.cfi_offset 6, -16
  38              		.cfi_offset 7, -12
  39              		.cfi_offset 8, -8
  40              		.cfi_offset 14, -4
  41 0004 DFF84880 		ldr	r8, .L16
  42 0008 82B0     		sub	sp, sp, #8
  43              		.cfi_def_cfa_offset 32
  44              		.loc 1 46 0
  45 000a 0446     		mov	r4, r0
  46 000c D8F80030 		ldr	r3, [r8]
  47 0010 0193     		str	r3, [sp, #4]
  48 0012 0F46     		mov	r7, r1
  49 0014 1646     		mov	r6, r2
  50              		.loc 1 53 0
  51 0016 FFF7FEFF 		bl	parameter_port_lock
  52              	.LVL1:
  53              		.loc 1 54 0
  54 001a E468     		ldr	r4, [r4, #12]
  55              	.LVL2:
  56              		.loc 1 55 0
  57 001c FFF7FEFF 		bl	parameter_port_unlock
ARM GAS  C:\Users\25521\AppData\Local\Temp\ccDmagyc.s 			page 2


  58              	.LVL3:
  59              		.loc 1 56 0
  60 0020 5CB1     		cbz	r4, .L1
  61              	.L4:
  62              		.loc 1 57 0
  63 0022 2568     		ldr	r5, [r4]
  64 0024 3246     		mov	r2, r6
  65 0026 2946     		mov	r1, r5
  66 0028 3846     		mov	r0, r7
  67 002a FFF7FEFF 		bl	strncmp
  68              	.LVL4:
  69 002e 08B9     		cbnz	r0, .L3
  70 0030 AB5D     		ldrb	r3, [r5, r6]	@ zero_extendqisi2
  71 0032 13B1     		cbz	r3, .L1
  72              	.L3:
  73              		.loc 1 62 0
  74 0034 2469     		ldr	r4, [r4, #16]
  75              	.LVL5:
  76              		.loc 1 56 0
  77 0036 002C     		cmp	r4, #0
  78 0038 F3D1     		bne	.L4
  79              	.L1:
  80              		.loc 1 65 0
  81 003a 019A     		ldr	r2, [sp, #4]
  82 003c D8F80030 		ldr	r3, [r8]
  83 0040 9A42     		cmp	r2, r3
  84 0042 2046     		mov	r0, r4
  85 0044 02D1     		bne	.L15
  86              	.LVL6:
  87 0046 02B0     		add	sp, sp, #8
  88              		.cfi_remember_state
  89              		.cfi_def_cfa_offset 24
  90              		@ sp needed
  91 0048 BDE8F081 		pop	{r4, r5, r6, r7, r8, pc}
  92              	.LVL7:
  93              	.L15:
  94              		.cfi_restore_state
  95 004c FFF7FEFF 		bl	__stack_chk_fail
  96              	.LVL8:
  97              	.L17:
  98              		.align	2
  99              	.L16:
 100 0050 00000000 		.word	__stack_chk_guard
 101              		.cfi_endproc
 102              	.LFE48:
 103              		.size	get_subnamespace.part.0, .-get_subnamespace.part.0
 104              		.section	.text.parameter_namespace_declare,"ax",%progbits
 105              		.align	1
 106              		.p2align 4,,15
 107              		.global	parameter_namespace_declare
 108              		.syntax unified
 109              		.thumb
 110              		.thumb_func
 111              		.fpu fpv4-sp-d16
 112              		.type	parameter_namespace_declare, %function
 113              	parameter_namespace_declare:
 114              	.LFB3:
ARM GAS  C:\Users\25521\AppData\Local\Temp\ccDmagyc.s 			page 3


 115              		.loc 1 93 0
 116              		.cfi_startproc
 117              		@ args = 0, pretend = 0, frame = 8
 118              		@ frame_needed = 0, uses_anonymous_args = 0
 119              	.LVL9:
 120 0000 30B5     		push	{r4, r5, lr}
 121              		.cfi_def_cfa_offset 12
 122              		.cfi_offset 4, -12
 123              		.cfi_offset 5, -8
 124              		.cfi_offset 14, -4
 125 0002 124D     		ldr	r5, .L25
 126 0004 0446     		mov	r4, r0
 127 0006 83B0     		sub	sp, sp, #12
 128              		.cfi_def_cfa_offset 24
 129              		.loc 1 95 0
 130 0008 0023     		movs	r3, #0
 131              		.loc 1 93 0
 132 000a 2868     		ldr	r0, [r5]
 133              	.LVL10:
 134              		.loc 1 96 0
 135 000c A160     		str	r1, [r4, #8]
 136              		.loc 1 94 0
 137 000e 2260     		str	r2, [r4]
 138              		.loc 1 93 0
 139 0010 0190     		str	r0, [sp, #4]
 140              		.loc 1 95 0
 141 0012 6360     		str	r3, [r4, #4]
 142              		.loc 1 97 0
 143 0014 E360     		str	r3, [r4, #12]
 144              		.loc 1 98 0
 145 0016 6361     		str	r3, [r4, #20]
 146              		.loc 1 99 0
 147 0018 31B9     		cbnz	r1, .L24
 148              		.loc 1 108 0
 149 001a 019A     		ldr	r2, [sp, #4]
 150              	.LVL11:
 151 001c 2B68     		ldr	r3, [r5]
 152              		.loc 1 106 0
 153 001e 2161     		str	r1, [r4, #16]
 154              		.loc 1 108 0
 155 0020 9A42     		cmp	r2, r3
 156 0022 10D1     		bne	.L23
 157 0024 03B0     		add	sp, sp, #12
 158              		.cfi_remember_state
 159              		.cfi_def_cfa_offset 12
 160              		@ sp needed
 161 0026 30BD     		pop	{r4, r5, pc}
 162              	.LVL12:
 163              	.L24:
 164              		.cfi_restore_state
 165              		.loc 1 100 0
 166 0028 FFF7FEFF 		bl	parameter_port_lock
 167              	.LVL13:
 168              		.loc 1 102 0
 169 002c A368     		ldr	r3, [r4, #8]
 170              		.loc 1 104 0
 171 002e 0199     		ldr	r1, [sp, #4]
ARM GAS  C:\Users\25521\AppData\Local\Temp\ccDmagyc.s 			page 4


 172 0030 2A68     		ldr	r2, [r5]
 173              		.loc 1 102 0
 174 0032 D868     		ldr	r0, [r3, #12]
 175 0034 2061     		str	r0, [r4, #16]
 176              		.loc 1 104 0
 177 0036 9142     		cmp	r1, r2
 178              		.loc 1 103 0
 179 0038 DC60     		str	r4, [r3, #12]
 180              		.loc 1 104 0
 181 003a 04D1     		bne	.L23
 182              		.loc 1 108 0
 183 003c 03B0     		add	sp, sp, #12
 184              		.cfi_remember_state
 185              		.cfi_def_cfa_offset 12
 186              		@ sp needed
 187 003e BDE83040 		pop	{r4, r5, lr}
 188              		.cfi_restore 14
 189              		.cfi_restore 5
 190              		.cfi_restore 4
 191              		.cfi_def_cfa_offset 0
 192              	.LVL14:
 193              		.loc 1 104 0
 194 0042 FFF7FEBF 		b	parameter_port_unlock
 195              	.LVL15:
 196              	.L23:
 197              		.cfi_restore_state
 198              		.loc 1 108 0
 199 0046 FFF7FEFF 		bl	__stack_chk_fail
 200              	.LVL16:
 201              	.L26:
 202 004a 00BF     		.align	2
 203              	.L25:
 204 004c 00000000 		.word	__stack_chk_guard
 205              		.cfi_endproc
 206              	.LFE3:
 207              		.size	parameter_namespace_declare, .-parameter_namespace_declare
 208              		.section	.text._parameter_namespace_find_w_id_len,"ax",%progbits
 209              		.align	1
 210              		.p2align 4,,15
 211              		.global	_parameter_namespace_find_w_id_len
 212              		.syntax unified
 213              		.thumb
 214              		.thumb_func
 215              		.fpu fpv4-sp-d16
 216              		.type	_parameter_namespace_find_w_id_len, %function
 217              	_parameter_namespace_find_w_id_len:
 218              	.LFB4:
 219              		.loc 1 113 0
 220              		.cfi_startproc
 221              		@ args = 0, pretend = 0, frame = 8
 222              		@ frame_needed = 0, uses_anonymous_args = 0
 223              	.LVL17:
 224 0000 2DE9F047 		push	{r4, r5, r6, r7, r8, r9, r10, lr}
 225              		.cfi_def_cfa_offset 32
 226              		.cfi_offset 4, -32
 227              		.cfi_offset 5, -28
 228              		.cfi_offset 6, -24
ARM GAS  C:\Users\25521\AppData\Local\Temp\ccDmagyc.s 			page 5


 229              		.cfi_offset 7, -20
 230              		.cfi_offset 8, -16
 231              		.cfi_offset 9, -12
 232              		.cfi_offset 10, -8
 233              		.cfi_offset 14, -4
 234 0004 DFF87090 		ldr	r9, .L55
 235 0008 82B0     		sub	sp, sp, #8
 236              		.cfi_def_cfa_offset 40
 237              		.loc 1 113 0
 238 000a D9F80030 		ldr	r3, [r9]
 239 000e 0193     		str	r3, [sp, #4]
 240              	.LVL18:
 241              		.loc 1 116 0
 242 0010 70B3     		cbz	r0, .L28
 243 0012 9046     		mov	r8, r2
 244 0014 FAB1     		cbz	r2, .L27
 245 0016 8A46     		mov	r10, r1
 246              		.loc 1 115 0
 247 0018 0027     		movs	r7, #0
 248              	.LVL19:
 249              	.L35:
 250              	.LBB42:
 251              		.loc 1 117 0
 252 001a A8EB0705 		sub	r5, r8, r7
 253              	.LBB43:
 254              	.LBB44:
 255              		.loc 1 34 0
 256 001e 002D     		cmp	r5, #0
 257              	.LBE44:
 258              	.LBE43:
 259              		.loc 1 117 0
 260 0020 2A46     		mov	r2, r5
 261 0022 0AEB0701 		add	r1, r10, r7
 262              	.LVL20:
 263              	.LBB46:
 264              	.LBB45:
 265              		.loc 1 34 0
 266 0026 0FDD     		ble	.L30
 267              		.loc 1 35 0
 268 0028 1AF80730 		ldrb	r3, [r10, r7]	@ zero_extendqisi2
 269 002c 2F2B     		cmp	r3, #47
 270 002e 1DD0     		beq	.L31
 271 0030 0C46     		mov	r4, r1
 272              		.loc 1 34 0
 273 0032 0023     		movs	r3, #0
 274 0034 04E0     		b	.L32
 275              	.LVL21:
 276              	.L34:
 277              		.loc 1 35 0
 278 0036 14F8016F 		ldrb	r6, [r4, #1]!	@ zero_extendqisi2
 279 003a 2F2E     		cmp	r6, #47
 280 003c 1A46     		mov	r2, r3
 281 003e 12D0     		beq	.L33
 282              	.LVL22:
 283              	.L32:
 284              		.loc 1 34 0
 285 0040 0133     		adds	r3, r3, #1
ARM GAS  C:\Users\25521\AppData\Local\Temp\ccDmagyc.s 			page 6


 286              	.LVL23:
 287 0042 9D42     		cmp	r5, r3
 288 0044 F7D1     		bne	.L34
 289 0046 2A46     		mov	r2, r5
 290              	.LVL24:
 291              	.L30:
 292 0048 0135     		adds	r5, r5, #1
 293              	.L36:
 294              	.LBE45:
 295              	.LBE46:
 296              	.LBB47:
 297              	.LBB48:
 298 004a FFF7FEFF 		bl	get_subnamespace.part.0
 299              	.LVL25:
 300              	.LBE48:
 301              	.LBE47:
 302              		.loc 1 119 0
 303 004e 2F44     		add	r7, r7, r5
 304              	.LVL26:
 305              	.LBE42:
 306              		.loc 1 116 0
 307 0050 70B1     		cbz	r0, .L28
 308              	.L37:
 309              		.loc 1 116 0 is_stmt 0 discriminator 1
 310 0052 B845     		cmp	r8, r7
 311 0054 E1D8     		bhi	.L35
 312              	.LVL27:
 313              	.L27:
 314              		.loc 1 122 0 is_stmt 1
 315 0056 019A     		ldr	r2, [sp, #4]
 316 0058 D9F80030 		ldr	r3, [r9]
 317 005c 9A42     		cmp	r2, r3
 318 005e 09D1     		bne	.L54
 319 0060 02B0     		add	sp, sp, #8
 320              		.cfi_remember_state
 321              		.cfi_def_cfa_offset 32
 322              		@ sp needed
 323 0062 BDE8F087 		pop	{r4, r5, r6, r7, r8, r9, r10, pc}
 324              	.LVL28:
 325              	.L33:
 326              		.cfi_restore_state
 327 0066 5D1C     		adds	r5, r3, #1
 328              	.LBB51:
 329              	.LBB50:
 330              	.LBB49:
 331              		.loc 1 50 0
 332 0068 002B     		cmp	r3, #0
 333 006a EED1     		bne	.L36
 334              	.LVL29:
 335              	.L31:
 336              	.LBE49:
 337              	.LBE50:
 338              		.loc 1 119 0
 339 006c 0137     		adds	r7, r7, #1
 340              	.LVL30:
 341 006e F0E7     		b	.L37
 342              	.LVL31:
ARM GAS  C:\Users\25521\AppData\Local\Temp\ccDmagyc.s 			page 7


 343              	.L28:
 344              	.LBE51:
 345 0070 0020     		movs	r0, #0
 346              	.LVL32:
 347 0072 F0E7     		b	.L27
 348              	.L54:
 349              		.loc 1 122 0
 350 0074 FFF7FEFF 		bl	__stack_chk_fail
 351              	.LVL33:
 352              	.L56:
 353              		.align	2
 354              	.L55:
 355 0078 00000000 		.word	__stack_chk_guard
 356              		.cfi_endproc
 357              	.LFE4:
 358              		.size	_parameter_namespace_find_w_id_len, .-_parameter_namespace_find_w_id_len
 359              		.section	.text.parameter_namespace_find,"ax",%progbits
 360              		.align	1
 361              		.p2align 4,,15
 362              		.global	parameter_namespace_find
 363              		.syntax unified
 364              		.thumb
 365              		.thumb_func
 366              		.fpu fpv4-sp-d16
 367              		.type	parameter_namespace_find, %function
 368              	parameter_namespace_find:
 369              	.LFB5:
 370              		.loc 1 126 0
 371              		.cfi_startproc
 372              		@ args = 0, pretend = 0, frame = 8
 373              		@ frame_needed = 0, uses_anonymous_args = 0
 374              	.LVL34:
 375 0000 70B5     		push	{r4, r5, r6, lr}
 376              		.cfi_def_cfa_offset 16
 377              		.cfi_offset 4, -16
 378              		.cfi_offset 5, -12
 379              		.cfi_offset 6, -8
 380              		.cfi_offset 14, -4
 381 0002 0B4C     		ldr	r4, .L62
 382 0004 82B0     		sub	sp, sp, #8
 383              		.cfi_def_cfa_offset 24
 384              		.loc 1 126 0
 385 0006 2368     		ldr	r3, [r4]
 386 0008 0193     		str	r3, [sp, #4]
 387 000a 0646     		mov	r6, r0
 388              		.loc 1 127 0
 389 000c 0846     		mov	r0, r1
 390              	.LVL35:
 391              		.loc 1 126 0
 392 000e 0D46     		mov	r5, r1
 393              		.loc 1 127 0
 394 0010 FFF7FEFF 		bl	strlen
 395              	.LVL36:
 396 0014 0199     		ldr	r1, [sp, #4]
 397 0016 2368     		ldr	r3, [r4]
 398 0018 9942     		cmp	r1, r3
 399 001a 07D1     		bne	.L61
ARM GAS  C:\Users\25521\AppData\Local\Temp\ccDmagyc.s 			page 8


 400 001c 0246     		mov	r2, r0
 401 001e 2946     		mov	r1, r5
 402 0020 3046     		mov	r0, r6
 403              		.loc 1 128 0
 404 0022 02B0     		add	sp, sp, #8
 405              		.cfi_remember_state
 406              		.cfi_def_cfa_offset 16
 407              		@ sp needed
 408 0024 BDE87040 		pop	{r4, r5, r6, lr}
 409              		.cfi_restore 14
 410              		.cfi_restore 6
 411              		.cfi_restore 5
 412              		.cfi_restore 4
 413              		.cfi_def_cfa_offset 0
 414              	.LVL37:
 415              		.loc 1 127 0
 416 0028 FFF7FEBF 		b	_parameter_namespace_find_w_id_len
 417              	.LVL38:
 418              	.L61:
 419              		.cfi_restore_state
 420 002c FFF7FEFF 		bl	__stack_chk_fail
 421              	.LVL39:
 422              	.L63:
 423              		.align	2
 424              	.L62:
 425 0030 00000000 		.word	__stack_chk_guard
 426              		.cfi_endproc
 427              	.LFE5:
 428              		.size	parameter_namespace_find, .-parameter_namespace_find
 429              		.section	.text._parameter_find_w_id_len,"ax",%progbits
 430              		.align	1
 431              		.p2align 4,,15
 432              		.global	_parameter_find_w_id_len
 433              		.syntax unified
 434              		.thumb
 435              		.thumb_func
 436              		.fpu fpv4-sp-d16
 437              		.type	_parameter_find_w_id_len, %function
 438              	_parameter_find_w_id_len:
 439              	.LFB6:
 440              		.loc 1 132 0
 441              		.cfi_startproc
 442              		@ args = 0, pretend = 0, frame = 16
 443              		@ frame_needed = 0, uses_anonymous_args = 0
 444              	.LVL40:
 445 0000 2DE9F043 		push	{r4, r5, r6, r7, r8, r9, lr}
 446              		.cfi_def_cfa_offset 28
 447              		.cfi_offset 4, -28
 448              		.cfi_offset 5, -24
 449              		.cfi_offset 6, -20
 450              		.cfi_offset 7, -16
 451              		.cfi_offset 8, -12
 452              		.cfi_offset 9, -8
 453              		.cfi_offset 14, -4
 454 0004 DFF8C080 		ldr	r8, .L99
 455 0008 85B0     		sub	sp, sp, #20
 456              		.cfi_def_cfa_offset 48
ARM GAS  C:\Users\25521\AppData\Local\Temp\ccDmagyc.s 			page 9


 457              		.loc 1 132 0
 458 000a D8F80030 		ldr	r3, [r8]
 459 000e 0393     		str	r3, [sp, #12]
 460              	.LVL41:
 461              		.loc 1 135 0
 462 0010 48B3     		cbz	r0, .L66
 463 0012 8946     		mov	r9, r1
 464 0014 1746     		mov	r7, r2
 465              		.loc 1 134 0
 466 0016 4FF0000C 		mov	ip, #0
 467              	.LVL42:
 468              	.L65:
 469              	.LBB59:
 470              		.loc 1 136 0
 471 001a A7EB0C0E 		sub	lr, r7, ip
 472              	.LBB60:
 473              	.LBB61:
 474              		.loc 1 34 0
 475 001e BEF1000F 		cmp	lr, #0
 476              	.LBE61:
 477              	.LBE60:
 478              		.loc 1 136 0
 479 0022 7446     		mov	r4, lr
 480 0024 09EB0C06 		add	r6, r9, ip
 481              	.LVL43:
 482              	.LBB64:
 483              	.LBB62:
 484              		.loc 1 34 0
 485 0028 27DD     		ble	.L80
 486              		.loc 1 35 0
 487 002a 19F80C30 		ldrb	r3, [r9, ip]	@ zero_extendqisi2
 488 002e 2F2B     		cmp	r3, #47
 489 0030 44D0     		beq	.L68
 490 0032 3246     		mov	r2, r6
 491              		.loc 1 34 0
 492 0034 0023     		movs	r3, #0
 493 0036 06E0     		b	.L69
 494              	.LVL44:
 495              	.L70:
 496              		.loc 1 35 0
 497 0038 12F8011F 		ldrb	r1, [r2, #1]!	@ zero_extendqisi2
 498 003c 2F29     		cmp	r1, #47
 499 003e 1C46     		mov	r4, r3
 500 0040 0CEB0305 		add	r5, ip, r3
 501 0044 1AD0     		beq	.L67
 502              	.LVL45:
 503              	.L69:
 504              		.loc 1 34 0
 505 0046 0133     		adds	r3, r3, #1
 506              	.LVL46:
 507 0048 9E45     		cmp	lr, r3
 508 004a F5D1     		bne	.L70
 509 004c 0CEB0E05 		add	r5, ip, lr
 510              	.LVL47:
 511              	.LBE62:
 512              	.LBE64:
 513              		.loc 1 137 0
ARM GAS  C:\Users\25521\AppData\Local\Temp\ccDmagyc.s 			page 10


 514 0050 AF42     		cmp	r7, r5
 515 0052 7446     		mov	r4, lr
 516 0054 19D9     		bls	.L72
 517              	.L71:
 518              	.LVL48:
 519              	.LBB65:
 520              	.LBB66:
 521 0056 2246     		mov	r2, r4
 522 0058 3146     		mov	r1, r6
 523 005a FFF7FEFF 		bl	get_subnamespace.part.0
 524              	.LVL49:
 525              	.LBE66:
 526              	.LBE65:
 527              		.loc 1 142 0
 528 005e 05F1010C 		add	ip, r5, #1
 529              	.LVL50:
 530              	.LBE59:
 531              		.loc 1 135 0
 532 0062 0028     		cmp	r0, #0
 533 0064 D9D1     		bne	.L65
 534              	.LVL51:
 535              	.L66:
 536              		.loc 1 144 0
 537 0066 0025     		movs	r5, #0
 538              	.L64:
 539              		.loc 1 145 0
 540 0068 039A     		ldr	r2, [sp, #12]
 541 006a D8F80030 		ldr	r3, [r8]
 542 006e 9A42     		cmp	r2, r3
 543 0070 2846     		mov	r0, r5
 544 0072 27D1     		bne	.L98
 545 0074 05B0     		add	sp, sp, #20
 546              		.cfi_remember_state
 547              		.cfi_def_cfa_offset 28
 548              		@ sp needed
 549 0076 BDE8F083 		pop	{r4, r5, r6, r7, r8, r9, pc}
 550              	.LVL52:
 551              	.L80:
 552              		.cfi_restore_state
 553              	.LBB72:
 554              	.LBB68:
 555              	.LBB63:
 556              		.loc 1 34 0
 557 007a 3D46     		mov	r5, r7
 558              	.LVL53:
 559              	.L67:
 560              	.LBE63:
 561              	.LBE68:
 562              		.loc 1 137 0
 563 007c AF42     		cmp	r7, r5
 564 007e 04D9     		bls	.L72
 565              	.LVL54:
 566              	.LBB69:
 567              	.LBB67:
 568              		.loc 1 50 0
 569 0080 002C     		cmp	r4, #0
 570 0082 E8D1     		bne	.L71
ARM GAS  C:\Users\25521\AppData\Local\Temp\ccDmagyc.s 			page 11


 571              	.LVL55:
 572              	.L73:
 573              	.LBE67:
 574              	.LBE69:
 575              		.loc 1 142 0
 576 0084 05F1010C 		add	ip, r5, #1
 577              	.LVL56:
 578 0088 C7E7     		b	.L65
 579              	.L72:
 580              	.LVL57:
 581 008a 0190     		str	r0, [sp, #4]
 582              	.LVL58:
 583              	.LBB70:
 584              	.LBB71:
 585              		.loc 1 73 0
 586 008c 002C     		cmp	r4, #0
 587 008e EAD0     		beq	.L66
 588              	.LVL59:
 589              		.loc 1 76 0
 590 0090 FFF7FEFF 		bl	parameter_port_lock
 591              	.LVL60:
 592              		.loc 1 77 0
 593 0094 0198     		ldr	r0, [sp, #4]
 594 0096 4569     		ldr	r5, [r0, #20]
 595              	.LVL61:
 596              		.loc 1 78 0
 597 0098 FFF7FEFF 		bl	parameter_port_unlock
 598              	.LVL62:
 599              		.loc 1 79 0
 600 009c 002D     		cmp	r5, #0
 601 009e E2D0     		beq	.L66
 602              	.LVL63:
 603              	.L77:
 604              		.loc 1 80 0
 605 00a0 2F68     		ldr	r7, [r5]
 606 00a2 2246     		mov	r2, r4
 607 00a4 3946     		mov	r1, r7
 608 00a6 3046     		mov	r0, r6
 609 00a8 FFF7FEFF 		bl	strncmp
 610              	.LVL64:
 611 00ac 10B9     		cbnz	r0, .L75
 612 00ae 3B5D     		ldrb	r3, [r7, r4]	@ zero_extendqisi2
 613 00b0 002B     		cmp	r3, #0
 614 00b2 D9D0     		beq	.L64
 615              	.L75:
 616              		.loc 1 85 0
 617 00b4 AD68     		ldr	r5, [r5, #8]
 618              	.LVL65:
 619              		.loc 1 79 0
 620 00b6 002D     		cmp	r5, #0
 621 00b8 F2D1     		bne	.L77
 622 00ba D4E7     		b	.L66
 623              	.LVL66:
 624              	.L68:
 625              	.LBE71:
 626              	.LBE70:
 627              		.loc 1 137 0
ARM GAS  C:\Users\25521\AppData\Local\Temp\ccDmagyc.s 			page 12


 628 00bc 6745     		cmp	r7, ip
 629 00be D2D9     		bls	.L66
 630 00c0 6546     		mov	r5, ip
 631 00c2 DFE7     		b	.L73
 632              	.LVL67:
 633              	.L98:
 634              	.LBE72:
 635              		.loc 1 145 0
 636 00c4 FFF7FEFF 		bl	__stack_chk_fail
 637              	.LVL68:
 638              	.L100:
 639              		.align	2
 640              	.L99:
 641 00c8 00000000 		.word	__stack_chk_guard
 642              		.cfi_endproc
 643              	.LFE6:
 644              		.size	_parameter_find_w_id_len, .-_parameter_find_w_id_len
 645              		.section	.text.parameter_find,"ax",%progbits
 646              		.align	1
 647              		.p2align 4,,15
 648              		.global	parameter_find
 649              		.syntax unified
 650              		.thumb
 651              		.thumb_func
 652              		.fpu fpv4-sp-d16
 653              		.type	parameter_find, %function
 654              	parameter_find:
 655              	.LFB7:
 656              		.loc 1 148 0
 657              		.cfi_startproc
 658              		@ args = 0, pretend = 0, frame = 8
 659              		@ frame_needed = 0, uses_anonymous_args = 0
 660              	.LVL69:
 661 0000 70B5     		push	{r4, r5, r6, lr}
 662              		.cfi_def_cfa_offset 16
 663              		.cfi_offset 4, -16
 664              		.cfi_offset 5, -12
 665              		.cfi_offset 6, -8
 666              		.cfi_offset 14, -4
 667 0002 0B4C     		ldr	r4, .L106
 668 0004 82B0     		sub	sp, sp, #8
 669              		.cfi_def_cfa_offset 24
 670              		.loc 1 148 0
 671 0006 2368     		ldr	r3, [r4]
 672 0008 0193     		str	r3, [sp, #4]
 673 000a 0646     		mov	r6, r0
 674              		.loc 1 149 0
 675 000c 0846     		mov	r0, r1
 676              	.LVL70:
 677              		.loc 1 148 0
 678 000e 0D46     		mov	r5, r1
 679              		.loc 1 149 0
 680 0010 FFF7FEFF 		bl	strlen
 681              	.LVL71:
 682 0014 0199     		ldr	r1, [sp, #4]
 683 0016 2368     		ldr	r3, [r4]
 684 0018 9942     		cmp	r1, r3
ARM GAS  C:\Users\25521\AppData\Local\Temp\ccDmagyc.s 			page 13


 685 001a 07D1     		bne	.L105
 686 001c 0246     		mov	r2, r0
 687 001e 2946     		mov	r1, r5
 688 0020 3046     		mov	r0, r6
 689              		.loc 1 150 0
 690 0022 02B0     		add	sp, sp, #8
 691              		.cfi_remember_state
 692              		.cfi_def_cfa_offset 16
 693              		@ sp needed
 694 0024 BDE87040 		pop	{r4, r5, r6, lr}
 695              		.cfi_restore 14
 696              		.cfi_restore 6
 697              		.cfi_restore 5
 698              		.cfi_restore 4
 699              		.cfi_def_cfa_offset 0
 700              	.LVL72:
 701              		.loc 1 149 0
 702 0028 FFF7FEBF 		b	_parameter_find_w_id_len
 703              	.LVL73:
 704              	.L105:
 705              		.cfi_restore_state
 706 002c FFF7FEFF 		bl	__stack_chk_fail
 707              	.LVL74:
 708              	.L107:
 709              		.align	2
 710              	.L106:
 711 0030 00000000 		.word	__stack_chk_guard
 712              		.cfi_endproc
 713              	.LFE7:
 714              		.size	parameter_find, .-parameter_find
 715              		.section	.text._parameter_declare,"ax",%progbits
 716              		.align	1
 717              		.p2align 4,,15
 718              		.global	_parameter_declare
 719              		.syntax unified
 720              		.thumb
 721              		.thumb_func
 722              		.fpu fpv4-sp-d16
 723              		.type	_parameter_declare, %function
 724              	_parameter_declare:
 725              	.LFB8:
 726              		.loc 1 154 0
 727              		.cfi_startproc
 728              		@ args = 0, pretend = 0, frame = 8
 729              		@ frame_needed = 0, uses_anonymous_args = 0
 730              	.LVL75:
 731 0000 30B5     		push	{r4, r5, lr}
 732              		.cfi_def_cfa_offset 12
 733              		.cfi_offset 4, -12
 734              		.cfi_offset 5, -8
 735              		.cfi_offset 14, -4
 736 0002 0D4D     		ldr	r5, .L113
 737              		.loc 1 156 0
 738 0004 4160     		str	r1, [r0, #4]
 739              		.loc 1 154 0
 740 0006 0446     		mov	r4, r0
 741              		.loc 1 157 0
ARM GAS  C:\Users\25521\AppData\Local\Temp\ccDmagyc.s 			page 14


 742 0008 0023     		movs	r3, #0
 743              		.loc 1 154 0
 744 000a 83B0     		sub	sp, sp, #12
 745              		.cfi_def_cfa_offset 24
 746              		.loc 1 154 0
 747 000c 2968     		ldr	r1, [r5]
 748              	.LVL76:
 749              		.loc 1 157 0
 750 000e 0373     		strb	r3, [r0, #12]
 751              		.loc 1 155 0
 752 0010 0260     		str	r2, [r0]
 753              		.loc 1 158 0
 754 0012 4373     		strb	r3, [r0, #13]
 755              		.loc 1 154 0
 756 0014 0191     		str	r1, [sp, #4]
 757              		.loc 1 159 0
 758 0016 FFF7FEFF 		bl	parameter_port_lock
 759              	.LVL77:
 760              		.loc 1 161 0
 761 001a 6368     		ldr	r3, [r4, #4]
 762              		.loc 1 163 0
 763 001c 0199     		ldr	r1, [sp, #4]
 764 001e 2A68     		ldr	r2, [r5]
 765              		.loc 1 161 0
 766 0020 5869     		ldr	r0, [r3, #20]
 767 0022 A060     		str	r0, [r4, #8]
 768              		.loc 1 163 0
 769 0024 9142     		cmp	r1, r2
 770              		.loc 1 162 0
 771 0026 5C61     		str	r4, [r3, #20]
 772              		.loc 1 163 0
 773 0028 04D1     		bne	.L112
 774              		.loc 1 164 0
 775 002a 03B0     		add	sp, sp, #12
 776              		.cfi_remember_state
 777              		.cfi_def_cfa_offset 12
 778              		@ sp needed
 779 002c BDE83040 		pop	{r4, r5, lr}
 780              		.cfi_restore 14
 781              		.cfi_restore 5
 782              		.cfi_restore 4
 783              		.cfi_def_cfa_offset 0
 784              	.LVL78:
 785              		.loc 1 163 0
 786 0030 FFF7FEBF 		b	parameter_port_unlock
 787              	.LVL79:
 788              	.L112:
 789              		.cfi_restore_state
 790 0034 FFF7FEFF 		bl	__stack_chk_fail
 791              	.LVL80:
 792              	.L114:
 793              		.align	2
 794              	.L113:
 795 0038 00000000 		.word	__stack_chk_guard
 796              		.cfi_endproc
 797              	.LFE8:
 798              		.size	_parameter_declare, .-_parameter_declare
ARM GAS  C:\Users\25521\AppData\Local\Temp\ccDmagyc.s 			page 15


 799              		.section	.text.parameter_namespace_contains_changed,"ax",%progbits
 800              		.align	1
 801              		.p2align 4,,15
 802              		.global	parameter_namespace_contains_changed
 803              		.syntax unified
 804              		.thumb
 805              		.thumb_func
 806              		.fpu fpv4-sp-d16
 807              		.type	parameter_namespace_contains_changed, %function
 808              	parameter_namespace_contains_changed:
 809              	.LFB9:
 810              		.loc 1 167 0
 811              		.cfi_startproc
 812              		@ args = 0, pretend = 0, frame = 8
 813              		@ frame_needed = 0, uses_anonymous_args = 0
 814              	.LVL81:
 815 0000 30B5     		push	{r4, r5, lr}
 816              		.cfi_def_cfa_offset 12
 817              		.cfi_offset 4, -12
 818              		.cfi_offset 5, -8
 819              		.cfi_offset 14, -4
 820 0002 0A4C     		ldr	r4, .L119
 821 0004 83B0     		sub	sp, sp, #12
 822              		.cfi_def_cfa_offset 24
 823              		.loc 1 167 0
 824 0006 0546     		mov	r5, r0
 825 0008 2368     		ldr	r3, [r4]
 826 000a 0193     		str	r3, [sp, #4]
 827              		.loc 1 168 0
 828 000c FFF7FEFF 		bl	parameter_port_lock
 829              	.LVL82:
 830              		.loc 1 169 0
 831 0010 6D68     		ldr	r5, [r5, #4]
 832              	.LVL83:
 833              		.loc 1 170 0
 834 0012 FFF7FEFF 		bl	parameter_port_unlock
 835              	.LVL84:
 836              		.loc 1 172 0
 837 0016 019A     		ldr	r2, [sp, #4]
 838 0018 2368     		ldr	r3, [r4]
 839 001a 281C     		adds	r0, r5, #0
 840 001c 18BF     		it	ne
 841 001e 0120     		movne	r0, #1
 842 0020 9A42     		cmp	r2, r3
 843 0022 01D1     		bne	.L118
 844 0024 03B0     		add	sp, sp, #12
 845              		.cfi_remember_state
 846              		.cfi_def_cfa_offset 12
 847              		@ sp needed
 848 0026 30BD     		pop	{r4, r5, pc}
 849              	.LVL85:
 850              	.L118:
 851              		.cfi_restore_state
 852 0028 FFF7FEFF 		bl	__stack_chk_fail
 853              	.LVL86:
 854              	.L120:
 855              		.align	2
ARM GAS  C:\Users\25521\AppData\Local\Temp\ccDmagyc.s 			page 16


 856              	.L119:
 857 002c 00000000 		.word	__stack_chk_guard
 858              		.cfi_endproc
 859              	.LFE9:
 860              		.size	parameter_namespace_contains_changed, .-parameter_namespace_contains_changed
 861              		.section	.text.parameter_changed,"ax",%progbits
 862              		.align	1
 863              		.p2align 4,,15
 864              		.global	parameter_changed
 865              		.syntax unified
 866              		.thumb
 867              		.thumb_func
 868              		.fpu fpv4-sp-d16
 869              		.type	parameter_changed, %function
 870              	parameter_changed:
 871              	.LFB10:
 872              		.loc 1 175 0
 873              		.cfi_startproc
 874              		@ args = 0, pretend = 0, frame = 8
 875              		@ frame_needed = 0, uses_anonymous_args = 0
 876              	.LVL87:
 877 0000 30B5     		push	{r4, r5, lr}
 878              		.cfi_def_cfa_offset 12
 879              		.cfi_offset 4, -12
 880              		.cfi_offset 5, -8
 881              		.cfi_offset 14, -4
 882 0002 094C     		ldr	r4, .L125
 883 0004 83B0     		sub	sp, sp, #12
 884              		.cfi_def_cfa_offset 24
 885              		.loc 1 175 0
 886 0006 0546     		mov	r5, r0
 887 0008 2368     		ldr	r3, [r4]
 888 000a 0193     		str	r3, [sp, #4]
 889              		.loc 1 176 0
 890 000c FFF7FEFF 		bl	parameter_port_lock
 891              	.LVL88:
 892              		.loc 1 177 0
 893 0010 2D7B     		ldrb	r5, [r5, #12]	@ zero_extendqisi2
 894              	.LVL89:
 895              		.loc 1 178 0
 896 0012 FFF7FEFF 		bl	parameter_port_unlock
 897              	.LVL90:
 898              		.loc 1 180 0
 899 0016 019A     		ldr	r2, [sp, #4]
 900 0018 2368     		ldr	r3, [r4]
 901 001a 9A42     		cmp	r2, r3
 902 001c 02D1     		bne	.L124
 903 001e 2846     		mov	r0, r5
 904 0020 03B0     		add	sp, sp, #12
 905              		.cfi_remember_state
 906              		.cfi_def_cfa_offset 12
 907              		@ sp needed
 908 0022 30BD     		pop	{r4, r5, pc}
 909              	.LVL91:
 910              	.L124:
 911              		.cfi_restore_state
 912 0024 FFF7FEFF 		bl	__stack_chk_fail
ARM GAS  C:\Users\25521\AppData\Local\Temp\ccDmagyc.s 			page 17


 913              	.LVL92:
 914              	.L126:
 915              		.align	2
 916              	.L125:
 917 0028 00000000 		.word	__stack_chk_guard
 918              		.cfi_endproc
 919              	.LFE10:
 920              		.size	parameter_changed, .-parameter_changed
 921              		.section	.text.parameter_defined,"ax",%progbits
 922              		.align	1
 923              		.p2align 4,,15
 924              		.global	parameter_defined
 925              		.syntax unified
 926              		.thumb
 927              		.thumb_func
 928              		.fpu fpv4-sp-d16
 929              		.type	parameter_defined, %function
 930              	parameter_defined:
 931              	.LFB11:
 932              		.loc 1 183 0
 933              		.cfi_startproc
 934              		@ args = 0, pretend = 0, frame = 8
 935              		@ frame_needed = 0, uses_anonymous_args = 0
 936              	.LVL93:
 937 0000 30B5     		push	{r4, r5, lr}
 938              		.cfi_def_cfa_offset 12
 939              		.cfi_offset 4, -12
 940              		.cfi_offset 5, -8
 941              		.cfi_offset 14, -4
 942 0002 0A4D     		ldr	r5, .L133
 943 0004 83B0     		sub	sp, sp, #12
 944              		.cfi_def_cfa_offset 24
 945              		.loc 1 183 0
 946 0006 2B68     		ldr	r3, [r5]
 947 0008 0193     		str	r3, [sp, #4]
 948              		.loc 1 184 0
 949 000a 0446     		mov	r4, r0
 950 000c 20B1     		cbz	r0, .L128
 951              		.loc 1 187 0
 952 000e FFF7FEFF 		bl	parameter_port_lock
 953              	.LVL94:
 954              		.loc 1 188 0
 955 0012 647B     		ldrb	r4, [r4, #13]	@ zero_extendqisi2
 956              	.LVL95:
 957              		.loc 1 189 0
 958 0014 FFF7FEFF 		bl	parameter_port_unlock
 959              	.LVL96:
 960              	.L128:
 961              		.loc 1 191 0
 962 0018 019A     		ldr	r2, [sp, #4]
 963 001a 2B68     		ldr	r3, [r5]
 964 001c 9A42     		cmp	r2, r3
 965 001e 2046     		mov	r0, r4
 966 0020 01D1     		bne	.L132
 967 0022 03B0     		add	sp, sp, #12
 968              		.cfi_remember_state
 969              		.cfi_def_cfa_offset 12
ARM GAS  C:\Users\25521\AppData\Local\Temp\ccDmagyc.s 			page 18


 970              		@ sp needed
 971 0024 30BD     		pop	{r4, r5, pc}
 972              	.L132:
 973              		.cfi_restore_state
 974 0026 FFF7FEFF 		bl	__stack_chk_fail
 975              	.LVL97:
 976              	.L134:
 977 002a 00BF     		.align	2
 978              	.L133:
 979 002c 00000000 		.word	__stack_chk_guard
 980              		.cfi_endproc
 981              	.LFE11:
 982              		.size	parameter_defined, .-parameter_defined
 983              		.section	.text._parameter_changed_set,"ax",%progbits
 984              		.align	1
 985              		.p2align 4,,15
 986              		.global	_parameter_changed_set
 987              		.syntax unified
 988              		.thumb
 989              		.thumb_func
 990              		.fpu fpv4-sp-d16
 991              		.type	_parameter_changed_set, %function
 992              	_parameter_changed_set:
 993              	.LFB12:
 994              		.loc 1 194 0
 995              		.cfi_startproc
 996              		@ args = 0, pretend = 0, frame = 8
 997              		@ frame_needed = 0, uses_anonymous_args = 0
 998              	.LVL98:
 999 0000 70B5     		push	{r4, r5, r6, lr}
 1000              		.cfi_def_cfa_offset 16
 1001              		.cfi_offset 4, -16
 1002              		.cfi_offset 5, -12
 1003              		.cfi_offset 6, -8
 1004              		.cfi_offset 14, -4
 1005 0002 114E     		ldr	r6, .L146
 1006 0004 82B0     		sub	sp, sp, #8
 1007              		.cfi_def_cfa_offset 24
 1008              		.loc 1 194 0
 1009 0006 0546     		mov	r5, r0
 1010 0008 3368     		ldr	r3, [r6]
 1011 000a 0193     		str	r3, [sp, #4]
 1012              		.loc 1 195 0
 1013 000c FFF7FEFF 		bl	parameter_port_lock
 1014              	.LVL99:
 1015              		.loc 1 196 0
 1016 0010 2C7B     		ldrb	r4, [r5, #12]	@ zero_extendqisi2
 1017              	.LVL100:
 1018              		.loc 1 197 0
 1019 0012 0123     		movs	r3, #1
 1020 0014 2B73     		strb	r3, [r5, #12]
 1021              		.loc 1 198 0
 1022 0016 FFF7FEFF 		bl	parameter_port_unlock
 1023              	.LVL101:
 1024              		.loc 1 199 0
 1025 001a 6CB9     		cbnz	r4, .L135
 1026              	.LVL102:
ARM GAS  C:\Users\25521\AppData\Local\Temp\ccDmagyc.s 			page 19


 1027              	.LBB75:
 1028              	.LBB76:
 1029              		.loc 1 204 0
 1030 001c 6C68     		ldr	r4, [r5, #4]
 1031              	.LVL103:
 1032              		.loc 1 205 0
 1033 001e 4CB1     		cbz	r4, .L137
 1034              	.L138:
 1035              		.loc 1 206 0
 1036 0020 FFF7FEFF 		bl	parameter_port_lock
 1037              	.LVL104:
 1038              		.loc 1 207 0
 1039 0024 6368     		ldr	r3, [r4, #4]
 1040 0026 0133     		adds	r3, r3, #1
 1041 0028 6360     		str	r3, [r4, #4]
 1042              		.loc 1 208 0
 1043 002a FFF7FEFF 		bl	parameter_port_unlock
 1044              	.LVL105:
 1045              		.loc 1 209 0
 1046 002e A468     		ldr	r4, [r4, #8]
 1047              	.LVL106:
 1048              		.loc 1 205 0
 1049 0030 002C     		cmp	r4, #0
 1050 0032 F5D1     		bne	.L138
 1051              	.L137:
 1052              		.loc 1 211 0
 1053 0034 0123     		movs	r3, #1
 1054 0036 6B73     		strb	r3, [r5, #13]
 1055              	.LVL107:
 1056              	.L135:
 1057              	.LBE76:
 1058              	.LBE75:
 1059              		.loc 1 212 0
 1060 0038 019A     		ldr	r2, [sp, #4]
 1061 003a 3368     		ldr	r3, [r6]
 1062 003c 9A42     		cmp	r2, r3
 1063 003e 01D1     		bne	.L145
 1064 0040 02B0     		add	sp, sp, #8
 1065              		.cfi_remember_state
 1066              		.cfi_def_cfa_offset 16
 1067              		@ sp needed
 1068 0042 70BD     		pop	{r4, r5, r6, pc}
 1069              	.LVL108:
 1070              	.L145:
 1071              		.cfi_restore_state
 1072 0044 FFF7FEFF 		bl	__stack_chk_fail
 1073              	.LVL109:
 1074              	.L147:
 1075              		.align	2
 1076              	.L146:
 1077 0048 00000000 		.word	__stack_chk_guard
 1078              		.cfi_endproc
 1079              	.LFE12:
 1080              		.size	_parameter_changed_set, .-_parameter_changed_set
 1081              		.section	.text._parameter_changed_clear,"ax",%progbits
 1082              		.align	1
 1083              		.p2align 4,,15
ARM GAS  C:\Users\25521\AppData\Local\Temp\ccDmagyc.s 			page 20


 1084              		.global	_parameter_changed_clear
 1085              		.syntax unified
 1086              		.thumb
 1087              		.thumb_func
 1088              		.fpu fpv4-sp-d16
 1089              		.type	_parameter_changed_clear, %function
 1090              	_parameter_changed_clear:
 1091              	.LFB13:
 1092              		.loc 1 215 0
 1093              		.cfi_startproc
 1094              		@ args = 0, pretend = 0, frame = 8
 1095              		@ frame_needed = 0, uses_anonymous_args = 0
 1096              	.LVL110:
 1097 0000 70B5     		push	{r4, r5, r6, lr}
 1098              		.cfi_def_cfa_offset 16
 1099              		.cfi_offset 4, -16
 1100              		.cfi_offset 5, -12
 1101              		.cfi_offset 6, -8
 1102              		.cfi_offset 14, -4
 1103 0002 104D     		ldr	r5, .L161
 1104 0004 82B0     		sub	sp, sp, #8
 1105              		.cfi_def_cfa_offset 24
 1106              		.loc 1 215 0
 1107 0006 0446     		mov	r4, r0
 1108 0008 2B68     		ldr	r3, [r5]
 1109 000a 0193     		str	r3, [sp, #4]
 1110              		.loc 1 216 0
 1111 000c FFF7FEFF 		bl	parameter_port_lock
 1112              	.LVL111:
 1113              		.loc 1 217 0
 1114 0010 267B     		ldrb	r6, [r4, #12]	@ zero_extendqisi2
 1115              	.LVL112:
 1116              		.loc 1 218 0
 1117 0012 0023     		movs	r3, #0
 1118 0014 2373     		strb	r3, [r4, #12]
 1119              		.loc 1 219 0
 1120 0016 FFF7FEFF 		bl	parameter_port_unlock
 1121              	.LVL113:
 1122              		.loc 1 220 0
 1123 001a 5EB1     		cbz	r6, .L148
 1124              	.LVL114:
 1125              	.LBB79:
 1126              	.LBB80:
 1127              		.loc 1 225 0
 1128 001c 6468     		ldr	r4, [r4, #4]
 1129              	.LVL115:
 1130              		.loc 1 226 0
 1131 001e 4CB1     		cbz	r4, .L148
 1132              	.L150:
 1133              		.loc 1 227 0
 1134 0020 FFF7FEFF 		bl	parameter_port_lock
 1135              	.LVL116:
 1136              		.loc 1 228 0
 1137 0024 6368     		ldr	r3, [r4, #4]
 1138 0026 013B     		subs	r3, r3, #1
 1139 0028 6360     		str	r3, [r4, #4]
 1140              		.loc 1 229 0
ARM GAS  C:\Users\25521\AppData\Local\Temp\ccDmagyc.s 			page 21


 1141 002a FFF7FEFF 		bl	parameter_port_unlock
 1142              	.LVL117:
 1143              		.loc 1 230 0
 1144 002e A468     		ldr	r4, [r4, #8]
 1145              	.LVL118:
 1146              		.loc 1 226 0
 1147 0030 002C     		cmp	r4, #0
 1148 0032 F5D1     		bne	.L150
 1149              	.LVL119:
 1150              	.L148:
 1151              	.LBE80:
 1152              	.LBE79:
 1153              		.loc 1 232 0
 1154 0034 019A     		ldr	r2, [sp, #4]
 1155 0036 2B68     		ldr	r3, [r5]
 1156 0038 9A42     		cmp	r2, r3
 1157 003a 01D1     		bne	.L160
 1158 003c 02B0     		add	sp, sp, #8
 1159              		.cfi_remember_state
 1160              		.cfi_def_cfa_offset 16
 1161              		@ sp needed
 1162 003e 70BD     		pop	{r4, r5, r6, pc}
 1163              	.LVL120:
 1164              	.L160:
 1165              		.cfi_restore_state
 1166 0040 FFF7FEFF 		bl	__stack_chk_fail
 1167              	.LVL121:
 1168              	.L162:
 1169              		.align	2
 1170              	.L161:
 1171 0044 00000000 		.word	__stack_chk_guard
 1172              		.cfi_endproc
 1173              	.LFE13:
 1174              		.size	_parameter_changed_clear, .-_parameter_changed_clear
 1175              		.section	.text.parameter_scalar_declare,"ax",%progbits
 1176              		.align	1
 1177              		.p2align 4,,15
 1178              		.global	parameter_scalar_declare
 1179              		.syntax unified
 1180              		.thumb
 1181              		.thumb_func
 1182              		.fpu fpv4-sp-d16
 1183              		.type	parameter_scalar_declare, %function
 1184              	parameter_scalar_declare:
 1185              	.LFB14:
 1186              		.loc 1 240 0
 1187              		.cfi_startproc
 1188              		@ args = 0, pretend = 0, frame = 8
 1189              		@ frame_needed = 0, uses_anonymous_args = 0
 1190              	.LVL122:
 1191 0000 30B5     		push	{r4, r5, lr}
 1192              		.cfi_def_cfa_offset 12
 1193              		.cfi_offset 4, -12
 1194              		.cfi_offset 5, -8
 1195              		.cfi_offset 14, -4
 1196 0002 0E4D     		ldr	r5, .L168
 1197              	.LBB81:
ARM GAS  C:\Users\25521\AppData\Local\Temp\ccDmagyc.s 			page 22


 1198              	.LBB82:
 1199              		.loc 1 156 0
 1200 0004 4160     		str	r1, [r0, #4]
 1201              	.LBE82:
 1202              	.LBE81:
 1203              		.loc 1 240 0
 1204 0006 0446     		mov	r4, r0
 1205              	.LBB88:
 1206              	.LBB83:
 1207              		.loc 1 157 0
 1208 0008 0023     		movs	r3, #0
 1209              	.LBE83:
 1210              	.LBE88:
 1211              		.loc 1 240 0
 1212 000a 83B0     		sub	sp, sp, #12
 1213              		.cfi_def_cfa_offset 24
 1214              		.loc 1 241 0
 1215 000c 0121     		movs	r1, #1
 1216              	.LVL123:
 1217 000e 8173     		strb	r1, [r0, #14]
 1218              	.LVL124:
 1219              	.LBB89:
 1220              	.LBB84:
 1221              		.loc 1 157 0
 1222 0010 0373     		strb	r3, [r0, #12]
 1223              	.LBE84:
 1224              	.LBE89:
 1225              		.loc 1 240 0
 1226 0012 2968     		ldr	r1, [r5]
 1227              	.LBB90:
 1228              	.LBB85:
 1229              		.loc 1 158 0
 1230 0014 4373     		strb	r3, [r0, #13]
 1231              		.loc 1 155 0
 1232 0016 0260     		str	r2, [r0]
 1233              	.LBE85:
 1234              	.LBE90:
 1235              		.loc 1 240 0
 1236 0018 0191     		str	r1, [sp, #4]
 1237              	.LBB91:
 1238              	.LBB86:
 1239              		.loc 1 159 0
 1240 001a FFF7FEFF 		bl	parameter_port_lock
 1241              	.LVL125:
 1242              		.loc 1 161 0
 1243 001e 6368     		ldr	r3, [r4, #4]
 1244              		.loc 1 163 0
 1245 0020 0199     		ldr	r1, [sp, #4]
 1246 0022 2A68     		ldr	r2, [r5]
 1247              		.loc 1 161 0
 1248 0024 5869     		ldr	r0, [r3, #20]
 1249 0026 A060     		str	r0, [r4, #8]
 1250              		.loc 1 163 0
 1251 0028 9142     		cmp	r1, r2
 1252              		.loc 1 162 0
 1253 002a 5C61     		str	r4, [r3, #20]
 1254              		.loc 1 163 0
ARM GAS  C:\Users\25521\AppData\Local\Temp\ccDmagyc.s 			page 23


 1255 002c 04D1     		bne	.L167
 1256              	.LBE86:
 1257              	.LBE91:
 1258              		.loc 1 243 0
 1259 002e 03B0     		add	sp, sp, #12
 1260              		.cfi_remember_state
 1261              		.cfi_def_cfa_offset 12
 1262              		@ sp needed
 1263 0030 BDE83040 		pop	{r4, r5, lr}
 1264              		.cfi_restore 14
 1265              		.cfi_restore 5
 1266              		.cfi_restore 4
 1267              		.cfi_def_cfa_offset 0
 1268              	.LVL126:
 1269              	.LBB92:
 1270              	.LBB87:
 1271              		.loc 1 163 0
 1272 0034 FFF7FEBF 		b	parameter_port_unlock
 1273              	.LVL127:
 1274              	.L167:
 1275              		.cfi_restore_state
 1276 0038 FFF7FEFF 		bl	__stack_chk_fail
 1277              	.LVL128:
 1278              	.L169:
 1279              		.align	2
 1280              	.L168:
 1281 003c 00000000 		.word	__stack_chk_guard
 1282              	.LBE87:
 1283              	.LBE92:
 1284              		.cfi_endproc
 1285              	.LFE14:
 1286              		.size	parameter_scalar_declare, .-parameter_scalar_declare
 1287              		.section	.text.parameter_scalar_declare_with_default,"ax",%progbits
 1288              		.align	1
 1289              		.p2align 4,,15
 1290              		.global	parameter_scalar_declare_with_default
 1291              		.syntax unified
 1292              		.thumb
 1293              		.thumb_func
 1294              		.fpu fpv4-sp-d16
 1295              		.type	parameter_scalar_declare_with_default, %function
 1296              	parameter_scalar_declare_with_default:
 1297              	.LFB15:
 1298              		.loc 1 249 0
 1299              		.cfi_startproc
 1300              		@ args = 0, pretend = 0, frame = 8
 1301              		@ frame_needed = 0, uses_anonymous_args = 0
 1302              	.LVL129:
 1303 0000 30B5     		push	{r4, r5, lr}
 1304              		.cfi_def_cfa_offset 12
 1305              		.cfi_offset 4, -12
 1306              		.cfi_offset 5, -8
 1307              		.cfi_offset 14, -4
 1308 0002 0446     		mov	r4, r0
 1309 0004 104D     		ldr	r5, .L175
 1310              		.loc 1 250 0
 1311 0006 80ED040A 		vstr.32	s0, [r0, #16]
ARM GAS  C:\Users\25521\AppData\Local\Temp\ccDmagyc.s 			page 24


 1312              		.loc 1 249 0
 1313 000a 83B0     		sub	sp, sp, #12
 1314              		.cfi_def_cfa_offset 24
 1315              	.LBB93:
 1316              	.LBB94:
 1317              		.loc 1 157 0
 1318 000c 0023     		movs	r3, #0
 1319              	.LBE94:
 1320              	.LBE93:
 1321              		.loc 1 251 0
 1322 000e 0120     		movs	r0, #1
 1323              	.LVL130:
 1324              	.LBB98:
 1325              	.LBB95:
 1326              		.loc 1 156 0
 1327 0010 6160     		str	r1, [r4, #4]
 1328              	.LBE95:
 1329              	.LBE98:
 1330              		.loc 1 251 0
 1331 0012 A073     		strb	r0, [r4, #14]
 1332              	.LVL131:
 1333              		.loc 1 249 0
 1334 0014 2968     		ldr	r1, [r5]
 1335              	.LVL132:
 1336              	.LBB99:
 1337              	.LBB96:
 1338              		.loc 1 157 0
 1339 0016 2373     		strb	r3, [r4, #12]
 1340              		.loc 1 155 0
 1341 0018 2260     		str	r2, [r4]
 1342              		.loc 1 158 0
 1343 001a 6373     		strb	r3, [r4, #13]
 1344              	.LBE96:
 1345              	.LBE99:
 1346              		.loc 1 249 0
 1347 001c 0191     		str	r1, [sp, #4]
 1348              	.LBB100:
 1349              	.LBB97:
 1350              		.loc 1 159 0
 1351 001e FFF7FEFF 		bl	parameter_port_lock
 1352              	.LVL133:
 1353              		.loc 1 161 0
 1354 0022 6368     		ldr	r3, [r4, #4]
 1355 0024 5A69     		ldr	r2, [r3, #20]
 1356 0026 A260     		str	r2, [r4, #8]
 1357              		.loc 1 162 0
 1358 0028 5C61     		str	r4, [r3, #20]
 1359              		.loc 1 163 0
 1360 002a FFF7FEFF 		bl	parameter_port_unlock
 1361              	.LVL134:
 1362              	.LBE97:
 1363              	.LBE100:
 1364              		.loc 1 253 0
 1365 002e 019A     		ldr	r2, [sp, #4]
 1366 0030 2B68     		ldr	r3, [r5]
 1367 0032 9A42     		cmp	r2, r3
 1368 0034 05D1     		bne	.L174
ARM GAS  C:\Users\25521\AppData\Local\Temp\ccDmagyc.s 			page 25


 1369 0036 2046     		mov	r0, r4
 1370              		.loc 1 254 0
 1371 0038 03B0     		add	sp, sp, #12
 1372              		.cfi_remember_state
 1373              		.cfi_def_cfa_offset 12
 1374              		@ sp needed
 1375 003a BDE83040 		pop	{r4, r5, lr}
 1376              		.cfi_restore 14
 1377              		.cfi_restore 5
 1378              		.cfi_restore 4
 1379              		.cfi_def_cfa_offset 0
 1380              	.LVL135:
 1381              		.loc 1 253 0
 1382 003e FFF7FEBF 		b	_parameter_changed_set
 1383              	.LVL136:
 1384              	.L174:
 1385              		.cfi_restore_state
 1386 0042 FFF7FEFF 		bl	__stack_chk_fail
 1387              	.LVL137:
 1388              	.L176:
 1389 0046 00BF     		.align	2
 1390              	.L175:
 1391 0048 00000000 		.word	__stack_chk_guard
 1392              		.cfi_endproc
 1393              	.LFE15:
 1394              		.size	parameter_scalar_declare_with_default, .-parameter_scalar_declare_with_default
 1395              		.section	.text.parameter_scalar_read,"ax",%progbits
 1396              		.align	1
 1397              		.p2align 4,,15
 1398              		.global	parameter_scalar_read
 1399              		.syntax unified
 1400              		.thumb
 1401              		.thumb_func
 1402              		.fpu fpv4-sp-d16
 1403              		.type	parameter_scalar_read, %function
 1404              	parameter_scalar_read:
 1405              	.LFB17:
 1406              		.loc 1 263 0
 1407              		.cfi_startproc
 1408              		@ args = 0, pretend = 0, frame = 8
 1409              		@ frame_needed = 0, uses_anonymous_args = 0
 1410              	.LVL138:
 1411 0000 30B5     		push	{r4, r5, lr}
 1412              		.cfi_def_cfa_offset 12
 1413              		.cfi_offset 4, -12
 1414              		.cfi_offset 5, -8
 1415              		.cfi_offset 14, -4
 1416 0002 2DED028B 		vpush.64	{d8}
 1417              		.cfi_def_cfa_offset 20
 1418              		.cfi_offset 80, -20
 1419              		.cfi_offset 81, -16
 1420 0006 0446     		mov	r4, r0
 1421              		.loc 1 264 0
 1422 0008 807B     		ldrb	r0, [r0, #14]	@ zero_extendqisi2
 1423              	.LVL139:
 1424              		.loc 1 263 0
 1425 000a 104D     		ldr	r5, .L181
ARM GAS  C:\Users\25521\AppData\Local\Temp\ccDmagyc.s 			page 26


 1426              		.loc 1 264 0
 1427 000c A0F10100 		sub	r0, #1
 1428              		.loc 1 263 0
 1429 0010 83B0     		sub	sp, sp, #12
 1430              		.cfi_def_cfa_offset 32
 1431              		.loc 1 264 0
 1432 0012 B0FA80F0 		clz	r0, r0
 1433              		.loc 1 263 0
 1434 0016 2B68     		ldr	r3, [r5]
 1435 0018 0193     		str	r3, [sp, #4]
 1436              		.loc 1 264 0
 1437 001a 4009     		lsrs	r0, r0, #5
 1438 001c FFF7FEFF 		bl	parameter_port_assert
 1439              	.LVL140:
 1440              		.loc 1 265 0
 1441 0020 FFF7FEFF 		bl	parameter_port_lock
 1442              	.LVL141:
 1443              		.loc 1 266 0
 1444 0024 607B     		ldrb	r0, [r4, #13]	@ zero_extendqisi2
 1445 0026 FFF7FEFF 		bl	parameter_port_assert
 1446              	.LVL142:
 1447              		.loc 1 267 0
 1448 002a 94ED048A 		vldr.32	s16, [r4, #16]
 1449              	.LVL143:
 1450              		.loc 1 268 0
 1451 002e FFF7FEFF 		bl	parameter_port_unlock
 1452              	.LVL144:
 1453              		.loc 1 270 0
 1454 0032 019A     		ldr	r2, [sp, #4]
 1455 0034 2B68     		ldr	r3, [r5]
 1456 0036 9A42     		cmp	r2, r3
 1457 0038 05D1     		bne	.L180
 1458 003a B0EE480A 		vmov.f32	s0, s16
 1459 003e 03B0     		add	sp, sp, #12
 1460              		.cfi_remember_state
 1461              		.cfi_def_cfa_offset 20
 1462              		@ sp needed
 1463 0040 BDEC028B 		vldm	sp!, {d8}
 1464              		.cfi_restore 80
 1465              		.cfi_restore 81
 1466              		.cfi_def_cfa_offset 12
 1467              	.LVL145:
 1468 0044 30BD     		pop	{r4, r5, pc}
 1469              	.LVL146:
 1470              	.L180:
 1471              		.cfi_restore_state
 1472 0046 FFF7FEFF 		bl	__stack_chk_fail
 1473              	.LVL147:
 1474              	.L182:
 1475 004a 00BF     		.align	2
 1476              	.L181:
 1477 004c 00000000 		.word	__stack_chk_guard
 1478              		.cfi_endproc
 1479              	.LFE17:
 1480              		.size	parameter_scalar_read, .-parameter_scalar_read
 1481              		.section	.text.parameter_scalar_get,"ax",%progbits
 1482              		.align	1
ARM GAS  C:\Users\25521\AppData\Local\Temp\ccDmagyc.s 			page 27


 1483              		.p2align 4,,15
 1484              		.global	parameter_scalar_get
 1485              		.syntax unified
 1486              		.thumb
 1487              		.thumb_func
 1488              		.fpu fpv4-sp-d16
 1489              		.type	parameter_scalar_get, %function
 1490              	parameter_scalar_get:
 1491              	.LFB16:
 1492              		.loc 1 257 0
 1493              		.cfi_startproc
 1494              		@ args = 0, pretend = 0, frame = 8
 1495              		@ frame_needed = 0, uses_anonymous_args = 0
 1496              	.LVL148:
 1497 0000 30B5     		push	{r4, r5, lr}
 1498              		.cfi_def_cfa_offset 12
 1499              		.cfi_offset 4, -12
 1500              		.cfi_offset 5, -8
 1501              		.cfi_offset 14, -4
 1502 0002 094C     		ldr	r4, .L188
 1503 0004 83B0     		sub	sp, sp, #12
 1504              		.cfi_def_cfa_offset 24
 1505              		.loc 1 257 0
 1506 0006 2368     		ldr	r3, [r4]
 1507 0008 0193     		str	r3, [sp, #4]
 1508 000a 0546     		mov	r5, r0
 1509              		.loc 1 258 0
 1510 000c FFF7FEFF 		bl	_parameter_changed_clear
 1511              	.LVL149:
 1512              		.loc 1 259 0
 1513 0010 019A     		ldr	r2, [sp, #4]
 1514 0012 2368     		ldr	r3, [r4]
 1515 0014 9A42     		cmp	r2, r3
 1516 0016 05D1     		bne	.L187
 1517 0018 2846     		mov	r0, r5
 1518              		.loc 1 260 0
 1519 001a 03B0     		add	sp, sp, #12
 1520              		.cfi_remember_state
 1521              		.cfi_def_cfa_offset 12
 1522              		@ sp needed
 1523 001c BDE83040 		pop	{r4, r5, lr}
 1524              		.cfi_restore 14
 1525              		.cfi_restore 5
 1526              		.cfi_restore 4
 1527              		.cfi_def_cfa_offset 0
 1528              	.LVL150:
 1529              		.loc 1 259 0
 1530 0020 FFF7FEBF 		b	parameter_scalar_read
 1531              	.LVL151:
 1532              	.L187:
 1533              		.cfi_restore_state
 1534 0024 FFF7FEFF 		bl	__stack_chk_fail
 1535              	.LVL152:
 1536              	.L189:
 1537              		.align	2
 1538              	.L188:
 1539 0028 00000000 		.word	__stack_chk_guard
ARM GAS  C:\Users\25521\AppData\Local\Temp\ccDmagyc.s 			page 28


 1540              		.cfi_endproc
 1541              	.LFE16:
 1542              		.size	parameter_scalar_get, .-parameter_scalar_get
 1543              		.section	.text.parameter_scalar_set,"ax",%progbits
 1544              		.align	1
 1545              		.p2align 4,,15
 1546              		.global	parameter_scalar_set
 1547              		.syntax unified
 1548              		.thumb
 1549              		.thumb_func
 1550              		.fpu fpv4-sp-d16
 1551              		.type	parameter_scalar_set, %function
 1552              	parameter_scalar_set:
 1553              	.LFB18:
 1554              		.loc 1 273 0
 1555              		.cfi_startproc
 1556              		@ args = 0, pretend = 0, frame = 8
 1557              		@ frame_needed = 0, uses_anonymous_args = 0
 1558              	.LVL153:
 1559 0000 30B5     		push	{r4, r5, lr}
 1560              		.cfi_def_cfa_offset 12
 1561              		.cfi_offset 4, -12
 1562              		.cfi_offset 5, -8
 1563              		.cfi_offset 14, -4
 1564 0002 2DED028B 		vpush.64	{d8}
 1565              		.cfi_def_cfa_offset 20
 1566              		.cfi_offset 80, -20
 1567              		.cfi_offset 81, -16
 1568 0006 0446     		mov	r4, r0
 1569              		.loc 1 274 0
 1570 0008 807B     		ldrb	r0, [r0, #14]	@ zero_extendqisi2
 1571              	.LVL154:
 1572              		.loc 1 273 0
 1573 000a 104D     		ldr	r5, .L195
 1574              		.loc 1 274 0
 1575 000c A0F10100 		sub	r0, #1
 1576              		.loc 1 273 0
 1577 0010 83B0     		sub	sp, sp, #12
 1578              		.cfi_def_cfa_offset 32
 1579              		.loc 1 274 0
 1580 0012 B0FA80F0 		clz	r0, r0
 1581              		.loc 1 273 0
 1582 0016 2B68     		ldr	r3, [r5]
 1583 0018 0193     		str	r3, [sp, #4]
 1584 001a B0EE408A 		vmov.f32	s16, s0
 1585              		.loc 1 274 0
 1586 001e 4009     		lsrs	r0, r0, #5
 1587 0020 FFF7FEFF 		bl	parameter_port_assert
 1588              	.LVL155:
 1589              		.loc 1 275 0
 1590 0024 FFF7FEFF 		bl	parameter_port_lock
 1591              	.LVL156:
 1592              		.loc 1 276 0
 1593 0028 84ED048A 		vstr.32	s16, [r4, #16]
 1594              		.loc 1 277 0
 1595 002c FFF7FEFF 		bl	parameter_port_unlock
 1596              	.LVL157:
ARM GAS  C:\Users\25521\AppData\Local\Temp\ccDmagyc.s 			page 29


 1597              		.loc 1 278 0
 1598 0030 019A     		ldr	r2, [sp, #4]
 1599 0032 2B68     		ldr	r3, [r5]
 1600 0034 9A42     		cmp	r2, r3
 1601 0036 07D1     		bne	.L194
 1602 0038 2046     		mov	r0, r4
 1603              		.loc 1 279 0
 1604 003a 03B0     		add	sp, sp, #12
 1605              		.cfi_remember_state
 1606              		.cfi_def_cfa_offset 20
 1607              		@ sp needed
 1608 003c BDEC028B 		vldm	sp!, {d8}
 1609              		.cfi_restore 80
 1610              		.cfi_restore 81
 1611              		.cfi_def_cfa_offset 12
 1612              	.LVL158:
 1613 0040 BDE83040 		pop	{r4, r5, lr}
 1614              		.cfi_restore 14
 1615              		.cfi_restore 5
 1616              		.cfi_restore 4
 1617              		.cfi_def_cfa_offset 0
 1618              	.LVL159:
 1619              		.loc 1 278 0
 1620 0044 FFF7FEBF 		b	_parameter_changed_set
 1621              	.LVL160:
 1622              	.L194:
 1623              		.cfi_restore_state
 1624 0048 FFF7FEFF 		bl	__stack_chk_fail
 1625              	.LVL161:
 1626              	.L196:
 1627              		.align	2
 1628              	.L195:
 1629 004c 00000000 		.word	__stack_chk_guard
 1630              		.cfi_endproc
 1631              	.LFE18:
 1632              		.size	parameter_scalar_set, .-parameter_scalar_set
 1633              		.section	.text.parameter_integer_declare,"ax",%progbits
 1634              		.align	1
 1635              		.p2align 4,,15
 1636              		.global	parameter_integer_declare
 1637              		.syntax unified
 1638              		.thumb
 1639              		.thumb_func
 1640              		.fpu fpv4-sp-d16
 1641              		.type	parameter_integer_declare, %function
 1642              	parameter_integer_declare:
 1643              	.LFB19:
 1644              		.loc 1 288 0
 1645              		.cfi_startproc
 1646              		@ args = 0, pretend = 0, frame = 8
 1647              		@ frame_needed = 0, uses_anonymous_args = 0
 1648              	.LVL162:
 1649 0000 30B5     		push	{r4, r5, lr}
 1650              		.cfi_def_cfa_offset 12
 1651              		.cfi_offset 4, -12
 1652              		.cfi_offset 5, -8
 1653              		.cfi_offset 14, -4
ARM GAS  C:\Users\25521\AppData\Local\Temp\ccDmagyc.s 			page 30


 1654 0002 0E4D     		ldr	r5, .L202
 1655              	.LBB101:
 1656              	.LBB102:
 1657              		.loc 1 156 0
 1658 0004 4160     		str	r1, [r0, #4]
 1659              	.LBE102:
 1660              	.LBE101:
 1661              		.loc 1 288 0
 1662 0006 0446     		mov	r4, r0
 1663              	.LBB108:
 1664              	.LBB103:
 1665              		.loc 1 157 0
 1666 0008 0023     		movs	r3, #0
 1667              	.LBE103:
 1668              	.LBE108:
 1669              		.loc 1 288 0
 1670 000a 83B0     		sub	sp, sp, #12
 1671              		.cfi_def_cfa_offset 24
 1672              		.loc 1 289 0
 1673 000c 0321     		movs	r1, #3
 1674              	.LVL163:
 1675 000e 8173     		strb	r1, [r0, #14]
 1676              	.LVL164:
 1677              	.LBB109:
 1678              	.LBB104:
 1679              		.loc 1 157 0
 1680 0010 0373     		strb	r3, [r0, #12]
 1681              	.LBE104:
 1682              	.LBE109:
 1683              		.loc 1 288 0
 1684 0012 2968     		ldr	r1, [r5]
 1685              	.LBB110:
 1686              	.LBB105:
 1687              		.loc 1 158 0
 1688 0014 4373     		strb	r3, [r0, #13]
 1689              		.loc 1 155 0
 1690 0016 0260     		str	r2, [r0]
 1691              	.LBE105:
 1692              	.LBE110:
 1693              		.loc 1 288 0
 1694 0018 0191     		str	r1, [sp, #4]
 1695              	.LBB111:
 1696              	.LBB106:
 1697              		.loc 1 159 0
 1698 001a FFF7FEFF 		bl	parameter_port_lock
 1699              	.LVL165:
 1700              		.loc 1 161 0
 1701 001e 6368     		ldr	r3, [r4, #4]
 1702              		.loc 1 163 0
 1703 0020 0199     		ldr	r1, [sp, #4]
 1704 0022 2A68     		ldr	r2, [r5]
 1705              		.loc 1 161 0
 1706 0024 5869     		ldr	r0, [r3, #20]
 1707 0026 A060     		str	r0, [r4, #8]
 1708              		.loc 1 163 0
 1709 0028 9142     		cmp	r1, r2
 1710              		.loc 1 162 0
ARM GAS  C:\Users\25521\AppData\Local\Temp\ccDmagyc.s 			page 31


 1711 002a 5C61     		str	r4, [r3, #20]
 1712              		.loc 1 163 0
 1713 002c 04D1     		bne	.L201
 1714              	.LBE106:
 1715              	.LBE111:
 1716              		.loc 1 291 0
 1717 002e 03B0     		add	sp, sp, #12
 1718              		.cfi_remember_state
 1719              		.cfi_def_cfa_offset 12
 1720              		@ sp needed
 1721 0030 BDE83040 		pop	{r4, r5, lr}
 1722              		.cfi_restore 14
 1723              		.cfi_restore 5
 1724              		.cfi_restore 4
 1725              		.cfi_def_cfa_offset 0
 1726              	.LVL166:
 1727              	.LBB112:
 1728              	.LBB107:
 1729              		.loc 1 163 0
 1730 0034 FFF7FEBF 		b	parameter_port_unlock
 1731              	.LVL167:
 1732              	.L201:
 1733              		.cfi_restore_state
 1734 0038 FFF7FEFF 		bl	__stack_chk_fail
 1735              	.LVL168:
 1736              	.L203:
 1737              		.align	2
 1738              	.L202:
 1739 003c 00000000 		.word	__stack_chk_guard
 1740              	.LBE107:
 1741              	.LBE112:
 1742              		.cfi_endproc
 1743              	.LFE19:
 1744              		.size	parameter_integer_declare, .-parameter_integer_declare
 1745              		.section	.text.parameter_integer_declare_with_default,"ax",%progbits
 1746              		.align	1
 1747              		.p2align 4,,15
 1748              		.global	parameter_integer_declare_with_default
 1749              		.syntax unified
 1750              		.thumb
 1751              		.thumb_func
 1752              		.fpu fpv4-sp-d16
 1753              		.type	parameter_integer_declare_with_default, %function
 1754              	parameter_integer_declare_with_default:
 1755              	.LFB20:
 1756              		.loc 1 297 0
 1757              		.cfi_startproc
 1758              		@ args = 0, pretend = 0, frame = 8
 1759              		@ frame_needed = 0, uses_anonymous_args = 0
 1760              	.LVL169:
 1761 0000 30B5     		push	{r4, r5, lr}
 1762              		.cfi_def_cfa_offset 12
 1763              		.cfi_offset 4, -12
 1764              		.cfi_offset 5, -8
 1765              		.cfi_offset 14, -4
 1766 0002 0446     		mov	r4, r0
 1767 0004 0F4D     		ldr	r5, .L209
ARM GAS  C:\Users\25521\AppData\Local\Temp\ccDmagyc.s 			page 32


 1768              		.loc 1 298 0
 1769 0006 0361     		str	r3, [r0, #16]
 1770              		.loc 1 297 0
 1771 0008 83B0     		sub	sp, sp, #12
 1772              		.cfi_def_cfa_offset 24
 1773              	.LBB113:
 1774              	.LBB114:
 1775              		.loc 1 157 0
 1776 000a 0023     		movs	r3, #0
 1777              	.LVL170:
 1778              	.LBE114:
 1779              	.LBE113:
 1780              		.loc 1 299 0
 1781 000c 0320     		movs	r0, #3
 1782              	.LVL171:
 1783              	.LBB118:
 1784              	.LBB115:
 1785              		.loc 1 156 0
 1786 000e 6160     		str	r1, [r4, #4]
 1787              	.LBE115:
 1788              	.LBE118:
 1789              		.loc 1 299 0
 1790 0010 A073     		strb	r0, [r4, #14]
 1791              	.LVL172:
 1792              		.loc 1 297 0
 1793 0012 2968     		ldr	r1, [r5]
 1794              	.LVL173:
 1795              	.LBB119:
 1796              	.LBB116:
 1797              		.loc 1 157 0
 1798 0014 2373     		strb	r3, [r4, #12]
 1799              		.loc 1 155 0
 1800 0016 2260     		str	r2, [r4]
 1801              		.loc 1 158 0
 1802 0018 6373     		strb	r3, [r4, #13]
 1803              	.LBE116:
 1804              	.LBE119:
 1805              		.loc 1 297 0
 1806 001a 0191     		str	r1, [sp, #4]
 1807              	.LBB120:
 1808              	.LBB117:
 1809              		.loc 1 159 0
 1810 001c FFF7FEFF 		bl	parameter_port_lock
 1811              	.LVL174:
 1812              		.loc 1 161 0
 1813 0020 6368     		ldr	r3, [r4, #4]
 1814 0022 5A69     		ldr	r2, [r3, #20]
 1815 0024 A260     		str	r2, [r4, #8]
 1816              		.loc 1 162 0
 1817 0026 5C61     		str	r4, [r3, #20]
 1818              		.loc 1 163 0
 1819 0028 FFF7FEFF 		bl	parameter_port_unlock
 1820              	.LVL175:
 1821              	.LBE117:
 1822              	.LBE120:
 1823              		.loc 1 301 0
 1824 002c 019A     		ldr	r2, [sp, #4]
ARM GAS  C:\Users\25521\AppData\Local\Temp\ccDmagyc.s 			page 33


 1825 002e 2B68     		ldr	r3, [r5]
 1826 0030 9A42     		cmp	r2, r3
 1827 0032 05D1     		bne	.L208
 1828 0034 2046     		mov	r0, r4
 1829              		.loc 1 302 0
 1830 0036 03B0     		add	sp, sp, #12
 1831              		.cfi_remember_state
 1832              		.cfi_def_cfa_offset 12
 1833              		@ sp needed
 1834 0038 BDE83040 		pop	{r4, r5, lr}
 1835              		.cfi_restore 14
 1836              		.cfi_restore 5
 1837              		.cfi_restore 4
 1838              		.cfi_def_cfa_offset 0
 1839              	.LVL176:
 1840              		.loc 1 301 0
 1841 003c FFF7FEBF 		b	_parameter_changed_set
 1842              	.LVL177:
 1843              	.L208:
 1844              		.cfi_restore_state
 1845 0040 FFF7FEFF 		bl	__stack_chk_fail
 1846              	.LVL178:
 1847              	.L210:
 1848              		.align	2
 1849              	.L209:
 1850 0044 00000000 		.word	__stack_chk_guard
 1851              		.cfi_endproc
 1852              	.LFE20:
 1853              		.size	parameter_integer_declare_with_default, .-parameter_integer_declare_with_default
 1854              		.section	.text.parameter_integer_read,"ax",%progbits
 1855              		.align	1
 1856              		.p2align 4,,15
 1857              		.global	parameter_integer_read
 1858              		.syntax unified
 1859              		.thumb
 1860              		.thumb_func
 1861              		.fpu fpv4-sp-d16
 1862              		.type	parameter_integer_read, %function
 1863              	parameter_integer_read:
 1864              	.LFB22:
 1865              		.loc 1 311 0
 1866              		.cfi_startproc
 1867              		@ args = 0, pretend = 0, frame = 8
 1868              		@ frame_needed = 0, uses_anonymous_args = 0
 1869              	.LVL179:
 1870 0000 30B5     		push	{r4, r5, lr}
 1871              		.cfi_def_cfa_offset 12
 1872              		.cfi_offset 4, -12
 1873              		.cfi_offset 5, -8
 1874              		.cfi_offset 14, -4
 1875 0002 0446     		mov	r4, r0
 1876              		.loc 1 312 0
 1877 0004 807B     		ldrb	r0, [r0, #14]	@ zero_extendqisi2
 1878              	.LVL180:
 1879              		.loc 1 311 0
 1880 0006 0E4D     		ldr	r5, .L215
 1881              		.loc 1 312 0
ARM GAS  C:\Users\25521\AppData\Local\Temp\ccDmagyc.s 			page 34


 1882 0008 A0F10300 		sub	r0, #3
 1883              		.loc 1 311 0
 1884 000c 83B0     		sub	sp, sp, #12
 1885              		.cfi_def_cfa_offset 24
 1886              		.loc 1 312 0
 1887 000e B0FA80F0 		clz	r0, r0
 1888              		.loc 1 311 0
 1889 0012 2B68     		ldr	r3, [r5]
 1890 0014 0193     		str	r3, [sp, #4]
 1891              		.loc 1 312 0
 1892 0016 4009     		lsrs	r0, r0, #5
 1893 0018 FFF7FEFF 		bl	parameter_port_assert
 1894              	.LVL181:
 1895              		.loc 1 313 0
 1896 001c FFF7FEFF 		bl	parameter_port_lock
 1897              	.LVL182:
 1898              		.loc 1 314 0
 1899 0020 607B     		ldrb	r0, [r4, #13]	@ zero_extendqisi2
 1900 0022 FFF7FEFF 		bl	parameter_port_assert
 1901              	.LVL183:
 1902              		.loc 1 315 0
 1903 0026 2469     		ldr	r4, [r4, #16]
 1904              	.LVL184:
 1905              		.loc 1 316 0
 1906 0028 FFF7FEFF 		bl	parameter_port_unlock
 1907              	.LVL185:
 1908              		.loc 1 318 0
 1909 002c 019A     		ldr	r2, [sp, #4]
 1910 002e 2B68     		ldr	r3, [r5]
 1911 0030 9A42     		cmp	r2, r3
 1912 0032 02D1     		bne	.L214
 1913 0034 2046     		mov	r0, r4
 1914 0036 03B0     		add	sp, sp, #12
 1915              		.cfi_remember_state
 1916              		.cfi_def_cfa_offset 12
 1917              		@ sp needed
 1918 0038 30BD     		pop	{r4, r5, pc}
 1919              	.LVL186:
 1920              	.L214:
 1921              		.cfi_restore_state
 1922 003a FFF7FEFF 		bl	__stack_chk_fail
 1923              	.LVL187:
 1924              	.L216:
 1925 003e 00BF     		.align	2
 1926              	.L215:
 1927 0040 00000000 		.word	__stack_chk_guard
 1928              		.cfi_endproc
 1929              	.LFE22:
 1930              		.size	parameter_integer_read, .-parameter_integer_read
 1931              		.section	.text.parameter_integer_get,"ax",%progbits
 1932              		.align	1
 1933              		.p2align 4,,15
 1934              		.global	parameter_integer_get
 1935              		.syntax unified
 1936              		.thumb
 1937              		.thumb_func
 1938              		.fpu fpv4-sp-d16
ARM GAS  C:\Users\25521\AppData\Local\Temp\ccDmagyc.s 			page 35


 1939              		.type	parameter_integer_get, %function
 1940              	parameter_integer_get:
 1941              	.LFB21:
 1942              		.loc 1 305 0
 1943              		.cfi_startproc
 1944              		@ args = 0, pretend = 0, frame = 8
 1945              		@ frame_needed = 0, uses_anonymous_args = 0
 1946              	.LVL188:
 1947 0000 30B5     		push	{r4, r5, lr}
 1948              		.cfi_def_cfa_offset 12
 1949              		.cfi_offset 4, -12
 1950              		.cfi_offset 5, -8
 1951              		.cfi_offset 14, -4
 1952 0002 094C     		ldr	r4, .L222
 1953 0004 83B0     		sub	sp, sp, #12
 1954              		.cfi_def_cfa_offset 24
 1955              		.loc 1 305 0
 1956 0006 2368     		ldr	r3, [r4]
 1957 0008 0193     		str	r3, [sp, #4]
 1958 000a 0546     		mov	r5, r0
 1959              		.loc 1 306 0
 1960 000c FFF7FEFF 		bl	_parameter_changed_clear
 1961              	.LVL189:
 1962              		.loc 1 307 0
 1963 0010 019A     		ldr	r2, [sp, #4]
 1964 0012 2368     		ldr	r3, [r4]
 1965 0014 9A42     		cmp	r2, r3
 1966 0016 05D1     		bne	.L221
 1967 0018 2846     		mov	r0, r5
 1968              		.loc 1 308 0
 1969 001a 03B0     		add	sp, sp, #12
 1970              		.cfi_remember_state
 1971              		.cfi_def_cfa_offset 12
 1972              		@ sp needed
 1973 001c BDE83040 		pop	{r4, r5, lr}
 1974              		.cfi_restore 14
 1975              		.cfi_restore 5
 1976              		.cfi_restore 4
 1977              		.cfi_def_cfa_offset 0
 1978              	.LVL190:
 1979              		.loc 1 307 0
 1980 0020 FFF7FEBF 		b	parameter_integer_read
 1981              	.LVL191:
 1982              	.L221:
 1983              		.cfi_restore_state
 1984 0024 FFF7FEFF 		bl	__stack_chk_fail
 1985              	.LVL192:
 1986              	.L223:
 1987              		.align	2
 1988              	.L222:
 1989 0028 00000000 		.word	__stack_chk_guard
 1990              		.cfi_endproc
 1991              	.LFE21:
 1992              		.size	parameter_integer_get, .-parameter_integer_get
 1993              		.section	.text.parameter_integer_set,"ax",%progbits
 1994              		.align	1
 1995              		.p2align 4,,15
ARM GAS  C:\Users\25521\AppData\Local\Temp\ccDmagyc.s 			page 36


 1996              		.global	parameter_integer_set
 1997              		.syntax unified
 1998              		.thumb
 1999              		.thumb_func
 2000              		.fpu fpv4-sp-d16
 2001              		.type	parameter_integer_set, %function
 2002              	parameter_integer_set:
 2003              	.LFB23:
 2004              		.loc 1 321 0
 2005              		.cfi_startproc
 2006              		@ args = 0, pretend = 0, frame = 8
 2007              		@ frame_needed = 0, uses_anonymous_args = 0
 2008              	.LVL193:
 2009 0000 70B5     		push	{r4, r5, r6, lr}
 2010              		.cfi_def_cfa_offset 16
 2011              		.cfi_offset 4, -16
 2012              		.cfi_offset 5, -12
 2013              		.cfi_offset 6, -8
 2014              		.cfi_offset 14, -4
 2015 0002 0446     		mov	r4, r0
 2016              		.loc 1 322 0
 2017 0004 807B     		ldrb	r0, [r0, #14]	@ zero_extendqisi2
 2018              	.LVL194:
 2019              		.loc 1 321 0
 2020 0006 0E4D     		ldr	r5, .L229
 2021              		.loc 1 322 0
 2022 0008 A0F10300 		sub	r0, #3
 2023              		.loc 1 321 0
 2024 000c 82B0     		sub	sp, sp, #8
 2025              		.cfi_def_cfa_offset 24
 2026              		.loc 1 322 0
 2027 000e B0FA80F0 		clz	r0, r0
 2028              		.loc 1 321 0
 2029 0012 2B68     		ldr	r3, [r5]
 2030 0014 0193     		str	r3, [sp, #4]
 2031 0016 0E46     		mov	r6, r1
 2032              		.loc 1 322 0
 2033 0018 4009     		lsrs	r0, r0, #5
 2034 001a FFF7FEFF 		bl	parameter_port_assert
 2035              	.LVL195:
 2036              		.loc 1 323 0
 2037 001e FFF7FEFF 		bl	parameter_port_lock
 2038              	.LVL196:
 2039              		.loc 1 324 0
 2040 0022 2661     		str	r6, [r4, #16]
 2041              		.loc 1 325 0
 2042 0024 FFF7FEFF 		bl	parameter_port_unlock
 2043              	.LVL197:
 2044              		.loc 1 326 0
 2045 0028 019A     		ldr	r2, [sp, #4]
 2046 002a 2B68     		ldr	r3, [r5]
 2047 002c 9A42     		cmp	r2, r3
 2048 002e 05D1     		bne	.L228
 2049 0030 2046     		mov	r0, r4
 2050              		.loc 1 327 0
 2051 0032 02B0     		add	sp, sp, #8
 2052              		.cfi_remember_state
ARM GAS  C:\Users\25521\AppData\Local\Temp\ccDmagyc.s 			page 37


 2053              		.cfi_def_cfa_offset 16
 2054              		@ sp needed
 2055 0034 BDE87040 		pop	{r4, r5, r6, lr}
 2056              		.cfi_restore 14
 2057              		.cfi_restore 6
 2058              		.cfi_restore 5
 2059              		.cfi_restore 4
 2060              		.cfi_def_cfa_offset 0
 2061              	.LVL198:
 2062              		.loc 1 326 0
 2063 0038 FFF7FEBF 		b	_parameter_changed_set
 2064              	.LVL199:
 2065              	.L228:
 2066              		.cfi_restore_state
 2067 003c FFF7FEFF 		bl	__stack_chk_fail
 2068              	.LVL200:
 2069              	.L230:
 2070              		.align	2
 2071              	.L229:
 2072 0040 00000000 		.word	__stack_chk_guard
 2073              		.cfi_endproc
 2074              	.LFE23:
 2075              		.size	parameter_integer_set, .-parameter_integer_set
 2076              		.section	.text.parameter_boolean_declare,"ax",%progbits
 2077              		.align	1
 2078              		.p2align 4,,15
 2079              		.global	parameter_boolean_declare
 2080              		.syntax unified
 2081              		.thumb
 2082              		.thumb_func
 2083              		.fpu fpv4-sp-d16
 2084              		.type	parameter_boolean_declare, %function
 2085              	parameter_boolean_declare:
 2086              	.LFB24:
 2087              		.loc 1 332 0
 2088              		.cfi_startproc
 2089              		@ args = 0, pretend = 0, frame = 8
 2090              		@ frame_needed = 0, uses_anonymous_args = 0
 2091              	.LVL201:
 2092 0000 30B5     		push	{r4, r5, lr}
 2093              		.cfi_def_cfa_offset 12
 2094              		.cfi_offset 4, -12
 2095              		.cfi_offset 5, -8
 2096              		.cfi_offset 14, -4
 2097 0002 0E4D     		ldr	r5, .L236
 2098              	.LBB121:
 2099              	.LBB122:
 2100              		.loc 1 156 0
 2101 0004 4160     		str	r1, [r0, #4]
 2102              	.LBE122:
 2103              	.LBE121:
 2104              		.loc 1 332 0
 2105 0006 0446     		mov	r4, r0
 2106              	.LBB128:
 2107              	.LBB123:
 2108              		.loc 1 157 0
 2109 0008 0023     		movs	r3, #0
ARM GAS  C:\Users\25521\AppData\Local\Temp\ccDmagyc.s 			page 38


 2110              	.LBE123:
 2111              	.LBE128:
 2112              		.loc 1 332 0
 2113 000a 83B0     		sub	sp, sp, #12
 2114              		.cfi_def_cfa_offset 24
 2115              		.loc 1 333 0
 2116 000c 0221     		movs	r1, #2
 2117              	.LVL202:
 2118 000e 8173     		strb	r1, [r0, #14]
 2119              	.LVL203:
 2120              	.LBB129:
 2121              	.LBB124:
 2122              		.loc 1 157 0
 2123 0010 0373     		strb	r3, [r0, #12]
 2124              	.LBE124:
 2125              	.LBE129:
 2126              		.loc 1 332 0
 2127 0012 2968     		ldr	r1, [r5]
 2128              	.LBB130:
 2129              	.LBB125:
 2130              		.loc 1 158 0
 2131 0014 4373     		strb	r3, [r0, #13]
 2132              		.loc 1 155 0
 2133 0016 0260     		str	r2, [r0]
 2134              	.LBE125:
 2135              	.LBE130:
 2136              		.loc 1 332 0
 2137 0018 0191     		str	r1, [sp, #4]
 2138              	.LBB131:
 2139              	.LBB126:
 2140              		.loc 1 159 0
 2141 001a FFF7FEFF 		bl	parameter_port_lock
 2142              	.LVL204:
 2143              		.loc 1 161 0
 2144 001e 6368     		ldr	r3, [r4, #4]
 2145              		.loc 1 163 0
 2146 0020 0199     		ldr	r1, [sp, #4]
 2147 0022 2A68     		ldr	r2, [r5]
 2148              		.loc 1 161 0
 2149 0024 5869     		ldr	r0, [r3, #20]
 2150 0026 A060     		str	r0, [r4, #8]
 2151              		.loc 1 163 0
 2152 0028 9142     		cmp	r1, r2
 2153              		.loc 1 162 0
 2154 002a 5C61     		str	r4, [r3, #20]
 2155              		.loc 1 163 0
 2156 002c 04D1     		bne	.L235
 2157              	.LBE126:
 2158              	.LBE131:
 2159              		.loc 1 335 0
 2160 002e 03B0     		add	sp, sp, #12
 2161              		.cfi_remember_state
 2162              		.cfi_def_cfa_offset 12
 2163              		@ sp needed
 2164 0030 BDE83040 		pop	{r4, r5, lr}
 2165              		.cfi_restore 14
 2166              		.cfi_restore 5
ARM GAS  C:\Users\25521\AppData\Local\Temp\ccDmagyc.s 			page 39


 2167              		.cfi_restore 4
 2168              		.cfi_def_cfa_offset 0
 2169              	.LVL205:
 2170              	.LBB132:
 2171              	.LBB127:
 2172              		.loc 1 163 0
 2173 0034 FFF7FEBF 		b	parameter_port_unlock
 2174              	.LVL206:
 2175              	.L235:
 2176              		.cfi_restore_state
 2177 0038 FFF7FEFF 		bl	__stack_chk_fail
 2178              	.LVL207:
 2179              	.L237:
 2180              		.align	2
 2181              	.L236:
 2182 003c 00000000 		.word	__stack_chk_guard
 2183              	.LBE127:
 2184              	.LBE132:
 2185              		.cfi_endproc
 2186              	.LFE24:
 2187              		.size	parameter_boolean_declare, .-parameter_boolean_declare
 2188              		.section	.text.parameter_boolean_declare_with_default,"ax",%progbits
 2189              		.align	1
 2190              		.p2align 4,,15
 2191              		.global	parameter_boolean_declare_with_default
 2192              		.syntax unified
 2193              		.thumb
 2194              		.thumb_func
 2195              		.fpu fpv4-sp-d16
 2196              		.type	parameter_boolean_declare_with_default, %function
 2197              	parameter_boolean_declare_with_default:
 2198              	.LFB25:
 2199              		.loc 1 341 0
 2200              		.cfi_startproc
 2201              		@ args = 0, pretend = 0, frame = 8
 2202              		@ frame_needed = 0, uses_anonymous_args = 0
 2203              	.LVL208:
 2204 0000 30B5     		push	{r4, r5, lr}
 2205              		.cfi_def_cfa_offset 12
 2206              		.cfi_offset 4, -12
 2207              		.cfi_offset 5, -8
 2208              		.cfi_offset 14, -4
 2209 0002 0446     		mov	r4, r0
 2210 0004 0F4D     		ldr	r5, .L243
 2211              		.loc 1 342 0
 2212 0006 0374     		strb	r3, [r0, #16]
 2213              		.loc 1 341 0
 2214 0008 83B0     		sub	sp, sp, #12
 2215              		.cfi_def_cfa_offset 24
 2216              	.LBB133:
 2217              	.LBB134:
 2218              		.loc 1 157 0
 2219 000a 0023     		movs	r3, #0
 2220              	.LVL209:
 2221              	.LBE134:
 2222              	.LBE133:
 2223              		.loc 1 343 0
ARM GAS  C:\Users\25521\AppData\Local\Temp\ccDmagyc.s 			page 40


 2224 000c 0220     		movs	r0, #2
 2225              	.LVL210:
 2226              	.LBB138:
 2227              	.LBB135:
 2228              		.loc 1 156 0
 2229 000e 6160     		str	r1, [r4, #4]
 2230              	.LBE135:
 2231              	.LBE138:
 2232              		.loc 1 343 0
 2233 0010 A073     		strb	r0, [r4, #14]
 2234              	.LVL211:
 2235              		.loc 1 341 0
 2236 0012 2968     		ldr	r1, [r5]
 2237              	.LVL212:
 2238              	.LBB139:
 2239              	.LBB136:
 2240              		.loc 1 157 0
 2241 0014 2373     		strb	r3, [r4, #12]
 2242              		.loc 1 155 0
 2243 0016 2260     		str	r2, [r4]
 2244              		.loc 1 158 0
 2245 0018 6373     		strb	r3, [r4, #13]
 2246              	.LBE136:
 2247              	.LBE139:
 2248              		.loc 1 341 0
 2249 001a 0191     		str	r1, [sp, #4]
 2250              	.LBB140:
 2251              	.LBB137:
 2252              		.loc 1 159 0
 2253 001c FFF7FEFF 		bl	parameter_port_lock
 2254              	.LVL213:
 2255              		.loc 1 161 0
 2256 0020 6368     		ldr	r3, [r4, #4]
 2257 0022 5A69     		ldr	r2, [r3, #20]
 2258 0024 A260     		str	r2, [r4, #8]
 2259              		.loc 1 162 0
 2260 0026 5C61     		str	r4, [r3, #20]
 2261              		.loc 1 163 0
 2262 0028 FFF7FEFF 		bl	parameter_port_unlock
 2263              	.LVL214:
 2264              	.LBE137:
 2265              	.LBE140:
 2266              		.loc 1 345 0
 2267 002c 019A     		ldr	r2, [sp, #4]
 2268 002e 2B68     		ldr	r3, [r5]
 2269 0030 9A42     		cmp	r2, r3
 2270 0032 05D1     		bne	.L242
 2271 0034 2046     		mov	r0, r4
 2272              		.loc 1 346 0
 2273 0036 03B0     		add	sp, sp, #12
 2274              		.cfi_remember_state
 2275              		.cfi_def_cfa_offset 12
 2276              		@ sp needed
 2277 0038 BDE83040 		pop	{r4, r5, lr}
 2278              		.cfi_restore 14
 2279              		.cfi_restore 5
 2280              		.cfi_restore 4
ARM GAS  C:\Users\25521\AppData\Local\Temp\ccDmagyc.s 			page 41


 2281              		.cfi_def_cfa_offset 0
 2282              	.LVL215:
 2283              		.loc 1 345 0
 2284 003c FFF7FEBF 		b	_parameter_changed_set
 2285              	.LVL216:
 2286              	.L242:
 2287              		.cfi_restore_state
 2288 0040 FFF7FEFF 		bl	__stack_chk_fail
 2289              	.LVL217:
 2290              	.L244:
 2291              		.align	2
 2292              	.L243:
 2293 0044 00000000 		.word	__stack_chk_guard
 2294              		.cfi_endproc
 2295              	.LFE25:
 2296              		.size	parameter_boolean_declare_with_default, .-parameter_boolean_declare_with_default
 2297              		.section	.text.parameter_boolean_set,"ax",%progbits
 2298              		.align	1
 2299              		.p2align 4,,15
 2300              		.global	parameter_boolean_set
 2301              		.syntax unified
 2302              		.thumb
 2303              		.thumb_func
 2304              		.fpu fpv4-sp-d16
 2305              		.type	parameter_boolean_set, %function
 2306              	parameter_boolean_set:
 2307              	.LFB26:
 2308              		.loc 1 349 0
 2309              		.cfi_startproc
 2310              		@ args = 0, pretend = 0, frame = 8
 2311              		@ frame_needed = 0, uses_anonymous_args = 0
 2312              	.LVL218:
 2313 0000 70B5     		push	{r4, r5, r6, lr}
 2314              		.cfi_def_cfa_offset 16
 2315              		.cfi_offset 4, -16
 2316              		.cfi_offset 5, -12
 2317              		.cfi_offset 6, -8
 2318              		.cfi_offset 14, -4
 2319 0002 0446     		mov	r4, r0
 2320              		.loc 1 350 0
 2321 0004 807B     		ldrb	r0, [r0, #14]	@ zero_extendqisi2
 2322              	.LVL219:
 2323              		.loc 1 349 0
 2324 0006 0E4D     		ldr	r5, .L250
 2325              		.loc 1 350 0
 2326 0008 A0F10200 		sub	r0, #2
 2327              		.loc 1 349 0
 2328 000c 82B0     		sub	sp, sp, #8
 2329              		.cfi_def_cfa_offset 24
 2330              		.loc 1 350 0
 2331 000e B0FA80F0 		clz	r0, r0
 2332              		.loc 1 349 0
 2333 0012 2B68     		ldr	r3, [r5]
 2334 0014 0193     		str	r3, [sp, #4]
 2335 0016 0E46     		mov	r6, r1
 2336              		.loc 1 350 0
 2337 0018 4009     		lsrs	r0, r0, #5
ARM GAS  C:\Users\25521\AppData\Local\Temp\ccDmagyc.s 			page 42


 2338 001a FFF7FEFF 		bl	parameter_port_assert
 2339              	.LVL220:
 2340              		.loc 1 352 0
 2341 001e FFF7FEFF 		bl	parameter_port_lock
 2342              	.LVL221:
 2343              		.loc 1 353 0
 2344 0022 2674     		strb	r6, [r4, #16]
 2345              		.loc 1 354 0
 2346 0024 FFF7FEFF 		bl	parameter_port_unlock
 2347              	.LVL222:
 2348              		.loc 1 355 0
 2349 0028 019A     		ldr	r2, [sp, #4]
 2350 002a 2B68     		ldr	r3, [r5]
 2351 002c 9A42     		cmp	r2, r3
 2352 002e 05D1     		bne	.L249
 2353 0030 2046     		mov	r0, r4
 2354              		.loc 1 356 0
 2355 0032 02B0     		add	sp, sp, #8
 2356              		.cfi_remember_state
 2357              		.cfi_def_cfa_offset 16
 2358              		@ sp needed
 2359 0034 BDE87040 		pop	{r4, r5, r6, lr}
 2360              		.cfi_restore 14
 2361              		.cfi_restore 6
 2362              		.cfi_restore 5
 2363              		.cfi_restore 4
 2364              		.cfi_def_cfa_offset 0
 2365              	.LVL223:
 2366              		.loc 1 355 0
 2367 0038 FFF7FEBF 		b	_parameter_changed_set
 2368              	.LVL224:
 2369              	.L249:
 2370              		.cfi_restore_state
 2371 003c FFF7FEFF 		bl	__stack_chk_fail
 2372              	.LVL225:
 2373              	.L251:
 2374              		.align	2
 2375              	.L250:
 2376 0040 00000000 		.word	__stack_chk_guard
 2377              		.cfi_endproc
 2378              	.LFE26:
 2379              		.size	parameter_boolean_set, .-parameter_boolean_set
 2380              		.section	.text.parameter_boolean_read,"ax",%progbits
 2381              		.align	1
 2382              		.p2align 4,,15
 2383              		.global	parameter_boolean_read
 2384              		.syntax unified
 2385              		.thumb
 2386              		.thumb_func
 2387              		.fpu fpv4-sp-d16
 2388              		.type	parameter_boolean_read, %function
 2389              	parameter_boolean_read:
 2390              	.LFB28:
 2391              		.loc 1 365 0
 2392              		.cfi_startproc
 2393              		@ args = 0, pretend = 0, frame = 8
 2394              		@ frame_needed = 0, uses_anonymous_args = 0
ARM GAS  C:\Users\25521\AppData\Local\Temp\ccDmagyc.s 			page 43


 2395              	.LVL226:
 2396 0000 30B5     		push	{r4, r5, lr}
 2397              		.cfi_def_cfa_offset 12
 2398              		.cfi_offset 4, -12
 2399              		.cfi_offset 5, -8
 2400              		.cfi_offset 14, -4
 2401 0002 0446     		mov	r4, r0
 2402              		.loc 1 366 0
 2403 0004 807B     		ldrb	r0, [r0, #14]	@ zero_extendqisi2
 2404              	.LVL227:
 2405              		.loc 1 365 0
 2406 0006 0E4D     		ldr	r5, .L256
 2407              		.loc 1 366 0
 2408 0008 A0F10200 		sub	r0, #2
 2409              		.loc 1 365 0
 2410 000c 83B0     		sub	sp, sp, #12
 2411              		.cfi_def_cfa_offset 24
 2412              		.loc 1 366 0
 2413 000e B0FA80F0 		clz	r0, r0
 2414              		.loc 1 365 0
 2415 0012 2B68     		ldr	r3, [r5]
 2416 0014 0193     		str	r3, [sp, #4]
 2417              		.loc 1 366 0
 2418 0016 4009     		lsrs	r0, r0, #5
 2419 0018 FFF7FEFF 		bl	parameter_port_assert
 2420              	.LVL228:
 2421              		.loc 1 367 0
 2422 001c FFF7FEFF 		bl	parameter_port_lock
 2423              	.LVL229:
 2424              		.loc 1 368 0
 2425 0020 607B     		ldrb	r0, [r4, #13]	@ zero_extendqisi2
 2426 0022 FFF7FEFF 		bl	parameter_port_assert
 2427              	.LVL230:
 2428              		.loc 1 369 0
 2429 0026 247C     		ldrb	r4, [r4, #16]	@ zero_extendqisi2
 2430              	.LVL231:
 2431              		.loc 1 370 0
 2432 0028 FFF7FEFF 		bl	parameter_port_unlock
 2433              	.LVL232:
 2434              		.loc 1 372 0
 2435 002c 019A     		ldr	r2, [sp, #4]
 2436 002e 2B68     		ldr	r3, [r5]
 2437 0030 9A42     		cmp	r2, r3
 2438 0032 02D1     		bne	.L255
 2439 0034 2046     		mov	r0, r4
 2440 0036 03B0     		add	sp, sp, #12
 2441              		.cfi_remember_state
 2442              		.cfi_def_cfa_offset 12
 2443              		@ sp needed
 2444 0038 30BD     		pop	{r4, r5, pc}
 2445              	.LVL233:
 2446              	.L255:
 2447              		.cfi_restore_state
 2448 003a FFF7FEFF 		bl	__stack_chk_fail
 2449              	.LVL234:
 2450              	.L257:
 2451 003e 00BF     		.align	2
ARM GAS  C:\Users\25521\AppData\Local\Temp\ccDmagyc.s 			page 44


 2452              	.L256:
 2453 0040 00000000 		.word	__stack_chk_guard
 2454              		.cfi_endproc
 2455              	.LFE28:
 2456              		.size	parameter_boolean_read, .-parameter_boolean_read
 2457              		.section	.text.parameter_boolean_get,"ax",%progbits
 2458              		.align	1
 2459              		.p2align 4,,15
 2460              		.global	parameter_boolean_get
 2461              		.syntax unified
 2462              		.thumb
 2463              		.thumb_func
 2464              		.fpu fpv4-sp-d16
 2465              		.type	parameter_boolean_get, %function
 2466              	parameter_boolean_get:
 2467              	.LFB27:
 2468              		.loc 1 359 0
 2469              		.cfi_startproc
 2470              		@ args = 0, pretend = 0, frame = 8
 2471              		@ frame_needed = 0, uses_anonymous_args = 0
 2472              	.LVL235:
 2473 0000 30B5     		push	{r4, r5, lr}
 2474              		.cfi_def_cfa_offset 12
 2475              		.cfi_offset 4, -12
 2476              		.cfi_offset 5, -8
 2477              		.cfi_offset 14, -4
 2478 0002 094C     		ldr	r4, .L263
 2479 0004 83B0     		sub	sp, sp, #12
 2480              		.cfi_def_cfa_offset 24
 2481              		.loc 1 359 0
 2482 0006 2368     		ldr	r3, [r4]
 2483 0008 0193     		str	r3, [sp, #4]
 2484 000a 0546     		mov	r5, r0
 2485              		.loc 1 360 0
 2486 000c FFF7FEFF 		bl	_parameter_changed_clear
 2487              	.LVL236:
 2488              		.loc 1 361 0
 2489 0010 019A     		ldr	r2, [sp, #4]
 2490 0012 2368     		ldr	r3, [r4]
 2491 0014 9A42     		cmp	r2, r3
 2492 0016 05D1     		bne	.L262
 2493 0018 2846     		mov	r0, r5
 2494              		.loc 1 362 0
 2495 001a 03B0     		add	sp, sp, #12
 2496              		.cfi_remember_state
 2497              		.cfi_def_cfa_offset 12
 2498              		@ sp needed
 2499 001c BDE83040 		pop	{r4, r5, lr}
 2500              		.cfi_restore 14
 2501              		.cfi_restore 5
 2502              		.cfi_restore 4
 2503              		.cfi_def_cfa_offset 0
 2504              	.LVL237:
 2505              		.loc 1 361 0
 2506 0020 FFF7FEBF 		b	parameter_boolean_read
 2507              	.LVL238:
 2508              	.L262:
ARM GAS  C:\Users\25521\AppData\Local\Temp\ccDmagyc.s 			page 45


 2509              		.cfi_restore_state
 2510 0024 FFF7FEFF 		bl	__stack_chk_fail
 2511              	.LVL239:
 2512              	.L264:
 2513              		.align	2
 2514              	.L263:
 2515 0028 00000000 		.word	__stack_chk_guard
 2516              		.cfi_endproc
 2517              	.LFE27:
 2518              		.size	parameter_boolean_get, .-parameter_boolean_get
 2519              		.section	.text.parameter_vector_declare,"ax",%progbits
 2520              		.align	1
 2521              		.p2align 4,,15
 2522              		.global	parameter_vector_declare
 2523              		.syntax unified
 2524              		.thumb
 2525              		.thumb_func
 2526              		.fpu fpv4-sp-d16
 2527              		.type	parameter_vector_declare, %function
 2528              	parameter_vector_declare:
 2529              	.LFB29:
 2530              		.loc 1 381 0
 2531              		.cfi_startproc
 2532              		@ args = 4, pretend = 0, frame = 8
 2533              		@ frame_needed = 0, uses_anonymous_args = 0
 2534              	.LVL240:
 2535 0000 70B5     		push	{r4, r5, r6, lr}
 2536              		.cfi_def_cfa_offset 16
 2537              		.cfi_offset 4, -16
 2538              		.cfi_offset 5, -12
 2539              		.cfi_offset 6, -8
 2540              		.cfi_offset 14, -4
 2541 0002 0446     		mov	r4, r0
 2542 0004 82B0     		sub	sp, sp, #8
 2543              		.cfi_def_cfa_offset 24
 2544              		.loc 1 381 0
 2545 0006 0F4D     		ldr	r5, .L270
 2546 0008 BDF81800 		ldrh	r0, [sp, #24]
 2547              	.LVL241:
 2548              		.loc 1 383 0
 2549 000c 2361     		str	r3, [r4, #16]
 2550              		.loc 1 382 0
 2551 000e 0526     		movs	r6, #5
 2552              	.LBB141:
 2553              	.LBB142:
 2554              		.loc 1 157 0
 2555 0010 0023     		movs	r3, #0
 2556              	.LVL242:
 2557              		.loc 1 156 0
 2558 0012 6160     		str	r1, [r4, #4]
 2559              	.LBE142:
 2560              	.LBE141:
 2561              		.loc 1 384 0
 2562 0014 E082     		strh	r0, [r4, #22]	@ movhi
 2563              	.LVL243:
 2564              		.loc 1 381 0
 2565 0016 2968     		ldr	r1, [r5]
ARM GAS  C:\Users\25521\AppData\Local\Temp\ccDmagyc.s 			page 46


 2566              	.LVL244:
 2567              	.LBB146:
 2568              	.LBB143:
 2569              		.loc 1 157 0
 2570 0018 2373     		strb	r3, [r4, #12]
 2571              		.loc 1 155 0
 2572 001a 2260     		str	r2, [r4]
 2573              		.loc 1 158 0
 2574 001c 6373     		strb	r3, [r4, #13]
 2575              	.LBE143:
 2576              	.LBE146:
 2577              		.loc 1 382 0
 2578 001e A673     		strb	r6, [r4, #14]
 2579              		.loc 1 381 0
 2580 0020 0191     		str	r1, [sp, #4]
 2581              	.LBB147:
 2582              	.LBB144:
 2583              		.loc 1 159 0
 2584 0022 FFF7FEFF 		bl	parameter_port_lock
 2585              	.LVL245:
 2586              		.loc 1 161 0
 2587 0026 6368     		ldr	r3, [r4, #4]
 2588              		.loc 1 163 0
 2589 0028 0199     		ldr	r1, [sp, #4]
 2590 002a 2A68     		ldr	r2, [r5]
 2591              		.loc 1 161 0
 2592 002c 5869     		ldr	r0, [r3, #20]
 2593 002e A060     		str	r0, [r4, #8]
 2594              		.loc 1 163 0
 2595 0030 9142     		cmp	r1, r2
 2596              		.loc 1 162 0
 2597 0032 5C61     		str	r4, [r3, #20]
 2598              		.loc 1 163 0
 2599 0034 04D1     		bne	.L269
 2600              	.LBE144:
 2601              	.LBE147:
 2602              		.loc 1 386 0
 2603 0036 02B0     		add	sp, sp, #8
 2604              		.cfi_remember_state
 2605              		.cfi_def_cfa_offset 16
 2606              		@ sp needed
 2607 0038 BDE87040 		pop	{r4, r5, r6, lr}
 2608              		.cfi_restore 14
 2609              		.cfi_restore 6
 2610              		.cfi_restore 5
 2611              		.cfi_restore 4
 2612              		.cfi_def_cfa_offset 0
 2613              	.LVL246:
 2614              	.LBB148:
 2615              	.LBB145:
 2616              		.loc 1 163 0
 2617 003c FFF7FEBF 		b	parameter_port_unlock
 2618              	.LVL247:
 2619              	.L269:
 2620              		.cfi_restore_state
 2621 0040 FFF7FEFF 		bl	__stack_chk_fail
 2622              	.LVL248:
ARM GAS  C:\Users\25521\AppData\Local\Temp\ccDmagyc.s 			page 47


 2623              	.L271:
 2624              		.align	2
 2625              	.L270:
 2626 0044 00000000 		.word	__stack_chk_guard
 2627              	.LBE145:
 2628              	.LBE148:
 2629              		.cfi_endproc
 2630              	.LFE29:
 2631              		.size	parameter_vector_declare, .-parameter_vector_declare
 2632              		.section	.text.parameter_vector_declare_with_default,"ax",%progbits
 2633              		.align	1
 2634              		.p2align 4,,15
 2635              		.global	parameter_vector_declare_with_default
 2636              		.syntax unified
 2637              		.thumb
 2638              		.thumb_func
 2639              		.fpu fpv4-sp-d16
 2640              		.type	parameter_vector_declare_with_default, %function
 2641              	parameter_vector_declare_with_default:
 2642              	.LFB30:
 2643              		.loc 1 393 0
 2644              		.cfi_startproc
 2645              		@ args = 4, pretend = 0, frame = 8
 2646              		@ frame_needed = 0, uses_anonymous_args = 0
 2647              	.LVL249:
 2648 0000 70B5     		push	{r4, r5, r6, lr}
 2649              		.cfi_def_cfa_offset 16
 2650              		.cfi_offset 4, -16
 2651              		.cfi_offset 5, -12
 2652              		.cfi_offset 6, -8
 2653              		.cfi_offset 14, -4
 2654 0002 0446     		mov	r4, r0
 2655 0004 82B0     		sub	sp, sp, #8
 2656              		.cfi_def_cfa_offset 24
 2657              		.loc 1 393 0
 2658 0006 114D     		ldr	r5, .L277
 2659 0008 BDF81800 		ldrh	r0, [sp, #24]
 2660              	.LVL250:
 2661              	.LBB149:
 2662              	.LBB150:
 2663              		.loc 1 383 0
 2664 000c 2361     		str	r3, [r4, #16]
 2665              		.loc 1 382 0
 2666 000e 0526     		movs	r6, #5
 2667              	.LBB151:
 2668              	.LBB152:
 2669              		.loc 1 157 0
 2670 0010 0023     		movs	r3, #0
 2671              	.LVL251:
 2672              		.loc 1 156 0
 2673 0012 6160     		str	r1, [r4, #4]
 2674              	.LBE152:
 2675              	.LBE151:
 2676              		.loc 1 384 0
 2677 0014 E082     		strh	r0, [r4, #22]	@ movhi
 2678              	.LBE150:
 2679              	.LBE149:
ARM GAS  C:\Users\25521\AppData\Local\Temp\ccDmagyc.s 			page 48


 2680              		.loc 1 393 0
 2681 0016 2968     		ldr	r1, [r5]
 2682              	.LVL252:
 2683              	.LBB159:
 2684              	.LBB157:
 2685              	.LBB155:
 2686              	.LBB153:
 2687              		.loc 1 157 0
 2688 0018 2373     		strb	r3, [r4, #12]
 2689              		.loc 1 155 0
 2690 001a 2260     		str	r2, [r4]
 2691              		.loc 1 158 0
 2692 001c 6373     		strb	r3, [r4, #13]
 2693              	.LBE153:
 2694              	.LBE155:
 2695              		.loc 1 382 0
 2696 001e A673     		strb	r6, [r4, #14]
 2697              	.LBE157:
 2698              	.LBE159:
 2699              		.loc 1 393 0
 2700 0020 0191     		str	r1, [sp, #4]
 2701              	.LVL253:
 2702              	.LBB160:
 2703              	.LBB158:
 2704              	.LBB156:
 2705              	.LBB154:
 2706              		.loc 1 159 0
 2707 0022 FFF7FEFF 		bl	parameter_port_lock
 2708              	.LVL254:
 2709              		.loc 1 161 0
 2710 0026 6368     		ldr	r3, [r4, #4]
 2711 0028 5A69     		ldr	r2, [r3, #20]
 2712 002a A260     		str	r2, [r4, #8]
 2713              		.loc 1 162 0
 2714 002c 5C61     		str	r4, [r3, #20]
 2715              		.loc 1 163 0
 2716 002e FFF7FEFF 		bl	parameter_port_unlock
 2717              	.LVL255:
 2718              	.LBE154:
 2719              	.LBE156:
 2720              	.LBE158:
 2721              	.LBE160:
 2722              		.loc 1 395 0
 2723 0032 019A     		ldr	r2, [sp, #4]
 2724 0034 2B68     		ldr	r3, [r5]
 2725 0036 9A42     		cmp	r2, r3
 2726 0038 05D1     		bne	.L276
 2727 003a 2046     		mov	r0, r4
 2728              		.loc 1 396 0
 2729 003c 02B0     		add	sp, sp, #8
 2730              		.cfi_remember_state
 2731              		.cfi_def_cfa_offset 16
 2732              		@ sp needed
 2733 003e BDE87040 		pop	{r4, r5, r6, lr}
 2734              		.cfi_restore 14
 2735              		.cfi_restore 6
 2736              		.cfi_restore 5
ARM GAS  C:\Users\25521\AppData\Local\Temp\ccDmagyc.s 			page 49


 2737              		.cfi_restore 4
 2738              		.cfi_def_cfa_offset 0
 2739              	.LVL256:
 2740              		.loc 1 395 0
 2741 0042 FFF7FEBF 		b	_parameter_changed_set
 2742              	.LVL257:
 2743              	.L276:
 2744              		.cfi_restore_state
 2745 0046 FFF7FEFF 		bl	__stack_chk_fail
 2746              	.LVL258:
 2747              	.L278:
 2748 004a 00BF     		.align	2
 2749              	.L277:
 2750 004c 00000000 		.word	__stack_chk_guard
 2751              		.cfi_endproc
 2752              	.LFE30:
 2753              		.size	parameter_vector_declare_with_default, .-parameter_vector_declare_with_default
 2754              		.section	.text.parameter_vector_dim,"ax",%progbits
 2755              		.align	1
 2756              		.p2align 4,,15
 2757              		.global	parameter_vector_dim
 2758              		.syntax unified
 2759              		.thumb
 2760              		.thumb_func
 2761              		.fpu fpv4-sp-d16
 2762              		.type	parameter_vector_dim, %function
 2763              	parameter_vector_dim:
 2764              	.LFB31:
 2765              		.loc 1 399 0
 2766              		.cfi_startproc
 2767              		@ args = 0, pretend = 0, frame = 8
 2768              		@ frame_needed = 0, uses_anonymous_args = 0
 2769              	.LVL259:
 2770 0000 30B5     		push	{r4, r5, lr}
 2771              		.cfi_def_cfa_offset 12
 2772              		.cfi_offset 4, -12
 2773              		.cfi_offset 5, -8
 2774              		.cfi_offset 14, -4
 2775 0002 0446     		mov	r4, r0
 2776              		.loc 1 400 0
 2777 0004 807B     		ldrb	r0, [r0, #14]	@ zero_extendqisi2
 2778              	.LVL260:
 2779              		.loc 1 399 0
 2780 0006 0A4D     		ldr	r5, .L283
 2781              		.loc 1 400 0
 2782 0008 A0F10500 		sub	r0, #5
 2783              		.loc 1 399 0
 2784 000c 83B0     		sub	sp, sp, #12
 2785              		.cfi_def_cfa_offset 24
 2786              		.loc 1 400 0
 2787 000e B0FA80F0 		clz	r0, r0
 2788              		.loc 1 399 0
 2789 0012 2B68     		ldr	r3, [r5]
 2790 0014 0193     		str	r3, [sp, #4]
 2791              		.loc 1 400 0
 2792 0016 4009     		lsrs	r0, r0, #5
 2793 0018 FFF7FEFF 		bl	parameter_port_assert
ARM GAS  C:\Users\25521\AppData\Local\Temp\ccDmagyc.s 			page 50


 2794              	.LVL261:
 2795              		.loc 1 402 0
 2796 001c 019A     		ldr	r2, [sp, #4]
 2797 001e 2B68     		ldr	r3, [r5]
 2798 0020 E08A     		ldrh	r0, [r4, #22]
 2799 0022 9A42     		cmp	r2, r3
 2800 0024 01D1     		bne	.L282
 2801 0026 03B0     		add	sp, sp, #12
 2802              		.cfi_remember_state
 2803              		.cfi_def_cfa_offset 12
 2804              		@ sp needed
 2805 0028 30BD     		pop	{r4, r5, pc}
 2806              	.LVL262:
 2807              	.L282:
 2808              		.cfi_restore_state
 2809 002a FFF7FEFF 		bl	__stack_chk_fail
 2810              	.LVL263:
 2811              	.L284:
 2812 002e 00BF     		.align	2
 2813              	.L283:
 2814 0030 00000000 		.word	__stack_chk_guard
 2815              		.cfi_endproc
 2816              	.LFE31:
 2817              		.size	parameter_vector_dim, .-parameter_vector_dim
 2818              		.section	.text.parameter_vector_read,"ax",%progbits
 2819              		.align	1
 2820              		.p2align 4,,15
 2821              		.global	parameter_vector_read
 2822              		.syntax unified
 2823              		.thumb
 2824              		.thumb_func
 2825              		.fpu fpv4-sp-d16
 2826              		.type	parameter_vector_read, %function
 2827              	parameter_vector_read:
 2828              	.LFB33:
 2829              		.loc 1 411 0
 2830              		.cfi_startproc
 2831              		@ args = 0, pretend = 0, frame = 8
 2832              		@ frame_needed = 0, uses_anonymous_args = 0
 2833              	.LVL264:
 2834 0000 70B5     		push	{r4, r5, r6, lr}
 2835              		.cfi_def_cfa_offset 16
 2836              		.cfi_offset 4, -16
 2837              		.cfi_offset 5, -12
 2838              		.cfi_offset 6, -8
 2839              		.cfi_offset 14, -4
 2840 0002 0446     		mov	r4, r0
 2841              		.loc 1 412 0
 2842 0004 807B     		ldrb	r0, [r0, #14]	@ zero_extendqisi2
 2843              	.LVL265:
 2844              		.loc 1 411 0
 2845 0006 154E     		ldr	r6, .L296
 2846              		.loc 1 412 0
 2847 0008 A0F10500 		sub	r0, #5
 2848              		.loc 1 411 0
 2849 000c 82B0     		sub	sp, sp, #8
 2850              		.cfi_def_cfa_offset 24
ARM GAS  C:\Users\25521\AppData\Local\Temp\ccDmagyc.s 			page 51


 2851              		.loc 1 412 0
 2852 000e B0FA80F0 		clz	r0, r0
 2853              		.loc 1 411 0
 2854 0012 3368     		ldr	r3, [r6]
 2855 0014 0193     		str	r3, [sp, #4]
 2856              		.loc 1 412 0
 2857 0016 4009     		lsrs	r0, r0, #5
 2858              		.loc 1 411 0
 2859 0018 0D46     		mov	r5, r1
 2860              		.loc 1 412 0
 2861 001a FFF7FEFF 		bl	parameter_port_assert
 2862              	.LVL266:
 2863              		.loc 1 413 0
 2864 001e FFF7FEFF 		bl	parameter_port_lock
 2865              	.LVL267:
 2866              		.loc 1 414 0
 2867 0022 607B     		ldrb	r0, [r4, #13]	@ zero_extendqisi2
 2868 0024 FFF7FEFF 		bl	parameter_port_assert
 2869              	.LVL268:
 2870              		.loc 1 416 0
 2871 0028 E38A     		ldrh	r3, [r4, #22]
 2872 002a 5BB1     		cbz	r3, .L286
 2873 002c 2946     		mov	r1, r5
 2874 002e 0023     		movs	r3, #0
 2875              	.LVL269:
 2876              	.L287:
 2877              		.loc 1 417 0 discriminator 3
 2878 0030 2269     		ldr	r2, [r4, #16]
 2879 0032 02EB8302 		add	r2, r2, r3, lsl #2
 2880              		.loc 1 416 0 discriminator 3
 2881 0036 0133     		adds	r3, r3, #1
 2882              	.LVL270:
 2883              		.loc 1 417 0 discriminator 3
 2884 0038 1268     		ldr	r2, [r2]	@ float
 2885 003a 41F8042B 		str	r2, [r1], #4	@ float
 2886              		.loc 1 416 0 discriminator 3
 2887 003e E28A     		ldrh	r2, [r4, #22]
 2888 0040 9A42     		cmp	r2, r3
 2889 0042 F5DC     		bgt	.L287
 2890              	.LVL271:
 2891              	.L286:
 2892              		.loc 1 419 0
 2893 0044 019A     		ldr	r2, [sp, #4]
 2894 0046 3368     		ldr	r3, [r6]
 2895 0048 9A42     		cmp	r2, r3
 2896 004a 04D1     		bne	.L295
 2897              		.loc 1 420 0
 2898 004c 02B0     		add	sp, sp, #8
 2899              		.cfi_remember_state
 2900              		.cfi_def_cfa_offset 16
 2901              		@ sp needed
 2902 004e BDE87040 		pop	{r4, r5, r6, lr}
 2903              		.cfi_restore 14
 2904              		.cfi_restore 6
 2905              		.cfi_restore 5
 2906              		.cfi_restore 4
 2907              		.cfi_def_cfa_offset 0
ARM GAS  C:\Users\25521\AppData\Local\Temp\ccDmagyc.s 			page 52


 2908              	.LVL272:
 2909              		.loc 1 419 0
 2910 0052 FFF7FEBF 		b	parameter_port_unlock
 2911              	.LVL273:
 2912              	.L295:
 2913              		.cfi_restore_state
 2914 0056 FFF7FEFF 		bl	__stack_chk_fail
 2915              	.LVL274:
 2916              	.L297:
 2917 005a 00BF     		.align	2
 2918              	.L296:
 2919 005c 00000000 		.word	__stack_chk_guard
 2920              		.cfi_endproc
 2921              	.LFE33:
 2922              		.size	parameter_vector_read, .-parameter_vector_read
 2923              		.section	.text.parameter_vector_get,"ax",%progbits
 2924              		.align	1
 2925              		.p2align 4,,15
 2926              		.global	parameter_vector_get
 2927              		.syntax unified
 2928              		.thumb
 2929              		.thumb_func
 2930              		.fpu fpv4-sp-d16
 2931              		.type	parameter_vector_get, %function
 2932              	parameter_vector_get:
 2933              	.LFB32:
 2934              		.loc 1 405 0
 2935              		.cfi_startproc
 2936              		@ args = 0, pretend = 0, frame = 8
 2937              		@ frame_needed = 0, uses_anonymous_args = 0
 2938              	.LVL275:
 2939 0000 70B5     		push	{r4, r5, r6, lr}
 2940              		.cfi_def_cfa_offset 16
 2941              		.cfi_offset 4, -16
 2942              		.cfi_offset 5, -12
 2943              		.cfi_offset 6, -8
 2944              		.cfi_offset 14, -4
 2945 0002 0A4C     		ldr	r4, .L303
 2946 0004 82B0     		sub	sp, sp, #8
 2947              		.cfi_def_cfa_offset 24
 2948              		.loc 1 405 0
 2949 0006 2368     		ldr	r3, [r4]
 2950 0008 0193     		str	r3, [sp, #4]
 2951 000a 0E46     		mov	r6, r1
 2952 000c 0546     		mov	r5, r0
 2953              		.loc 1 406 0
 2954 000e FFF7FEFF 		bl	_parameter_changed_clear
 2955              	.LVL276:
 2956              		.loc 1 407 0
 2957 0012 019A     		ldr	r2, [sp, #4]
 2958 0014 2368     		ldr	r3, [r4]
 2959 0016 9A42     		cmp	r2, r3
 2960 0018 06D1     		bne	.L302
 2961 001a 3146     		mov	r1, r6
 2962 001c 2846     		mov	r0, r5
 2963              		.loc 1 408 0
 2964 001e 02B0     		add	sp, sp, #8
ARM GAS  C:\Users\25521\AppData\Local\Temp\ccDmagyc.s 			page 53


 2965              		.cfi_remember_state
 2966              		.cfi_def_cfa_offset 16
 2967              		@ sp needed
 2968 0020 BDE87040 		pop	{r4, r5, r6, lr}
 2969              		.cfi_restore 14
 2970              		.cfi_restore 6
 2971              		.cfi_restore 5
 2972              		.cfi_restore 4
 2973              		.cfi_def_cfa_offset 0
 2974              	.LVL277:
 2975              		.loc 1 407 0
 2976 0024 FFF7FEBF 		b	parameter_vector_read
 2977              	.LVL278:
 2978              	.L302:
 2979              		.cfi_restore_state
 2980 0028 FFF7FEFF 		bl	__stack_chk_fail
 2981              	.LVL279:
 2982              	.L304:
 2983              		.align	2
 2984              	.L303:
 2985 002c 00000000 		.word	__stack_chk_guard
 2986              		.cfi_endproc
 2987              	.LFE32:
 2988              		.size	parameter_vector_get, .-parameter_vector_get
 2989              		.section	.text.parameter_vector_set,"ax",%progbits
 2990              		.align	1
 2991              		.p2align 4,,15
 2992              		.global	parameter_vector_set
 2993              		.syntax unified
 2994              		.thumb
 2995              		.thumb_func
 2996              		.fpu fpv4-sp-d16
 2997              		.type	parameter_vector_set, %function
 2998              	parameter_vector_set:
 2999              	.LFB34:
 3000              		.loc 1 423 0
 3001              		.cfi_startproc
 3002              		@ args = 0, pretend = 0, frame = 8
 3003              		@ frame_needed = 0, uses_anonymous_args = 0
 3004              	.LVL280:
 3005 0000 70B5     		push	{r4, r5, r6, lr}
 3006              		.cfi_def_cfa_offset 16
 3007              		.cfi_offset 4, -16
 3008              		.cfi_offset 5, -12
 3009              		.cfi_offset 6, -8
 3010              		.cfi_offset 14, -4
 3011 0002 0446     		mov	r4, r0
 3012              		.loc 1 424 0
 3013 0004 807B     		ldrb	r0, [r0, #14]	@ zero_extendqisi2
 3014              	.LVL281:
 3015              		.loc 1 423 0
 3016 0006 154E     		ldr	r6, .L316
 3017              		.loc 1 424 0
 3018 0008 A0F10500 		sub	r0, #5
 3019              		.loc 1 423 0
 3020 000c 82B0     		sub	sp, sp, #8
 3021              		.cfi_def_cfa_offset 24
ARM GAS  C:\Users\25521\AppData\Local\Temp\ccDmagyc.s 			page 54


 3022              		.loc 1 424 0
 3023 000e B0FA80F0 		clz	r0, r0
 3024              		.loc 1 423 0
 3025 0012 3368     		ldr	r3, [r6]
 3026 0014 0193     		str	r3, [sp, #4]
 3027              		.loc 1 424 0
 3028 0016 4009     		lsrs	r0, r0, #5
 3029              		.loc 1 423 0
 3030 0018 0D46     		mov	r5, r1
 3031              		.loc 1 424 0
 3032 001a FFF7FEFF 		bl	parameter_port_assert
 3033              	.LVL282:
 3034              		.loc 1 425 0
 3035 001e FFF7FEFF 		bl	parameter_port_lock
 3036              	.LVL283:
 3037              		.loc 1 427 0
 3038 0022 E38A     		ldrh	r3, [r4, #22]
 3039 0024 5BB1     		cbz	r3, .L306
 3040 0026 2946     		mov	r1, r5
 3041 0028 0023     		movs	r3, #0
 3042              	.LVL284:
 3043              	.L307:
 3044              		.loc 1 428 0 discriminator 3
 3045 002a 2269     		ldr	r2, [r4, #16]
 3046 002c 51F8040B 		ldr	r0, [r1], #4	@ float
 3047 0030 02EB8302 		add	r2, r2, r3, lsl #2
 3048              		.loc 1 427 0 discriminator 3
 3049 0034 0133     		adds	r3, r3, #1
 3050              	.LVL285:
 3051              		.loc 1 428 0 discriminator 3
 3052 0036 1060     		str	r0, [r2]	@ float
 3053              		.loc 1 427 0 discriminator 3
 3054 0038 E28A     		ldrh	r2, [r4, #22]
 3055 003a 9A42     		cmp	r2, r3
 3056 003c F5DC     		bgt	.L307
 3057              	.LVL286:
 3058              	.L306:
 3059              		.loc 1 430 0
 3060 003e FFF7FEFF 		bl	parameter_port_unlock
 3061              	.LVL287:
 3062              		.loc 1 431 0
 3063 0042 019A     		ldr	r2, [sp, #4]
 3064 0044 3368     		ldr	r3, [r6]
 3065 0046 9A42     		cmp	r2, r3
 3066 0048 05D1     		bne	.L315
 3067 004a 2046     		mov	r0, r4
 3068              		.loc 1 432 0
 3069 004c 02B0     		add	sp, sp, #8
 3070              		.cfi_remember_state
 3071              		.cfi_def_cfa_offset 16
 3072              		@ sp needed
 3073 004e BDE87040 		pop	{r4, r5, r6, lr}
 3074              		.cfi_restore 14
 3075              		.cfi_restore 6
 3076              		.cfi_restore 5
 3077              		.cfi_restore 4
 3078              		.cfi_def_cfa_offset 0
ARM GAS  C:\Users\25521\AppData\Local\Temp\ccDmagyc.s 			page 55


 3079              	.LVL288:
 3080              		.loc 1 431 0
 3081 0052 FFF7FEBF 		b	_parameter_changed_set
 3082              	.LVL289:
 3083              	.L315:
 3084              		.cfi_restore_state
 3085 0056 FFF7FEFF 		bl	__stack_chk_fail
 3086              	.LVL290:
 3087              	.L317:
 3088 005a 00BF     		.align	2
 3089              	.L316:
 3090 005c 00000000 		.word	__stack_chk_guard
 3091              		.cfi_endproc
 3092              	.LFE34:
 3093              		.size	parameter_vector_set, .-parameter_vector_set
 3094              		.section	.text.parameter_variable_vector_declare,"ax",%progbits
 3095              		.align	1
 3096              		.p2align 4,,15
 3097              		.global	parameter_variable_vector_declare
 3098              		.syntax unified
 3099              		.thumb
 3100              		.thumb_func
 3101              		.fpu fpv4-sp-d16
 3102              		.type	parameter_variable_vector_declare, %function
 3103              	parameter_variable_vector_declare:
 3104              	.LFB35:
 3105              		.loc 1 444 0
 3106              		.cfi_startproc
 3107              		@ args = 4, pretend = 0, frame = 8
 3108              		@ frame_needed = 0, uses_anonymous_args = 0
 3109              	.LVL291:
 3110 0000 70B5     		push	{r4, r5, r6, lr}
 3111              		.cfi_def_cfa_offset 16
 3112              		.cfi_offset 4, -16
 3113              		.cfi_offset 5, -12
 3114              		.cfi_offset 6, -8
 3115              		.cfi_offset 14, -4
 3116 0002 0446     		mov	r4, r0
 3117 0004 82B0     		sub	sp, sp, #8
 3118              		.cfi_def_cfa_offset 24
 3119              		.loc 1 444 0
 3120 0006 0F4D     		ldr	r5, .L323
 3121 0008 BDF81800 		ldrh	r0, [sp, #24]
 3122              	.LVL292:
 3123              		.loc 1 446 0
 3124 000c 2361     		str	r3, [r4, #16]
 3125              		.loc 1 445 0
 3126 000e 0626     		movs	r6, #6
 3127              	.LBB161:
 3128              	.LBB162:
 3129              		.loc 1 157 0
 3130 0010 0023     		movs	r3, #0
 3131              	.LVL293:
 3132              		.loc 1 156 0
 3133 0012 6160     		str	r1, [r4, #4]
 3134              	.LBE162:
 3135              	.LBE161:
ARM GAS  C:\Users\25521\AppData\Local\Temp\ccDmagyc.s 			page 56


 3136              		.loc 1 447 0
 3137 0014 A082     		strh	r0, [r4, #20]	@ movhi
 3138              	.LVL294:
 3139              		.loc 1 444 0
 3140 0016 2968     		ldr	r1, [r5]
 3141              	.LVL295:
 3142              	.LBB166:
 3143              	.LBB163:
 3144              		.loc 1 157 0
 3145 0018 2373     		strb	r3, [r4, #12]
 3146              		.loc 1 155 0
 3147 001a 2260     		str	r2, [r4]
 3148              		.loc 1 158 0
 3149 001c 6373     		strb	r3, [r4, #13]
 3150              	.LBE163:
 3151              	.LBE166:
 3152              		.loc 1 445 0
 3153 001e A673     		strb	r6, [r4, #14]
 3154              		.loc 1 444 0
 3155 0020 0191     		str	r1, [sp, #4]
 3156              	.LBB167:
 3157              	.LBB164:
 3158              		.loc 1 159 0
 3159 0022 FFF7FEFF 		bl	parameter_port_lock
 3160              	.LVL296:
 3161              		.loc 1 161 0
 3162 0026 6368     		ldr	r3, [r4, #4]
 3163              		.loc 1 163 0
 3164 0028 0199     		ldr	r1, [sp, #4]
 3165 002a 2A68     		ldr	r2, [r5]
 3166              		.loc 1 161 0
 3167 002c 5869     		ldr	r0, [r3, #20]
 3168 002e A060     		str	r0, [r4, #8]
 3169              		.loc 1 163 0
 3170 0030 9142     		cmp	r1, r2
 3171              		.loc 1 162 0
 3172 0032 5C61     		str	r4, [r3, #20]
 3173              		.loc 1 163 0
 3174 0034 04D1     		bne	.L322
 3175              	.LBE164:
 3176              	.LBE167:
 3177              		.loc 1 449 0
 3178 0036 02B0     		add	sp, sp, #8
 3179              		.cfi_remember_state
 3180              		.cfi_def_cfa_offset 16
 3181              		@ sp needed
 3182 0038 BDE87040 		pop	{r4, r5, r6, lr}
 3183              		.cfi_restore 14
 3184              		.cfi_restore 6
 3185              		.cfi_restore 5
 3186              		.cfi_restore 4
 3187              		.cfi_def_cfa_offset 0
 3188              	.LVL297:
 3189              	.LBB168:
 3190              	.LBB165:
 3191              		.loc 1 163 0
 3192 003c FFF7FEBF 		b	parameter_port_unlock
ARM GAS  C:\Users\25521\AppData\Local\Temp\ccDmagyc.s 			page 57


 3193              	.LVL298:
 3194              	.L322:
 3195              		.cfi_restore_state
 3196 0040 FFF7FEFF 		bl	__stack_chk_fail
 3197              	.LVL299:
 3198              	.L324:
 3199              		.align	2
 3200              	.L323:
 3201 0044 00000000 		.word	__stack_chk_guard
 3202              	.LBE165:
 3203              	.LBE168:
 3204              		.cfi_endproc
 3205              	.LFE35:
 3206              		.size	parameter_variable_vector_declare, .-parameter_variable_vector_declare
 3207              		.section	.text.parameter_variable_vector_declare_with_default,"ax",%progbits
 3208              		.align	1
 3209              		.p2align 4,,15
 3210              		.global	parameter_variable_vector_declare_with_default
 3211              		.syntax unified
 3212              		.thumb
 3213              		.thumb_func
 3214              		.fpu fpv4-sp-d16
 3215              		.type	parameter_variable_vector_declare_with_default, %function
 3216              	parameter_variable_vector_declare_with_default:
 3217              	.LFB36:
 3218              		.loc 1 457 0
 3219              		.cfi_startproc
 3220              		@ args = 8, pretend = 0, frame = 8
 3221              		@ frame_needed = 0, uses_anonymous_args = 0
 3222              	.LVL300:
 3223 0000 F0B5     		push	{r4, r5, r6, r7, lr}
 3224              		.cfi_def_cfa_offset 20
 3225              		.cfi_offset 4, -20
 3226              		.cfi_offset 5, -16
 3227              		.cfi_offset 6, -12
 3228              		.cfi_offset 7, -8
 3229              		.cfi_offset 14, -4
 3230 0002 83B0     		sub	sp, sp, #12
 3231              		.cfi_def_cfa_offset 32
 3232              		.loc 1 457 0
 3233 0004 0446     		mov	r4, r0
 3234 0006 154E     		ldr	r6, .L330
 3235              	.LBB169:
 3236              	.LBB170:
 3237              		.loc 1 446 0
 3238 0008 0361     		str	r3, [r0, #16]
 3239              	.LBE170:
 3240              	.LBE169:
 3241              		.loc 1 457 0
 3242 000a BDF82070 		ldrh	r7, [sp, #32]
 3243              	.LBB182:
 3244              	.LBB179:
 3245              	.LBB171:
 3246              	.LBB172:
 3247              		.loc 1 156 0
 3248 000e 6160     		str	r1, [r4, #4]
 3249              	.LBE172:
ARM GAS  C:\Users\25521\AppData\Local\Temp\ccDmagyc.s 			page 58


 3250              	.LBE171:
 3251              		.loc 1 445 0
 3252 0010 0620     		movs	r0, #6
 3253              	.LVL301:
 3254              	.LBB176:
 3255              	.LBB173:
 3256              		.loc 1 157 0
 3257 0012 0023     		movs	r3, #0
 3258              	.LVL302:
 3259              	.LBE173:
 3260              	.LBE176:
 3261              		.loc 1 445 0
 3262 0014 A073     		strb	r0, [r4, #14]
 3263              	.LBE179:
 3264              	.LBE182:
 3265              		.loc 1 457 0
 3266 0016 3168     		ldr	r1, [r6]
 3267              	.LVL303:
 3268              	.LBB183:
 3269              	.LBB180:
 3270              	.LBB177:
 3271              	.LBB174:
 3272              		.loc 1 157 0
 3273 0018 2373     		strb	r3, [r4, #12]
 3274              		.loc 1 155 0
 3275 001a 2260     		str	r2, [r4]
 3276              		.loc 1 158 0
 3277 001c 6373     		strb	r3, [r4, #13]
 3278              	.LBE174:
 3279              	.LBE177:
 3280              		.loc 1 447 0
 3281 001e A782     		strh	r7, [r4, #20]	@ movhi
 3282              	.LBE180:
 3283              	.LBE183:
 3284              		.loc 1 457 0
 3285 0020 0191     		str	r1, [sp, #4]
 3286              	.LVL304:
 3287 0022 BDF82450 		ldrh	r5, [sp, #36]
 3288              	.LBB184:
 3289              	.LBB181:
 3290              	.LBB178:
 3291              	.LBB175:
 3292              		.loc 1 159 0
 3293 0026 FFF7FEFF 		bl	parameter_port_lock
 3294              	.LVL305:
 3295              		.loc 1 161 0
 3296 002a 6368     		ldr	r3, [r4, #4]
 3297 002c 5A69     		ldr	r2, [r3, #20]
 3298 002e A260     		str	r2, [r4, #8]
 3299              		.loc 1 162 0
 3300 0030 5C61     		str	r4, [r3, #20]
 3301              		.loc 1 163 0
 3302 0032 FFF7FEFF 		bl	parameter_port_unlock
 3303              	.LVL306:
 3304              	.LBE175:
 3305              	.LBE178:
 3306              	.LBE181:
ARM GAS  C:\Users\25521\AppData\Local\Temp\ccDmagyc.s 			page 59


 3307              	.LBE184:
 3308              		.loc 1 459 0
 3309 0036 AF42     		cmp	r7, r5
 3310 0038 34BF     		ite	cc
 3311 003a 0020     		movcc	r0, #0
 3312 003c 0120     		movcs	r0, #1
 3313 003e FFF7FEFF 		bl	parameter_port_assert
 3314              	.LVL307:
 3315              		.loc 1 461 0
 3316 0042 019A     		ldr	r2, [sp, #4]
 3317 0044 3368     		ldr	r3, [r6]
 3318              		.loc 1 460 0
 3319 0046 E582     		strh	r5, [r4, #22]	@ movhi
 3320              		.loc 1 461 0
 3321 0048 9A42     		cmp	r2, r3
 3322 004a 05D1     		bne	.L329
 3323 004c 2046     		mov	r0, r4
 3324              		.loc 1 462 0
 3325 004e 03B0     		add	sp, sp, #12
 3326              		.cfi_remember_state
 3327              		.cfi_def_cfa_offset 20
 3328              		@ sp needed
 3329 0050 BDE8F040 		pop	{r4, r5, r6, r7, lr}
 3330              		.cfi_restore 14
 3331              		.cfi_restore 7
 3332              		.cfi_restore 6
 3333              		.cfi_restore 5
 3334              		.cfi_restore 4
 3335              		.cfi_def_cfa_offset 0
 3336              	.LVL308:
 3337              		.loc 1 461 0
 3338 0054 FFF7FEBF 		b	_parameter_changed_set
 3339              	.LVL309:
 3340              	.L329:
 3341              		.cfi_restore_state
 3342 0058 FFF7FEFF 		bl	__stack_chk_fail
 3343              	.LVL310:
 3344              	.L331:
 3345              		.align	2
 3346              	.L330:
 3347 005c 00000000 		.word	__stack_chk_guard
 3348              		.cfi_endproc
 3349              	.LFE36:
 3350              		.size	parameter_variable_vector_declare_with_default, .-parameter_variable_vector_declare_with_def
 3351              		.section	.text.parameter_variable_vector_max_dim,"ax",%progbits
 3352              		.align	1
 3353              		.p2align 4,,15
 3354              		.global	parameter_variable_vector_max_dim
 3355              		.syntax unified
 3356              		.thumb
 3357              		.thumb_func
 3358              		.fpu fpv4-sp-d16
 3359              		.type	parameter_variable_vector_max_dim, %function
 3360              	parameter_variable_vector_max_dim:
 3361              	.LFB37:
 3362              		.loc 1 465 0
 3363              		.cfi_startproc
ARM GAS  C:\Users\25521\AppData\Local\Temp\ccDmagyc.s 			page 60


 3364              		@ args = 0, pretend = 0, frame = 8
 3365              		@ frame_needed = 0, uses_anonymous_args = 0
 3366              	.LVL311:
 3367 0000 30B5     		push	{r4, r5, lr}
 3368              		.cfi_def_cfa_offset 12
 3369              		.cfi_offset 4, -12
 3370              		.cfi_offset 5, -8
 3371              		.cfi_offset 14, -4
 3372 0002 0446     		mov	r4, r0
 3373              		.loc 1 466 0
 3374 0004 807B     		ldrb	r0, [r0, #14]	@ zero_extendqisi2
 3375              	.LVL312:
 3376              		.loc 1 465 0
 3377 0006 0A4D     		ldr	r5, .L336
 3378              		.loc 1 466 0
 3379 0008 A0F10600 		sub	r0, #6
 3380              		.loc 1 465 0
 3381 000c 83B0     		sub	sp, sp, #12
 3382              		.cfi_def_cfa_offset 24
 3383              		.loc 1 466 0
 3384 000e B0FA80F0 		clz	r0, r0
 3385              		.loc 1 465 0
 3386 0012 2B68     		ldr	r3, [r5]
 3387 0014 0193     		str	r3, [sp, #4]
 3388              		.loc 1 466 0
 3389 0016 4009     		lsrs	r0, r0, #5
 3390 0018 FFF7FEFF 		bl	parameter_port_assert
 3391              	.LVL313:
 3392              		.loc 1 468 0
 3393 001c 019A     		ldr	r2, [sp, #4]
 3394 001e 2B68     		ldr	r3, [r5]
 3395 0020 A08A     		ldrh	r0, [r4, #20]
 3396 0022 9A42     		cmp	r2, r3
 3397 0024 01D1     		bne	.L335
 3398 0026 03B0     		add	sp, sp, #12
 3399              		.cfi_remember_state
 3400              		.cfi_def_cfa_offset 12
 3401              		@ sp needed
 3402 0028 30BD     		pop	{r4, r5, pc}
 3403              	.LVL314:
 3404              	.L335:
 3405              		.cfi_restore_state
 3406 002a FFF7FEFF 		bl	__stack_chk_fail
 3407              	.LVL315:
 3408              	.L337:
 3409 002e 00BF     		.align	2
 3410              	.L336:
 3411 0030 00000000 		.word	__stack_chk_guard
 3412              		.cfi_endproc
 3413              	.LFE37:
 3414              		.size	parameter_variable_vector_max_dim, .-parameter_variable_vector_max_dim
 3415              		.section	.text.parameter_variable_vector_read,"ax",%progbits
 3416              		.align	1
 3417              		.p2align 4,,15
 3418              		.global	parameter_variable_vector_read
 3419              		.syntax unified
 3420              		.thumb
ARM GAS  C:\Users\25521\AppData\Local\Temp\ccDmagyc.s 			page 61


 3421              		.thumb_func
 3422              		.fpu fpv4-sp-d16
 3423              		.type	parameter_variable_vector_read, %function
 3424              	parameter_variable_vector_read:
 3425              	.LFB39:
 3426              		.loc 1 477 0
 3427              		.cfi_startproc
 3428              		@ args = 0, pretend = 0, frame = 8
 3429              		@ frame_needed = 0, uses_anonymous_args = 0
 3430              	.LVL316:
 3431 0000 F0B5     		push	{r4, r5, r6, r7, lr}
 3432              		.cfi_def_cfa_offset 20
 3433              		.cfi_offset 4, -20
 3434              		.cfi_offset 5, -16
 3435              		.cfi_offset 6, -12
 3436              		.cfi_offset 7, -8
 3437              		.cfi_offset 14, -4
 3438 0002 0446     		mov	r4, r0
 3439              		.loc 1 478 0
 3440 0004 807B     		ldrb	r0, [r0, #14]	@ zero_extendqisi2
 3441              	.LVL317:
 3442              		.loc 1 477 0
 3443 0006 154F     		ldr	r7, .L348
 3444              		.loc 1 478 0
 3445 0008 A0F10600 		sub	r0, #6
 3446              		.loc 1 477 0
 3447 000c 83B0     		sub	sp, sp, #12
 3448              		.cfi_def_cfa_offset 32
 3449              		.loc 1 478 0
 3450 000e B0FA80F0 		clz	r0, r0
 3451              		.loc 1 477 0
 3452 0012 3B68     		ldr	r3, [r7]
 3453 0014 0193     		str	r3, [sp, #4]
 3454              		.loc 1 478 0
 3455 0016 4009     		lsrs	r0, r0, #5
 3456              		.loc 1 477 0
 3457 0018 0E46     		mov	r6, r1
 3458              		.loc 1 478 0
 3459 001a FFF7FEFF 		bl	parameter_port_assert
 3460              	.LVL318:
 3461              		.loc 1 479 0
 3462 001e FFF7FEFF 		bl	parameter_port_lock
 3463              	.LVL319:
 3464              		.loc 1 480 0
 3465 0022 607B     		ldrb	r0, [r4, #13]	@ zero_extendqisi2
 3466 0024 FFF7FEFF 		bl	parameter_port_assert
 3467              	.LVL320:
 3468              		.loc 1 482 0
 3469 0028 E58A     		ldrh	r5, [r4, #22]
 3470 002a 5DB1     		cbz	r5, .L339
 3471 002c 3146     		mov	r1, r6
 3472 002e 0023     		movs	r3, #0
 3473              	.LVL321:
 3474              	.L340:
 3475              		.loc 1 483 0 discriminator 3
 3476 0030 2269     		ldr	r2, [r4, #16]
 3477 0032 02EB8302 		add	r2, r2, r3, lsl #2
ARM GAS  C:\Users\25521\AppData\Local\Temp\ccDmagyc.s 			page 62


 3478              		.loc 1 482 0 discriminator 3
 3479 0036 0133     		adds	r3, r3, #1
 3480              	.LVL322:
 3481              		.loc 1 483 0 discriminator 3
 3482 0038 1268     		ldr	r2, [r2]	@ float
 3483 003a 41F8042B 		str	r2, [r1], #4	@ float
 3484              		.loc 1 482 0 discriminator 3
 3485 003e E58A     		ldrh	r5, [r4, #22]
 3486 0040 9D42     		cmp	r5, r3
 3487 0042 F5DC     		bgt	.L340
 3488              	.LVL323:
 3489              	.L339:
 3490              		.loc 1 486 0
 3491 0044 FFF7FEFF 		bl	parameter_port_unlock
 3492              	.LVL324:
 3493              		.loc 1 488 0
 3494 0048 019A     		ldr	r2, [sp, #4]
 3495 004a 3B68     		ldr	r3, [r7]
 3496 004c 9A42     		cmp	r2, r3
 3497 004e 2846     		mov	r0, r5
 3498 0050 01D1     		bne	.L347
 3499 0052 03B0     		add	sp, sp, #12
 3500              		.cfi_remember_state
 3501              		.cfi_def_cfa_offset 20
 3502              		@ sp needed
 3503 0054 F0BD     		pop	{r4, r5, r6, r7, pc}
 3504              	.LVL325:
 3505              	.L347:
 3506              		.cfi_restore_state
 3507 0056 FFF7FEFF 		bl	__stack_chk_fail
 3508              	.LVL326:
 3509              	.L349:
 3510 005a 00BF     		.align	2
 3511              	.L348:
 3512 005c 00000000 		.word	__stack_chk_guard
 3513              		.cfi_endproc
 3514              	.LFE39:
 3515              		.size	parameter_variable_vector_read, .-parameter_variable_vector_read
 3516              		.section	.text.parameter_variable_vector_get,"ax",%progbits
 3517              		.align	1
 3518              		.p2align 4,,15
 3519              		.global	parameter_variable_vector_get
 3520              		.syntax unified
 3521              		.thumb
 3522              		.thumb_func
 3523              		.fpu fpv4-sp-d16
 3524              		.type	parameter_variable_vector_get, %function
 3525              	parameter_variable_vector_get:
 3526              	.LFB38:
 3527              		.loc 1 471 0
 3528              		.cfi_startproc
 3529              		@ args = 0, pretend = 0, frame = 8
 3530              		@ frame_needed = 0, uses_anonymous_args = 0
 3531              	.LVL327:
 3532 0000 70B5     		push	{r4, r5, r6, lr}
 3533              		.cfi_def_cfa_offset 16
 3534              		.cfi_offset 4, -16
ARM GAS  C:\Users\25521\AppData\Local\Temp\ccDmagyc.s 			page 63


 3535              		.cfi_offset 5, -12
 3536              		.cfi_offset 6, -8
 3537              		.cfi_offset 14, -4
 3538 0002 0A4C     		ldr	r4, .L355
 3539 0004 82B0     		sub	sp, sp, #8
 3540              		.cfi_def_cfa_offset 24
 3541              		.loc 1 471 0
 3542 0006 2368     		ldr	r3, [r4]
 3543 0008 0193     		str	r3, [sp, #4]
 3544 000a 0E46     		mov	r6, r1
 3545 000c 0546     		mov	r5, r0
 3546              		.loc 1 472 0
 3547 000e FFF7FEFF 		bl	_parameter_changed_clear
 3548              	.LVL328:
 3549              		.loc 1 473 0
 3550 0012 019A     		ldr	r2, [sp, #4]
 3551 0014 2368     		ldr	r3, [r4]
 3552 0016 9A42     		cmp	r2, r3
 3553 0018 06D1     		bne	.L354
 3554 001a 3146     		mov	r1, r6
 3555 001c 2846     		mov	r0, r5
 3556              		.loc 1 474 0
 3557 001e 02B0     		add	sp, sp, #8
 3558              		.cfi_remember_state
 3559              		.cfi_def_cfa_offset 16
 3560              		@ sp needed
 3561 0020 BDE87040 		pop	{r4, r5, r6, lr}
 3562              		.cfi_restore 14
 3563              		.cfi_restore 6
 3564              		.cfi_restore 5
 3565              		.cfi_restore 4
 3566              		.cfi_def_cfa_offset 0
 3567              	.LVL329:
 3568              		.loc 1 473 0
 3569 0024 FFF7FEBF 		b	parameter_variable_vector_read
 3570              	.LVL330:
 3571              	.L354:
 3572              		.cfi_restore_state
 3573 0028 FFF7FEFF 		bl	__stack_chk_fail
 3574              	.LVL331:
 3575              	.L356:
 3576              		.align	2
 3577              	.L355:
 3578 002c 00000000 		.word	__stack_chk_guard
 3579              		.cfi_endproc
 3580              	.LFE38:
 3581              		.size	parameter_variable_vector_get, .-parameter_variable_vector_get
 3582              		.section	.text.parameter_variable_vector_set,"ax",%progbits
 3583              		.align	1
 3584              		.p2align 4,,15
 3585              		.global	parameter_variable_vector_set
 3586              		.syntax unified
 3587              		.thumb
 3588              		.thumb_func
 3589              		.fpu fpv4-sp-d16
 3590              		.type	parameter_variable_vector_set, %function
 3591              	parameter_variable_vector_set:
ARM GAS  C:\Users\25521\AppData\Local\Temp\ccDmagyc.s 			page 64


 3592              	.LFB40:
 3593              		.loc 1 491 0
 3594              		.cfi_startproc
 3595              		@ args = 0, pretend = 0, frame = 8
 3596              		@ frame_needed = 0, uses_anonymous_args = 0
 3597              	.LVL332:
 3598 0000 2DE9F043 		push	{r4, r5, r6, r7, r8, r9, lr}
 3599              		.cfi_def_cfa_offset 28
 3600              		.cfi_offset 4, -28
 3601              		.cfi_offset 5, -24
 3602              		.cfi_offset 6, -20
 3603              		.cfi_offset 7, -16
 3604              		.cfi_offset 8, -12
 3605              		.cfi_offset 9, -8
 3606              		.cfi_offset 14, -4
 3607 0004 0646     		mov	r6, r0
 3608              		.loc 1 492 0
 3609 0006 807B     		ldrb	r0, [r0, #14]	@ zero_extendqisi2
 3610              	.LVL333:
 3611              		.loc 1 491 0
 3612 0008 DFF86C80 		ldr	r8, .L368
 3613              		.loc 1 492 0
 3614 000c A0F10600 		sub	r0, #6
 3615              		.loc 1 491 0
 3616 0010 83B0     		sub	sp, sp, #12
 3617              		.cfi_def_cfa_offset 40
 3618              		.loc 1 492 0
 3619 0012 B0FA80F0 		clz	r0, r0
 3620              		.loc 1 491 0
 3621 0016 D8F80030 		ldr	r3, [r8]
 3622 001a 0193     		str	r3, [sp, #4]
 3623              		.loc 1 492 0
 3624 001c 4009     		lsrs	r0, r0, #5
 3625              		.loc 1 491 0
 3626 001e 9146     		mov	r9, r2
 3627 0020 0F46     		mov	r7, r1
 3628              		.loc 1 492 0
 3629 0022 FFF7FEFF 		bl	parameter_port_assert
 3630              	.LVL334:
 3631              		.loc 1 493 0
 3632 0026 FFF7FEFF 		bl	parameter_port_lock
 3633              	.LVL335:
 3634              		.loc 1 494 0
 3635 002a B08A     		ldrh	r0, [r6, #20]
 3636 002c 4845     		cmp	r0, r9
 3637 002e 34BF     		ite	cc
 3638 0030 0020     		movcc	r0, #0
 3639 0032 0120     		movcs	r0, #1
 3640 0034 FFF7FEFF 		bl	parameter_port_assert
 3641              	.LVL336:
 3642              		.loc 1 496 0
 3643 0038 B9F1000F 		cmp	r9, #0
 3644 003c 0AD0     		beq	.L358
 3645 003e 07EB8901 		add	r1, r7, r9, lsl #2
 3646 0042 3B46     		mov	r3, r7
 3647              	.LVL337:
 3648              	.L359:
ARM GAS  C:\Users\25521\AppData\Local\Temp\ccDmagyc.s 			page 65


 3649              		.loc 1 497 0 discriminator 3
 3650 0044 3069     		ldr	r0, [r6, #16]
 3651 0046 DD1B     		subs	r5, r3, r7
 3652 0048 53F8044B 		ldr	r4, [r3], #4	@ float
 3653 004c 2844     		add	r0, r0, r5
 3654              		.loc 1 496 0 discriminator 3
 3655 004e 8B42     		cmp	r3, r1
 3656              		.loc 1 497 0 discriminator 3
 3657 0050 0460     		str	r4, [r0]	@ float
 3658              		.loc 1 496 0 discriminator 3
 3659 0052 F7D1     		bne	.L359
 3660              	.L358:
 3661              		.loc 1 499 0
 3662 0054 A6F81690 		strh	r9, [r6, #22]	@ movhi
 3663              		.loc 1 500 0
 3664 0058 FFF7FEFF 		bl	parameter_port_unlock
 3665              	.LVL338:
 3666              		.loc 1 501 0
 3667 005c 019A     		ldr	r2, [sp, #4]
 3668 005e D8F80030 		ldr	r3, [r8]
 3669 0062 9A42     		cmp	r2, r3
 3670 0064 05D1     		bne	.L367
 3671 0066 3046     		mov	r0, r6
 3672              		.loc 1 502 0
 3673 0068 03B0     		add	sp, sp, #12
 3674              		.cfi_remember_state
 3675              		.cfi_def_cfa_offset 28
 3676              		@ sp needed
 3677 006a BDE8F043 		pop	{r4, r5, r6, r7, r8, r9, lr}
 3678              		.cfi_restore 14
 3679              		.cfi_restore 9
 3680              		.cfi_restore 8
 3681              		.cfi_restore 7
 3682              		.cfi_restore 6
 3683              		.cfi_restore 5
 3684              		.cfi_restore 4
 3685              		.cfi_def_cfa_offset 0
 3686              	.LVL339:
 3687              		.loc 1 501 0
 3688 006e FFF7FEBF 		b	_parameter_changed_set
 3689              	.LVL340:
 3690              	.L367:
 3691              		.cfi_restore_state
 3692 0072 FFF7FEFF 		bl	__stack_chk_fail
 3693              	.LVL341:
 3694              	.L369:
 3695 0076 00BF     		.align	2
 3696              	.L368:
 3697 0078 00000000 		.word	__stack_chk_guard
 3698              		.cfi_endproc
 3699              	.LFE40:
 3700              		.size	parameter_variable_vector_set, .-parameter_variable_vector_set
 3701              		.section	.text.parameter_string_declare,"ax",%progbits
 3702              		.align	1
 3703              		.p2align 4,,15
 3704              		.global	parameter_string_declare
 3705              		.syntax unified
ARM GAS  C:\Users\25521\AppData\Local\Temp\ccDmagyc.s 			page 66


 3706              		.thumb
 3707              		.thumb_func
 3708              		.fpu fpv4-sp-d16
 3709              		.type	parameter_string_declare, %function
 3710              	parameter_string_declare:
 3711              	.LFB41:
 3712              		.loc 1 514 0
 3713              		.cfi_startproc
 3714              		@ args = 4, pretend = 0, frame = 8
 3715              		@ frame_needed = 0, uses_anonymous_args = 0
 3716              	.LVL342:
 3717 0000 70B5     		push	{r4, r5, r6, lr}
 3718              		.cfi_def_cfa_offset 16
 3719              		.cfi_offset 4, -16
 3720              		.cfi_offset 5, -12
 3721              		.cfi_offset 6, -8
 3722              		.cfi_offset 14, -4
 3723 0002 0446     		mov	r4, r0
 3724 0004 82B0     		sub	sp, sp, #8
 3725              		.cfi_def_cfa_offset 24
 3726              		.loc 1 514 0
 3727 0006 0F4D     		ldr	r5, .L375
 3728 0008 BDF81800 		ldrh	r0, [sp, #24]
 3729              	.LVL343:
 3730              		.loc 1 516 0
 3731 000c 2361     		str	r3, [r4, #16]
 3732              		.loc 1 515 0
 3733 000e 0426     		movs	r6, #4
 3734              	.LBB185:
 3735              	.LBB186:
 3736              		.loc 1 157 0
 3737 0010 0023     		movs	r3, #0
 3738              	.LVL344:
 3739              		.loc 1 156 0
 3740 0012 6160     		str	r1, [r4, #4]
 3741              	.LBE186:
 3742              	.LBE185:
 3743              		.loc 1 517 0
 3744 0014 A082     		strh	r0, [r4, #20]	@ movhi
 3745              	.LVL345:
 3746              		.loc 1 514 0
 3747 0016 2968     		ldr	r1, [r5]
 3748              	.LVL346:
 3749              	.LBB190:
 3750              	.LBB187:
 3751              		.loc 1 157 0
 3752 0018 2373     		strb	r3, [r4, #12]
 3753              		.loc 1 155 0
 3754 001a 2260     		str	r2, [r4]
 3755              		.loc 1 158 0
 3756 001c 6373     		strb	r3, [r4, #13]
 3757              	.LBE187:
 3758              	.LBE190:
 3759              		.loc 1 515 0
 3760 001e A673     		strb	r6, [r4, #14]
 3761              		.loc 1 514 0
 3762 0020 0191     		str	r1, [sp, #4]
ARM GAS  C:\Users\25521\AppData\Local\Temp\ccDmagyc.s 			page 67


 3763              	.LBB191:
 3764              	.LBB188:
 3765              		.loc 1 159 0
 3766 0022 FFF7FEFF 		bl	parameter_port_lock
 3767              	.LVL347:
 3768              		.loc 1 161 0
 3769 0026 6368     		ldr	r3, [r4, #4]
 3770              		.loc 1 163 0
 3771 0028 0199     		ldr	r1, [sp, #4]
 3772 002a 2A68     		ldr	r2, [r5]
 3773              		.loc 1 161 0
 3774 002c 5869     		ldr	r0, [r3, #20]
 3775 002e A060     		str	r0, [r4, #8]
 3776              		.loc 1 163 0
 3777 0030 9142     		cmp	r1, r2
 3778              		.loc 1 162 0
 3779 0032 5C61     		str	r4, [r3, #20]
 3780              		.loc 1 163 0
 3781 0034 04D1     		bne	.L374
 3782              	.LBE188:
 3783              	.LBE191:
 3784              		.loc 1 519 0
 3785 0036 02B0     		add	sp, sp, #8
 3786              		.cfi_remember_state
 3787              		.cfi_def_cfa_offset 16
 3788              		@ sp needed
 3789 0038 BDE87040 		pop	{r4, r5, r6, lr}
 3790              		.cfi_restore 14
 3791              		.cfi_restore 6
 3792              		.cfi_restore 5
 3793              		.cfi_restore 4
 3794              		.cfi_def_cfa_offset 0
 3795              	.LVL348:
 3796              	.LBB192:
 3797              	.LBB189:
 3798              		.loc 1 163 0
 3799 003c FFF7FEBF 		b	parameter_port_unlock
 3800              	.LVL349:
 3801              	.L374:
 3802              		.cfi_restore_state
 3803 0040 FFF7FEFF 		bl	__stack_chk_fail
 3804              	.LVL350:
 3805              	.L376:
 3806              		.align	2
 3807              	.L375:
 3808 0044 00000000 		.word	__stack_chk_guard
 3809              	.LBE189:
 3810              	.LBE192:
 3811              		.cfi_endproc
 3812              	.LFE41:
 3813              		.size	parameter_string_declare, .-parameter_string_declare
 3814              		.section	.text.parameter_string_declare_with_default,"ax",%progbits
 3815              		.align	1
 3816              		.p2align 4,,15
 3817              		.global	parameter_string_declare_with_default
 3818              		.syntax unified
 3819              		.thumb
ARM GAS  C:\Users\25521\AppData\Local\Temp\ccDmagyc.s 			page 68


 3820              		.thumb_func
 3821              		.fpu fpv4-sp-d16
 3822              		.type	parameter_string_declare_with_default, %function
 3823              	parameter_string_declare_with_default:
 3824              	.LFB42:
 3825              		.loc 1 527 0
 3826              		.cfi_startproc
 3827              		@ args = 8, pretend = 0, frame = 8
 3828              		@ frame_needed = 0, uses_anonymous_args = 0
 3829              	.LVL351:
 3830 0000 F0B5     		push	{r4, r5, r6, r7, lr}
 3831              		.cfi_def_cfa_offset 20
 3832              		.cfi_offset 4, -20
 3833              		.cfi_offset 5, -16
 3834              		.cfi_offset 6, -12
 3835              		.cfi_offset 7, -8
 3836              		.cfi_offset 14, -4
 3837 0002 83B0     		sub	sp, sp, #12
 3838              		.cfi_def_cfa_offset 32
 3839              		.loc 1 527 0
 3840 0004 0446     		mov	r4, r0
 3841 0006 194E     		ldr	r6, .L382
 3842              	.LBB193:
 3843              	.LBB194:
 3844              		.loc 1 516 0
 3845 0008 0361     		str	r3, [r0, #16]
 3846              	.LBE194:
 3847              	.LBE193:
 3848              		.loc 1 527 0
 3849 000a BDF82050 		ldrh	r5, [sp, #32]
 3850              	.LBB206:
 3851              	.LBB203:
 3852              	.LBB195:
 3853              	.LBB196:
 3854              		.loc 1 156 0
 3855 000e 6160     		str	r1, [r4, #4]
 3856              	.LBE196:
 3857              	.LBE195:
 3858              		.loc 1 515 0
 3859 0010 0420     		movs	r0, #4
 3860              	.LVL352:
 3861              	.LBB200:
 3862              	.LBB197:
 3863              		.loc 1 157 0
 3864 0012 0023     		movs	r3, #0
 3865              	.LVL353:
 3866              	.LBE197:
 3867              	.LBE200:
 3868              	.LBE203:
 3869              	.LBE206:
 3870              		.loc 1 527 0
 3871 0014 3168     		ldr	r1, [r6]
 3872              	.LVL354:
 3873              	.LBB207:
 3874              	.LBB204:
 3875              		.loc 1 515 0
 3876 0016 A073     		strb	r0, [r4, #14]
ARM GAS  C:\Users\25521\AppData\Local\Temp\ccDmagyc.s 			page 69


 3877              	.LBB201:
 3878              	.LBB198:
 3879              		.loc 1 155 0
 3880 0018 2260     		str	r2, [r4]
 3881              		.loc 1 157 0
 3882 001a 2373     		strb	r3, [r4, #12]
 3883              		.loc 1 158 0
 3884 001c 6373     		strb	r3, [r4, #13]
 3885              	.LBE198:
 3886              	.LBE201:
 3887              		.loc 1 517 0
 3888 001e A582     		strh	r5, [r4, #20]	@ movhi
 3889              	.LBE204:
 3890              	.LBE207:
 3891              		.loc 1 527 0
 3892 0020 0191     		str	r1, [sp, #4]
 3893              	.LVL355:
 3894 0022 099F     		ldr	r7, [sp, #36]
 3895              	.LBB208:
 3896              	.LBB205:
 3897              	.LBB202:
 3898              	.LBB199:
 3899              		.loc 1 159 0
 3900 0024 FFF7FEFF 		bl	parameter_port_lock
 3901              	.LVL356:
 3902              		.loc 1 161 0
 3903 0028 6368     		ldr	r3, [r4, #4]
 3904 002a 5A69     		ldr	r2, [r3, #20]
 3905 002c A260     		str	r2, [r4, #8]
 3906              		.loc 1 162 0
 3907 002e 5C61     		str	r4, [r3, #20]
 3908              		.loc 1 163 0
 3909 0030 FFF7FEFF 		bl	parameter_port_unlock
 3910              	.LVL357:
 3911              	.LBE199:
 3912              	.LBE202:
 3913              	.LBE205:
 3914              	.LBE208:
 3915              		.loc 1 529 0
 3916 0034 3846     		mov	r0, r7
 3917 0036 FFF7FEFF 		bl	strlen
 3918              	.LVL358:
 3919 003a 80B2     		uxth	r0, r0
 3920              		.loc 1 530 0
 3921 003c A842     		cmp	r0, r5
 3922              		.loc 1 529 0
 3923 003e E082     		strh	r0, [r4, #22]	@ movhi
 3924              		.loc 1 530 0
 3925 0040 8CBF     		ite	hi
 3926 0042 0020     		movhi	r0, #0
 3927 0044 0120     		movls	r0, #1
 3928 0046 FFF7FEFF 		bl	parameter_port_assert
 3929              	.LVL359:
 3930              		.loc 1 531 0
 3931 004a 2A46     		mov	r2, r5
 3932 004c 3946     		mov	r1, r7
 3933 004e 2069     		ldr	r0, [r4, #16]
ARM GAS  C:\Users\25521\AppData\Local\Temp\ccDmagyc.s 			page 70


 3934 0050 FFF7FEFF 		bl	strncpy
 3935              	.LVL360:
 3936              		.loc 1 532 0
 3937 0054 019A     		ldr	r2, [sp, #4]
 3938 0056 3368     		ldr	r3, [r6]
 3939 0058 9A42     		cmp	r2, r3
 3940 005a 05D1     		bne	.L381
 3941 005c 2046     		mov	r0, r4
 3942              		.loc 1 533 0
 3943 005e 03B0     		add	sp, sp, #12
 3944              		.cfi_remember_state
 3945              		.cfi_def_cfa_offset 20
 3946              		@ sp needed
 3947 0060 BDE8F040 		pop	{r4, r5, r6, r7, lr}
 3948              		.cfi_restore 14
 3949              		.cfi_restore 7
 3950              		.cfi_restore 6
 3951              		.cfi_restore 5
 3952              		.cfi_restore 4
 3953              		.cfi_def_cfa_offset 0
 3954              	.LVL361:
 3955              		.loc 1 532 0
 3956 0064 FFF7FEBF 		b	_parameter_changed_set
 3957              	.LVL362:
 3958              	.L381:
 3959              		.cfi_restore_state
 3960 0068 FFF7FEFF 		bl	__stack_chk_fail
 3961              	.LVL363:
 3962              	.L383:
 3963              		.align	2
 3964              	.L382:
 3965 006c 00000000 		.word	__stack_chk_guard
 3966              		.cfi_endproc
 3967              	.LFE42:
 3968              		.size	parameter_string_declare_with_default, .-parameter_string_declare_with_default
 3969              		.section	.text.parameter_string_max_len,"ax",%progbits
 3970              		.align	1
 3971              		.p2align 4,,15
 3972              		.global	parameter_string_max_len
 3973              		.syntax unified
 3974              		.thumb
 3975              		.thumb_func
 3976              		.fpu fpv4-sp-d16
 3977              		.type	parameter_string_max_len, %function
 3978              	parameter_string_max_len:
 3979              	.LFB43:
 3980              		.loc 1 536 0
 3981              		.cfi_startproc
 3982              		@ args = 0, pretend = 0, frame = 8
 3983              		@ frame_needed = 0, uses_anonymous_args = 0
 3984              	.LVL364:
 3985 0000 30B5     		push	{r4, r5, lr}
 3986              		.cfi_def_cfa_offset 12
 3987              		.cfi_offset 4, -12
 3988              		.cfi_offset 5, -8
 3989              		.cfi_offset 14, -4
 3990 0002 0546     		mov	r5, r0
ARM GAS  C:\Users\25521\AppData\Local\Temp\ccDmagyc.s 			page 71


 3991              		.loc 1 537 0
 3992 0004 807B     		ldrb	r0, [r0, #14]	@ zero_extendqisi2
 3993              	.LVL365:
 3994              		.loc 1 536 0
 3995 0006 0B4C     		ldr	r4, .L388
 3996              		.loc 1 537 0
 3997 0008 A0F10400 		sub	r0, #4
 3998              		.loc 1 536 0
 3999 000c 83B0     		sub	sp, sp, #12
 4000              		.cfi_def_cfa_offset 24
 4001              		.loc 1 537 0
 4002 000e B0FA80F0 		clz	r0, r0
 4003              		.loc 1 536 0
 4004 0012 2368     		ldr	r3, [r4]
 4005 0014 0193     		str	r3, [sp, #4]
 4006              		.loc 1 537 0
 4007 0016 4009     		lsrs	r0, r0, #5
 4008 0018 FFF7FEFF 		bl	parameter_port_assert
 4009              	.LVL366:
 4010              		.loc 1 539 0
 4011 001c 019A     		ldr	r2, [sp, #4]
 4012 001e 2368     		ldr	r3, [r4]
 4013              		.loc 1 538 0
 4014 0020 A88A     		ldrh	r0, [r5, #20]
 4015              		.loc 1 539 0
 4016 0022 9A42     		cmp	r2, r3
 4017 0024 03D1     		bne	.L387
 4018 0026 0130     		adds	r0, r0, #1
 4019 0028 80B2     		uxth	r0, r0
 4020 002a 03B0     		add	sp, sp, #12
 4021              		.cfi_remember_state
 4022              		.cfi_def_cfa_offset 12
 4023              		@ sp needed
 4024 002c 30BD     		pop	{r4, r5, pc}
 4025              	.LVL367:
 4026              	.L387:
 4027              		.cfi_restore_state
 4028 002e FFF7FEFF 		bl	__stack_chk_fail
 4029              	.LVL368:
 4030              	.L389:
 4031 0032 00BF     		.align	2
 4032              	.L388:
 4033 0034 00000000 		.word	__stack_chk_guard
 4034              		.cfi_endproc
 4035              	.LFE43:
 4036              		.size	parameter_string_max_len, .-parameter_string_max_len
 4037              		.section	.text.parameter_string_read,"ax",%progbits
 4038              		.align	1
 4039              		.p2align 4,,15
 4040              		.global	parameter_string_read
 4041              		.syntax unified
 4042              		.thumb
 4043              		.thumb_func
 4044              		.fpu fpv4-sp-d16
 4045              		.type	parameter_string_read, %function
 4046              	parameter_string_read:
 4047              	.LFB45:
ARM GAS  C:\Users\25521\AppData\Local\Temp\ccDmagyc.s 			page 72


 4048              		.loc 1 548 0
 4049              		.cfi_startproc
 4050              		@ args = 0, pretend = 0, frame = 8
 4051              		@ frame_needed = 0, uses_anonymous_args = 0
 4052              	.LVL369:
 4053 0000 2DE9F041 		push	{r4, r5, r6, r7, r8, lr}
 4054              		.cfi_def_cfa_offset 24
 4055              		.cfi_offset 4, -24
 4056              		.cfi_offset 5, -20
 4057              		.cfi_offset 6, -16
 4058              		.cfi_offset 7, -12
 4059              		.cfi_offset 8, -8
 4060              		.cfi_offset 14, -4
 4061 0004 0446     		mov	r4, r0
 4062              		.loc 1 549 0
 4063 0006 807B     		ldrb	r0, [r0, #14]	@ zero_extendqisi2
 4064              	.LVL370:
 4065              		.loc 1 548 0
 4066 0008 DFF86480 		ldr	r8, .L397
 4067              		.loc 1 549 0
 4068 000c A0F10400 		sub	r0, #4
 4069              		.loc 1 548 0
 4070 0010 82B0     		sub	sp, sp, #8
 4071              		.cfi_def_cfa_offset 32
 4072              		.loc 1 549 0
 4073 0012 B0FA80F0 		clz	r0, r0
 4074              		.loc 1 548 0
 4075 0016 D8F80030 		ldr	r3, [r8]
 4076 001a 0193     		str	r3, [sp, #4]
 4077              		.loc 1 549 0
 4078 001c 4009     		lsrs	r0, r0, #5
 4079              		.loc 1 548 0
 4080 001e 0D46     		mov	r5, r1
 4081 0020 1746     		mov	r7, r2
 4082              		.loc 1 549 0
 4083 0022 FFF7FEFF 		bl	parameter_port_assert
 4084              	.LVL371:
 4085              		.loc 1 550 0
 4086 0026 FFF7FEFF 		bl	parameter_port_lock
 4087              	.LVL372:
 4088              		.loc 1 551 0
 4089 002a 607B     		ldrb	r0, [r4, #13]	@ zero_extendqisi2
 4090 002c FFF7FEFF 		bl	parameter_port_assert
 4091              	.LVL373:
 4092              		.loc 1 552 0
 4093 0030 E68A     		ldrh	r6, [r4, #22]
 4094              	.LVL374:
 4095              		.loc 1 554 0
 4096 0032 2169     		ldr	r1, [r4, #16]
 4097              		.loc 1 553 0
 4098 0034 BE42     		cmp	r6, r7
 4099 0036 12D3     		bcc	.L395
 4100              		.loc 1 557 0
 4101 0038 2846     		mov	r0, r5
 4102 003a 7A1E     		subs	r2, r7, #1
 4103              		.loc 1 558 0
 4104 003c 3D44     		add	r5, r5, r7
ARM GAS  C:\Users\25521\AppData\Local\Temp\ccDmagyc.s 			page 73


 4105              	.LVL375:
 4106              		.loc 1 557 0
 4107 003e FFF7FEFF 		bl	memcpy
 4108              	.LVL376:
 4109              		.loc 1 558 0
 4110 0042 0023     		movs	r3, #0
 4111 0044 05F8013C 		strb	r3, [r5, #-1]
 4112              	.L392:
 4113              		.loc 1 560 0
 4114 0048 FFF7FEFF 		bl	parameter_port_unlock
 4115              	.LVL377:
 4116              		.loc 1 562 0
 4117 004c 019A     		ldr	r2, [sp, #4]
 4118 004e D8F80030 		ldr	r3, [r8]
 4119 0052 9A42     		cmp	r2, r3
 4120 0054 3046     		mov	r0, r6
 4121 0056 09D1     		bne	.L396
 4122 0058 02B0     		add	sp, sp, #8
 4123              		.cfi_remember_state
 4124              		.cfi_def_cfa_offset 24
 4125              		@ sp needed
 4126 005a BDE8F081 		pop	{r4, r5, r6, r7, r8, pc}
 4127              	.LVL378:
 4128              	.L395:
 4129              		.cfi_restore_state
 4130              		.loc 1 554 0
 4131 005e 3246     		mov	r2, r6
 4132 0060 2846     		mov	r0, r5
 4133 0062 FFF7FEFF 		bl	memcpy
 4134              	.LVL379:
 4135              		.loc 1 555 0
 4136 0066 0023     		movs	r3, #0
 4137 0068 AB55     		strb	r3, [r5, r6]
 4138 006a EDE7     		b	.L392
 4139              	.LVL380:
 4140              	.L396:
 4141              		.loc 1 562 0
 4142 006c FFF7FEFF 		bl	__stack_chk_fail
 4143              	.LVL381:
 4144              	.L398:
 4145              		.align	2
 4146              	.L397:
 4147 0070 00000000 		.word	__stack_chk_guard
 4148              		.cfi_endproc
 4149              	.LFE45:
 4150              		.size	parameter_string_read, .-parameter_string_read
 4151              		.section	.text.parameter_string_get,"ax",%progbits
 4152              		.align	1
 4153              		.p2align 4,,15
 4154              		.global	parameter_string_get
 4155              		.syntax unified
 4156              		.thumb
 4157              		.thumb_func
 4158              		.fpu fpv4-sp-d16
 4159              		.type	parameter_string_get, %function
 4160              	parameter_string_get:
 4161              	.LFB44:
ARM GAS  C:\Users\25521\AppData\Local\Temp\ccDmagyc.s 			page 74


 4162              		.loc 1 542 0
 4163              		.cfi_startproc
 4164              		@ args = 0, pretend = 0, frame = 8
 4165              		@ frame_needed = 0, uses_anonymous_args = 0
 4166              	.LVL382:
 4167 0000 F0B5     		push	{r4, r5, r6, r7, lr}
 4168              		.cfi_def_cfa_offset 20
 4169              		.cfi_offset 4, -20
 4170              		.cfi_offset 5, -16
 4171              		.cfi_offset 6, -12
 4172              		.cfi_offset 7, -8
 4173              		.cfi_offset 14, -4
 4174 0002 0B4C     		ldr	r4, .L404
 4175 0004 83B0     		sub	sp, sp, #12
 4176              		.cfi_def_cfa_offset 32
 4177              		.loc 1 542 0
 4178 0006 2368     		ldr	r3, [r4]
 4179 0008 0193     		str	r3, [sp, #4]
 4180 000a 0546     		mov	r5, r0
 4181 000c 0E46     		mov	r6, r1
 4182 000e 1746     		mov	r7, r2
 4183              		.loc 1 543 0
 4184 0010 FFF7FEFF 		bl	_parameter_changed_clear
 4185              	.LVL383:
 4186              		.loc 1 544 0
 4187 0014 0198     		ldr	r0, [sp, #4]
 4188 0016 2368     		ldr	r3, [r4]
 4189 0018 9842     		cmp	r0, r3
 4190 001a 07D1     		bne	.L403
 4191 001c 3A46     		mov	r2, r7
 4192 001e 3146     		mov	r1, r6
 4193 0020 2846     		mov	r0, r5
 4194              		.loc 1 545 0
 4195 0022 03B0     		add	sp, sp, #12
 4196              		.cfi_remember_state
 4197              		.cfi_def_cfa_offset 20
 4198              		@ sp needed
 4199 0024 BDE8F040 		pop	{r4, r5, r6, r7, lr}
 4200              		.cfi_restore 14
 4201              		.cfi_restore 7
 4202              		.cfi_restore 6
 4203              		.cfi_restore 5
 4204              		.cfi_restore 4
 4205              		.cfi_def_cfa_offset 0
 4206              	.LVL384:
 4207              		.loc 1 544 0
 4208 0028 FFF7FEBF 		b	parameter_string_read
 4209              	.LVL385:
 4210              	.L403:
 4211              		.cfi_restore_state
 4212 002c FFF7FEFF 		bl	__stack_chk_fail
 4213              	.LVL386:
 4214              	.L405:
 4215              		.align	2
 4216              	.L404:
 4217 0030 00000000 		.word	__stack_chk_guard
 4218              		.cfi_endproc
ARM GAS  C:\Users\25521\AppData\Local\Temp\ccDmagyc.s 			page 75


 4219              	.LFE44:
 4220              		.size	parameter_string_get, .-parameter_string_get
 4221              		.section	.text.parameter_string_set_w_len,"ax",%progbits
 4222              		.align	1
 4223              		.p2align 4,,15
 4224              		.global	parameter_string_set_w_len
 4225              		.syntax unified
 4226              		.thumb
 4227              		.thumb_func
 4228              		.fpu fpv4-sp-d16
 4229              		.type	parameter_string_set_w_len, %function
 4230              	parameter_string_set_w_len:
 4231              	.LFB47:
 4232              		.loc 1 570 0
 4233              		.cfi_startproc
 4234              		@ args = 0, pretend = 0, frame = 8
 4235              		@ frame_needed = 0, uses_anonymous_args = 0
 4236              	.LVL387:
 4237 0000 F0B5     		push	{r4, r5, r6, r7, lr}
 4238              		.cfi_def_cfa_offset 20
 4239              		.cfi_offset 4, -20
 4240              		.cfi_offset 5, -16
 4241              		.cfi_offset 6, -12
 4242              		.cfi_offset 7, -8
 4243              		.cfi_offset 14, -4
 4244 0002 0446     		mov	r4, r0
 4245              		.loc 1 571 0
 4246 0004 807B     		ldrb	r0, [r0, #14]	@ zero_extendqisi2
 4247              	.LVL388:
 4248              		.loc 1 570 0
 4249 0006 154E     		ldr	r6, .L411
 4250              		.loc 1 571 0
 4251 0008 A0F10400 		sub	r0, #4
 4252              		.loc 1 570 0
 4253 000c 83B0     		sub	sp, sp, #12
 4254              		.cfi_def_cfa_offset 32
 4255              		.loc 1 571 0
 4256 000e B0FA80F0 		clz	r0, r0
 4257              		.loc 1 570 0
 4258 0012 3368     		ldr	r3, [r6]
 4259 0014 0193     		str	r3, [sp, #4]
 4260              		.loc 1 571 0
 4261 0016 4009     		lsrs	r0, r0, #5
 4262              		.loc 1 570 0
 4263 0018 1546     		mov	r5, r2
 4264 001a 0F46     		mov	r7, r1
 4265              		.loc 1 571 0
 4266 001c FFF7FEFF 		bl	parameter_port_assert
 4267              	.LVL389:
 4268              		.loc 1 572 0
 4269 0020 FFF7FEFF 		bl	parameter_port_lock
 4270              	.LVL390:
 4271              		.loc 1 573 0
 4272 0024 A08A     		ldrh	r0, [r4, #20]
 4273 0026 A842     		cmp	r0, r5
 4274 0028 34BF     		ite	cc
 4275 002a 0020     		movcc	r0, #0
ARM GAS  C:\Users\25521\AppData\Local\Temp\ccDmagyc.s 			page 76


 4276 002c 0120     		movcs	r0, #1
 4277 002e FFF7FEFF 		bl	parameter_port_assert
 4278              	.LVL391:
 4279              		.loc 1 574 0
 4280 0032 2A46     		mov	r2, r5
 4281 0034 3946     		mov	r1, r7
 4282 0036 2069     		ldr	r0, [r4, #16]
 4283 0038 FFF7FEFF 		bl	memcpy
 4284              	.LVL392:
 4285              		.loc 1 575 0
 4286 003c E582     		strh	r5, [r4, #22]	@ movhi
 4287              		.loc 1 576 0
 4288 003e FFF7FEFF 		bl	parameter_port_unlock
 4289              	.LVL393:
 4290              		.loc 1 577 0
 4291 0042 019A     		ldr	r2, [sp, #4]
 4292 0044 3368     		ldr	r3, [r6]
 4293 0046 9A42     		cmp	r2, r3
 4294 0048 05D1     		bne	.L410
 4295 004a 2046     		mov	r0, r4
 4296              		.loc 1 578 0
 4297 004c 03B0     		add	sp, sp, #12
 4298              		.cfi_remember_state
 4299              		.cfi_def_cfa_offset 20
 4300              		@ sp needed
 4301 004e BDE8F040 		pop	{r4, r5, r6, r7, lr}
 4302              		.cfi_restore 14
 4303              		.cfi_restore 7
 4304              		.cfi_restore 6
 4305              		.cfi_restore 5
 4306              		.cfi_restore 4
 4307              		.cfi_def_cfa_offset 0
 4308              	.LVL394:
 4309              		.loc 1 577 0
 4310 0052 FFF7FEBF 		b	_parameter_changed_set
 4311              	.LVL395:
 4312              	.L410:
 4313              		.cfi_restore_state
 4314 0056 FFF7FEFF 		bl	__stack_chk_fail
 4315              	.LVL396:
 4316              	.L412:
 4317 005a 00BF     		.align	2
 4318              	.L411:
 4319 005c 00000000 		.word	__stack_chk_guard
 4320              		.cfi_endproc
 4321              	.LFE47:
 4322              		.size	parameter_string_set_w_len, .-parameter_string_set_w_len
 4323              		.section	.text.parameter_string_set,"ax",%progbits
 4324              		.align	1
 4325              		.p2align 4,,15
 4326              		.global	parameter_string_set
 4327              		.syntax unified
 4328              		.thumb
 4329              		.thumb_func
 4330              		.fpu fpv4-sp-d16
 4331              		.type	parameter_string_set, %function
 4332              	parameter_string_set:
ARM GAS  C:\Users\25521\AppData\Local\Temp\ccDmagyc.s 			page 77


 4333              	.LFB46:
 4334              		.loc 1 565 0
 4335              		.cfi_startproc
 4336              		@ args = 0, pretend = 0, frame = 8
 4337              		@ frame_needed = 0, uses_anonymous_args = 0
 4338              	.LVL397:
 4339 0000 70B5     		push	{r4, r5, r6, lr}
 4340              		.cfi_def_cfa_offset 16
 4341              		.cfi_offset 4, -16
 4342              		.cfi_offset 5, -12
 4343              		.cfi_offset 6, -8
 4344              		.cfi_offset 14, -4
 4345 0002 0B4C     		ldr	r4, .L418
 4346 0004 82B0     		sub	sp, sp, #8
 4347              		.cfi_def_cfa_offset 24
 4348              		.loc 1 565 0
 4349 0006 2368     		ldr	r3, [r4]
 4350 0008 0193     		str	r3, [sp, #4]
 4351 000a 0646     		mov	r6, r0
 4352              		.loc 1 566 0
 4353 000c 0846     		mov	r0, r1
 4354              	.LVL398:
 4355              		.loc 1 565 0
 4356 000e 0D46     		mov	r5, r1
 4357              		.loc 1 566 0
 4358 0010 FFF7FEFF 		bl	strlen
 4359              	.LVL399:
 4360 0014 0199     		ldr	r1, [sp, #4]
 4361 0016 2368     		ldr	r3, [r4]
 4362 0018 9942     		cmp	r1, r3
 4363 001a 07D1     		bne	.L417
 4364 001c 82B2     		uxth	r2, r0
 4365 001e 2946     		mov	r1, r5
 4366 0020 3046     		mov	r0, r6
 4367              		.loc 1 567 0
 4368 0022 02B0     		add	sp, sp, #8
 4369              		.cfi_remember_state
 4370              		.cfi_def_cfa_offset 16
 4371              		@ sp needed
 4372 0024 BDE87040 		pop	{r4, r5, r6, lr}
 4373              		.cfi_restore 14
 4374              		.cfi_restore 6
 4375              		.cfi_restore 5
 4376              		.cfi_restore 4
 4377              		.cfi_def_cfa_offset 0
 4378              	.LVL400:
 4379              		.loc 1 566 0
 4380 0028 FFF7FEBF 		b	parameter_string_set_w_len
 4381              	.LVL401:
 4382              	.L417:
 4383              		.cfi_restore_state
 4384 002c FFF7FEFF 		bl	__stack_chk_fail
 4385              	.LVL402:
 4386              	.L419:
 4387              		.align	2
 4388              	.L418:
 4389 0030 00000000 		.word	__stack_chk_guard
ARM GAS  C:\Users\25521\AppData\Local\Temp\ccDmagyc.s 			page 78


 4390              		.cfi_endproc
 4391              	.LFE46:
 4392              		.size	parameter_string_set, .-parameter_string_set
 4393              		.text
 4394              	.Letext0:
 4395              		.file 2 "d:\\eclipse_e-puck2_win32_11_apr_2018\\eclipse_e-puck2\\tools\\gcc-arm-none-eabi-7-2017-q
 4396              		.file 3 "d:\\eclipse_e-puck2_win32_11_apr_2018\\eclipse_e-puck2\\tools\\gcc-arm-none-eabi-7-2017-q
 4397              		.file 4 "d:\\eclipse_e-puck2_win32_11_apr_2018\\eclipse_e-puck2\\tools\\gcc-arm-none-eabi-7-2017-q
 4398              		.file 5 "d:\\eclipse_e-puck2_win32_11_apr_2018\\eclipse_e-puck2\\tools\\gcc-arm-none-eabi-7-2017-q
 4399              		.file 6 "d:\\eclipse_e-puck2_win32_11_apr_2018\\eclipse_e-puck2\\tools\\gcc-arm-none-eabi-7-2017-q
 4400              		.file 7 "d:\\eclipse_e-puck2_win32_11_apr_2018\\eclipse_e-puck2\\tools\\gcc-arm-none-eabi-7-2017-q
 4401              		.file 8 "d:\\eclipse_e-puck2_win32_11_apr_2018\\eclipse_e-puck2\\tools\\gcc-arm-none-eabi-7-2017-q
 4402              		.file 9 ".//src/parameter/parameter.h"
 4403              		.file 10 ".//src/parameter/parameter_port.h"
 4404              		.file 11 "d:\\eclipse_e-puck2_win32_11_apr_2018\\eclipse_e-puck2\\tools\\gcc-arm-none-eabi-7-2017-
 4405              		.file 12 "<built-in>"
 4406              		.section	.debug_info,"",%progbits
 4407              	.Ldebug_info0:
 4408 0000 95250000 		.4byte	0x2595
 4409 0004 0400     		.2byte	0x4
 4410 0006 00000000 		.4byte	.Ldebug_abbrev0
 4411 000a 04       		.byte	0x4
 4412 000b 01       		.uleb128 0x1
 4413 000c 78040000 		.4byte	.LASF218
 4414 0010 0C       		.byte	0xc
 4415 0011 49030000 		.4byte	.LASF219
 4416 0015 A30A0000 		.4byte	.LASF220
 4417 0019 10030000 		.4byte	.Ldebug_ranges0+0x310
 4418 001d 00000000 		.4byte	0
 4419 0021 00000000 		.4byte	.Ldebug_line0
 4420 0025 02       		.uleb128 0x2
 4421 0026 04       		.byte	0x4
 4422 0027 04       		.byte	0x4
 4423 0028 B7070000 		.4byte	.LASF0
 4424 002c 03       		.uleb128 0x3
 4425 002d 04       		.byte	0x4
 4426 002e 05       		.byte	0x5
 4427 002f 696E7400 		.ascii	"int\000"
 4428 0033 04       		.uleb128 0x4
 4429 0034 46000000 		.4byte	.LASF5
 4430 0038 02       		.byte	0x2
 4431 0039 D8       		.byte	0xd8
 4432 003a 3E000000 		.4byte	0x3e
 4433 003e 02       		.uleb128 0x2
 4434 003f 04       		.byte	0x4
 4435 0040 07       		.byte	0x7
 4436 0041 6B040000 		.4byte	.LASF1
 4437 0045 02       		.uleb128 0x2
 4438 0046 08       		.byte	0x8
 4439 0047 05       		.byte	0x5
 4440 0048 00020000 		.4byte	.LASF2
 4441 004c 02       		.uleb128 0x2
 4442 004d 08       		.byte	0x8
 4443 004e 04       		.byte	0x4
 4444 004f 2B070000 		.4byte	.LASF3
 4445 0053 02       		.uleb128 0x2
 4446 0054 01       		.byte	0x1
ARM GAS  C:\Users\25521\AppData\Local\Temp\ccDmagyc.s 			page 79


 4447 0055 06       		.byte	0x6
 4448 0056 0E020000 		.4byte	.LASF4
 4449 005a 04       		.uleb128 0x4
 4450 005b 83000000 		.4byte	.LASF6
 4451 005f 03       		.byte	0x3
 4452 0060 2B       		.byte	0x2b
 4453 0061 65000000 		.4byte	0x65
 4454 0065 02       		.uleb128 0x2
 4455 0066 01       		.byte	0x1
 4456 0067 08       		.byte	0x8
 4457 0068 6D080000 		.4byte	.LASF7
 4458 006c 02       		.uleb128 0x2
 4459 006d 02       		.byte	0x2
 4460 006e 05       		.byte	0x5
 4461 006f A8080000 		.4byte	.LASF8
 4462 0073 04       		.uleb128 0x4
 4463 0074 5D0A0000 		.4byte	.LASF9
 4464 0078 03       		.byte	0x3
 4465 0079 39       		.byte	0x39
 4466 007a 7E000000 		.4byte	0x7e
 4467 007e 02       		.uleb128 0x2
 4468 007f 02       		.byte	0x2
 4469 0080 07       		.byte	0x7
 4470 0081 1C060000 		.4byte	.LASF10
 4471 0085 04       		.uleb128 0x4
 4472 0086 7E0A0000 		.4byte	.LASF11
 4473 008a 03       		.byte	0x3
 4474 008b 4D       		.byte	0x4d
 4475 008c 90000000 		.4byte	0x90
 4476 0090 02       		.uleb128 0x2
 4477 0091 04       		.byte	0x4
 4478 0092 05       		.byte	0x5
 4479 0093 A9020000 		.4byte	.LASF12
 4480 0097 04       		.uleb128 0x4
 4481 0098 A5030000 		.4byte	.LASF13
 4482 009c 03       		.byte	0x3
 4483 009d 4F       		.byte	0x4f
 4484 009e A2000000 		.4byte	0xa2
 4485 00a2 02       		.uleb128 0x2
 4486 00a3 04       		.byte	0x4
 4487 00a4 07       		.byte	0x7
 4488 00a5 D3050000 		.4byte	.LASF14
 4489 00a9 02       		.uleb128 0x2
 4490 00aa 08       		.byte	0x8
 4491 00ab 07       		.byte	0x7
 4492 00ac 05010000 		.4byte	.LASF15
 4493 00b0 04       		.uleb128 0x4
 4494 00b1 9E060000 		.4byte	.LASF16
 4495 00b5 04       		.byte	0x4
 4496 00b6 22       		.byte	0x22
 4497 00b7 BB000000 		.4byte	0xbb
 4498 00bb 05       		.uleb128 0x5
 4499 00bc 04       		.byte	0x4
 4500 00bd C1000000 		.4byte	0xc1
 4501 00c1 06       		.uleb128 0x6
 4502 00c2 85090000 		.4byte	.LASF123
 4503 00c6 04       		.uleb128 0x4
ARM GAS  C:\Users\25521\AppData\Local\Temp\ccDmagyc.s 			page 80


 4504 00c7 A8070000 		.4byte	.LASF17
 4505 00cb 05       		.byte	0x5
 4506 00cc 2C       		.byte	0x2c
 4507 00cd 90000000 		.4byte	0x90
 4508 00d1 04       		.uleb128 0x4
 4509 00d2 D6090000 		.4byte	.LASF18
 4510 00d6 05       		.byte	0x5
 4511 00d7 72       		.byte	0x72
 4512 00d8 90000000 		.4byte	0x90
 4513 00dc 07       		.uleb128 0x7
 4514 00dd A6060000 		.4byte	.LASF19
 4515 00e1 02       		.byte	0x2
 4516 00e2 6501     		.2byte	0x165
 4517 00e4 3E000000 		.4byte	0x3e
 4518 00e8 08       		.uleb128 0x8
 4519 00e9 04       		.byte	0x4
 4520 00ea 05       		.byte	0x5
 4521 00eb A6       		.byte	0xa6
 4522 00ec 07010000 		.4byte	0x107
 4523 00f0 09       		.uleb128 0x9
 4524 00f1 91060000 		.4byte	.LASF20
 4525 00f5 05       		.byte	0x5
 4526 00f6 A8       		.byte	0xa8
 4527 00f7 DC000000 		.4byte	0xdc
 4528 00fb 09       		.uleb128 0x9
 4529 00fc BC050000 		.4byte	.LASF21
 4530 0100 05       		.byte	0x5
 4531 0101 A9       		.byte	0xa9
 4532 0102 07010000 		.4byte	0x107
 4533 0106 00       		.byte	0
 4534 0107 0A       		.uleb128 0xa
 4535 0108 65000000 		.4byte	0x65
 4536 010c 17010000 		.4byte	0x117
 4537 0110 0B       		.uleb128 0xb
 4538 0111 3E000000 		.4byte	0x3e
 4539 0115 03       		.byte	0x3
 4540 0116 00       		.byte	0
 4541 0117 0C       		.uleb128 0xc
 4542 0118 08       		.byte	0x8
 4543 0119 05       		.byte	0x5
 4544 011a A3       		.byte	0xa3
 4545 011b 38010000 		.4byte	0x138
 4546 011f 0D       		.uleb128 0xd
 4547 0120 7D090000 		.4byte	.LASF22
 4548 0124 05       		.byte	0x5
 4549 0125 A5       		.byte	0xa5
 4550 0126 2C000000 		.4byte	0x2c
 4551 012a 00       		.byte	0
 4552 012b 0D       		.uleb128 0xd
 4553 012c 8C090000 		.4byte	.LASF23
 4554 0130 05       		.byte	0x5
 4555 0131 AA       		.byte	0xaa
 4556 0132 E8000000 		.4byte	0xe8
 4557 0136 04       		.byte	0x4
 4558 0137 00       		.byte	0
 4559 0138 04       		.uleb128 0x4
 4560 0139 E4080000 		.4byte	.LASF24
ARM GAS  C:\Users\25521\AppData\Local\Temp\ccDmagyc.s 			page 81


 4561 013d 05       		.byte	0x5
 4562 013e AB       		.byte	0xab
 4563 013f 17010000 		.4byte	0x117
 4564 0143 04       		.uleb128 0x4
 4565 0144 FE030000 		.4byte	.LASF25
 4566 0148 05       		.byte	0x5
 4567 0149 AF       		.byte	0xaf
 4568 014a B0000000 		.4byte	0xb0
 4569 014e 0E       		.uleb128 0xe
 4570 014f 04       		.byte	0x4
 4571 0150 05       		.uleb128 0x5
 4572 0151 04       		.byte	0x4
 4573 0152 56010000 		.4byte	0x156
 4574 0156 02       		.uleb128 0x2
 4575 0157 01       		.byte	0x1
 4576 0158 08       		.byte	0x8
 4577 0159 100A0000 		.4byte	.LASF26
 4578 015d 0F       		.uleb128 0xf
 4579 015e 56010000 		.4byte	0x156
 4580 0162 04       		.uleb128 0x4
 4581 0163 740B0000 		.4byte	.LASF27
 4582 0167 06       		.byte	0x6
 4583 0168 16       		.byte	0x16
 4584 0169 A2000000 		.4byte	0xa2
 4585 016d 10       		.uleb128 0x10
 4586 016e 0F040000 		.4byte	.LASF32
 4587 0172 18       		.byte	0x18
 4588 0173 06       		.byte	0x6
 4589 0174 2F       		.byte	0x2f
 4590 0175 C0010000 		.4byte	0x1c0
 4591 0179 0D       		.uleb128 0xd
 4592 017a 26040000 		.4byte	.LASF28
 4593 017e 06       		.byte	0x6
 4594 017f 31       		.byte	0x31
 4595 0180 C0010000 		.4byte	0x1c0
 4596 0184 00       		.byte	0
 4597 0185 11       		.uleb128 0x11
 4598 0186 5F6B00   		.ascii	"_k\000"
 4599 0189 06       		.byte	0x6
 4600 018a 32       		.byte	0x32
 4601 018b 2C000000 		.4byte	0x2c
 4602 018f 04       		.byte	0x4
 4603 0190 0D       		.uleb128 0xd
 4604 0191 68090000 		.4byte	.LASF29
 4605 0195 06       		.byte	0x6
 4606 0196 32       		.byte	0x32
 4607 0197 2C000000 		.4byte	0x2c
 4608 019b 08       		.byte	0x8
 4609 019c 0D       		.uleb128 0xd
 4610 019d DF030000 		.4byte	.LASF30
 4611 01a1 06       		.byte	0x6
 4612 01a2 32       		.byte	0x32
 4613 01a3 2C000000 		.4byte	0x2c
 4614 01a7 0C       		.byte	0xc
 4615 01a8 0D       		.uleb128 0xd
 4616 01a9 ED0B0000 		.4byte	.LASF31
 4617 01ad 06       		.byte	0x6
ARM GAS  C:\Users\25521\AppData\Local\Temp\ccDmagyc.s 			page 82


 4618 01ae 32       		.byte	0x32
 4619 01af 2C000000 		.4byte	0x2c
 4620 01b3 10       		.byte	0x10
 4621 01b4 11       		.uleb128 0x11
 4622 01b5 5F7800   		.ascii	"_x\000"
 4623 01b8 06       		.byte	0x6
 4624 01b9 33       		.byte	0x33
 4625 01ba C6010000 		.4byte	0x1c6
 4626 01be 14       		.byte	0x14
 4627 01bf 00       		.byte	0
 4628 01c0 05       		.uleb128 0x5
 4629 01c1 04       		.byte	0x4
 4630 01c2 6D010000 		.4byte	0x16d
 4631 01c6 0A       		.uleb128 0xa
 4632 01c7 62010000 		.4byte	0x162
 4633 01cb D6010000 		.4byte	0x1d6
 4634 01cf 0B       		.uleb128 0xb
 4635 01d0 3E000000 		.4byte	0x3e
 4636 01d4 00       		.byte	0
 4637 01d5 00       		.byte	0
 4638 01d6 10       		.uleb128 0x10
 4639 01d7 50040000 		.4byte	.LASF33
 4640 01db 24       		.byte	0x24
 4641 01dc 06       		.byte	0x6
 4642 01dd 37       		.byte	0x37
 4643 01de 4F020000 		.4byte	0x24f
 4644 01e2 0D       		.uleb128 0xd
 4645 01e3 F7010000 		.4byte	.LASF34
 4646 01e7 06       		.byte	0x6
 4647 01e8 39       		.byte	0x39
 4648 01e9 2C000000 		.4byte	0x2c
 4649 01ed 00       		.byte	0
 4650 01ee 0D       		.uleb128 0xd
 4651 01ef 3B0A0000 		.4byte	.LASF35
 4652 01f3 06       		.byte	0x6
 4653 01f4 3A       		.byte	0x3a
 4654 01f5 2C000000 		.4byte	0x2c
 4655 01f9 04       		.byte	0x4
 4656 01fa 0D       		.uleb128 0xd
 4657 01fb 4B020000 		.4byte	.LASF36
 4658 01ff 06       		.byte	0x6
 4659 0200 3B       		.byte	0x3b
 4660 0201 2C000000 		.4byte	0x2c
 4661 0205 08       		.byte	0x8
 4662 0206 0D       		.uleb128 0xd
 4663 0207 090D0000 		.4byte	.LASF37
 4664 020b 06       		.byte	0x6
 4665 020c 3C       		.byte	0x3c
 4666 020d 2C000000 		.4byte	0x2c
 4667 0211 0C       		.byte	0xc
 4668 0212 0D       		.uleb128 0xd
 4669 0213 82070000 		.4byte	.LASF38
 4670 0217 06       		.byte	0x6
 4671 0218 3D       		.byte	0x3d
 4672 0219 2C000000 		.4byte	0x2c
 4673 021d 10       		.byte	0x10
 4674 021e 0D       		.uleb128 0xd
ARM GAS  C:\Users\25521\AppData\Local\Temp\ccDmagyc.s 			page 83


 4675 021f 01070000 		.4byte	.LASF39
 4676 0223 06       		.byte	0x6
 4677 0224 3E       		.byte	0x3e
 4678 0225 2C000000 		.4byte	0x2c
 4679 0229 14       		.byte	0x14
 4680 022a 0D       		.uleb128 0xd
 4681 022b F20B0000 		.4byte	.LASF40
 4682 022f 06       		.byte	0x6
 4683 0230 3F       		.byte	0x3f
 4684 0231 2C000000 		.4byte	0x2c
 4685 0235 18       		.byte	0x18
 4686 0236 0D       		.uleb128 0xd
 4687 0237 B2080000 		.4byte	.LASF41
 4688 023b 06       		.byte	0x6
 4689 023c 40       		.byte	0x40
 4690 023d 2C000000 		.4byte	0x2c
 4691 0241 1C       		.byte	0x1c
 4692 0242 0D       		.uleb128 0xd
 4693 0243 A50C0000 		.4byte	.LASF42
 4694 0247 06       		.byte	0x6
 4695 0248 41       		.byte	0x41
 4696 0249 2C000000 		.4byte	0x2c
 4697 024d 20       		.byte	0x20
 4698 024e 00       		.byte	0
 4699 024f 12       		.uleb128 0x12
 4700 0250 5A020000 		.4byte	.LASF43
 4701 0254 0801     		.2byte	0x108
 4702 0256 06       		.byte	0x6
 4703 0257 4A       		.byte	0x4a
 4704 0258 8F020000 		.4byte	0x28f
 4705 025c 0D       		.uleb128 0xd
 4706 025d 74030000 		.4byte	.LASF44
 4707 0261 06       		.byte	0x6
 4708 0262 4B       		.byte	0x4b
 4709 0263 8F020000 		.4byte	0x28f
 4710 0267 00       		.byte	0
 4711 0268 0D       		.uleb128 0xd
 4712 0269 00000000 		.4byte	.LASF45
 4713 026d 06       		.byte	0x6
 4714 026e 4C       		.byte	0x4c
 4715 026f 8F020000 		.4byte	0x28f
 4716 0273 80       		.byte	0x80
 4717 0274 13       		.uleb128 0x13
 4718 0275 160B0000 		.4byte	.LASF46
 4719 0279 06       		.byte	0x6
 4720 027a 4E       		.byte	0x4e
 4721 027b 62010000 		.4byte	0x162
 4722 027f 0001     		.2byte	0x100
 4723 0281 13       		.uleb128 0x13
 4724 0282 C2020000 		.4byte	.LASF47
 4725 0286 06       		.byte	0x6
 4726 0287 51       		.byte	0x51
 4727 0288 62010000 		.4byte	0x162
 4728 028c 0401     		.2byte	0x104
 4729 028e 00       		.byte	0
 4730 028f 0A       		.uleb128 0xa
 4731 0290 4E010000 		.4byte	0x14e
ARM GAS  C:\Users\25521\AppData\Local\Temp\ccDmagyc.s 			page 84


 4732 0294 9F020000 		.4byte	0x29f
 4733 0298 0B       		.uleb128 0xb
 4734 0299 3E000000 		.4byte	0x3e
 4735 029d 1F       		.byte	0x1f
 4736 029e 00       		.byte	0
 4737 029f 12       		.uleb128 0x12
 4738 02a0 8B070000 		.4byte	.LASF48
 4739 02a4 9001     		.2byte	0x190
 4740 02a6 06       		.byte	0x6
 4741 02a7 5D       		.byte	0x5d
 4742 02a8 DD020000 		.4byte	0x2dd
 4743 02ac 0D       		.uleb128 0xd
 4744 02ad 26040000 		.4byte	.LASF28
 4745 02b1 06       		.byte	0x6
 4746 02b2 5E       		.byte	0x5e
 4747 02b3 DD020000 		.4byte	0x2dd
 4748 02b7 00       		.byte	0
 4749 02b8 0D       		.uleb128 0xd
 4750 02b9 27090000 		.4byte	.LASF49
 4751 02bd 06       		.byte	0x6
 4752 02be 5F       		.byte	0x5f
 4753 02bf 2C000000 		.4byte	0x2c
 4754 02c3 04       		.byte	0x4
 4755 02c4 0D       		.uleb128 0xd
 4756 02c5 A0030000 		.4byte	.LASF50
 4757 02c9 06       		.byte	0x6
 4758 02ca 61       		.byte	0x61
 4759 02cb E3020000 		.4byte	0x2e3
 4760 02cf 08       		.byte	0x8
 4761 02d0 0D       		.uleb128 0xd
 4762 02d1 5A020000 		.4byte	.LASF43
 4763 02d5 06       		.byte	0x6
 4764 02d6 62       		.byte	0x62
 4765 02d7 4F020000 		.4byte	0x24f
 4766 02db 88       		.byte	0x88
 4767 02dc 00       		.byte	0
 4768 02dd 05       		.uleb128 0x5
 4769 02de 04       		.byte	0x4
 4770 02df 9F020000 		.4byte	0x29f
 4771 02e3 0A       		.uleb128 0xa
 4772 02e4 F3020000 		.4byte	0x2f3
 4773 02e8 F3020000 		.4byte	0x2f3
 4774 02ec 0B       		.uleb128 0xb
 4775 02ed 3E000000 		.4byte	0x3e
 4776 02f1 1F       		.byte	0x1f
 4777 02f2 00       		.byte	0
 4778 02f3 05       		.uleb128 0x5
 4779 02f4 04       		.byte	0x4
 4780 02f5 F9020000 		.4byte	0x2f9
 4781 02f9 14       		.uleb128 0x14
 4782 02fa 10       		.uleb128 0x10
 4783 02fb BC080000 		.4byte	.LASF51
 4784 02ff 08       		.byte	0x8
 4785 0300 06       		.byte	0x6
 4786 0301 75       		.byte	0x75
 4787 0302 1F030000 		.4byte	0x31f
 4788 0306 0D       		.uleb128 0xd
ARM GAS  C:\Users\25521\AppData\Local\Temp\ccDmagyc.s 			page 85


 4789 0307 30020000 		.4byte	.LASF52
 4790 030b 06       		.byte	0x6
 4791 030c 76       		.byte	0x76
 4792 030d 1F030000 		.4byte	0x31f
 4793 0311 00       		.byte	0
 4794 0312 0D       		.uleb128 0xd
 4795 0313 12000000 		.4byte	.LASF53
 4796 0317 06       		.byte	0x6
 4797 0318 77       		.byte	0x77
 4798 0319 2C000000 		.4byte	0x2c
 4799 031d 04       		.byte	0x4
 4800 031e 00       		.byte	0
 4801 031f 05       		.uleb128 0x5
 4802 0320 04       		.byte	0x4
 4803 0321 65000000 		.4byte	0x65
 4804 0325 10       		.uleb128 0x10
 4805 0326 EF080000 		.4byte	.LASF54
 4806 032a 68       		.byte	0x68
 4807 032b 06       		.byte	0x6
 4808 032c B5       		.byte	0xb5
 4809 032d 4F040000 		.4byte	0x44f
 4810 0331 11       		.uleb128 0x11
 4811 0332 5F7000   		.ascii	"_p\000"
 4812 0335 06       		.byte	0x6
 4813 0336 B6       		.byte	0xb6
 4814 0337 1F030000 		.4byte	0x31f
 4815 033b 00       		.byte	0
 4816 033c 11       		.uleb128 0x11
 4817 033d 5F7200   		.ascii	"_r\000"
 4818 0340 06       		.byte	0x6
 4819 0341 B7       		.byte	0xb7
 4820 0342 2C000000 		.4byte	0x2c
 4821 0346 04       		.byte	0x4
 4822 0347 11       		.uleb128 0x11
 4823 0348 5F7700   		.ascii	"_w\000"
 4824 034b 06       		.byte	0x6
 4825 034c B8       		.byte	0xb8
 4826 034d 2C000000 		.4byte	0x2c
 4827 0351 08       		.byte	0x8
 4828 0352 0D       		.uleb128 0xd
 4829 0353 BB020000 		.4byte	.LASF55
 4830 0357 06       		.byte	0x6
 4831 0358 B9       		.byte	0xb9
 4832 0359 6C000000 		.4byte	0x6c
 4833 035d 0C       		.byte	0xc
 4834 035e 0D       		.uleb128 0xd
 4835 035f E5050000 		.4byte	.LASF56
 4836 0363 06       		.byte	0x6
 4837 0364 BA       		.byte	0xba
 4838 0365 6C000000 		.4byte	0x6c
 4839 0369 0E       		.byte	0xe
 4840 036a 11       		.uleb128 0x11
 4841 036b 5F626600 		.ascii	"_bf\000"
 4842 036f 06       		.byte	0x6
 4843 0370 BB       		.byte	0xbb
 4844 0371 FA020000 		.4byte	0x2fa
 4845 0375 10       		.byte	0x10
ARM GAS  C:\Users\25521\AppData\Local\Temp\ccDmagyc.s 			page 86


 4846 0376 0D       		.uleb128 0xd
 4847 0377 32010000 		.4byte	.LASF57
 4848 037b 06       		.byte	0x6
 4849 037c BC       		.byte	0xbc
 4850 037d 2C000000 		.4byte	0x2c
 4851 0381 18       		.byte	0x18
 4852 0382 0D       		.uleb128 0xd
 4853 0383 92020000 		.4byte	.LASF58
 4854 0387 06       		.byte	0x6
 4855 0388 C3       		.byte	0xc3
 4856 0389 4E010000 		.4byte	0x14e
 4857 038d 1C       		.byte	0x1c
 4858 038e 0D       		.uleb128 0xd
 4859 038f 40040000 		.4byte	.LASF59
 4860 0393 06       		.byte	0x6
 4861 0394 C5       		.byte	0xc5
 4862 0395 AA050000 		.4byte	0x5aa
 4863 0399 20       		.byte	0x20
 4864 039a 0D       		.uleb128 0xd
 4865 039b FA060000 		.4byte	.LASF60
 4866 039f 06       		.byte	0x6
 4867 03a0 C7       		.byte	0xc7
 4868 03a1 D4050000 		.4byte	0x5d4
 4869 03a5 24       		.byte	0x24
 4870 03a6 0D       		.uleb128 0xd
 4871 03a7 94090000 		.4byte	.LASF61
 4872 03ab 06       		.byte	0x6
 4873 03ac CA       		.byte	0xca
 4874 03ad F8050000 		.4byte	0x5f8
 4875 03b1 28       		.byte	0x28
 4876 03b2 0D       		.uleb128 0xd
 4877 03b3 D50C0000 		.4byte	.LASF62
 4878 03b7 06       		.byte	0x6
 4879 03b8 CB       		.byte	0xcb
 4880 03b9 12060000 		.4byte	0x612
 4881 03bd 2C       		.byte	0x2c
 4882 03be 11       		.uleb128 0x11
 4883 03bf 5F756200 		.ascii	"_ub\000"
 4884 03c3 06       		.byte	0x6
 4885 03c4 CE       		.byte	0xce
 4886 03c5 FA020000 		.4byte	0x2fa
 4887 03c9 30       		.byte	0x30
 4888 03ca 11       		.uleb128 0x11
 4889 03cb 5F757000 		.ascii	"_up\000"
 4890 03cf 06       		.byte	0x6
 4891 03d0 CF       		.byte	0xcf
 4892 03d1 1F030000 		.4byte	0x31f
 4893 03d5 38       		.byte	0x38
 4894 03d6 11       		.uleb128 0x11
 4895 03d7 5F757200 		.ascii	"_ur\000"
 4896 03db 06       		.byte	0x6
 4897 03dc D0       		.byte	0xd0
 4898 03dd 2C000000 		.4byte	0x2c
 4899 03e1 3C       		.byte	0x3c
 4900 03e2 0D       		.uleb128 0xd
 4901 03e3 22020000 		.4byte	.LASF63
 4902 03e7 06       		.byte	0x6
ARM GAS  C:\Users\25521\AppData\Local\Temp\ccDmagyc.s 			page 87


 4903 03e8 D3       		.byte	0xd3
 4904 03e9 18060000 		.4byte	0x618
 4905 03ed 40       		.byte	0x40
 4906 03ee 0D       		.uleb128 0xd
 4907 03ef 710C0000 		.4byte	.LASF64
 4908 03f3 06       		.byte	0x6
 4909 03f4 D4       		.byte	0xd4
 4910 03f5 28060000 		.4byte	0x628
 4911 03f9 43       		.byte	0x43
 4912 03fa 11       		.uleb128 0x11
 4913 03fb 5F6C6200 		.ascii	"_lb\000"
 4914 03ff 06       		.byte	0x6
 4915 0400 D7       		.byte	0xd7
 4916 0401 FA020000 		.4byte	0x2fa
 4917 0405 44       		.byte	0x44
 4918 0406 0D       		.uleb128 0xd
 4919 0407 F9020000 		.4byte	.LASF65
 4920 040b 06       		.byte	0x6
 4921 040c DA       		.byte	0xda
 4922 040d 2C000000 		.4byte	0x2c
 4923 0411 4C       		.byte	0x4c
 4924 0412 0D       		.uleb128 0xd
 4925 0413 30030000 		.4byte	.LASF66
 4926 0417 06       		.byte	0x6
 4927 0418 DB       		.byte	0xdb
 4928 0419 C6000000 		.4byte	0xc6
 4929 041d 50       		.byte	0x50
 4930 041e 0D       		.uleb128 0xd
 4931 041f 9A000000 		.4byte	.LASF67
 4932 0423 06       		.byte	0x6
 4933 0424 DE       		.byte	0xde
 4934 0425 6D040000 		.4byte	0x46d
 4935 0429 54       		.byte	0x54
 4936 042a 0D       		.uleb128 0xd
 4937 042b BE060000 		.4byte	.LASF68
 4938 042f 06       		.byte	0x6
 4939 0430 E2       		.byte	0xe2
 4940 0431 43010000 		.4byte	0x143
 4941 0435 58       		.byte	0x58
 4942 0436 0D       		.uleb128 0xd
 4943 0437 F7080000 		.4byte	.LASF69
 4944 043b 06       		.byte	0x6
 4945 043c E4       		.byte	0xe4
 4946 043d 38010000 		.4byte	0x138
 4947 0441 5C       		.byte	0x5c
 4948 0442 0D       		.uleb128 0xd
 4949 0443 CB060000 		.4byte	.LASF70
 4950 0447 06       		.byte	0x6
 4951 0448 E5       		.byte	0xe5
 4952 0449 2C000000 		.4byte	0x2c
 4953 044d 64       		.byte	0x64
 4954 044e 00       		.byte	0
 4955 044f 15       		.uleb128 0x15
 4956 0450 2C000000 		.4byte	0x2c
 4957 0454 6D040000 		.4byte	0x46d
 4958 0458 16       		.uleb128 0x16
 4959 0459 6D040000 		.4byte	0x46d
ARM GAS  C:\Users\25521\AppData\Local\Temp\ccDmagyc.s 			page 88


 4960 045d 16       		.uleb128 0x16
 4961 045e 4E010000 		.4byte	0x14e
 4962 0462 16       		.uleb128 0x16
 4963 0463 50010000 		.4byte	0x150
 4964 0467 16       		.uleb128 0x16
 4965 0468 2C000000 		.4byte	0x2c
 4966 046c 00       		.byte	0
 4967 046d 05       		.uleb128 0x5
 4968 046e 04       		.byte	0x4
 4969 046f 78040000 		.4byte	0x478
 4970 0473 0F       		.uleb128 0xf
 4971 0474 6D040000 		.4byte	0x46d
 4972 0478 17       		.uleb128 0x17
 4973 0479 70090000 		.4byte	.LASF71
 4974 047d 2804     		.2byte	0x428
 4975 047f 06       		.byte	0x6
 4976 0480 3902     		.2byte	0x239
 4977 0482 AA050000 		.4byte	0x5aa
 4978 0486 18       		.uleb128 0x18
 4979 0487 090A0000 		.4byte	.LASF72
 4980 048b 06       		.byte	0x6
 4981 048c 3B02     		.2byte	0x23b
 4982 048e 2C000000 		.4byte	0x2c
 4983 0492 00       		.byte	0
 4984 0493 18       		.uleb128 0x18
 4985 0494 CA020000 		.4byte	.LASF73
 4986 0498 06       		.byte	0x6
 4987 0499 4002     		.2byte	0x240
 4988 049b 7F060000 		.4byte	0x67f
 4989 049f 04       		.byte	0x4
 4990 04a0 18       		.uleb128 0x18
 4991 04a1 C3050000 		.4byte	.LASF74
 4992 04a5 06       		.byte	0x6
 4993 04a6 4002     		.2byte	0x240
 4994 04a8 7F060000 		.4byte	0x67f
 4995 04ac 08       		.byte	0x8
 4996 04ad 18       		.uleb128 0x18
 4997 04ae 07040000 		.4byte	.LASF75
 4998 04b2 06       		.byte	0x6
 4999 04b3 4002     		.2byte	0x240
 5000 04b5 7F060000 		.4byte	0x67f
 5001 04b9 0C       		.byte	0xc
 5002 04ba 18       		.uleb128 0x18
 5003 04bb 22090000 		.4byte	.LASF76
 5004 04bf 06       		.byte	0x6
 5005 04c0 4202     		.2byte	0x242
 5006 04c2 2C000000 		.4byte	0x2c
 5007 04c6 10       		.byte	0x10
 5008 04c7 18       		.uleb128 0x18
 5009 04c8 78000000 		.4byte	.LASF77
 5010 04cc 06       		.byte	0x6
 5011 04cd 4302     		.2byte	0x243
 5012 04cf 61080000 		.4byte	0x861
 5013 04d3 14       		.byte	0x14
 5014 04d4 18       		.uleb128 0x18
 5015 04d5 3E090000 		.4byte	.LASF78
 5016 04d9 06       		.byte	0x6
ARM GAS  C:\Users\25521\AppData\Local\Temp\ccDmagyc.s 			page 89


 5017 04da 4602     		.2byte	0x246
 5018 04dc 2C000000 		.4byte	0x2c
 5019 04e0 30       		.byte	0x30
 5020 04e1 18       		.uleb128 0x18
 5021 04e2 2C090000 		.4byte	.LASF79
 5022 04e6 06       		.byte	0x6
 5023 04e7 4702     		.2byte	0x247
 5024 04e9 76080000 		.4byte	0x876
 5025 04ed 34       		.byte	0x34
 5026 04ee 18       		.uleb128 0x18
 5027 04ef 9D070000 		.4byte	.LASF80
 5028 04f3 06       		.byte	0x6
 5029 04f4 4902     		.2byte	0x249
 5030 04f6 2C000000 		.4byte	0x2c
 5031 04fa 38       		.byte	0x38
 5032 04fb 18       		.uleb128 0x18
 5033 04fc 34090000 		.4byte	.LASF81
 5034 0500 06       		.byte	0x6
 5035 0501 4B02     		.2byte	0x24b
 5036 0503 87080000 		.4byte	0x887
 5037 0507 3C       		.byte	0x3c
 5038 0508 18       		.uleb128 0x18
 5039 0509 89060000 		.4byte	.LASF82
 5040 050d 06       		.byte	0x6
 5041 050e 4E02     		.2byte	0x24e
 5042 0510 C0010000 		.4byte	0x1c0
 5043 0514 40       		.byte	0x40
 5044 0515 18       		.uleb128 0x18
 5045 0516 46040000 		.4byte	.LASF83
 5046 051a 06       		.byte	0x6
 5047 051b 4F02     		.2byte	0x24f
 5048 051d 2C000000 		.4byte	0x2c
 5049 0521 44       		.byte	0x44
 5050 0522 18       		.uleb128 0x18
 5051 0523 EF0C0000 		.4byte	.LASF84
 5052 0527 06       		.byte	0x6
 5053 0528 5002     		.2byte	0x250
 5054 052a C0010000 		.4byte	0x1c0
 5055 052e 48       		.byte	0x48
 5056 052f 18       		.uleb128 0x18
 5057 0530 BD070000 		.4byte	.LASF85
 5058 0534 06       		.byte	0x6
 5059 0535 5102     		.2byte	0x251
 5060 0537 8D080000 		.4byte	0x88d
 5061 053b 4C       		.byte	0x4c
 5062 053c 18       		.uleb128 0x18
 5063 053d CB050000 		.4byte	.LASF86
 5064 0541 06       		.byte	0x6
 5065 0542 5402     		.2byte	0x254
 5066 0544 2C000000 		.4byte	0x2c
 5067 0548 50       		.byte	0x50
 5068 0549 18       		.uleb128 0x18
 5069 054a 28030000 		.4byte	.LASF87
 5070 054e 06       		.byte	0x6
 5071 054f 5502     		.2byte	0x255
 5072 0551 50010000 		.4byte	0x150
 5073 0555 54       		.byte	0x54
ARM GAS  C:\Users\25521\AppData\Local\Temp\ccDmagyc.s 			page 90


 5074 0556 18       		.uleb128 0x18
 5075 0557 7B080000 		.4byte	.LASF88
 5076 055b 06       		.byte	0x6
 5077 055c 7802     		.2byte	0x278
 5078 055e 3F080000 		.4byte	0x83f
 5079 0562 58       		.byte	0x58
 5080 0563 19       		.uleb128 0x19
 5081 0564 8B070000 		.4byte	.LASF48
 5082 0568 06       		.byte	0x6
 5083 0569 7C02     		.2byte	0x27c
 5084 056b DD020000 		.4byte	0x2dd
 5085 056f 4801     		.2byte	0x148
 5086 0571 19       		.uleb128 0x19
 5087 0572 2F060000 		.4byte	.LASF89
 5088 0576 06       		.byte	0x6
 5089 0577 7D02     		.2byte	0x27d
 5090 0579 9F020000 		.4byte	0x29f
 5091 057d 4C01     		.2byte	0x14c
 5092 057f 19       		.uleb128 0x19
 5093 0580 3C0C0000 		.4byte	.LASF90
 5094 0584 06       		.byte	0x6
 5095 0585 8102     		.2byte	0x281
 5096 0587 9E080000 		.4byte	0x89e
 5097 058b DC02     		.2byte	0x2dc
 5098 058d 19       		.uleb128 0x19
 5099 058e A1020000 		.4byte	.LASF91
 5100 0592 06       		.byte	0x6
 5101 0593 8602     		.2byte	0x286
 5102 0595 44060000 		.4byte	0x644
 5103 0599 E002     		.2byte	0x2e0
 5104 059b 19       		.uleb128 0x19
 5105 059c 55020000 		.4byte	.LASF92
 5106 05a0 06       		.byte	0x6
 5107 05a1 8802     		.2byte	0x288
 5108 05a3 AA080000 		.4byte	0x8aa
 5109 05a7 EC02     		.2byte	0x2ec
 5110 05a9 00       		.byte	0
 5111 05aa 05       		.uleb128 0x5
 5112 05ab 04       		.byte	0x4
 5113 05ac 4F040000 		.4byte	0x44f
 5114 05b0 15       		.uleb128 0x15
 5115 05b1 2C000000 		.4byte	0x2c
 5116 05b5 CE050000 		.4byte	0x5ce
 5117 05b9 16       		.uleb128 0x16
 5118 05ba 6D040000 		.4byte	0x46d
 5119 05be 16       		.uleb128 0x16
 5120 05bf 4E010000 		.4byte	0x14e
 5121 05c3 16       		.uleb128 0x16
 5122 05c4 CE050000 		.4byte	0x5ce
 5123 05c8 16       		.uleb128 0x16
 5124 05c9 2C000000 		.4byte	0x2c
 5125 05cd 00       		.byte	0
 5126 05ce 05       		.uleb128 0x5
 5127 05cf 04       		.byte	0x4
 5128 05d0 5D010000 		.4byte	0x15d
 5129 05d4 05       		.uleb128 0x5
 5130 05d5 04       		.byte	0x4
ARM GAS  C:\Users\25521\AppData\Local\Temp\ccDmagyc.s 			page 91


 5131 05d6 B0050000 		.4byte	0x5b0
 5132 05da 15       		.uleb128 0x15
 5133 05db D1000000 		.4byte	0xd1
 5134 05df F8050000 		.4byte	0x5f8
 5135 05e3 16       		.uleb128 0x16
 5136 05e4 6D040000 		.4byte	0x46d
 5137 05e8 16       		.uleb128 0x16
 5138 05e9 4E010000 		.4byte	0x14e
 5139 05ed 16       		.uleb128 0x16
 5140 05ee D1000000 		.4byte	0xd1
 5141 05f2 16       		.uleb128 0x16
 5142 05f3 2C000000 		.4byte	0x2c
 5143 05f7 00       		.byte	0
 5144 05f8 05       		.uleb128 0x5
 5145 05f9 04       		.byte	0x4
 5146 05fa DA050000 		.4byte	0x5da
 5147 05fe 15       		.uleb128 0x15
 5148 05ff 2C000000 		.4byte	0x2c
 5149 0603 12060000 		.4byte	0x612
 5150 0607 16       		.uleb128 0x16
 5151 0608 6D040000 		.4byte	0x46d
 5152 060c 16       		.uleb128 0x16
 5153 060d 4E010000 		.4byte	0x14e
 5154 0611 00       		.byte	0
 5155 0612 05       		.uleb128 0x5
 5156 0613 04       		.byte	0x4
 5157 0614 FE050000 		.4byte	0x5fe
 5158 0618 0A       		.uleb128 0xa
 5159 0619 65000000 		.4byte	0x65
 5160 061d 28060000 		.4byte	0x628
 5161 0621 0B       		.uleb128 0xb
 5162 0622 3E000000 		.4byte	0x3e
 5163 0626 02       		.byte	0x2
 5164 0627 00       		.byte	0
 5165 0628 0A       		.uleb128 0xa
 5166 0629 65000000 		.4byte	0x65
 5167 062d 38060000 		.4byte	0x638
 5168 0631 0B       		.uleb128 0xb
 5169 0632 3E000000 		.4byte	0x3e
 5170 0636 00       		.byte	0
 5171 0637 00       		.byte	0
 5172 0638 07       		.uleb128 0x7
 5173 0639 DD080000 		.4byte	.LASF93
 5174 063d 06       		.byte	0x6
 5175 063e 1F01     		.2byte	0x11f
 5176 0640 25030000 		.4byte	0x325
 5177 0644 1A       		.uleb128 0x1a
 5178 0645 FC0B0000 		.4byte	.LASF94
 5179 0649 0C       		.byte	0xc
 5180 064a 06       		.byte	0x6
 5181 064b 2301     		.2byte	0x123
 5182 064d 79060000 		.4byte	0x679
 5183 0651 18       		.uleb128 0x18
 5184 0652 26040000 		.4byte	.LASF28
 5185 0656 06       		.byte	0x6
 5186 0657 2501     		.2byte	0x125
 5187 0659 79060000 		.4byte	0x679
ARM GAS  C:\Users\25521\AppData\Local\Temp\ccDmagyc.s 			page 92


 5188 065d 00       		.byte	0
 5189 065e 18       		.uleb128 0x18
 5190 065f 15060000 		.4byte	.LASF95
 5191 0663 06       		.byte	0x6
 5192 0664 2601     		.2byte	0x126
 5193 0666 2C000000 		.4byte	0x2c
 5194 066a 04       		.byte	0x4
 5195 066b 18       		.uleb128 0x18
 5196 066c D7080000 		.4byte	.LASF96
 5197 0670 06       		.byte	0x6
 5198 0671 2701     		.2byte	0x127
 5199 0673 7F060000 		.4byte	0x67f
 5200 0677 08       		.byte	0x8
 5201 0678 00       		.byte	0
 5202 0679 05       		.uleb128 0x5
 5203 067a 04       		.byte	0x4
 5204 067b 44060000 		.4byte	0x644
 5205 067f 05       		.uleb128 0x5
 5206 0680 04       		.byte	0x4
 5207 0681 38060000 		.4byte	0x638
 5208 0685 1A       		.uleb128 0x1a
 5209 0686 57000000 		.4byte	.LASF97
 5210 068a 0E       		.byte	0xe
 5211 068b 06       		.byte	0x6
 5212 068c 3F01     		.2byte	0x13f
 5213 068e BA060000 		.4byte	0x6ba
 5214 0692 18       		.uleb128 0x18
 5215 0693 77090000 		.4byte	.LASF98
 5216 0697 06       		.byte	0x6
 5217 0698 4001     		.2byte	0x140
 5218 069a BA060000 		.4byte	0x6ba
 5219 069e 00       		.byte	0
 5220 069f 18       		.uleb128 0x18
 5221 06a0 9D0A0000 		.4byte	.LASF99
 5222 06a4 06       		.byte	0x6
 5223 06a5 4101     		.2byte	0x141
 5224 06a7 BA060000 		.4byte	0x6ba
 5225 06ab 06       		.byte	0x6
 5226 06ac 18       		.uleb128 0x18
 5227 06ad 6F0B0000 		.4byte	.LASF100
 5228 06b1 06       		.byte	0x6
 5229 06b2 4201     		.2byte	0x142
 5230 06b4 7E000000 		.4byte	0x7e
 5231 06b8 0C       		.byte	0xc
 5232 06b9 00       		.byte	0
 5233 06ba 0A       		.uleb128 0xa
 5234 06bb 7E000000 		.4byte	0x7e
 5235 06bf CA060000 		.4byte	0x6ca
 5236 06c3 0B       		.uleb128 0xb
 5237 06c4 3E000000 		.4byte	0x3e
 5238 06c8 02       		.byte	0x2
 5239 06c9 00       		.byte	0
 5240 06ca 1B       		.uleb128 0x1b
 5241 06cb D0       		.byte	0xd0
 5242 06cc 06       		.byte	0x6
 5243 06cd 5902     		.2byte	0x259
 5244 06cf CB070000 		.4byte	0x7cb
ARM GAS  C:\Users\25521\AppData\Local\Temp\ccDmagyc.s 			page 93


 5245 06d3 18       		.uleb128 0x18
 5246 06d4 AE0B0000 		.4byte	.LASF101
 5247 06d8 06       		.byte	0x6
 5248 06d9 5B02     		.2byte	0x25b
 5249 06db 3E000000 		.4byte	0x3e
 5250 06df 00       		.byte	0
 5251 06e0 18       		.uleb128 0x18
 5252 06e1 D40A0000 		.4byte	.LASF102
 5253 06e5 06       		.byte	0x6
 5254 06e6 5C02     		.2byte	0x25c
 5255 06e8 50010000 		.4byte	0x150
 5256 06ec 04       		.byte	0x4
 5257 06ed 18       		.uleb128 0x18
 5258 06ee 5B060000 		.4byte	.LASF103
 5259 06f2 06       		.byte	0x6
 5260 06f3 5D02     		.2byte	0x25d
 5261 06f5 CB070000 		.4byte	0x7cb
 5262 06f9 08       		.byte	0x8
 5263 06fa 18       		.uleb128 0x18
 5264 06fb B00C0000 		.4byte	.LASF104
 5265 06ff 06       		.byte	0x6
 5266 0700 5E02     		.2byte	0x25e
 5267 0702 D6010000 		.4byte	0x1d6
 5268 0706 24       		.byte	0x24
 5269 0707 18       		.uleb128 0x18
 5270 0708 17040000 		.4byte	.LASF105
 5271 070c 06       		.byte	0x6
 5272 070d 5F02     		.2byte	0x25f
 5273 070f 2C000000 		.4byte	0x2c
 5274 0713 48       		.byte	0x48
 5275 0714 18       		.uleb128 0x18
 5276 0715 00090000 		.4byte	.LASF106
 5277 0719 06       		.byte	0x6
 5278 071a 6002     		.2byte	0x260
 5279 071c A9000000 		.4byte	0xa9
 5280 0720 50       		.byte	0x50
 5281 0721 18       		.uleb128 0x18
 5282 0722 DC0C0000 		.4byte	.LASF107
 5283 0726 06       		.byte	0x6
 5284 0727 6102     		.2byte	0x261
 5285 0729 85060000 		.4byte	0x685
 5286 072d 58       		.byte	0x58
 5287 072e 18       		.uleb128 0x18
 5288 072f 15090000 		.4byte	.LASF108
 5289 0733 06       		.byte	0x6
 5290 0734 6202     		.2byte	0x262
 5291 0736 38010000 		.4byte	0x138
 5292 073a 68       		.byte	0x68
 5293 073b 18       		.uleb128 0x18
 5294 073c E10C0000 		.4byte	.LASF109
 5295 0740 06       		.byte	0x6
 5296 0741 6302     		.2byte	0x263
 5297 0743 38010000 		.4byte	0x138
 5298 0747 70       		.byte	0x70
 5299 0748 18       		.uleb128 0x18
 5300 0749 05080000 		.4byte	.LASF110
 5301 074d 06       		.byte	0x6
ARM GAS  C:\Users\25521\AppData\Local\Temp\ccDmagyc.s 			page 94


 5302 074e 6402     		.2byte	0x264
 5303 0750 38010000 		.4byte	0x138
 5304 0754 78       		.byte	0x78
 5305 0755 18       		.uleb128 0x18
 5306 0756 1D0C0000 		.4byte	.LASF111
 5307 075a 06       		.byte	0x6
 5308 075b 6502     		.2byte	0x265
 5309 075d DB070000 		.4byte	0x7db
 5310 0761 80       		.byte	0x80
 5311 0762 18       		.uleb128 0x18
 5312 0763 4F060000 		.4byte	.LASF112
 5313 0767 06       		.byte	0x6
 5314 0768 6602     		.2byte	0x266
 5315 076a EB070000 		.4byte	0x7eb
 5316 076e 88       		.byte	0x88
 5317 076f 18       		.uleb128 0x18
 5318 0770 8D000000 		.4byte	.LASF113
 5319 0774 06       		.byte	0x6
 5320 0775 6702     		.2byte	0x267
 5321 0777 2C000000 		.4byte	0x2c
 5322 077b A0       		.byte	0xa0
 5323 077c 18       		.uleb128 0x18
 5324 077d 66030000 		.4byte	.LASF114
 5325 0781 06       		.byte	0x6
 5326 0782 6802     		.2byte	0x268
 5327 0784 38010000 		.4byte	0x138
 5328 0788 A4       		.byte	0xa4
 5329 0789 18       		.uleb128 0x18
 5330 078a BE010000 		.4byte	.LASF115
 5331 078e 06       		.byte	0x6
 5332 078f 6902     		.2byte	0x269
 5333 0791 38010000 		.4byte	0x138
 5334 0795 AC       		.byte	0xac
 5335 0796 18       		.uleb128 0x18
 5336 0797 38030000 		.4byte	.LASF116
 5337 079b 06       		.byte	0x6
 5338 079c 6A02     		.2byte	0x26a
 5339 079e 38010000 		.4byte	0x138
 5340 07a2 B4       		.byte	0xb4
 5341 07a3 18       		.uleb128 0x18
 5342 07a4 D9000000 		.4byte	.LASF117
 5343 07a8 06       		.byte	0x6
 5344 07a9 6B02     		.2byte	0x26b
 5345 07ab 38010000 		.4byte	0x138
 5346 07af BC       		.byte	0xbc
 5347 07b0 18       		.uleb128 0x18
 5348 07b1 F4000000 		.4byte	.LASF118
 5349 07b5 06       		.byte	0x6
 5350 07b6 6C02     		.2byte	0x26c
 5351 07b8 38010000 		.4byte	0x138
 5352 07bc C4       		.byte	0xc4
 5353 07bd 18       		.uleb128 0x18
 5354 07be 9F080000 		.4byte	.LASF119
 5355 07c2 06       		.byte	0x6
 5356 07c3 6D02     		.2byte	0x26d
 5357 07c5 2C000000 		.4byte	0x2c
 5358 07c9 CC       		.byte	0xcc
ARM GAS  C:\Users\25521\AppData\Local\Temp\ccDmagyc.s 			page 95


 5359 07ca 00       		.byte	0
 5360 07cb 0A       		.uleb128 0xa
 5361 07cc 56010000 		.4byte	0x156
 5362 07d0 DB070000 		.4byte	0x7db
 5363 07d4 0B       		.uleb128 0xb
 5364 07d5 3E000000 		.4byte	0x3e
 5365 07d9 19       		.byte	0x19
 5366 07da 00       		.byte	0
 5367 07db 0A       		.uleb128 0xa
 5368 07dc 56010000 		.4byte	0x156
 5369 07e0 EB070000 		.4byte	0x7eb
 5370 07e4 0B       		.uleb128 0xb
 5371 07e5 3E000000 		.4byte	0x3e
 5372 07e9 07       		.byte	0x7
 5373 07ea 00       		.byte	0
 5374 07eb 0A       		.uleb128 0xa
 5375 07ec 56010000 		.4byte	0x156
 5376 07f0 FB070000 		.4byte	0x7fb
 5377 07f4 0B       		.uleb128 0xb
 5378 07f5 3E000000 		.4byte	0x3e
 5379 07f9 17       		.byte	0x17
 5380 07fa 00       		.byte	0
 5381 07fb 1B       		.uleb128 0x1b
 5382 07fc F0       		.byte	0xf0
 5383 07fd 06       		.byte	0x6
 5384 07fe 7202     		.2byte	0x272
 5385 0800 1F080000 		.4byte	0x81f
 5386 0804 18       		.uleb128 0x18
 5387 0805 45070000 		.4byte	.LASF120
 5388 0809 06       		.byte	0x6
 5389 080a 7502     		.2byte	0x275
 5390 080c 1F080000 		.4byte	0x81f
 5391 0810 00       		.byte	0
 5392 0811 18       		.uleb128 0x18
 5393 0812 140C0000 		.4byte	.LASF121
 5394 0816 06       		.byte	0x6
 5395 0817 7602     		.2byte	0x276
 5396 0819 2F080000 		.4byte	0x82f
 5397 081d 78       		.byte	0x78
 5398 081e 00       		.byte	0
 5399 081f 0A       		.uleb128 0xa
 5400 0820 1F030000 		.4byte	0x31f
 5401 0824 2F080000 		.4byte	0x82f
 5402 0828 0B       		.uleb128 0xb
 5403 0829 3E000000 		.4byte	0x3e
 5404 082d 1D       		.byte	0x1d
 5405 082e 00       		.byte	0
 5406 082f 0A       		.uleb128 0xa
 5407 0830 3E000000 		.4byte	0x3e
 5408 0834 3F080000 		.4byte	0x83f
 5409 0838 0B       		.uleb128 0xb
 5410 0839 3E000000 		.4byte	0x3e
 5411 083d 1D       		.byte	0x1d
 5412 083e 00       		.byte	0
 5413 083f 1C       		.uleb128 0x1c
 5414 0840 F0       		.byte	0xf0
 5415 0841 06       		.byte	0x6
ARM GAS  C:\Users\25521\AppData\Local\Temp\ccDmagyc.s 			page 96


 5416 0842 5702     		.2byte	0x257
 5417 0844 61080000 		.4byte	0x861
 5418 0848 1D       		.uleb128 0x1d
 5419 0849 70090000 		.4byte	.LASF71
 5420 084d 06       		.byte	0x6
 5421 084e 6E02     		.2byte	0x26e
 5422 0850 CA060000 		.4byte	0x6ca
 5423 0854 1D       		.uleb128 0x1d
 5424 0855 770C0000 		.4byte	.LASF122
 5425 0859 06       		.byte	0x6
 5426 085a 7702     		.2byte	0x277
 5427 085c FB070000 		.4byte	0x7fb
 5428 0860 00       		.byte	0
 5429 0861 0A       		.uleb128 0xa
 5430 0862 56010000 		.4byte	0x156
 5431 0866 71080000 		.4byte	0x871
 5432 086a 0B       		.uleb128 0xb
 5433 086b 3E000000 		.4byte	0x3e
 5434 086f 18       		.byte	0x18
 5435 0870 00       		.byte	0
 5436 0871 06       		.uleb128 0x6
 5437 0872 5A010000 		.4byte	.LASF124
 5438 0876 05       		.uleb128 0x5
 5439 0877 04       		.byte	0x4
 5440 0878 71080000 		.4byte	0x871
 5441 087c 1E       		.uleb128 0x1e
 5442 087d 87080000 		.4byte	0x887
 5443 0881 16       		.uleb128 0x16
 5444 0882 6D040000 		.4byte	0x46d
 5445 0886 00       		.byte	0
 5446 0887 05       		.uleb128 0x5
 5447 0888 04       		.byte	0x4
 5448 0889 7C080000 		.4byte	0x87c
 5449 088d 05       		.uleb128 0x5
 5450 088e 04       		.byte	0x4
 5451 088f C0010000 		.4byte	0x1c0
 5452 0893 1E       		.uleb128 0x1e
 5453 0894 9E080000 		.4byte	0x89e
 5454 0898 16       		.uleb128 0x16
 5455 0899 2C000000 		.4byte	0x2c
 5456 089d 00       		.byte	0
 5457 089e 05       		.uleb128 0x5
 5458 089f 04       		.byte	0x4
 5459 08a0 A4080000 		.4byte	0x8a4
 5460 08a4 05       		.uleb128 0x5
 5461 08a5 04       		.byte	0x4
 5462 08a6 93080000 		.4byte	0x893
 5463 08aa 0A       		.uleb128 0xa
 5464 08ab 38060000 		.4byte	0x638
 5465 08af BA080000 		.4byte	0x8ba
 5466 08b3 0B       		.uleb128 0xb
 5467 08b4 3E000000 		.4byte	0x3e
 5468 08b8 02       		.byte	0x2
 5469 08b9 00       		.byte	0
 5470 08ba 1F       		.uleb128 0x1f
 5471 08bb B8090000 		.4byte	.LASF125
 5472 08bf 06       		.byte	0x6
ARM GAS  C:\Users\25521\AppData\Local\Temp\ccDmagyc.s 			page 97


 5473 08c0 0703     		.2byte	0x307
 5474 08c2 6D040000 		.4byte	0x46d
 5475 08c6 1F       		.uleb128 0x1f
 5476 08c7 920B0000 		.4byte	.LASF126
 5477 08cb 06       		.byte	0x6
 5478 08cc 0803     		.2byte	0x308
 5479 08ce 73040000 		.4byte	0x473
 5480 08d2 04       		.uleb128 0x4
 5481 08d3 AF070000 		.4byte	.LASF127
 5482 08d7 07       		.byte	0x7
 5483 08d8 18       		.byte	0x18
 5484 08d9 5A000000 		.4byte	0x5a
 5485 08dd 04       		.uleb128 0x4
 5486 08de 02030000 		.4byte	.LASF128
 5487 08e2 07       		.byte	0x7
 5488 08e3 24       		.byte	0x24
 5489 08e4 73000000 		.4byte	0x73
 5490 08e8 04       		.uleb128 0x4
 5491 08e9 65080000 		.4byte	.LASF129
 5492 08ed 07       		.byte	0x7
 5493 08ee 2C       		.byte	0x2c
 5494 08ef 85000000 		.4byte	0x85
 5495 08f3 04       		.uleb128 0x4
 5496 08f4 A50B0000 		.4byte	.LASF130
 5497 08f8 07       		.byte	0x7
 5498 08f9 30       		.byte	0x30
 5499 08fa 97000000 		.4byte	0x97
 5500 08fe 20       		.uleb128 0x20
 5501 08ff 93070000 		.4byte	.LASF131
 5502 0903 08       		.byte	0x8
 5503 0904 63       		.byte	0x63
 5504 0905 50010000 		.4byte	0x150
 5505 0909 04       		.uleb128 0x4
 5506 090a C3000000 		.4byte	.LASF132
 5507 090e 09       		.byte	0x9
 5508 090f 08       		.byte	0x8
 5509 0910 19090000 		.4byte	0x919
 5510 0914 0F       		.uleb128 0xf
 5511 0915 09090000 		.4byte	0x909
 5512 0919 10       		.uleb128 0x10
 5513 091a AD000000 		.4byte	.LASF133
 5514 091e 18       		.byte	0x18
 5515 091f 09       		.byte	0x9
 5516 0920 0B       		.byte	0xb
 5517 0921 6D090000 		.4byte	0x96d
 5518 0925 11       		.uleb128 0x11
 5519 0926 696400   		.ascii	"id\000"
 5520 0929 09       		.byte	0x9
 5521 092a 0C       		.byte	0xc
 5522 092b CE050000 		.4byte	0x5ce
 5523 092f 00       		.byte	0
 5524 0930 0D       		.uleb128 0xd
 5525 0931 450B0000 		.4byte	.LASF134
 5526 0935 09       		.byte	0x9
 5527 0936 0D       		.byte	0xd
 5528 0937 E8080000 		.4byte	0x8e8
 5529 093b 04       		.byte	0x4
ARM GAS  C:\Users\25521\AppData\Local\Temp\ccDmagyc.s 			page 98


 5530 093c 0D       		.uleb128 0xd
 5531 093d 9A020000 		.4byte	.LASF135
 5532 0941 09       		.byte	0x9
 5533 0942 0E       		.byte	0xe
 5534 0943 DC090000 		.4byte	0x9dc
 5535 0947 08       		.byte	0x8
 5536 0948 0D       		.uleb128 0xd
 5537 0949 0B090000 		.4byte	.LASF136
 5538 094d 09       		.byte	0x9
 5539 094e 0F       		.byte	0xf
 5540 094f DC090000 		.4byte	0x9dc
 5541 0953 0C       		.byte	0xc
 5542 0954 0D       		.uleb128 0xd
 5543 0955 CD010000 		.4byte	.LASF137
 5544 0959 09       		.byte	0x9
 5545 095a 10       		.byte	0x10
 5546 095b DC090000 		.4byte	0x9dc
 5547 095f 10       		.byte	0x10
 5548 0960 0D       		.uleb128 0xd
 5549 0961 19030000 		.4byte	.LASF138
 5550 0965 09       		.byte	0x9
 5551 0966 11       		.byte	0x11
 5552 0967 E2090000 		.4byte	0x9e2
 5553 096b 14       		.byte	0x14
 5554 096c 00       		.byte	0
 5555 096d 04       		.uleb128 0x4
 5556 096e 65010000 		.4byte	.LASF139
 5557 0972 09       		.byte	0x9
 5558 0973 09       		.byte	0x9
 5559 0974 7D090000 		.4byte	0x97d
 5560 0978 0F       		.uleb128 0xf
 5561 0979 6D090000 		.4byte	0x96d
 5562 097d 10       		.uleb128 0x10
 5563 097e E8000000 		.4byte	.LASF140
 5564 0982 18       		.byte	0x18
 5565 0983 09       		.byte	0x9
 5566 0984 2E       		.byte	0x2e
 5567 0985 DC090000 		.4byte	0x9dc
 5568 0989 11       		.uleb128 0x11
 5569 098a 696400   		.ascii	"id\000"
 5570 098d 09       		.byte	0x9
 5571 098e 2F       		.byte	0x2f
 5572 098f CE050000 		.4byte	0x5ce
 5573 0993 00       		.byte	0
 5574 0994 11       		.uleb128 0x11
 5575 0995 6E7300   		.ascii	"ns\000"
 5576 0998 09       		.byte	0x9
 5577 0999 30       		.byte	0x30
 5578 099a DC090000 		.4byte	0x9dc
 5579 099e 04       		.byte	0x4
 5580 099f 0D       		.uleb128 0xd
 5581 09a0 CD010000 		.4byte	.LASF137
 5582 09a4 09       		.byte	0x9
 5583 09a5 31       		.byte	0x31
 5584 09a6 E2090000 		.4byte	0x9e2
 5585 09aa 08       		.byte	0x8
 5586 09ab 0D       		.uleb128 0xd
ARM GAS  C:\Users\25521\AppData\Local\Temp\ccDmagyc.s 			page 99


 5587 09ac 28020000 		.4byte	.LASF141
 5588 09b0 09       		.byte	0x9
 5589 09b1 32       		.byte	0x32
 5590 09b2 C70A0000 		.4byte	0xac7
 5591 09b6 0C       		.byte	0xc
 5592 09b7 0D       		.uleb128 0xd
 5593 09b8 0B030000 		.4byte	.LASF142
 5594 09bc 09       		.byte	0x9
 5595 09bd 33       		.byte	0x33
 5596 09be C70A0000 		.4byte	0xac7
 5597 09c2 0D       		.byte	0xd
 5598 09c3 0D       		.uleb128 0xd
 5599 09c4 A0000000 		.4byte	.LASF143
 5600 09c8 09       		.byte	0x9
 5601 09c9 34       		.byte	0x34
 5602 09ca D2080000 		.4byte	0x8d2
 5603 09ce 0E       		.byte	0xe
 5604 09cf 0D       		.uleb128 0xd
 5605 09d0 0C000000 		.4byte	.LASF144
 5606 09d4 09       		.byte	0x9
 5607 09d5 3C       		.byte	0x3c
 5608 09d6 820A0000 		.4byte	0xa82
 5609 09da 10       		.byte	0x10
 5610 09db 00       		.byte	0
 5611 09dc 05       		.uleb128 0x5
 5612 09dd 04       		.byte	0x4
 5613 09de 09090000 		.4byte	0x909
 5614 09e2 05       		.uleb128 0x5
 5615 09e3 04       		.byte	0x4
 5616 09e4 6D090000 		.4byte	0x96d
 5617 09e8 10       		.uleb128 0x10
 5618 09e9 81020000 		.4byte	.LASF145
 5619 09ed 08       		.byte	0x8
 5620 09ee 09       		.byte	0x9
 5621 09ef 14       		.byte	0x14
 5622 09f0 190A0000 		.4byte	0xa19
 5623 09f4 11       		.uleb128 0x11
 5624 09f5 62756600 		.ascii	"buf\000"
 5625 09f9 09       		.byte	0x9
 5626 09fa 15       		.byte	0x15
 5627 09fb 50010000 		.4byte	0x150
 5628 09ff 00       		.byte	0
 5629 0a00 0D       		.uleb128 0xd
 5630 0a01 1A020000 		.4byte	.LASF146
 5631 0a05 09       		.byte	0x9
 5632 0a06 16       		.byte	0x16
 5633 0a07 DD080000 		.4byte	0x8dd
 5634 0a0b 04       		.byte	0x4
 5635 0a0c 11       		.uleb128 0x11
 5636 0a0d 6C656E00 		.ascii	"len\000"
 5637 0a11 09       		.byte	0x9
 5638 0a12 17       		.byte	0x17
 5639 0a13 DD080000 		.4byte	0x8dd
 5640 0a17 06       		.byte	0x6
 5641 0a18 00       		.byte	0
 5642 0a19 10       		.uleb128 0x10
 5643 0a1a C3080000 		.4byte	.LASF147
ARM GAS  C:\Users\25521\AppData\Local\Temp\ccDmagyc.s 			page 100


 5644 0a1e 08       		.byte	0x8
 5645 0a1f 09       		.byte	0x9
 5646 0a20 1A       		.byte	0x1a
 5647 0a21 4A0A0000 		.4byte	0xa4a
 5648 0a25 11       		.uleb128 0x11
 5649 0a26 62756600 		.ascii	"buf\000"
 5650 0a2a 09       		.byte	0x9
 5651 0a2b 1B       		.byte	0x1b
 5652 0a2c 4A0A0000 		.4byte	0xa4a
 5653 0a30 00       		.byte	0
 5654 0a31 0D       		.uleb128 0xd
 5655 0a32 B6010000 		.4byte	.LASF148
 5656 0a36 09       		.byte	0x9
 5657 0a37 1C       		.byte	0x1c
 5658 0a38 DD080000 		.4byte	0x8dd
 5659 0a3c 04       		.byte	0x4
 5660 0a3d 11       		.uleb128 0x11
 5661 0a3e 64696D00 		.ascii	"dim\000"
 5662 0a42 09       		.byte	0x9
 5663 0a43 1D       		.byte	0x1d
 5664 0a44 DD080000 		.4byte	0x8dd
 5665 0a48 06       		.byte	0x6
 5666 0a49 00       		.byte	0
 5667 0a4a 05       		.uleb128 0x5
 5668 0a4b 04       		.byte	0x4
 5669 0a4c 25000000 		.4byte	0x25
 5670 0a50 0F       		.uleb128 0xf
 5671 0a51 25000000 		.4byte	0x25
 5672 0a55 10       		.uleb128 0x10
 5673 0a56 2C040000 		.4byte	.LASF149
 5674 0a5a 08       		.byte	0x8
 5675 0a5b 09       		.byte	0x9
 5676 0a5c 20       		.byte	0x20
 5677 0a5d 820A0000 		.4byte	0xa82
 5678 0a61 11       		.uleb128 0x11
 5679 0a62 62756600 		.ascii	"buf\000"
 5680 0a66 09       		.byte	0x9
 5681 0a67 21       		.byte	0x21
 5682 0a68 4A0A0000 		.4byte	0xa4a
 5683 0a6c 00       		.byte	0
 5684 0a6d 11       		.uleb128 0x11
 5685 0a6e 6E00     		.ascii	"n\000"
 5686 0a70 09       		.byte	0x9
 5687 0a71 22       		.byte	0x22
 5688 0a72 DD080000 		.4byte	0x8dd
 5689 0a76 04       		.byte	0x4
 5690 0a77 11       		.uleb128 0x11
 5691 0a78 6D00     		.ascii	"m\000"
 5692 0a7a 09       		.byte	0x9
 5693 0a7b 23       		.byte	0x23
 5694 0a7c DD080000 		.4byte	0x8dd
 5695 0a80 06       		.byte	0x6
 5696 0a81 00       		.byte	0
 5697 0a82 08       		.uleb128 0x8
 5698 0a83 08       		.byte	0x8
 5699 0a84 09       		.byte	0x9
 5700 0a85 35       		.byte	0x35
ARM GAS  C:\Users\25521\AppData\Local\Temp\ccDmagyc.s 			page 101


 5701 0a86 C70A0000 		.4byte	0xac7
 5702 0a8a 21       		.uleb128 0x21
 5703 0a8b 6200     		.ascii	"b\000"
 5704 0a8d 09       		.byte	0x9
 5705 0a8e 36       		.byte	0x36
 5706 0a8f C70A0000 		.4byte	0xac7
 5707 0a93 21       		.uleb128 0x21
 5708 0a94 7300     		.ascii	"s\000"
 5709 0a96 09       		.byte	0x9
 5710 0a97 37       		.byte	0x37
 5711 0a98 25000000 		.4byte	0x25
 5712 0a9c 21       		.uleb128 0x21
 5713 0a9d 6900     		.ascii	"i\000"
 5714 0a9f 09       		.byte	0x9
 5715 0aa0 38       		.byte	0x38
 5716 0aa1 E8080000 		.4byte	0x8e8
 5717 0aa5 21       		.uleb128 0x21
 5718 0aa6 73747200 		.ascii	"str\000"
 5719 0aaa 09       		.byte	0x9
 5720 0aab 39       		.byte	0x39
 5721 0aac E8090000 		.4byte	0x9e8
 5722 0ab0 09       		.uleb128 0x9
 5723 0ab1 790A0000 		.4byte	.LASF150
 5724 0ab5 09       		.byte	0x9
 5725 0ab6 3A       		.byte	0x3a
 5726 0ab7 190A0000 		.4byte	0xa19
 5727 0abb 21       		.uleb128 0x21
 5728 0abc 6D617400 		.ascii	"mat\000"
 5729 0ac0 09       		.byte	0x9
 5730 0ac1 3B       		.byte	0x3b
 5731 0ac2 550A0000 		.4byte	0xa55
 5732 0ac6 00       		.byte	0
 5733 0ac7 02       		.uleb128 0x2
 5734 0ac8 01       		.byte	0x1
 5735 0ac9 02       		.byte	0x2
 5736 0aca 5F080000 		.4byte	.LASF151
 5737 0ace 22       		.uleb128 0x22
 5738 0acf 44080000 		.4byte	.LASF152
 5739 0ad3 01       		.byte	0x1
 5740 0ad4 3902     		.2byte	0x239
 5741 0ad6 00000000 		.4byte	.LFB47
 5742 0ada 60000000 		.4byte	.LFE47-.LFB47
 5743 0ade 01       		.uleb128 0x1
 5744 0adf 9C       		.byte	0x9c
 5745 0ae0 6F0B0000 		.4byte	0xb6f
 5746 0ae4 23       		.uleb128 0x23
 5747 0ae5 7000     		.ascii	"p\000"
 5748 0ae7 01       		.byte	0x1
 5749 0ae8 3902     		.2byte	0x239
 5750 0aea E2090000 		.4byte	0x9e2
 5751 0aee 00000000 		.4byte	.LLST192
 5752 0af2 23       		.uleb128 0x23
 5753 0af3 73747200 		.ascii	"str\000"
 5754 0af7 01       		.byte	0x1
 5755 0af8 3902     		.2byte	0x239
 5756 0afa CE050000 		.4byte	0x5ce
 5757 0afe 42000000 		.4byte	.LLST193
ARM GAS  C:\Users\25521\AppData\Local\Temp\ccDmagyc.s 			page 102


 5758 0b02 23       		.uleb128 0x23
 5759 0b03 6C656E00 		.ascii	"len\000"
 5760 0b07 01       		.byte	0x1
 5761 0b08 3902     		.2byte	0x239
 5762 0b0a DD080000 		.4byte	0x8dd
 5763 0b0e 79000000 		.4byte	.LLST194
 5764 0b12 24       		.uleb128 0x24
 5765 0b13 20000000 		.4byte	.LVL389
 5766 0b17 3E250000 		.4byte	0x253e
 5767 0b1b 24       		.uleb128 0x24
 5768 0b1c 24000000 		.4byte	.LVL390
 5769 0b20 49250000 		.4byte	0x2549
 5770 0b24 24       		.uleb128 0x24
 5771 0b25 32000000 		.4byte	.LVL391
 5772 0b29 3E250000 		.4byte	0x253e
 5773 0b2d 25       		.uleb128 0x25
 5774 0b2e 3C000000 		.4byte	.LVL392
 5775 0b32 54250000 		.4byte	0x2554
 5776 0b36 470B0000 		.4byte	0xb47
 5777 0b3a 26       		.uleb128 0x26
 5778 0b3b 01       		.uleb128 0x1
 5779 0b3c 51       		.byte	0x51
 5780 0b3d 02       		.uleb128 0x2
 5781 0b3e 77       		.byte	0x77
 5782 0b3f 00       		.sleb128 0
 5783 0b40 26       		.uleb128 0x26
 5784 0b41 01       		.uleb128 0x1
 5785 0b42 52       		.byte	0x52
 5786 0b43 02       		.uleb128 0x2
 5787 0b44 75       		.byte	0x75
 5788 0b45 00       		.sleb128 0
 5789 0b46 00       		.byte	0
 5790 0b47 24       		.uleb128 0x24
 5791 0b48 42000000 		.4byte	.LVL393
 5792 0b4c 63250000 		.4byte	0x2563
 5793 0b50 27       		.uleb128 0x27
 5794 0b51 56000000 		.4byte	.LVL395
 5795 0b55 431C0000 		.4byte	0x1c43
 5796 0b59 650B0000 		.4byte	0xb65
 5797 0b5d 26       		.uleb128 0x26
 5798 0b5e 01       		.uleb128 0x1
 5799 0b5f 50       		.byte	0x50
 5800 0b60 03       		.uleb128 0x3
 5801 0b61 F3       		.byte	0xf3
 5802 0b62 01       		.uleb128 0x1
 5803 0b63 50       		.byte	0x50
 5804 0b64 00       		.byte	0
 5805 0b65 24       		.uleb128 0x24
 5806 0b66 5A000000 		.4byte	.LVL396
 5807 0b6a 6E250000 		.4byte	0x256e
 5808 0b6e 00       		.byte	0
 5809 0b6f 22       		.uleb128 0x22
 5810 0b70 36020000 		.4byte	.LASF153
 5811 0b74 01       		.byte	0x1
 5812 0b75 3402     		.2byte	0x234
 5813 0b77 00000000 		.4byte	.LFB46
 5814 0b7b 34000000 		.4byte	.LFE46-.LFB46
ARM GAS  C:\Users\25521\AppData\Local\Temp\ccDmagyc.s 			page 103


 5815 0b7f 01       		.uleb128 0x1
 5816 0b80 9C       		.byte	0x9c
 5817 0b81 DD0B0000 		.4byte	0xbdd
 5818 0b85 23       		.uleb128 0x23
 5819 0b86 7000     		.ascii	"p\000"
 5820 0b88 01       		.byte	0x1
 5821 0b89 3402     		.2byte	0x234
 5822 0b8b E2090000 		.4byte	0x9e2
 5823 0b8f 9A000000 		.4byte	.LLST195
 5824 0b93 23       		.uleb128 0x23
 5825 0b94 73747200 		.ascii	"str\000"
 5826 0b98 01       		.byte	0x1
 5827 0b99 3402     		.2byte	0x234
 5828 0b9b CE050000 		.4byte	0x5ce
 5829 0b9f DC000000 		.4byte	.LLST196
 5830 0ba3 25       		.uleb128 0x25
 5831 0ba4 14000000 		.4byte	.LVL399
 5832 0ba8 77250000 		.4byte	0x2577
 5833 0bac B70B0000 		.4byte	0xbb7
 5834 0bb0 26       		.uleb128 0x26
 5835 0bb1 01       		.uleb128 0x1
 5836 0bb2 50       		.byte	0x50
 5837 0bb3 02       		.uleb128 0x2
 5838 0bb4 75       		.byte	0x75
 5839 0bb5 00       		.sleb128 0
 5840 0bb6 00       		.byte	0
 5841 0bb7 27       		.uleb128 0x27
 5842 0bb8 2C000000 		.4byte	.LVL401
 5843 0bbc CE0A0000 		.4byte	0xace
 5844 0bc0 D30B0000 		.4byte	0xbd3
 5845 0bc4 26       		.uleb128 0x26
 5846 0bc5 01       		.uleb128 0x1
 5847 0bc6 50       		.byte	0x50
 5848 0bc7 03       		.uleb128 0x3
 5849 0bc8 F3       		.byte	0xf3
 5850 0bc9 01       		.uleb128 0x1
 5851 0bca 50       		.byte	0x50
 5852 0bcb 26       		.uleb128 0x26
 5853 0bcc 01       		.uleb128 0x1
 5854 0bcd 51       		.byte	0x51
 5855 0bce 03       		.uleb128 0x3
 5856 0bcf F3       		.byte	0xf3
 5857 0bd0 01       		.uleb128 0x1
 5858 0bd1 51       		.byte	0x51
 5859 0bd2 00       		.byte	0
 5860 0bd3 24       		.uleb128 0x24
 5861 0bd4 30000000 		.4byte	.LVL402
 5862 0bd8 6E250000 		.4byte	0x256e
 5863 0bdc 00       		.byte	0
 5864 0bdd 28       		.uleb128 0x28
 5865 0bde 80080000 		.4byte	.LASF155
 5866 0be2 01       		.byte	0x1
 5867 0be3 2302     		.2byte	0x223
 5868 0be5 DD080000 		.4byte	0x8dd
 5869 0be9 00000000 		.4byte	.LFB45
 5870 0bed 74000000 		.4byte	.LFE45-.LFB45
 5871 0bf1 01       		.uleb128 0x1
ARM GAS  C:\Users\25521\AppData\Local\Temp\ccDmagyc.s 			page 104


 5872 0bf2 9C       		.byte	0x9c
 5873 0bf3 960C0000 		.4byte	0xc96
 5874 0bf7 23       		.uleb128 0x23
 5875 0bf8 7000     		.ascii	"p\000"
 5876 0bfa 01       		.byte	0x1
 5877 0bfb 2302     		.2byte	0x223
 5878 0bfd E2090000 		.4byte	0x9e2
 5879 0c01 1E010000 		.4byte	.LLST186
 5880 0c05 23       		.uleb128 0x23
 5881 0c06 6F757400 		.ascii	"out\000"
 5882 0c0a 01       		.byte	0x1
 5883 0c0b 2302     		.2byte	0x223
 5884 0c0d 50010000 		.4byte	0x150
 5885 0c11 3C010000 		.4byte	.LLST187
 5886 0c15 29       		.uleb128 0x29
 5887 0c16 51010000 		.4byte	.LASF154
 5888 0c1a 01       		.byte	0x1
 5889 0c1b 2302     		.2byte	0x223
 5890 0c1d DD080000 		.4byte	0x8dd
 5891 0c21 8C010000 		.4byte	.LLST188
 5892 0c25 2A       		.uleb128 0x2a
 5893 0c26 6C656E00 		.ascii	"len\000"
 5894 0c2a 01       		.byte	0x1
 5895 0c2b 2802     		.2byte	0x228
 5896 0c2d DD080000 		.4byte	0x8dd
 5897 0c31 01       		.uleb128 0x1
 5898 0c32 56       		.byte	0x56
 5899 0c33 24       		.uleb128 0x24
 5900 0c34 26000000 		.4byte	.LVL371
 5901 0c38 3E250000 		.4byte	0x253e
 5902 0c3c 24       		.uleb128 0x24
 5903 0c3d 2A000000 		.4byte	.LVL372
 5904 0c41 49250000 		.4byte	0x2549
 5905 0c45 24       		.uleb128 0x24
 5906 0c46 30000000 		.4byte	.LVL373
 5907 0c4a 3E250000 		.4byte	0x253e
 5908 0c4e 25       		.uleb128 0x25
 5909 0c4f 42000000 		.4byte	.LVL376
 5910 0c53 54250000 		.4byte	0x2554
 5911 0c57 690C0000 		.4byte	0xc69
 5912 0c5b 26       		.uleb128 0x26
 5913 0c5c 01       		.uleb128 0x1
 5914 0c5d 50       		.byte	0x50
 5915 0c5e 03       		.uleb128 0x3
 5916 0c5f F3       		.byte	0xf3
 5917 0c60 01       		.uleb128 0x1
 5918 0c61 51       		.byte	0x51
 5919 0c62 26       		.uleb128 0x26
 5920 0c63 01       		.uleb128 0x1
 5921 0c64 52       		.byte	0x52
 5922 0c65 02       		.uleb128 0x2
 5923 0c66 77       		.byte	0x77
 5924 0c67 7F       		.sleb128 -1
 5925 0c68 00       		.byte	0
 5926 0c69 24       		.uleb128 0x24
 5927 0c6a 4C000000 		.4byte	.LVL377
 5928 0c6e 63250000 		.4byte	0x2563
ARM GAS  C:\Users\25521\AppData\Local\Temp\ccDmagyc.s 			page 105


 5929 0c72 25       		.uleb128 0x25
 5930 0c73 66000000 		.4byte	.LVL379
 5931 0c77 54250000 		.4byte	0x2554
 5932 0c7b 8C0C0000 		.4byte	0xc8c
 5933 0c7f 26       		.uleb128 0x26
 5934 0c80 01       		.uleb128 0x1
 5935 0c81 50       		.byte	0x50
 5936 0c82 02       		.uleb128 0x2
 5937 0c83 75       		.byte	0x75
 5938 0c84 00       		.sleb128 0
 5939 0c85 26       		.uleb128 0x26
 5940 0c86 01       		.uleb128 0x1
 5941 0c87 52       		.byte	0x52
 5942 0c88 02       		.uleb128 0x2
 5943 0c89 76       		.byte	0x76
 5944 0c8a 00       		.sleb128 0
 5945 0c8b 00       		.byte	0
 5946 0c8c 24       		.uleb128 0x24
 5947 0c8d 70000000 		.4byte	.LVL381
 5948 0c91 6E250000 		.4byte	0x256e
 5949 0c95 00       		.byte	0
 5950 0c96 28       		.uleb128 0x28
 5951 0c97 270C0000 		.4byte	.LASF156
 5952 0c9b 01       		.byte	0x1
 5953 0c9c 1D02     		.2byte	0x21d
 5954 0c9e DD080000 		.4byte	0x8dd
 5955 0ca2 00000000 		.4byte	.LFB44
 5956 0ca6 34000000 		.4byte	.LFE44-.LFB44
 5957 0caa 01       		.uleb128 0x1
 5958 0cab 9C       		.byte	0x9c
 5959 0cac 180D0000 		.4byte	0xd18
 5960 0cb0 23       		.uleb128 0x23
 5961 0cb1 7000     		.ascii	"p\000"
 5962 0cb3 01       		.byte	0x1
 5963 0cb4 1D02     		.2byte	0x21d
 5964 0cb6 E2090000 		.4byte	0x9e2
 5965 0cba AD010000 		.4byte	.LLST189
 5966 0cbe 23       		.uleb128 0x23
 5967 0cbf 6F757400 		.ascii	"out\000"
 5968 0cc3 01       		.byte	0x1
 5969 0cc4 1D02     		.2byte	0x21d
 5970 0cc6 50010000 		.4byte	0x150
 5971 0cca EF010000 		.4byte	.LLST190
 5972 0cce 29       		.uleb128 0x29
 5973 0ccf 51010000 		.4byte	.LASF154
 5974 0cd3 01       		.byte	0x1
 5975 0cd4 1D02     		.2byte	0x21d
 5976 0cd6 DD080000 		.4byte	0x8dd
 5977 0cda 31020000 		.4byte	.LLST191
 5978 0cde 25       		.uleb128 0x25
 5979 0cdf 14000000 		.4byte	.LVL383
 5980 0ce3 181C0000 		.4byte	0x1c18
 5981 0ce7 F20C0000 		.4byte	0xcf2
 5982 0ceb 26       		.uleb128 0x26
 5983 0cec 01       		.uleb128 0x1
 5984 0ced 50       		.byte	0x50
 5985 0cee 02       		.uleb128 0x2
ARM GAS  C:\Users\25521\AppData\Local\Temp\ccDmagyc.s 			page 106


 5986 0cef 75       		.byte	0x75
 5987 0cf0 00       		.sleb128 0
 5988 0cf1 00       		.byte	0
 5989 0cf2 27       		.uleb128 0x27
 5990 0cf3 2C000000 		.4byte	.LVL385
 5991 0cf7 DD0B0000 		.4byte	0xbdd
 5992 0cfb 0E0D0000 		.4byte	0xd0e
 5993 0cff 26       		.uleb128 0x26
 5994 0d00 01       		.uleb128 0x1
 5995 0d01 50       		.byte	0x50
 5996 0d02 03       		.uleb128 0x3
 5997 0d03 F3       		.byte	0xf3
 5998 0d04 01       		.uleb128 0x1
 5999 0d05 50       		.byte	0x50
 6000 0d06 26       		.uleb128 0x26
 6001 0d07 01       		.uleb128 0x1
 6002 0d08 51       		.byte	0x51
 6003 0d09 03       		.uleb128 0x3
 6004 0d0a F3       		.byte	0xf3
 6005 0d0b 01       		.uleb128 0x1
 6006 0d0c 51       		.byte	0x51
 6007 0d0d 00       		.byte	0
 6008 0d0e 24       		.uleb128 0x24
 6009 0d0f 30000000 		.4byte	.LVL386
 6010 0d13 6E250000 		.4byte	0x256e
 6011 0d17 00       		.byte	0
 6012 0d18 28       		.uleb128 0x28
 6013 0d19 E0020000 		.4byte	.LASF157
 6014 0d1d 01       		.byte	0x1
 6015 0d1e 1702     		.2byte	0x217
 6016 0d20 DD080000 		.4byte	0x8dd
 6017 0d24 00000000 		.4byte	.LFB43
 6018 0d28 38000000 		.4byte	.LFE43-.LFB43
 6019 0d2c 01       		.uleb128 0x1
 6020 0d2d 9C       		.byte	0x9c
 6021 0d2e 530D0000 		.4byte	0xd53
 6022 0d32 23       		.uleb128 0x23
 6023 0d33 7000     		.ascii	"p\000"
 6024 0d35 01       		.byte	0x1
 6025 0d36 1702     		.2byte	0x217
 6026 0d38 E2090000 		.4byte	0x9e2
 6027 0d3c 52020000 		.4byte	.LLST185
 6028 0d40 24       		.uleb128 0x24
 6029 0d41 1C000000 		.4byte	.LVL366
 6030 0d45 3E250000 		.4byte	0x253e
 6031 0d49 24       		.uleb128 0x24
 6032 0d4a 32000000 		.4byte	.LVL368
 6033 0d4e 6E250000 		.4byte	0x256e
 6034 0d52 00       		.byte	0
 6035 0d53 22       		.uleb128 0x22
 6036 0d54 1F0B0000 		.4byte	.LASF158
 6037 0d58 01       		.byte	0x1
 6038 0d59 0902     		.2byte	0x209
 6039 0d5b 00000000 		.4byte	.LFB42
 6040 0d5f 70000000 		.4byte	.LFE42-.LFB42
 6041 0d63 01       		.uleb128 0x1
 6042 0d64 9C       		.byte	0x9c
ARM GAS  C:\Users\25521\AppData\Local\Temp\ccDmagyc.s 			page 107


 6043 0d65 9B0E0000 		.4byte	0xe9b
 6044 0d69 23       		.uleb128 0x23
 6045 0d6a 7000     		.ascii	"p\000"
 6046 0d6c 01       		.byte	0x1
 6047 0d6d 0902     		.2byte	0x209
 6048 0d6f E2090000 		.4byte	0x9e2
 6049 0d73 70020000 		.4byte	.LLST171
 6050 0d77 23       		.uleb128 0x23
 6051 0d78 6E7300   		.ascii	"ns\000"
 6052 0d7b 01       		.byte	0x1
 6053 0d7c 0A02     		.2byte	0x20a
 6054 0d7e DC090000 		.4byte	0x9dc
 6055 0d82 B2020000 		.4byte	.LLST172
 6056 0d86 23       		.uleb128 0x23
 6057 0d87 696400   		.ascii	"id\000"
 6058 0d8a 01       		.byte	0x1
 6059 0d8b 0B02     		.2byte	0x20b
 6060 0d8d CE050000 		.4byte	0x5ce
 6061 0d91 DF020000 		.4byte	.LLST173
 6062 0d95 23       		.uleb128 0x23
 6063 0d96 62756600 		.ascii	"buf\000"
 6064 0d9a 01       		.byte	0x1
 6065 0d9b 0C02     		.2byte	0x20c
 6066 0d9d 50010000 		.4byte	0x150
 6067 0da1 00030000 		.4byte	.LLST174
 6068 0da5 29       		.uleb128 0x29
 6069 0da6 B2020000 		.4byte	.LASF159
 6070 0daa 01       		.byte	0x1
 6071 0dab 0D02     		.2byte	0x20d
 6072 0dad DD080000 		.4byte	0x8dd
 6073 0db1 2D030000 		.4byte	.LLST175
 6074 0db5 29       		.uleb128 0x29
 6075 0db6 13070000 		.4byte	.LASF160
 6076 0dba 01       		.byte	0x1
 6077 0dbb 0E02     		.2byte	0x20e
 6078 0dbd CE050000 		.4byte	0x5ce
 6079 0dc1 59030000 		.4byte	.LLST176
 6080 0dc5 2B       		.uleb128 0x2b
 6081 0dc6 9B0E0000 		.4byte	0xe9b
 6082 0dca 08000000 		.4byte	.LBB193
 6083 0dce C0020000 		.4byte	.Ldebug_ranges0+0x2c0
 6084 0dd2 01       		.byte	0x1
 6085 0dd3 1002     		.2byte	0x210
 6086 0dd5 450E0000 		.4byte	0xe45
 6087 0dd9 2C       		.uleb128 0x2c
 6088 0dda D40E0000 		.4byte	0xed4
 6089 0dde 85030000 		.4byte	.LLST177
 6090 0de2 2C       		.uleb128 0x2c
 6091 0de3 C80E0000 		.4byte	0xec8
 6092 0de7 98030000 		.4byte	.LLST178
 6093 0deb 2C       		.uleb128 0x2c
 6094 0dec BD0E0000 		.4byte	0xebd
 6095 0df0 BA030000 		.4byte	.LLST179
 6096 0df4 2C       		.uleb128 0x2c
 6097 0df5 B20E0000 		.4byte	0xeb2
 6098 0df9 DB030000 		.4byte	.LLST180
 6099 0dfd 2C       		.uleb128 0x2c
ARM GAS  C:\Users\25521\AppData\Local\Temp\ccDmagyc.s 			page 108


 6100 0dfe A80E0000 		.4byte	0xea8
 6101 0e02 FD030000 		.4byte	.LLST181
 6102 0e06 2D       		.uleb128 0x2d
 6103 0e07 6A1D0000 		.4byte	0x1d6a
 6104 0e0b 0E000000 		.4byte	.LBB195
 6105 0e0f E8020000 		.4byte	.Ldebug_ranges0+0x2e8
 6106 0e13 01       		.byte	0x1
 6107 0e14 0602     		.2byte	0x206
 6108 0e16 2C       		.uleb128 0x2c
 6109 0e17 891D0000 		.4byte	0x1d89
 6110 0e1b 10040000 		.4byte	.LLST182
 6111 0e1f 2C       		.uleb128 0x2c
 6112 0e20 7F1D0000 		.4byte	0x1d7f
 6113 0e24 31040000 		.4byte	.LLST183
 6114 0e28 2C       		.uleb128 0x2c
 6115 0e29 761D0000 		.4byte	0x1d76
 6116 0e2d FD030000 		.4byte	.LLST181
 6117 0e31 24       		.uleb128 0x24
 6118 0e32 28000000 		.4byte	.LVL356
 6119 0e36 49250000 		.4byte	0x2549
 6120 0e3a 24       		.uleb128 0x24
 6121 0e3b 34000000 		.4byte	.LVL357
 6122 0e3f 63250000 		.4byte	0x2563
 6123 0e43 00       		.byte	0
 6124 0e44 00       		.byte	0
 6125 0e45 25       		.uleb128 0x25
 6126 0e46 3A000000 		.4byte	.LVL358
 6127 0e4a 77250000 		.4byte	0x2577
 6128 0e4e 590E0000 		.4byte	0xe59
 6129 0e52 26       		.uleb128 0x26
 6130 0e53 01       		.uleb128 0x1
 6131 0e54 50       		.byte	0x50
 6132 0e55 02       		.uleb128 0x2
 6133 0e56 77       		.byte	0x77
 6134 0e57 00       		.sleb128 0
 6135 0e58 00       		.byte	0
 6136 0e59 24       		.uleb128 0x24
 6137 0e5a 4A000000 		.4byte	.LVL359
 6138 0e5e 3E250000 		.4byte	0x253e
 6139 0e62 25       		.uleb128 0x25
 6140 0e63 54000000 		.4byte	.LVL360
 6141 0e67 82250000 		.4byte	0x2582
 6142 0e6b 7C0E0000 		.4byte	0xe7c
 6143 0e6f 26       		.uleb128 0x26
 6144 0e70 01       		.uleb128 0x1
 6145 0e71 51       		.byte	0x51
 6146 0e72 02       		.uleb128 0x2
 6147 0e73 77       		.byte	0x77
 6148 0e74 00       		.sleb128 0
 6149 0e75 26       		.uleb128 0x26
 6150 0e76 01       		.uleb128 0x1
 6151 0e77 52       		.byte	0x52
 6152 0e78 02       		.uleb128 0x2
 6153 0e79 75       		.byte	0x75
 6154 0e7a 00       		.sleb128 0
 6155 0e7b 00       		.byte	0
 6156 0e7c 27       		.uleb128 0x27
ARM GAS  C:\Users\25521\AppData\Local\Temp\ccDmagyc.s 			page 109


 6157 0e7d 68000000 		.4byte	.LVL362
 6158 0e81 431C0000 		.4byte	0x1c43
 6159 0e85 910E0000 		.4byte	0xe91
 6160 0e89 26       		.uleb128 0x26
 6161 0e8a 01       		.uleb128 0x1
 6162 0e8b 50       		.byte	0x50
 6163 0e8c 03       		.uleb128 0x3
 6164 0e8d F3       		.byte	0xf3
 6165 0e8e 01       		.uleb128 0x1
 6166 0e8f 50       		.byte	0x50
 6167 0e90 00       		.byte	0
 6168 0e91 24       		.uleb128 0x24
 6169 0e92 6C000000 		.4byte	.LVL363
 6170 0e96 6E250000 		.4byte	0x256e
 6171 0e9a 00       		.byte	0
 6172 0e9b 2E       		.uleb128 0x2e
 6173 0e9c FD0A0000 		.4byte	.LASF167
 6174 0ea0 01       		.byte	0x1
 6175 0ea1 FD01     		.2byte	0x1fd
 6176 0ea3 01       		.byte	0x1
 6177 0ea4 E10E0000 		.4byte	0xee1
 6178 0ea8 2F       		.uleb128 0x2f
 6179 0ea9 7000     		.ascii	"p\000"
 6180 0eab 01       		.byte	0x1
 6181 0eac FD01     		.2byte	0x1fd
 6182 0eae E2090000 		.4byte	0x9e2
 6183 0eb2 2F       		.uleb128 0x2f
 6184 0eb3 6E7300   		.ascii	"ns\000"
 6185 0eb6 01       		.byte	0x1
 6186 0eb7 FE01     		.2byte	0x1fe
 6187 0eb9 DC090000 		.4byte	0x9dc
 6188 0ebd 2F       		.uleb128 0x2f
 6189 0ebe 696400   		.ascii	"id\000"
 6190 0ec1 01       		.byte	0x1
 6191 0ec2 FF01     		.2byte	0x1ff
 6192 0ec4 CE050000 		.4byte	0x5ce
 6193 0ec8 2F       		.uleb128 0x2f
 6194 0ec9 62756600 		.ascii	"buf\000"
 6195 0ecd 01       		.byte	0x1
 6196 0ece 0002     		.2byte	0x200
 6197 0ed0 50010000 		.4byte	0x150
 6198 0ed4 30       		.uleb128 0x30
 6199 0ed5 B2020000 		.4byte	.LASF159
 6200 0ed9 01       		.byte	0x1
 6201 0eda 0102     		.2byte	0x201
 6202 0edc DD080000 		.4byte	0x8dd
 6203 0ee0 00       		.byte	0
 6204 0ee1 22       		.uleb128 0x22
 6205 0ee2 510B0000 		.4byte	.LASF161
 6206 0ee6 01       		.byte	0x1
 6207 0ee7 EA01     		.2byte	0x1ea
 6208 0ee9 00000000 		.4byte	.LFB40
 6209 0eed 7C000000 		.4byte	.LFE40-.LFB40
 6210 0ef1 01       		.uleb128 0x1
 6211 0ef2 9C       		.byte	0x9c
 6212 0ef3 740F0000 		.4byte	0xf74
 6213 0ef7 23       		.uleb128 0x23
ARM GAS  C:\Users\25521\AppData\Local\Temp\ccDmagyc.s 			page 110


 6214 0ef8 7000     		.ascii	"p\000"
 6215 0efa 01       		.byte	0x1
 6216 0efb EA01     		.2byte	0x1ea
 6217 0efd E2090000 		.4byte	0x9e2
 6218 0f01 53040000 		.4byte	.LLST159
 6219 0f05 23       		.uleb128 0x23
 6220 0f06 7600     		.ascii	"v\000"
 6221 0f08 01       		.byte	0x1
 6222 0f09 EA01     		.2byte	0x1ea
 6223 0f0b 740F0000 		.4byte	0xf74
 6224 0f0f 95040000 		.4byte	.LLST160
 6225 0f13 23       		.uleb128 0x23
 6226 0f14 64696D00 		.ascii	"dim\000"
 6227 0f18 01       		.byte	0x1
 6228 0f19 EA01     		.2byte	0x1ea
 6229 0f1b DD080000 		.4byte	0x8dd
 6230 0f1f CC040000 		.4byte	.LLST161
 6231 0f23 31       		.uleb128 0x31
 6232 0f24 6900     		.ascii	"i\000"
 6233 0f26 01       		.byte	0x1
 6234 0f27 EF01     		.2byte	0x1ef
 6235 0f29 2C000000 		.4byte	0x2c
 6236 0f2d ED040000 		.4byte	.LLST162
 6237 0f31 24       		.uleb128 0x24
 6238 0f32 26000000 		.4byte	.LVL334
 6239 0f36 3E250000 		.4byte	0x253e
 6240 0f3a 24       		.uleb128 0x24
 6241 0f3b 2A000000 		.4byte	.LVL335
 6242 0f3f 49250000 		.4byte	0x2549
 6243 0f43 24       		.uleb128 0x24
 6244 0f44 38000000 		.4byte	.LVL336
 6245 0f48 3E250000 		.4byte	0x253e
 6246 0f4c 24       		.uleb128 0x24
 6247 0f4d 5C000000 		.4byte	.LVL338
 6248 0f51 63250000 		.4byte	0x2563
 6249 0f55 27       		.uleb128 0x27
 6250 0f56 72000000 		.4byte	.LVL340
 6251 0f5a 431C0000 		.4byte	0x1c43
 6252 0f5e 6A0F0000 		.4byte	0xf6a
 6253 0f62 26       		.uleb128 0x26
 6254 0f63 01       		.uleb128 0x1
 6255 0f64 50       		.byte	0x50
 6256 0f65 03       		.uleb128 0x3
 6257 0f66 F3       		.byte	0xf3
 6258 0f67 01       		.uleb128 0x1
 6259 0f68 50       		.byte	0x50
 6260 0f69 00       		.byte	0
 6261 0f6a 24       		.uleb128 0x24
 6262 0f6b 76000000 		.4byte	.LVL341
 6263 0f6f 6E250000 		.4byte	0x256e
 6264 0f73 00       		.byte	0
 6265 0f74 05       		.uleb128 0x5
 6266 0f75 04       		.byte	0x4
 6267 0f76 500A0000 		.4byte	0xa50
 6268 0f7a 28       		.uleb128 0x28
 6269 0f7b 7C030000 		.4byte	.LASF162
 6270 0f7f 01       		.byte	0x1
ARM GAS  C:\Users\25521\AppData\Local\Temp\ccDmagyc.s 			page 111


 6271 0f80 DC01     		.2byte	0x1dc
 6272 0f82 DD080000 		.4byte	0x8dd
 6273 0f86 00000000 		.4byte	.LFB39
 6274 0f8a 60000000 		.4byte	.LFE39-.LFB39
 6275 0f8e 01       		.uleb128 0x1
 6276 0f8f 9C       		.byte	0x9c
 6277 0f90 FC0F0000 		.4byte	0xffc
 6278 0f94 23       		.uleb128 0x23
 6279 0f95 7000     		.ascii	"p\000"
 6280 0f97 01       		.byte	0x1
 6281 0f98 DC01     		.2byte	0x1dc
 6282 0f9a E2090000 		.4byte	0x9e2
 6283 0f9e 01050000 		.4byte	.LLST154
 6284 0fa2 23       		.uleb128 0x23
 6285 0fa3 6F757400 		.ascii	"out\000"
 6286 0fa7 01       		.byte	0x1
 6287 0fa8 DC01     		.2byte	0x1dc
 6288 0faa 4A0A0000 		.4byte	0xa4a
 6289 0fae 1F050000 		.4byte	.LLST155
 6290 0fb2 31       		.uleb128 0x31
 6291 0fb3 6900     		.ascii	"i\000"
 6292 0fb5 01       		.byte	0x1
 6293 0fb6 E101     		.2byte	0x1e1
 6294 0fb8 2C000000 		.4byte	0x2c
 6295 0fbc 3D050000 		.4byte	.LLST156
 6296 0fc0 2A       		.uleb128 0x2a
 6297 0fc1 72657400 		.ascii	"ret\000"
 6298 0fc5 01       		.byte	0x1
 6299 0fc6 E501     		.2byte	0x1e5
 6300 0fc8 DD080000 		.4byte	0x8dd
 6301 0fcc 01       		.uleb128 0x1
 6302 0fcd 55       		.byte	0x55
 6303 0fce 24       		.uleb128 0x24
 6304 0fcf 1E000000 		.4byte	.LVL318
 6305 0fd3 3E250000 		.4byte	0x253e
 6306 0fd7 24       		.uleb128 0x24
 6307 0fd8 22000000 		.4byte	.LVL319
 6308 0fdc 49250000 		.4byte	0x2549
 6309 0fe0 24       		.uleb128 0x24
 6310 0fe1 28000000 		.4byte	.LVL320
 6311 0fe5 3E250000 		.4byte	0x253e
 6312 0fe9 24       		.uleb128 0x24
 6313 0fea 48000000 		.4byte	.LVL324
 6314 0fee 63250000 		.4byte	0x2563
 6315 0ff2 24       		.uleb128 0x24
 6316 0ff3 5A000000 		.4byte	.LVL326
 6317 0ff7 6E250000 		.4byte	0x256e
 6318 0ffb 00       		.byte	0
 6319 0ffc 28       		.uleb128 0x28
 6320 0ffd 9A090000 		.4byte	.LASF163
 6321 1001 01       		.byte	0x1
 6322 1002 D601     		.2byte	0x1d6
 6323 1004 DD080000 		.4byte	0x8dd
 6324 1008 00000000 		.4byte	.LFB38
 6325 100c 30000000 		.4byte	.LFE38-.LFB38
 6326 1010 01       		.uleb128 0x1
 6327 1011 9C       		.byte	0x9c
ARM GAS  C:\Users\25521\AppData\Local\Temp\ccDmagyc.s 			page 112


 6328 1012 6E100000 		.4byte	0x106e
 6329 1016 23       		.uleb128 0x23
 6330 1017 7000     		.ascii	"p\000"
 6331 1019 01       		.byte	0x1
 6332 101a D601     		.2byte	0x1d6
 6333 101c E2090000 		.4byte	0x9e2
 6334 1020 5C050000 		.4byte	.LLST157
 6335 1024 23       		.uleb128 0x23
 6336 1025 6F757400 		.ascii	"out\000"
 6337 1029 01       		.byte	0x1
 6338 102a D601     		.2byte	0x1d6
 6339 102c 4A0A0000 		.4byte	0xa4a
 6340 1030 9E050000 		.4byte	.LLST158
 6341 1034 25       		.uleb128 0x25
 6342 1035 12000000 		.4byte	.LVL328
 6343 1039 181C0000 		.4byte	0x1c18
 6344 103d 48100000 		.4byte	0x1048
 6345 1041 26       		.uleb128 0x26
 6346 1042 01       		.uleb128 0x1
 6347 1043 50       		.byte	0x50
 6348 1044 02       		.uleb128 0x2
 6349 1045 75       		.byte	0x75
 6350 1046 00       		.sleb128 0
 6351 1047 00       		.byte	0
 6352 1048 27       		.uleb128 0x27
 6353 1049 28000000 		.4byte	.LVL330
 6354 104d 7A0F0000 		.4byte	0xf7a
 6355 1051 64100000 		.4byte	0x1064
 6356 1055 26       		.uleb128 0x26
 6357 1056 01       		.uleb128 0x1
 6358 1057 50       		.byte	0x50
 6359 1058 03       		.uleb128 0x3
 6360 1059 F3       		.byte	0xf3
 6361 105a 01       		.uleb128 0x1
 6362 105b 50       		.byte	0x50
 6363 105c 26       		.uleb128 0x26
 6364 105d 01       		.uleb128 0x1
 6365 105e 51       		.byte	0x51
 6366 105f 03       		.uleb128 0x3
 6367 1060 F3       		.byte	0xf3
 6368 1061 01       		.uleb128 0x1
 6369 1062 51       		.byte	0x51
 6370 1063 00       		.byte	0
 6371 1064 24       		.uleb128 0x24
 6372 1065 2C000000 		.4byte	.LVL331
 6373 1069 6E250000 		.4byte	0x256e
 6374 106d 00       		.byte	0
 6375 106e 28       		.uleb128 0x28
 6376 106f CB0B0000 		.4byte	.LASF164
 6377 1073 01       		.byte	0x1
 6378 1074 D001     		.2byte	0x1d0
 6379 1076 DD080000 		.4byte	0x8dd
 6380 107a 00000000 		.4byte	.LFB37
 6381 107e 34000000 		.4byte	.LFE37-.LFB37
 6382 1082 01       		.uleb128 0x1
 6383 1083 9C       		.byte	0x9c
 6384 1084 A9100000 		.4byte	0x10a9
ARM GAS  C:\Users\25521\AppData\Local\Temp\ccDmagyc.s 			page 113


 6385 1088 23       		.uleb128 0x23
 6386 1089 7000     		.ascii	"p\000"
 6387 108b 01       		.byte	0x1
 6388 108c D001     		.2byte	0x1d0
 6389 108e E2090000 		.4byte	0x9e2
 6390 1092 E0050000 		.4byte	.LLST153
 6391 1096 24       		.uleb128 0x24
 6392 1097 1C000000 		.4byte	.LVL313
 6393 109b 3E250000 		.4byte	0x253e
 6394 109f 24       		.uleb128 0x24
 6395 10a0 2E000000 		.4byte	.LVL315
 6396 10a4 6E250000 		.4byte	0x256e
 6397 10a8 00       		.byte	0
 6398 10a9 22       		.uleb128 0x22
 6399 10aa B0030000 		.4byte	.LASF165
 6400 10ae 01       		.byte	0x1
 6401 10af C301     		.2byte	0x1c3
 6402 10b1 00000000 		.4byte	.LFB36
 6403 10b5 60000000 		.4byte	.LFE36-.LFB36
 6404 10b9 01       		.uleb128 0x1
 6405 10ba 9C       		.byte	0x9c
 6406 10bb C3110000 		.4byte	0x11c3
 6407 10bf 23       		.uleb128 0x23
 6408 10c0 7000     		.ascii	"p\000"
 6409 10c2 01       		.byte	0x1
 6410 10c3 C301     		.2byte	0x1c3
 6411 10c5 E2090000 		.4byte	0x9e2
 6412 10c9 FE050000 		.4byte	.LLST139
 6413 10cd 23       		.uleb128 0x23
 6414 10ce 6E7300   		.ascii	"ns\000"
 6415 10d1 01       		.byte	0x1
 6416 10d2 C401     		.2byte	0x1c4
 6417 10d4 DC090000 		.4byte	0x9dc
 6418 10d8 40060000 		.4byte	.LLST140
 6419 10dc 23       		.uleb128 0x23
 6420 10dd 696400   		.ascii	"id\000"
 6421 10e0 01       		.byte	0x1
 6422 10e1 C501     		.2byte	0x1c5
 6423 10e3 CE050000 		.4byte	0x5ce
 6424 10e7 6D060000 		.4byte	.LLST141
 6425 10eb 23       		.uleb128 0x23
 6426 10ec 62756600 		.ascii	"buf\000"
 6427 10f0 01       		.byte	0x1
 6428 10f1 C601     		.2byte	0x1c6
 6429 10f3 4A0A0000 		.4byte	0xa4a
 6430 10f7 8E060000 		.4byte	.LLST142
 6431 10fb 29       		.uleb128 0x29
 6432 10fc B2020000 		.4byte	.LASF159
 6433 1100 01       		.byte	0x1
 6434 1101 C701     		.2byte	0x1c7
 6435 1103 DD080000 		.4byte	0x8dd
 6436 1107 BB060000 		.4byte	.LLST143
 6437 110b 29       		.uleb128 0x29
 6438 110c 4D000000 		.4byte	.LASF166
 6439 1110 01       		.byte	0x1
 6440 1111 C801     		.2byte	0x1c8
 6441 1113 DD080000 		.4byte	0x8dd
ARM GAS  C:\Users\25521\AppData\Local\Temp\ccDmagyc.s 			page 114


 6442 1117 E7060000 		.4byte	.LLST144
 6443 111b 2B       		.uleb128 0x2b
 6444 111c C3110000 		.4byte	0x11c3
 6445 1120 08000000 		.4byte	.LBB169
 6446 1124 48020000 		.4byte	.Ldebug_ranges0+0x248
 6447 1128 01       		.byte	0x1
 6448 1129 CA01     		.2byte	0x1ca
 6449 112b 9B110000 		.4byte	0x119b
 6450 112f 2C       		.uleb128 0x2c
 6451 1130 FC110000 		.4byte	0x11fc
 6452 1134 13070000 		.4byte	.LLST145
 6453 1138 2C       		.uleb128 0x2c
 6454 1139 F0110000 		.4byte	0x11f0
 6455 113d 26070000 		.4byte	.LLST146
 6456 1141 2C       		.uleb128 0x2c
 6457 1142 E5110000 		.4byte	0x11e5
 6458 1146 48070000 		.4byte	.LLST147
 6459 114a 2C       		.uleb128 0x2c
 6460 114b DA110000 		.4byte	0x11da
 6461 114f 69070000 		.4byte	.LLST148
 6462 1153 2C       		.uleb128 0x2c
 6463 1154 D0110000 		.4byte	0x11d0
 6464 1158 8B070000 		.4byte	.LLST149
 6465 115c 2D       		.uleb128 0x2d
 6466 115d 6A1D0000 		.4byte	0x1d6a
 6467 1161 0E000000 		.4byte	.LBB171
 6468 1165 70020000 		.4byte	.Ldebug_ranges0+0x270
 6469 1169 01       		.byte	0x1
 6470 116a C001     		.2byte	0x1c0
 6471 116c 2C       		.uleb128 0x2c
 6472 116d 891D0000 		.4byte	0x1d89
 6473 1171 9E070000 		.4byte	.LLST150
 6474 1175 2C       		.uleb128 0x2c
 6475 1176 7F1D0000 		.4byte	0x1d7f
 6476 117a BF070000 		.4byte	.LLST151
 6477 117e 2C       		.uleb128 0x2c
 6478 117f 761D0000 		.4byte	0x1d76
 6479 1183 8B070000 		.4byte	.LLST149
 6480 1187 24       		.uleb128 0x24
 6481 1188 2A000000 		.4byte	.LVL305
 6482 118c 49250000 		.4byte	0x2549
 6483 1190 24       		.uleb128 0x24
 6484 1191 36000000 		.4byte	.LVL306
 6485 1195 63250000 		.4byte	0x2563
 6486 1199 00       		.byte	0
 6487 119a 00       		.byte	0
 6488 119b 24       		.uleb128 0x24
 6489 119c 42000000 		.4byte	.LVL307
 6490 11a0 3E250000 		.4byte	0x253e
 6491 11a4 27       		.uleb128 0x27
 6492 11a5 58000000 		.4byte	.LVL309
 6493 11a9 431C0000 		.4byte	0x1c43
 6494 11ad B9110000 		.4byte	0x11b9
 6495 11b1 26       		.uleb128 0x26
 6496 11b2 01       		.uleb128 0x1
 6497 11b3 50       		.byte	0x50
 6498 11b4 03       		.uleb128 0x3
ARM GAS  C:\Users\25521\AppData\Local\Temp\ccDmagyc.s 			page 115


 6499 11b5 F3       		.byte	0xf3
 6500 11b6 01       		.uleb128 0x1
 6501 11b7 50       		.byte	0x50
 6502 11b8 00       		.byte	0
 6503 11b9 24       		.uleb128 0x24
 6504 11ba 5C000000 		.4byte	.LVL310
 6505 11be 6E250000 		.4byte	0x256e
 6506 11c2 00       		.byte	0
 6507 11c3 2E       		.uleb128 0x2e
 6508 11c4 71010000 		.4byte	.LASF168
 6509 11c8 01       		.byte	0x1
 6510 11c9 B701     		.2byte	0x1b7
 6511 11cb 01       		.byte	0x1
 6512 11cc 09120000 		.4byte	0x1209
 6513 11d0 2F       		.uleb128 0x2f
 6514 11d1 7000     		.ascii	"p\000"
 6515 11d3 01       		.byte	0x1
 6516 11d4 B701     		.2byte	0x1b7
 6517 11d6 E2090000 		.4byte	0x9e2
 6518 11da 2F       		.uleb128 0x2f
 6519 11db 6E7300   		.ascii	"ns\000"
 6520 11de 01       		.byte	0x1
 6521 11df B801     		.2byte	0x1b8
 6522 11e1 DC090000 		.4byte	0x9dc
 6523 11e5 2F       		.uleb128 0x2f
 6524 11e6 696400   		.ascii	"id\000"
 6525 11e9 01       		.byte	0x1
 6526 11ea B901     		.2byte	0x1b9
 6527 11ec CE050000 		.4byte	0x5ce
 6528 11f0 2F       		.uleb128 0x2f
 6529 11f1 62756600 		.ascii	"buf\000"
 6530 11f5 01       		.byte	0x1
 6531 11f6 BA01     		.2byte	0x1ba
 6532 11f8 4A0A0000 		.4byte	0xa4a
 6533 11fc 30       		.uleb128 0x30
 6534 11fd B2020000 		.4byte	.LASF159
 6535 1201 01       		.byte	0x1
 6536 1202 BB01     		.2byte	0x1bb
 6537 1204 DD080000 		.4byte	0x8dd
 6538 1208 00       		.byte	0
 6539 1209 22       		.uleb128 0x22
 6540 120a 880A0000 		.4byte	.LASF169
 6541 120e 01       		.byte	0x1
 6542 120f A601     		.2byte	0x1a6
 6543 1211 00000000 		.4byte	.LFB34
 6544 1215 60000000 		.4byte	.LFE34-.LFB34
 6545 1219 01       		.uleb128 0x1
 6546 121a 9C       		.byte	0x9c
 6547 121b 83120000 		.4byte	0x1283
 6548 121f 23       		.uleb128 0x23
 6549 1220 7000     		.ascii	"p\000"
 6550 1222 01       		.byte	0x1
 6551 1223 A601     		.2byte	0x1a6
 6552 1225 E2090000 		.4byte	0x9e2
 6553 1229 E1070000 		.4byte	.LLST128
 6554 122d 23       		.uleb128 0x23
 6555 122e 7600     		.ascii	"v\000"
ARM GAS  C:\Users\25521\AppData\Local\Temp\ccDmagyc.s 			page 116


 6556 1230 01       		.byte	0x1
 6557 1231 A601     		.2byte	0x1a6
 6558 1233 740F0000 		.4byte	0xf74
 6559 1237 23080000 		.4byte	.LLST129
 6560 123b 31       		.uleb128 0x31
 6561 123c 6900     		.ascii	"i\000"
 6562 123e 01       		.byte	0x1
 6563 123f AA01     		.2byte	0x1aa
 6564 1241 2C000000 		.4byte	0x2c
 6565 1245 5A080000 		.4byte	.LLST130
 6566 1249 24       		.uleb128 0x24
 6567 124a 1E000000 		.4byte	.LVL282
 6568 124e 3E250000 		.4byte	0x253e
 6569 1252 24       		.uleb128 0x24
 6570 1253 22000000 		.4byte	.LVL283
 6571 1257 49250000 		.4byte	0x2549
 6572 125b 24       		.uleb128 0x24
 6573 125c 42000000 		.4byte	.LVL287
 6574 1260 63250000 		.4byte	0x2563
 6575 1264 27       		.uleb128 0x27
 6576 1265 56000000 		.4byte	.LVL289
 6577 1269 431C0000 		.4byte	0x1c43
 6578 126d 79120000 		.4byte	0x1279
 6579 1271 26       		.uleb128 0x26
 6580 1272 01       		.uleb128 0x1
 6581 1273 50       		.byte	0x50
 6582 1274 03       		.uleb128 0x3
 6583 1275 F3       		.byte	0xf3
 6584 1276 01       		.uleb128 0x1
 6585 1277 50       		.byte	0x50
 6586 1278 00       		.byte	0
 6587 1279 24       		.uleb128 0x24
 6588 127a 5A000000 		.4byte	.LVL290
 6589 127e 6E250000 		.4byte	0x256e
 6590 1282 00       		.byte	0
 6591 1283 22       		.uleb128 0x22
 6592 1284 EB050000 		.4byte	.LASF170
 6593 1288 01       		.byte	0x1
 6594 1289 9A01     		.2byte	0x19a
 6595 128b 00000000 		.4byte	.LFB33
 6596 128f 60000000 		.4byte	.LFE33-.LFB33
 6597 1293 01       		.uleb128 0x1
 6598 1294 9C       		.byte	0x9c
 6599 1295 F3120000 		.4byte	0x12f3
 6600 1299 23       		.uleb128 0x23
 6601 129a 7000     		.ascii	"p\000"
 6602 129c 01       		.byte	0x1
 6603 129d 9A01     		.2byte	0x19a
 6604 129f E2090000 		.4byte	0x9e2
 6605 12a3 79080000 		.4byte	.LLST123
 6606 12a7 23       		.uleb128 0x23
 6607 12a8 6F757400 		.ascii	"out\000"
 6608 12ac 01       		.byte	0x1
 6609 12ad 9A01     		.2byte	0x19a
 6610 12af 4A0A0000 		.4byte	0xa4a
 6611 12b3 B0080000 		.4byte	.LLST124
 6612 12b7 31       		.uleb128 0x31
ARM GAS  C:\Users\25521\AppData\Local\Temp\ccDmagyc.s 			page 117


 6613 12b8 6900     		.ascii	"i\000"
 6614 12ba 01       		.byte	0x1
 6615 12bb 9F01     		.2byte	0x19f
 6616 12bd 2C000000 		.4byte	0x2c
 6617 12c1 E7080000 		.4byte	.LLST125
 6618 12c5 24       		.uleb128 0x24
 6619 12c6 1E000000 		.4byte	.LVL266
 6620 12ca 3E250000 		.4byte	0x253e
 6621 12ce 24       		.uleb128 0x24
 6622 12cf 22000000 		.4byte	.LVL267
 6623 12d3 49250000 		.4byte	0x2549
 6624 12d7 24       		.uleb128 0x24
 6625 12d8 28000000 		.4byte	.LVL268
 6626 12dc 3E250000 		.4byte	0x253e
 6627 12e0 32       		.uleb128 0x32
 6628 12e1 56000000 		.4byte	.LVL273
 6629 12e5 63250000 		.4byte	0x2563
 6630 12e9 24       		.uleb128 0x24
 6631 12ea 5A000000 		.4byte	.LVL274
 6632 12ee 6E250000 		.4byte	0x256e
 6633 12f2 00       		.byte	0
 6634 12f3 22       		.uleb128 0x22
 6635 12f4 F40C0000 		.4byte	.LASF171
 6636 12f8 01       		.byte	0x1
 6637 12f9 9401     		.2byte	0x194
 6638 12fb 00000000 		.4byte	.LFB32
 6639 12ff 30000000 		.4byte	.LFE32-.LFB32
 6640 1303 01       		.uleb128 0x1
 6641 1304 9C       		.byte	0x9c
 6642 1305 61130000 		.4byte	0x1361
 6643 1309 23       		.uleb128 0x23
 6644 130a 7000     		.ascii	"p\000"
 6645 130c 01       		.byte	0x1
 6646 130d 9401     		.2byte	0x194
 6647 130f E2090000 		.4byte	0x9e2
 6648 1313 06090000 		.4byte	.LLST126
 6649 1317 23       		.uleb128 0x23
 6650 1318 6F757400 		.ascii	"out\000"
 6651 131c 01       		.byte	0x1
 6652 131d 9401     		.2byte	0x194
 6653 131f 4A0A0000 		.4byte	0xa4a
 6654 1323 48090000 		.4byte	.LLST127
 6655 1327 25       		.uleb128 0x25
 6656 1328 12000000 		.4byte	.LVL276
 6657 132c 181C0000 		.4byte	0x1c18
 6658 1330 3B130000 		.4byte	0x133b
 6659 1334 26       		.uleb128 0x26
 6660 1335 01       		.uleb128 0x1
 6661 1336 50       		.byte	0x50
 6662 1337 02       		.uleb128 0x2
 6663 1338 75       		.byte	0x75
 6664 1339 00       		.sleb128 0
 6665 133a 00       		.byte	0
 6666 133b 27       		.uleb128 0x27
 6667 133c 28000000 		.4byte	.LVL278
 6668 1340 83120000 		.4byte	0x1283
 6669 1344 57130000 		.4byte	0x1357
ARM GAS  C:\Users\25521\AppData\Local\Temp\ccDmagyc.s 			page 118


 6670 1348 26       		.uleb128 0x26
 6671 1349 01       		.uleb128 0x1
 6672 134a 50       		.byte	0x50
 6673 134b 03       		.uleb128 0x3
 6674 134c F3       		.byte	0xf3
 6675 134d 01       		.uleb128 0x1
 6676 134e 50       		.byte	0x50
 6677 134f 26       		.uleb128 0x26
 6678 1350 01       		.uleb128 0x1
 6679 1351 51       		.byte	0x51
 6680 1352 03       		.uleb128 0x3
 6681 1353 F3       		.byte	0xf3
 6682 1354 01       		.uleb128 0x1
 6683 1355 51       		.byte	0x51
 6684 1356 00       		.byte	0
 6685 1357 24       		.uleb128 0x24
 6686 1358 2C000000 		.4byte	.LVL279
 6687 135c 6E250000 		.4byte	0x256e
 6688 1360 00       		.byte	0
 6689 1361 28       		.uleb128 0x28
 6690 1362 18000000 		.4byte	.LASF172
 6691 1366 01       		.byte	0x1
 6692 1367 8E01     		.2byte	0x18e
 6693 1369 DD080000 		.4byte	0x8dd
 6694 136d 00000000 		.4byte	.LFB31
 6695 1371 34000000 		.4byte	.LFE31-.LFB31
 6696 1375 01       		.uleb128 0x1
 6697 1376 9C       		.byte	0x9c
 6698 1377 9C130000 		.4byte	0x139c
 6699 137b 23       		.uleb128 0x23
 6700 137c 7000     		.ascii	"p\000"
 6701 137e 01       		.byte	0x1
 6702 137f 8E01     		.2byte	0x18e
 6703 1381 E2090000 		.4byte	0x9e2
 6704 1385 8A090000 		.4byte	.LLST122
 6705 1389 24       		.uleb128 0x24
 6706 138a 1C000000 		.4byte	.LVL261
 6707 138e 3E250000 		.4byte	0x253e
 6708 1392 24       		.uleb128 0x24
 6709 1393 2E000000 		.4byte	.LVL263
 6710 1397 6E250000 		.4byte	0x256e
 6711 139b 00       		.byte	0
 6712 139c 22       		.uleb128 0x22
 6713 139d 150A0000 		.4byte	.LASF173
 6714 13a1 01       		.byte	0x1
 6715 13a2 8401     		.2byte	0x184
 6716 13a4 00000000 		.4byte	.LFB30
 6717 13a8 50000000 		.4byte	.LFE30-.LFB30
 6718 13ac 01       		.uleb128 0x1
 6719 13ad 9C       		.byte	0x9c
 6720 13ae 9D140000 		.4byte	0x149d
 6721 13b2 23       		.uleb128 0x23
 6722 13b3 7000     		.ascii	"p\000"
 6723 13b5 01       		.byte	0x1
 6724 13b6 8401     		.2byte	0x184
 6725 13b8 E2090000 		.4byte	0x9e2
 6726 13bc A8090000 		.4byte	.LLST109
ARM GAS  C:\Users\25521\AppData\Local\Temp\ccDmagyc.s 			page 119


 6727 13c0 23       		.uleb128 0x23
 6728 13c1 6E7300   		.ascii	"ns\000"
 6729 13c4 01       		.byte	0x1
 6730 13c5 8501     		.2byte	0x185
 6731 13c7 DC090000 		.4byte	0x9dc
 6732 13cb EA090000 		.4byte	.LLST110
 6733 13cf 23       		.uleb128 0x23
 6734 13d0 696400   		.ascii	"id\000"
 6735 13d3 01       		.byte	0x1
 6736 13d4 8601     		.2byte	0x186
 6737 13d6 CE050000 		.4byte	0x5ce
 6738 13da 170A0000 		.4byte	.LLST111
 6739 13de 23       		.uleb128 0x23
 6740 13df 62756600 		.ascii	"buf\000"
 6741 13e3 01       		.byte	0x1
 6742 13e4 8701     		.2byte	0x187
 6743 13e6 4A0A0000 		.4byte	0xa4a
 6744 13ea 380A0000 		.4byte	.LLST112
 6745 13ee 23       		.uleb128 0x23
 6746 13ef 64696D00 		.ascii	"dim\000"
 6747 13f3 01       		.byte	0x1
 6748 13f4 8801     		.2byte	0x188
 6749 13f6 DD080000 		.4byte	0x8dd
 6750 13fa 650A0000 		.4byte	.LLST113
 6751 13fe 2B       		.uleb128 0x2b
 6752 13ff 9D140000 		.4byte	0x149d
 6753 1403 0C000000 		.4byte	.LBB149
 6754 1407 E0010000 		.4byte	.Ldebug_ranges0+0x1e0
 6755 140b 01       		.byte	0x1
 6756 140c 8A01     		.2byte	0x18a
 6757 140e 7E140000 		.4byte	0x147e
 6758 1412 2C       		.uleb128 0x2c
 6759 1413 D6140000 		.4byte	0x14d6
 6760 1417 910A0000 		.4byte	.LLST114
 6761 141b 2C       		.uleb128 0x2c
 6762 141c CA140000 		.4byte	0x14ca
 6763 1420 B00A0000 		.4byte	.LLST115
 6764 1424 2C       		.uleb128 0x2c
 6765 1425 BF140000 		.4byte	0x14bf
 6766 1429 D20A0000 		.4byte	.LLST116
 6767 142d 2C       		.uleb128 0x2c
 6768 142e B4140000 		.4byte	0x14b4
 6769 1432 F30A0000 		.4byte	.LLST117
 6770 1436 2C       		.uleb128 0x2c
 6771 1437 AA140000 		.4byte	0x14aa
 6772 143b 150B0000 		.4byte	.LLST118
 6773 143f 2D       		.uleb128 0x2d
 6774 1440 6A1D0000 		.4byte	0x1d6a
 6775 1444 10000000 		.4byte	.LBB151
 6776 1448 00020000 		.4byte	.Ldebug_ranges0+0x200
 6777 144c 01       		.byte	0x1
 6778 144d 8101     		.2byte	0x181
 6779 144f 2C       		.uleb128 0x2c
 6780 1450 891D0000 		.4byte	0x1d89
 6781 1454 280B0000 		.4byte	.LLST119
 6782 1458 2C       		.uleb128 0x2c
 6783 1459 7F1D0000 		.4byte	0x1d7f
ARM GAS  C:\Users\25521\AppData\Local\Temp\ccDmagyc.s 			page 120


 6784 145d 490B0000 		.4byte	.LLST120
 6785 1461 2C       		.uleb128 0x2c
 6786 1462 761D0000 		.4byte	0x1d76
 6787 1466 150B0000 		.4byte	.LLST118
 6788 146a 24       		.uleb128 0x24
 6789 146b 26000000 		.4byte	.LVL254
 6790 146f 49250000 		.4byte	0x2549
 6791 1473 24       		.uleb128 0x24
 6792 1474 32000000 		.4byte	.LVL255
 6793 1478 63250000 		.4byte	0x2563
 6794 147c 00       		.byte	0
 6795 147d 00       		.byte	0
 6796 147e 27       		.uleb128 0x27
 6797 147f 46000000 		.4byte	.LVL257
 6798 1483 431C0000 		.4byte	0x1c43
 6799 1487 93140000 		.4byte	0x1493
 6800 148b 26       		.uleb128 0x26
 6801 148c 01       		.uleb128 0x1
 6802 148d 50       		.byte	0x50
 6803 148e 03       		.uleb128 0x3
 6804 148f F3       		.byte	0xf3
 6805 1490 01       		.uleb128 0x1
 6806 1491 50       		.byte	0x50
 6807 1492 00       		.byte	0
 6808 1493 24       		.uleb128 0x24
 6809 1494 4A000000 		.4byte	.LVL258
 6810 1498 6E250000 		.4byte	0x256e
 6811 149c 00       		.byte	0
 6812 149d 2E       		.uleb128 0x2e
 6813 149e 5F000000 		.4byte	.LASF174
 6814 14a2 01       		.byte	0x1
 6815 14a3 7B01     		.2byte	0x17b
 6816 14a5 01       		.byte	0x1
 6817 14a6 E3140000 		.4byte	0x14e3
 6818 14aa 2F       		.uleb128 0x2f
 6819 14ab 7000     		.ascii	"p\000"
 6820 14ad 01       		.byte	0x1
 6821 14ae 7B01     		.2byte	0x17b
 6822 14b0 E2090000 		.4byte	0x9e2
 6823 14b4 2F       		.uleb128 0x2f
 6824 14b5 6E7300   		.ascii	"ns\000"
 6825 14b8 01       		.byte	0x1
 6826 14b9 7B01     		.2byte	0x17b
 6827 14bb DC090000 		.4byte	0x9dc
 6828 14bf 2F       		.uleb128 0x2f
 6829 14c0 696400   		.ascii	"id\000"
 6830 14c3 01       		.byte	0x1
 6831 14c4 7C01     		.2byte	0x17c
 6832 14c6 CE050000 		.4byte	0x5ce
 6833 14ca 2F       		.uleb128 0x2f
 6834 14cb 62756600 		.ascii	"buf\000"
 6835 14cf 01       		.byte	0x1
 6836 14d0 7C01     		.2byte	0x17c
 6837 14d2 4A0A0000 		.4byte	0xa4a
 6838 14d6 2F       		.uleb128 0x2f
 6839 14d7 64696D00 		.ascii	"dim\000"
 6840 14db 01       		.byte	0x1
ARM GAS  C:\Users\25521\AppData\Local\Temp\ccDmagyc.s 			page 121


 6841 14dc 7C01     		.2byte	0x17c
 6842 14de DD080000 		.4byte	0x8dd
 6843 14e2 00       		.byte	0
 6844 14e3 28       		.uleb128 0x28
 6845 14e4 6B070000 		.4byte	.LASF175
 6846 14e8 01       		.byte	0x1
 6847 14e9 6C01     		.2byte	0x16c
 6848 14eb C70A0000 		.4byte	0xac7
 6849 14ef 00000000 		.4byte	.LFB28
 6850 14f3 44000000 		.4byte	.LFE28-.LFB28
 6851 14f7 01       		.uleb128 0x1
 6852 14f8 9C       		.byte	0x9c
 6853 14f9 47150000 		.4byte	0x1547
 6854 14fd 23       		.uleb128 0x23
 6855 14fe 7000     		.ascii	"p\000"
 6856 1500 01       		.byte	0x1
 6857 1501 6C01     		.2byte	0x16c
 6858 1503 E2090000 		.4byte	0x9e2
 6859 1507 6B0B0000 		.4byte	.LLST99
 6860 150b 2A       		.uleb128 0x2a
 6861 150c 72657400 		.ascii	"ret\000"
 6862 1510 01       		.byte	0x1
 6863 1511 7101     		.2byte	0x171
 6864 1513 C70A0000 		.4byte	0xac7
 6865 1517 01       		.uleb128 0x1
 6866 1518 54       		.byte	0x54
 6867 1519 24       		.uleb128 0x24
 6868 151a 1C000000 		.4byte	.LVL228
 6869 151e 3E250000 		.4byte	0x253e
 6870 1522 24       		.uleb128 0x24
 6871 1523 20000000 		.4byte	.LVL229
 6872 1527 49250000 		.4byte	0x2549
 6873 152b 24       		.uleb128 0x24
 6874 152c 26000000 		.4byte	.LVL230
 6875 1530 3E250000 		.4byte	0x253e
 6876 1534 24       		.uleb128 0x24
 6877 1535 2C000000 		.4byte	.LVL232
 6878 1539 63250000 		.4byte	0x2563
 6879 153d 24       		.uleb128 0x24
 6880 153e 3E000000 		.4byte	.LVL234
 6881 1542 6E250000 		.4byte	0x256e
 6882 1546 00       		.byte	0
 6883 1547 28       		.uleb128 0x28
 6884 1548 460C0000 		.4byte	.LASF176
 6885 154c 01       		.byte	0x1
 6886 154d 6601     		.2byte	0x166
 6887 154f C70A0000 		.4byte	0xac7
 6888 1553 00000000 		.4byte	.LFB27
 6889 1557 2C000000 		.4byte	.LFE27-.LFB27
 6890 155b 01       		.uleb128 0x1
 6891 155c 9C       		.byte	0x9c
 6892 155d A2150000 		.4byte	0x15a2
 6893 1561 23       		.uleb128 0x23
 6894 1562 7000     		.ascii	"p\000"
 6895 1564 01       		.byte	0x1
 6896 1565 6601     		.2byte	0x166
 6897 1567 E2090000 		.4byte	0x9e2
ARM GAS  C:\Users\25521\AppData\Local\Temp\ccDmagyc.s 			page 122


 6898 156b 970B0000 		.4byte	.LLST100
 6899 156f 25       		.uleb128 0x25
 6900 1570 10000000 		.4byte	.LVL236
 6901 1574 181C0000 		.4byte	0x1c18
 6902 1578 83150000 		.4byte	0x1583
 6903 157c 26       		.uleb128 0x26
 6904 157d 01       		.uleb128 0x1
 6905 157e 50       		.byte	0x50
 6906 157f 02       		.uleb128 0x2
 6907 1580 75       		.byte	0x75
 6908 1581 00       		.sleb128 0
 6909 1582 00       		.byte	0
 6910 1583 27       		.uleb128 0x27
 6911 1584 24000000 		.4byte	.LVL238
 6912 1588 E3140000 		.4byte	0x14e3
 6913 158c 98150000 		.4byte	0x1598
 6914 1590 26       		.uleb128 0x26
 6915 1591 01       		.uleb128 0x1
 6916 1592 50       		.byte	0x50
 6917 1593 03       		.uleb128 0x3
 6918 1594 F3       		.byte	0xf3
 6919 1595 01       		.uleb128 0x1
 6920 1596 50       		.byte	0x50
 6921 1597 00       		.byte	0
 6922 1598 24       		.uleb128 0x24
 6923 1599 28000000 		.4byte	.LVL239
 6924 159d 6E250000 		.4byte	0x256e
 6925 15a1 00       		.byte	0
 6926 15a2 22       		.uleb128 0x22
 6927 15a3 DE090000 		.4byte	.LASF177
 6928 15a7 01       		.byte	0x1
 6929 15a8 5C01     		.2byte	0x15c
 6930 15aa 00000000 		.4byte	.LFB26
 6931 15ae 44000000 		.4byte	.LFE26-.LFB26
 6932 15b2 01       		.uleb128 0x1
 6933 15b3 9C       		.byte	0x9c
 6934 15b4 10160000 		.4byte	0x1610
 6935 15b8 23       		.uleb128 0x23
 6936 15b9 7000     		.ascii	"p\000"
 6937 15bb 01       		.byte	0x1
 6938 15bc 5C01     		.2byte	0x15c
 6939 15be E2090000 		.4byte	0x9e2
 6940 15c2 D90B0000 		.4byte	.LLST97
 6941 15c6 29       		.uleb128 0x29
 6942 15c7 0C000000 		.4byte	.LASF144
 6943 15cb 01       		.byte	0x1
 6944 15cc 5C01     		.2byte	0x15c
 6945 15ce C70A0000 		.4byte	0xac7
 6946 15d2 1B0C0000 		.4byte	.LLST98
 6947 15d6 24       		.uleb128 0x24
 6948 15d7 1E000000 		.4byte	.LVL220
 6949 15db 3E250000 		.4byte	0x253e
 6950 15df 24       		.uleb128 0x24
 6951 15e0 22000000 		.4byte	.LVL221
 6952 15e4 49250000 		.4byte	0x2549
 6953 15e8 24       		.uleb128 0x24
 6954 15e9 28000000 		.4byte	.LVL222
ARM GAS  C:\Users\25521\AppData\Local\Temp\ccDmagyc.s 			page 123


 6955 15ed 63250000 		.4byte	0x2563
 6956 15f1 27       		.uleb128 0x27
 6957 15f2 3C000000 		.4byte	.LVL224
 6958 15f6 431C0000 		.4byte	0x1c43
 6959 15fa 06160000 		.4byte	0x1606
 6960 15fe 26       		.uleb128 0x26
 6961 15ff 01       		.uleb128 0x1
 6962 1600 50       		.byte	0x50
 6963 1601 03       		.uleb128 0x3
 6964 1602 F3       		.byte	0xf3
 6965 1603 01       		.uleb128 0x1
 6966 1604 50       		.byte	0x50
 6967 1605 00       		.byte	0
 6968 1606 24       		.uleb128 0x24
 6969 1607 40000000 		.4byte	.LVL225
 6970 160b 6E250000 		.4byte	0x256e
 6971 160f 00       		.byte	0
 6972 1610 22       		.uleb128 0x22
 6973 1611 C7070000 		.4byte	.LASF178
 6974 1615 01       		.byte	0x1
 6975 1616 5101     		.2byte	0x151
 6976 1618 00000000 		.4byte	.LFB25
 6977 161c 48000000 		.4byte	.LFE25-.LFB25
 6978 1620 01       		.uleb128 0x1
 6979 1621 9C       		.byte	0x9c
 6980 1622 C3160000 		.4byte	0x16c3
 6981 1626 23       		.uleb128 0x23
 6982 1627 7000     		.ascii	"p\000"
 6983 1629 01       		.byte	0x1
 6984 162a 5101     		.2byte	0x151
 6985 162c E2090000 		.4byte	0x9e2
 6986 1630 3C0C0000 		.4byte	.LLST90
 6987 1634 23       		.uleb128 0x23
 6988 1635 6E7300   		.ascii	"ns\000"
 6989 1638 01       		.byte	0x1
 6990 1639 5201     		.2byte	0x152
 6991 163b DC090000 		.4byte	0x9dc
 6992 163f 7E0C0000 		.4byte	.LLST91
 6993 1643 23       		.uleb128 0x23
 6994 1644 696400   		.ascii	"id\000"
 6995 1647 01       		.byte	0x1
 6996 1648 5301     		.2byte	0x153
 6997 164a CE050000 		.4byte	0x5ce
 6998 164e AB0C0000 		.4byte	.LLST92
 6999 1652 29       		.uleb128 0x29
 7000 1653 1F070000 		.4byte	.LASF179
 7001 1657 01       		.byte	0x1
 7002 1658 5401     		.2byte	0x154
 7003 165a C70A0000 		.4byte	0xac7
 7004 165e CC0C0000 		.4byte	.LLST93
 7005 1662 2B       		.uleb128 0x2b
 7006 1663 6A1D0000 		.4byte	0x1d6a
 7007 1667 0A000000 		.4byte	.LBB133
 7008 166b 90010000 		.4byte	.Ldebug_ranges0+0x190
 7009 166f 01       		.byte	0x1
 7010 1670 5801     		.2byte	0x158
 7011 1672 A4160000 		.4byte	0x16a4
ARM GAS  C:\Users\25521\AppData\Local\Temp\ccDmagyc.s 			page 124


 7012 1676 2C       		.uleb128 0x2c
 7013 1677 891D0000 		.4byte	0x1d89
 7014 167b 050D0000 		.4byte	.LLST94
 7015 167f 2C       		.uleb128 0x2c
 7016 1680 7F1D0000 		.4byte	0x1d7f
 7017 1684 260D0000 		.4byte	.LLST95
 7018 1688 2C       		.uleb128 0x2c
 7019 1689 761D0000 		.4byte	0x1d76
 7020 168d 530D0000 		.4byte	.LLST96
 7021 1691 24       		.uleb128 0x24
 7022 1692 20000000 		.4byte	.LVL213
 7023 1696 49250000 		.4byte	0x2549
 7024 169a 24       		.uleb128 0x24
 7025 169b 2C000000 		.4byte	.LVL214
 7026 169f 63250000 		.4byte	0x2563
 7027 16a3 00       		.byte	0
 7028 16a4 27       		.uleb128 0x27
 7029 16a5 40000000 		.4byte	.LVL216
 7030 16a9 431C0000 		.4byte	0x1c43
 7031 16ad B9160000 		.4byte	0x16b9
 7032 16b1 26       		.uleb128 0x26
 7033 16b2 01       		.uleb128 0x1
 7034 16b3 50       		.byte	0x50
 7035 16b4 03       		.uleb128 0x3
 7036 16b5 F3       		.byte	0xf3
 7037 16b6 01       		.uleb128 0x1
 7038 16b7 50       		.byte	0x50
 7039 16b8 00       		.byte	0
 7040 16b9 24       		.uleb128 0x24
 7041 16ba 44000000 		.4byte	.LVL217
 7042 16be 6E250000 		.4byte	0x256e
 7043 16c2 00       		.byte	0
 7044 16c3 22       		.uleb128 0x22
 7045 16c4 6F060000 		.4byte	.LASF180
 7046 16c8 01       		.byte	0x1
 7047 16c9 4B01     		.2byte	0x14b
 7048 16cb 00000000 		.4byte	.LFB24
 7049 16cf 40000000 		.4byte	.LFE24-.LFB24
 7050 16d3 01       		.uleb128 0x1
 7051 16d4 9C       		.byte	0x9c
 7052 16d5 4D170000 		.4byte	0x174d
 7053 16d9 23       		.uleb128 0x23
 7054 16da 7000     		.ascii	"p\000"
 7055 16dc 01       		.byte	0x1
 7056 16dd 4B01     		.2byte	0x14b
 7057 16df E2090000 		.4byte	0x9e2
 7058 16e3 660D0000 		.4byte	.LLST84
 7059 16e7 23       		.uleb128 0x23
 7060 16e8 6E7300   		.ascii	"ns\000"
 7061 16eb 01       		.byte	0x1
 7062 16ec 4B01     		.2byte	0x14b
 7063 16ee DC090000 		.4byte	0x9dc
 7064 16f2 A90D0000 		.4byte	.LLST85
 7065 16f6 23       		.uleb128 0x23
 7066 16f7 696400   		.ascii	"id\000"
 7067 16fa 01       		.byte	0x1
 7068 16fb 4B01     		.2byte	0x14b
ARM GAS  C:\Users\25521\AppData\Local\Temp\ccDmagyc.s 			page 125


 7069 16fd CE050000 		.4byte	0x5ce
 7070 1701 D60D0000 		.4byte	.LLST86
 7071 1705 2D       		.uleb128 0x2d
 7072 1706 6A1D0000 		.4byte	0x1d6a
 7073 170a 04000000 		.4byte	.LBB121
 7074 170e 58010000 		.4byte	.Ldebug_ranges0+0x158
 7075 1712 01       		.byte	0x1
 7076 1713 4E01     		.2byte	0x14e
 7077 1715 2C       		.uleb128 0x2c
 7078 1716 891D0000 		.4byte	0x1d89
 7079 171a F70D0000 		.4byte	.LLST87
 7080 171e 2C       		.uleb128 0x2c
 7081 171f 7F1D0000 		.4byte	0x1d7f
 7082 1723 180E0000 		.4byte	.LLST88
 7083 1727 2C       		.uleb128 0x2c
 7084 1728 761D0000 		.4byte	0x1d76
 7085 172c 3A0E0000 		.4byte	.LLST89
 7086 1730 24       		.uleb128 0x24
 7087 1731 1E000000 		.4byte	.LVL204
 7088 1735 49250000 		.4byte	0x2549
 7089 1739 32       		.uleb128 0x32
 7090 173a 38000000 		.4byte	.LVL206
 7091 173e 63250000 		.4byte	0x2563
 7092 1742 24       		.uleb128 0x24
 7093 1743 3C000000 		.4byte	.LVL207
 7094 1747 6E250000 		.4byte	0x256e
 7095 174b 00       		.byte	0
 7096 174c 00       		.byte	0
 7097 174d 22       		.uleb128 0x22
 7098 174e 1C010000 		.4byte	.LASF181
 7099 1752 01       		.byte	0x1
 7100 1753 4001     		.2byte	0x140
 7101 1755 00000000 		.4byte	.LFB23
 7102 1759 44000000 		.4byte	.LFE23-.LFB23
 7103 175d 01       		.uleb128 0x1
 7104 175e 9C       		.byte	0x9c
 7105 175f BB170000 		.4byte	0x17bb
 7106 1763 23       		.uleb128 0x23
 7107 1764 7000     		.ascii	"p\000"
 7108 1766 01       		.byte	0x1
 7109 1767 4001     		.2byte	0x140
 7110 1769 E2090000 		.4byte	0x9e2
 7111 176d 7D0E0000 		.4byte	.LLST82
 7112 1771 29       		.uleb128 0x29
 7113 1772 0C000000 		.4byte	.LASF144
 7114 1776 01       		.byte	0x1
 7115 1777 4001     		.2byte	0x140
 7116 1779 E8080000 		.4byte	0x8e8
 7117 177d BF0E0000 		.4byte	.LLST83
 7118 1781 24       		.uleb128 0x24
 7119 1782 1E000000 		.4byte	.LVL195
 7120 1786 3E250000 		.4byte	0x253e
 7121 178a 24       		.uleb128 0x24
 7122 178b 22000000 		.4byte	.LVL196
 7123 178f 49250000 		.4byte	0x2549
 7124 1793 24       		.uleb128 0x24
 7125 1794 28000000 		.4byte	.LVL197
ARM GAS  C:\Users\25521\AppData\Local\Temp\ccDmagyc.s 			page 126


 7126 1798 63250000 		.4byte	0x2563
 7127 179c 27       		.uleb128 0x27
 7128 179d 3C000000 		.4byte	.LVL199
 7129 17a1 431C0000 		.4byte	0x1c43
 7130 17a5 B1170000 		.4byte	0x17b1
 7131 17a9 26       		.uleb128 0x26
 7132 17aa 01       		.uleb128 0x1
 7133 17ab 50       		.byte	0x50
 7134 17ac 03       		.uleb128 0x3
 7135 17ad F3       		.byte	0xf3
 7136 17ae 01       		.uleb128 0x1
 7137 17af 50       		.byte	0x50
 7138 17b0 00       		.byte	0
 7139 17b1 24       		.uleb128 0x24
 7140 17b2 40000000 		.4byte	.LVL200
 7141 17b6 6E250000 		.4byte	0x256e
 7142 17ba 00       		.byte	0
 7143 17bb 28       		.uleb128 0x28
 7144 17bc 38060000 		.4byte	.LASF182
 7145 17c0 01       		.byte	0x1
 7146 17c1 3601     		.2byte	0x136
 7147 17c3 E8080000 		.4byte	0x8e8
 7148 17c7 00000000 		.4byte	.LFB22
 7149 17cb 44000000 		.4byte	.LFE22-.LFB22
 7150 17cf 01       		.uleb128 0x1
 7151 17d0 9C       		.byte	0x9c
 7152 17d1 1F180000 		.4byte	0x181f
 7153 17d5 23       		.uleb128 0x23
 7154 17d6 7000     		.ascii	"p\000"
 7155 17d8 01       		.byte	0x1
 7156 17d9 3601     		.2byte	0x136
 7157 17db E2090000 		.4byte	0x9e2
 7158 17df F60E0000 		.4byte	.LLST80
 7159 17e3 2A       		.uleb128 0x2a
 7160 17e4 72657400 		.ascii	"ret\000"
 7161 17e8 01       		.byte	0x1
 7162 17e9 3B01     		.2byte	0x13b
 7163 17eb E8080000 		.4byte	0x8e8
 7164 17ef 01       		.uleb128 0x1
 7165 17f0 54       		.byte	0x54
 7166 17f1 24       		.uleb128 0x24
 7167 17f2 1C000000 		.4byte	.LVL181
 7168 17f6 3E250000 		.4byte	0x253e
 7169 17fa 24       		.uleb128 0x24
 7170 17fb 20000000 		.4byte	.LVL182
 7171 17ff 49250000 		.4byte	0x2549
 7172 1803 24       		.uleb128 0x24
 7173 1804 26000000 		.4byte	.LVL183
 7174 1808 3E250000 		.4byte	0x253e
 7175 180c 24       		.uleb128 0x24
 7176 180d 2C000000 		.4byte	.LVL185
 7177 1811 63250000 		.4byte	0x2563
 7178 1815 24       		.uleb128 0x24
 7179 1816 3E000000 		.4byte	.LVL187
 7180 181a 6E250000 		.4byte	0x256e
 7181 181e 00       		.byte	0
 7182 181f 28       		.uleb128 0x28
ARM GAS  C:\Users\25521\AppData\Local\Temp\ccDmagyc.s 			page 127


 7183 1820 7C0B0000 		.4byte	.LASF183
 7184 1824 01       		.byte	0x1
 7185 1825 3001     		.2byte	0x130
 7186 1827 E8080000 		.4byte	0x8e8
 7187 182b 00000000 		.4byte	.LFB21
 7188 182f 2C000000 		.4byte	.LFE21-.LFB21
 7189 1833 01       		.uleb128 0x1
 7190 1834 9C       		.byte	0x9c
 7191 1835 7A180000 		.4byte	0x187a
 7192 1839 23       		.uleb128 0x23
 7193 183a 7000     		.ascii	"p\000"
 7194 183c 01       		.byte	0x1
 7195 183d 3001     		.2byte	0x130
 7196 183f E2090000 		.4byte	0x9e2
 7197 1843 220F0000 		.4byte	.LLST81
 7198 1847 25       		.uleb128 0x25
 7199 1848 10000000 		.4byte	.LVL189
 7200 184c 181C0000 		.4byte	0x1c18
 7201 1850 5B180000 		.4byte	0x185b
 7202 1854 26       		.uleb128 0x26
 7203 1855 01       		.uleb128 0x1
 7204 1856 50       		.byte	0x50
 7205 1857 02       		.uleb128 0x2
 7206 1858 75       		.byte	0x75
 7207 1859 00       		.sleb128 0
 7208 185a 00       		.byte	0
 7209 185b 27       		.uleb128 0x27
 7210 185c 24000000 		.4byte	.LVL191
 7211 1860 BB170000 		.4byte	0x17bb
 7212 1864 70180000 		.4byte	0x1870
 7213 1868 26       		.uleb128 0x26
 7214 1869 01       		.uleb128 0x1
 7215 186a 50       		.byte	0x50
 7216 186b 03       		.uleb128 0x3
 7217 186c F3       		.byte	0xf3
 7218 186d 01       		.uleb128 0x1
 7219 186e 50       		.byte	0x50
 7220 186f 00       		.byte	0
 7221 1870 24       		.uleb128 0x24
 7222 1871 28000000 		.4byte	.LVL192
 7223 1875 6E250000 		.4byte	0x256e
 7224 1879 00       		.byte	0
 7225 187a 22       		.uleb128 0x22
 7226 187b 13080000 		.4byte	.LASF184
 7227 187f 01       		.byte	0x1
 7228 1880 2501     		.2byte	0x125
 7229 1882 00000000 		.4byte	.LFB20
 7230 1886 48000000 		.4byte	.LFE20-.LFB20
 7231 188a 01       		.uleb128 0x1
 7232 188b 9C       		.byte	0x9c
 7233 188c 2D190000 		.4byte	0x192d
 7234 1890 23       		.uleb128 0x23
 7235 1891 7000     		.ascii	"p\000"
 7236 1893 01       		.byte	0x1
 7237 1894 2501     		.2byte	0x125
 7238 1896 E2090000 		.4byte	0x9e2
 7239 189a 640F0000 		.4byte	.LLST73
ARM GAS  C:\Users\25521\AppData\Local\Temp\ccDmagyc.s 			page 128


 7240 189e 23       		.uleb128 0x23
 7241 189f 6E7300   		.ascii	"ns\000"
 7242 18a2 01       		.byte	0x1
 7243 18a3 2601     		.2byte	0x126
 7244 18a5 DC090000 		.4byte	0x9dc
 7245 18a9 A60F0000 		.4byte	.LLST74
 7246 18ad 23       		.uleb128 0x23
 7247 18ae 696400   		.ascii	"id\000"
 7248 18b1 01       		.byte	0x1
 7249 18b2 2701     		.2byte	0x127
 7250 18b4 CE050000 		.4byte	0x5ce
 7251 18b8 D30F0000 		.4byte	.LLST75
 7252 18bc 29       		.uleb128 0x29
 7253 18bd 1F070000 		.4byte	.LASF179
 7254 18c1 01       		.byte	0x1
 7255 18c2 2801     		.2byte	0x128
 7256 18c4 E8080000 		.4byte	0x8e8
 7257 18c8 F40F0000 		.4byte	.LLST76
 7258 18cc 2B       		.uleb128 0x2b
 7259 18cd 6A1D0000 		.4byte	0x1d6a
 7260 18d1 0A000000 		.4byte	.LBB113
 7261 18d5 30010000 		.4byte	.Ldebug_ranges0+0x130
 7262 18d9 01       		.byte	0x1
 7263 18da 2C01     		.2byte	0x12c
 7264 18dc 0E190000 		.4byte	0x190e
 7265 18e0 2C       		.uleb128 0x2c
 7266 18e1 891D0000 		.4byte	0x1d89
 7267 18e5 2D100000 		.4byte	.LLST77
 7268 18e9 2C       		.uleb128 0x2c
 7269 18ea 7F1D0000 		.4byte	0x1d7f
 7270 18ee 4E100000 		.4byte	.LLST78
 7271 18f2 2C       		.uleb128 0x2c
 7272 18f3 761D0000 		.4byte	0x1d76
 7273 18f7 7B100000 		.4byte	.LLST79
 7274 18fb 24       		.uleb128 0x24
 7275 18fc 20000000 		.4byte	.LVL174
 7276 1900 49250000 		.4byte	0x2549
 7277 1904 24       		.uleb128 0x24
 7278 1905 2C000000 		.4byte	.LVL175
 7279 1909 63250000 		.4byte	0x2563
 7280 190d 00       		.byte	0
 7281 190e 27       		.uleb128 0x27
 7282 190f 40000000 		.4byte	.LVL177
 7283 1913 431C0000 		.4byte	0x1c43
 7284 1917 23190000 		.4byte	0x1923
 7285 191b 26       		.uleb128 0x26
 7286 191c 01       		.uleb128 0x1
 7287 191d 50       		.byte	0x50
 7288 191e 03       		.uleb128 0x3
 7289 191f F3       		.byte	0xf3
 7290 1920 01       		.uleb128 0x1
 7291 1921 50       		.byte	0x50
 7292 1922 00       		.byte	0
 7293 1923 24       		.uleb128 0x24
 7294 1924 44000000 		.4byte	.LVL178
 7295 1928 6E250000 		.4byte	0x256e
 7296 192c 00       		.byte	0
ARM GAS  C:\Users\25521\AppData\Local\Temp\ccDmagyc.s 			page 129


 7297 192d 22       		.uleb128 0x22
 7298 192e E0060000 		.4byte	.LASF185
 7299 1932 01       		.byte	0x1
 7300 1933 1E01     		.2byte	0x11e
 7301 1935 00000000 		.4byte	.LFB19
 7302 1939 40000000 		.4byte	.LFE19-.LFB19
 7303 193d 01       		.uleb128 0x1
 7304 193e 9C       		.byte	0x9c
 7305 193f B7190000 		.4byte	0x19b7
 7306 1943 23       		.uleb128 0x23
 7307 1944 7000     		.ascii	"p\000"
 7308 1946 01       		.byte	0x1
 7309 1947 1E01     		.2byte	0x11e
 7310 1949 E2090000 		.4byte	0x9e2
 7311 194d 8E100000 		.4byte	.LLST67
 7312 1951 23       		.uleb128 0x23
 7313 1952 6E7300   		.ascii	"ns\000"
 7314 1955 01       		.byte	0x1
 7315 1956 1E01     		.2byte	0x11e
 7316 1958 DC090000 		.4byte	0x9dc
 7317 195c D1100000 		.4byte	.LLST68
 7318 1960 23       		.uleb128 0x23
 7319 1961 696400   		.ascii	"id\000"
 7320 1964 01       		.byte	0x1
 7321 1965 1F01     		.2byte	0x11f
 7322 1967 CE050000 		.4byte	0x5ce
 7323 196b FE100000 		.4byte	.LLST69
 7324 196f 2D       		.uleb128 0x2d
 7325 1970 6A1D0000 		.4byte	0x1d6a
 7326 1974 04000000 		.4byte	.LBB101
 7327 1978 F8000000 		.4byte	.Ldebug_ranges0+0xf8
 7328 197c 01       		.byte	0x1
 7329 197d 2201     		.2byte	0x122
 7330 197f 2C       		.uleb128 0x2c
 7331 1980 891D0000 		.4byte	0x1d89
 7332 1984 1F110000 		.4byte	.LLST70
 7333 1988 2C       		.uleb128 0x2c
 7334 1989 7F1D0000 		.4byte	0x1d7f
 7335 198d 40110000 		.4byte	.LLST71
 7336 1991 2C       		.uleb128 0x2c
 7337 1992 761D0000 		.4byte	0x1d76
 7338 1996 62110000 		.4byte	.LLST72
 7339 199a 24       		.uleb128 0x24
 7340 199b 1E000000 		.4byte	.LVL165
 7341 199f 49250000 		.4byte	0x2549
 7342 19a3 32       		.uleb128 0x32
 7343 19a4 38000000 		.4byte	.LVL167
 7344 19a8 63250000 		.4byte	0x2563
 7345 19ac 24       		.uleb128 0x24
 7346 19ad 3C000000 		.4byte	.LVL168
 7347 19b1 6E250000 		.4byte	0x256e
 7348 19b5 00       		.byte	0
 7349 19b6 00       		.byte	0
 7350 19b7 22       		.uleb128 0x22
 7351 19b8 F4090000 		.4byte	.LASF186
 7352 19bc 01       		.byte	0x1
 7353 19bd 1001     		.2byte	0x110
ARM GAS  C:\Users\25521\AppData\Local\Temp\ccDmagyc.s 			page 130


 7354 19bf 00000000 		.4byte	.LFB18
 7355 19c3 50000000 		.4byte	.LFE18-.LFB18
 7356 19c7 01       		.uleb128 0x1
 7357 19c8 9C       		.byte	0x9c
 7358 19c9 251A0000 		.4byte	0x1a25
 7359 19cd 23       		.uleb128 0x23
 7360 19ce 7000     		.ascii	"p\000"
 7361 19d0 01       		.byte	0x1
 7362 19d1 1001     		.2byte	0x110
 7363 19d3 E2090000 		.4byte	0x9e2
 7364 19d7 A5110000 		.4byte	.LLST65
 7365 19db 29       		.uleb128 0x29
 7366 19dc 0C000000 		.4byte	.LASF144
 7367 19e0 01       		.byte	0x1
 7368 19e1 1001     		.2byte	0x110
 7369 19e3 25000000 		.4byte	0x25
 7370 19e7 E7110000 		.4byte	.LLST66
 7371 19eb 24       		.uleb128 0x24
 7372 19ec 24000000 		.4byte	.LVL155
 7373 19f0 3E250000 		.4byte	0x253e
 7374 19f4 24       		.uleb128 0x24
 7375 19f5 28000000 		.4byte	.LVL156
 7376 19f9 49250000 		.4byte	0x2549
 7377 19fd 24       		.uleb128 0x24
 7378 19fe 30000000 		.4byte	.LVL157
 7379 1a02 63250000 		.4byte	0x2563
 7380 1a06 27       		.uleb128 0x27
 7381 1a07 48000000 		.4byte	.LVL160
 7382 1a0b 431C0000 		.4byte	0x1c43
 7383 1a0f 1B1A0000 		.4byte	0x1a1b
 7384 1a13 26       		.uleb128 0x26
 7385 1a14 01       		.uleb128 0x1
 7386 1a15 50       		.byte	0x50
 7387 1a16 03       		.uleb128 0x3
 7388 1a17 F3       		.byte	0xf3
 7389 1a18 01       		.uleb128 0x1
 7390 1a19 50       		.byte	0x50
 7391 1a1a 00       		.byte	0
 7392 1a1b 24       		.uleb128 0x24
 7393 1a1c 4C000000 		.4byte	.LVL161
 7394 1a20 6E250000 		.4byte	0x256e
 7395 1a24 00       		.byte	0
 7396 1a25 28       		.uleb128 0x28
 7397 1a26 55040000 		.4byte	.LASF187
 7398 1a2a 01       		.byte	0x1
 7399 1a2b 0601     		.2byte	0x106
 7400 1a2d 25000000 		.4byte	0x25
 7401 1a31 00000000 		.4byte	.LFB17
 7402 1a35 50000000 		.4byte	.LFE17-.LFB17
 7403 1a39 01       		.uleb128 0x1
 7404 1a3a 9C       		.byte	0x9c
 7405 1a3b 8B1A0000 		.4byte	0x1a8b
 7406 1a3f 23       		.uleb128 0x23
 7407 1a40 7000     		.ascii	"p\000"
 7408 1a42 01       		.byte	0x1
 7409 1a43 0601     		.2byte	0x106
 7410 1a45 E2090000 		.4byte	0x9e2
ARM GAS  C:\Users\25521\AppData\Local\Temp\ccDmagyc.s 			page 131


 7411 1a49 23120000 		.4byte	.LLST62
 7412 1a4d 31       		.uleb128 0x31
 7413 1a4e 72657400 		.ascii	"ret\000"
 7414 1a52 01       		.byte	0x1
 7415 1a53 0B01     		.2byte	0x10b
 7416 1a55 25000000 		.4byte	0x25
 7417 1a59 41120000 		.4byte	.LLST63
 7418 1a5d 24       		.uleb128 0x24
 7419 1a5e 20000000 		.4byte	.LVL140
 7420 1a62 3E250000 		.4byte	0x253e
 7421 1a66 24       		.uleb128 0x24
 7422 1a67 24000000 		.4byte	.LVL141
 7423 1a6b 49250000 		.4byte	0x2549
 7424 1a6f 24       		.uleb128 0x24
 7425 1a70 2A000000 		.4byte	.LVL142
 7426 1a74 3E250000 		.4byte	0x253e
 7427 1a78 24       		.uleb128 0x24
 7428 1a79 32000000 		.4byte	.LVL144
 7429 1a7d 63250000 		.4byte	0x2563
 7430 1a81 24       		.uleb128 0x24
 7431 1a82 4A000000 		.4byte	.LVL147
 7432 1a86 6E250000 		.4byte	0x256e
 7433 1a8a 00       		.byte	0
 7434 1a8b 28       		.uleb128 0x28
 7435 1a8c 5C0C0000 		.4byte	.LASF188
 7436 1a90 01       		.byte	0x1
 7437 1a91 0001     		.2byte	0x100
 7438 1a93 25000000 		.4byte	0x25
 7439 1a97 00000000 		.4byte	.LFB16
 7440 1a9b 2C000000 		.4byte	.LFE16-.LFB16
 7441 1a9f 01       		.uleb128 0x1
 7442 1aa0 9C       		.byte	0x9c
 7443 1aa1 E61A0000 		.4byte	0x1ae6
 7444 1aa5 23       		.uleb128 0x23
 7445 1aa6 7000     		.ascii	"p\000"
 7446 1aa8 01       		.byte	0x1
 7447 1aa9 0001     		.2byte	0x100
 7448 1aab E2090000 		.4byte	0x9e2
 7449 1aaf 6D120000 		.4byte	.LLST64
 7450 1ab3 25       		.uleb128 0x25
 7451 1ab4 10000000 		.4byte	.LVL149
 7452 1ab8 181C0000 		.4byte	0x1c18
 7453 1abc C71A0000 		.4byte	0x1ac7
 7454 1ac0 26       		.uleb128 0x26
 7455 1ac1 01       		.uleb128 0x1
 7456 1ac2 50       		.byte	0x50
 7457 1ac3 02       		.uleb128 0x2
 7458 1ac4 75       		.byte	0x75
 7459 1ac5 00       		.sleb128 0
 7460 1ac6 00       		.byte	0
 7461 1ac7 27       		.uleb128 0x27
 7462 1ac8 24000000 		.4byte	.LVL151
 7463 1acc 251A0000 		.4byte	0x1a25
 7464 1ad0 DC1A0000 		.4byte	0x1adc
 7465 1ad4 26       		.uleb128 0x26
 7466 1ad5 01       		.uleb128 0x1
 7467 1ad6 50       		.byte	0x50
ARM GAS  C:\Users\25521\AppData\Local\Temp\ccDmagyc.s 			page 132


 7468 1ad7 03       		.uleb128 0x3
 7469 1ad8 F3       		.byte	0xf3
 7470 1ad9 01       		.uleb128 0x1
 7471 1ada 50       		.byte	0x50
 7472 1adb 00       		.byte	0
 7473 1adc 24       		.uleb128 0x24
 7474 1add 28000000 		.4byte	.LVL152
 7475 1ae1 6E250000 		.4byte	0x256e
 7476 1ae5 00       		.byte	0
 7477 1ae6 33       		.uleb128 0x33
 7478 1ae7 7F0C0000 		.4byte	.LASF189
 7479 1aeb 01       		.byte	0x1
 7480 1aec F5       		.byte	0xf5
 7481 1aed 00000000 		.4byte	.LFB15
 7482 1af1 4C000000 		.4byte	.LFE15-.LFB15
 7483 1af5 01       		.uleb128 0x1
 7484 1af6 9C       		.byte	0x9c
 7485 1af7 931B0000 		.4byte	0x1b93
 7486 1afb 34       		.uleb128 0x34
 7487 1afc 7000     		.ascii	"p\000"
 7488 1afe 01       		.byte	0x1
 7489 1aff F5       		.byte	0xf5
 7490 1b00 E2090000 		.4byte	0x9e2
 7491 1b04 AF120000 		.4byte	.LLST55
 7492 1b08 34       		.uleb128 0x34
 7493 1b09 6E7300   		.ascii	"ns\000"
 7494 1b0c 01       		.byte	0x1
 7495 1b0d F6       		.byte	0xf6
 7496 1b0e DC090000 		.4byte	0x9dc
 7497 1b12 F1120000 		.4byte	.LLST56
 7498 1b16 34       		.uleb128 0x34
 7499 1b17 696400   		.ascii	"id\000"
 7500 1b1a 01       		.byte	0x1
 7501 1b1b F7       		.byte	0xf7
 7502 1b1c CE050000 		.4byte	0x5ce
 7503 1b20 1E130000 		.4byte	.LLST57
 7504 1b24 35       		.uleb128 0x35
 7505 1b25 1F070000 		.4byte	.LASF179
 7506 1b29 01       		.byte	0x1
 7507 1b2a F8       		.byte	0xf8
 7508 1b2b 25000000 		.4byte	0x25
 7509 1b2f 3F130000 		.4byte	.LLST58
 7510 1b33 36       		.uleb128 0x36
 7511 1b34 6A1D0000 		.4byte	0x1d6a
 7512 1b38 0C000000 		.4byte	.LBB93
 7513 1b3c D0000000 		.4byte	.Ldebug_ranges0+0xd0
 7514 1b40 01       		.byte	0x1
 7515 1b41 FC       		.byte	0xfc
 7516 1b42 741B0000 		.4byte	0x1b74
 7517 1b46 2C       		.uleb128 0x2c
 7518 1b47 891D0000 		.4byte	0x1d89
 7519 1b4b 63130000 		.4byte	.LLST59
 7520 1b4f 2C       		.uleb128 0x2c
 7521 1b50 7F1D0000 		.4byte	0x1d7f
 7522 1b54 84130000 		.4byte	.LLST60
 7523 1b58 2C       		.uleb128 0x2c
 7524 1b59 761D0000 		.4byte	0x1d76
ARM GAS  C:\Users\25521\AppData\Local\Temp\ccDmagyc.s 			page 133


 7525 1b5d B1130000 		.4byte	.LLST61
 7526 1b61 24       		.uleb128 0x24
 7527 1b62 22000000 		.4byte	.LVL133
 7528 1b66 49250000 		.4byte	0x2549
 7529 1b6a 24       		.uleb128 0x24
 7530 1b6b 2E000000 		.4byte	.LVL134
 7531 1b6f 63250000 		.4byte	0x2563
 7532 1b73 00       		.byte	0
 7533 1b74 27       		.uleb128 0x27
 7534 1b75 42000000 		.4byte	.LVL136
 7535 1b79 431C0000 		.4byte	0x1c43
 7536 1b7d 891B0000 		.4byte	0x1b89
 7537 1b81 26       		.uleb128 0x26
 7538 1b82 01       		.uleb128 0x1
 7539 1b83 50       		.byte	0x50
 7540 1b84 03       		.uleb128 0x3
 7541 1b85 F3       		.byte	0xf3
 7542 1b86 01       		.uleb128 0x1
 7543 1b87 50       		.byte	0x50
 7544 1b88 00       		.byte	0
 7545 1b89 24       		.uleb128 0x24
 7546 1b8a 46000000 		.4byte	.LVL137
 7547 1b8e 6E250000 		.4byte	0x256e
 7548 1b92 00       		.byte	0
 7549 1b93 33       		.uleb128 0x33
 7550 1b94 68020000 		.4byte	.LASF190
 7551 1b98 01       		.byte	0x1
 7552 1b99 EE       		.byte	0xee
 7553 1b9a 00000000 		.4byte	.LFB14
 7554 1b9e 40000000 		.4byte	.LFE14-.LFB14
 7555 1ba2 01       		.uleb128 0x1
 7556 1ba3 9C       		.byte	0x9c
 7557 1ba4 181C0000 		.4byte	0x1c18
 7558 1ba8 34       		.uleb128 0x34
 7559 1ba9 7000     		.ascii	"p\000"
 7560 1bab 01       		.byte	0x1
 7561 1bac EE       		.byte	0xee
 7562 1bad E2090000 		.4byte	0x9e2
 7563 1bb1 C4130000 		.4byte	.LLST49
 7564 1bb5 34       		.uleb128 0x34
 7565 1bb6 6E7300   		.ascii	"ns\000"
 7566 1bb9 01       		.byte	0x1
 7567 1bba EE       		.byte	0xee
 7568 1bbb DC090000 		.4byte	0x9dc
 7569 1bbf 07140000 		.4byte	.LLST50
 7570 1bc3 34       		.uleb128 0x34
 7571 1bc4 696400   		.ascii	"id\000"
 7572 1bc7 01       		.byte	0x1
 7573 1bc8 EF       		.byte	0xef
 7574 1bc9 CE050000 		.4byte	0x5ce
 7575 1bcd 34140000 		.4byte	.LLST51
 7576 1bd1 37       		.uleb128 0x37
 7577 1bd2 6A1D0000 		.4byte	0x1d6a
 7578 1bd6 04000000 		.4byte	.LBB81
 7579 1bda 98000000 		.4byte	.Ldebug_ranges0+0x98
 7580 1bde 01       		.byte	0x1
 7581 1bdf F2       		.byte	0xf2
ARM GAS  C:\Users\25521\AppData\Local\Temp\ccDmagyc.s 			page 134


 7582 1be0 2C       		.uleb128 0x2c
 7583 1be1 891D0000 		.4byte	0x1d89
 7584 1be5 55140000 		.4byte	.LLST52
 7585 1be9 2C       		.uleb128 0x2c
 7586 1bea 7F1D0000 		.4byte	0x1d7f
 7587 1bee 76140000 		.4byte	.LLST53
 7588 1bf2 2C       		.uleb128 0x2c
 7589 1bf3 761D0000 		.4byte	0x1d76
 7590 1bf7 98140000 		.4byte	.LLST54
 7591 1bfb 24       		.uleb128 0x24
 7592 1bfc 1E000000 		.4byte	.LVL125
 7593 1c00 49250000 		.4byte	0x2549
 7594 1c04 32       		.uleb128 0x32
 7595 1c05 38000000 		.4byte	.LVL127
 7596 1c09 63250000 		.4byte	0x2563
 7597 1c0d 24       		.uleb128 0x24
 7598 1c0e 3C000000 		.4byte	.LVL128
 7599 1c12 6E250000 		.4byte	0x256e
 7600 1c16 00       		.byte	0
 7601 1c17 00       		.byte	0
 7602 1c18 38       		.uleb128 0x38
 7603 1c19 2D000000 		.4byte	.LASF191
 7604 1c1d 01       		.byte	0x1
 7605 1c1e D6       		.byte	0xd6
 7606 1c1f 01       		.byte	0x1
 7607 1c20 431C0000 		.4byte	0x1c43
 7608 1c24 39       		.uleb128 0x39
 7609 1c25 7000     		.ascii	"p\000"
 7610 1c27 01       		.byte	0x1
 7611 1c28 D6       		.byte	0xd6
 7612 1c29 E2090000 		.4byte	0x9e2
 7613 1c2d 3A       		.uleb128 0x3a
 7614 1c2e BB0B0000 		.4byte	.LASF192
 7615 1c32 01       		.byte	0x1
 7616 1c33 D9       		.byte	0xd9
 7617 1c34 C70A0000 		.4byte	0xac7
 7618 1c38 3B       		.uleb128 0x3b
 7619 1c39 6E7300   		.ascii	"ns\000"
 7620 1c3c 01       		.byte	0x1
 7621 1c3d E1       		.byte	0xe1
 7622 1c3e DC090000 		.4byte	0x9dc
 7623 1c42 00       		.byte	0
 7624 1c43 38       		.uleb128 0x38
 7625 1c44 EE070000 		.4byte	.LASF193
 7626 1c48 01       		.byte	0x1
 7627 1c49 C1       		.byte	0xc1
 7628 1c4a 01       		.byte	0x1
 7629 1c4b 6E1C0000 		.4byte	0x1c6e
 7630 1c4f 39       		.uleb128 0x39
 7631 1c50 7000     		.ascii	"p\000"
 7632 1c52 01       		.byte	0x1
 7633 1c53 C1       		.byte	0xc1
 7634 1c54 E2090000 		.4byte	0x9e2
 7635 1c58 3A       		.uleb128 0x3a
 7636 1c59 BB0B0000 		.4byte	.LASF192
 7637 1c5d 01       		.byte	0x1
 7638 1c5e C4       		.byte	0xc4
ARM GAS  C:\Users\25521\AppData\Local\Temp\ccDmagyc.s 			page 135


 7639 1c5f C70A0000 		.4byte	0xac7
 7640 1c63 3B       		.uleb128 0x3b
 7641 1c64 6E7300   		.ascii	"ns\000"
 7642 1c67 01       		.byte	0x1
 7643 1c68 CC       		.byte	0xcc
 7644 1c69 DC090000 		.4byte	0x9dc
 7645 1c6d 00       		.byte	0
 7646 1c6e 3C       		.uleb128 0x3c
 7647 1c6f 020C0000 		.4byte	.LASF194
 7648 1c73 01       		.byte	0x1
 7649 1c74 B6       		.byte	0xb6
 7650 1c75 C70A0000 		.4byte	0xac7
 7651 1c79 00000000 		.4byte	.LFB11
 7652 1c7d 30000000 		.4byte	.LFE11-.LFB11
 7653 1c81 01       		.uleb128 0x1
 7654 1c82 9C       		.byte	0x9c
 7655 1c83 BF1C0000 		.4byte	0x1cbf
 7656 1c87 34       		.uleb128 0x34
 7657 1c88 7000     		.ascii	"p\000"
 7658 1c8a 01       		.byte	0x1
 7659 1c8b B6       		.byte	0xb6
 7660 1c8c BF1C0000 		.4byte	0x1cbf
 7661 1c90 DB140000 		.4byte	.LLST40
 7662 1c94 3D       		.uleb128 0x3d
 7663 1c95 0B030000 		.4byte	.LASF142
 7664 1c99 01       		.byte	0x1
 7665 1c9a BC       		.byte	0xbc
 7666 1c9b C70A0000 		.4byte	0xac7
 7667 1c9f 07150000 		.4byte	.LLST41
 7668 1ca3 24       		.uleb128 0x24
 7669 1ca4 12000000 		.4byte	.LVL94
 7670 1ca8 49250000 		.4byte	0x2549
 7671 1cac 24       		.uleb128 0x24
 7672 1cad 18000000 		.4byte	.LVL96
 7673 1cb1 63250000 		.4byte	0x2563
 7674 1cb5 24       		.uleb128 0x24
 7675 1cb6 2A000000 		.4byte	.LVL97
 7676 1cba 6E250000 		.4byte	0x256e
 7677 1cbe 00       		.byte	0
 7678 1cbf 05       		.uleb128 0x5
 7679 1cc0 04       		.byte	0x4
 7680 1cc1 78090000 		.4byte	0x978
 7681 1cc5 3C       		.uleb128 0x3c
 7682 1cc6 C4090000 		.4byte	.LASF195
 7683 1cca 01       		.byte	0x1
 7684 1ccb AE       		.byte	0xae
 7685 1ccc C70A0000 		.4byte	0xac7
 7686 1cd0 00000000 		.4byte	.LFB10
 7687 1cd4 2C000000 		.4byte	.LFE10-.LFB10
 7688 1cd8 01       		.uleb128 0x1
 7689 1cd9 9C       		.byte	0x9c
 7690 1cda 141D0000 		.4byte	0x1d14
 7691 1cde 34       		.uleb128 0x34
 7692 1cdf 7000     		.ascii	"p\000"
 7693 1ce1 01       		.byte	0x1
 7694 1ce2 AE       		.byte	0xae
 7695 1ce3 BF1C0000 		.4byte	0x1cbf
ARM GAS  C:\Users\25521\AppData\Local\Temp\ccDmagyc.s 			page 136


 7696 1ce7 1A150000 		.4byte	.LLST39
 7697 1ceb 3E       		.uleb128 0x3e
 7698 1cec 28020000 		.4byte	.LASF141
 7699 1cf0 01       		.byte	0x1
 7700 1cf1 B1       		.byte	0xb1
 7701 1cf2 C70A0000 		.4byte	0xac7
 7702 1cf6 01       		.uleb128 0x1
 7703 1cf7 55       		.byte	0x55
 7704 1cf8 24       		.uleb128 0x24
 7705 1cf9 10000000 		.4byte	.LVL88
 7706 1cfd 49250000 		.4byte	0x2549
 7707 1d01 24       		.uleb128 0x24
 7708 1d02 16000000 		.4byte	.LVL90
 7709 1d06 63250000 		.4byte	0x2563
 7710 1d0a 24       		.uleb128 0x24
 7711 1d0b 28000000 		.4byte	.LVL92
 7712 1d0f 6E250000 		.4byte	0x256e
 7713 1d13 00       		.byte	0
 7714 1d14 3C       		.uleb128 0x3c
 7715 1d15 D2010000 		.4byte	.LASF196
 7716 1d19 01       		.byte	0x1
 7717 1d1a A6       		.byte	0xa6
 7718 1d1b C70A0000 		.4byte	0xac7
 7719 1d1f 00000000 		.4byte	.LFB9
 7720 1d23 30000000 		.4byte	.LFE9-.LFB9
 7721 1d27 01       		.uleb128 0x1
 7722 1d28 9C       		.byte	0x9c
 7723 1d29 641D0000 		.4byte	0x1d64
 7724 1d2d 34       		.uleb128 0x34
 7725 1d2e 6E7300   		.ascii	"ns\000"
 7726 1d31 01       		.byte	0x1
 7727 1d32 A6       		.byte	0xa6
 7728 1d33 641D0000 		.4byte	0x1d64
 7729 1d37 46150000 		.4byte	.LLST38
 7730 1d3b 3E       		.uleb128 0x3e
 7731 1d3c 450B0000 		.4byte	.LASF134
 7732 1d40 01       		.byte	0x1
 7733 1d41 A9       		.byte	0xa9
 7734 1d42 F3080000 		.4byte	0x8f3
 7735 1d46 01       		.uleb128 0x1
 7736 1d47 55       		.byte	0x55
 7737 1d48 24       		.uleb128 0x24
 7738 1d49 10000000 		.4byte	.LVL82
 7739 1d4d 49250000 		.4byte	0x2549
 7740 1d51 24       		.uleb128 0x24
 7741 1d52 16000000 		.4byte	.LVL84
 7742 1d56 63250000 		.4byte	0x2563
 7743 1d5a 24       		.uleb128 0x24
 7744 1d5b 2C000000 		.4byte	.LVL86
 7745 1d5f 6E250000 		.4byte	0x256e
 7746 1d63 00       		.byte	0
 7747 1d64 05       		.uleb128 0x5
 7748 1d65 04       		.byte	0x4
 7749 1d66 14090000 		.4byte	0x914
 7750 1d6a 38       		.uleb128 0x38
 7751 1d6b 4C070000 		.4byte	.LASF197
 7752 1d6f 01       		.byte	0x1
ARM GAS  C:\Users\25521\AppData\Local\Temp\ccDmagyc.s 			page 137


 7753 1d70 98       		.byte	0x98
 7754 1d71 01       		.byte	0x1
 7755 1d72 941D0000 		.4byte	0x1d94
 7756 1d76 39       		.uleb128 0x39
 7757 1d77 7000     		.ascii	"p\000"
 7758 1d79 01       		.byte	0x1
 7759 1d7a 98       		.byte	0x98
 7760 1d7b E2090000 		.4byte	0x9e2
 7761 1d7f 39       		.uleb128 0x39
 7762 1d80 6E7300   		.ascii	"ns\000"
 7763 1d83 01       		.byte	0x1
 7764 1d84 98       		.byte	0x98
 7765 1d85 DC090000 		.4byte	0x9dc
 7766 1d89 39       		.uleb128 0x39
 7767 1d8a 696400   		.ascii	"id\000"
 7768 1d8d 01       		.byte	0x1
 7769 1d8e 99       		.byte	0x99
 7770 1d8f CE050000 		.4byte	0x5ce
 7771 1d93 00       		.byte	0
 7772 1d94 3C       		.uleb128 0x3c
 7773 1d95 D1020000 		.4byte	.LASF198
 7774 1d99 01       		.byte	0x1
 7775 1d9a 93       		.byte	0x93
 7776 1d9b E2090000 		.4byte	0x9e2
 7777 1d9f 00000000 		.4byte	.LFB7
 7778 1da3 34000000 		.4byte	.LFE7-.LFB7
 7779 1da7 01       		.uleb128 0x1
 7780 1da8 9C       		.byte	0x9c
 7781 1da9 031E0000 		.4byte	0x1e03
 7782 1dad 34       		.uleb128 0x34
 7783 1dae 6E7300   		.ascii	"ns\000"
 7784 1db1 01       		.byte	0x1
 7785 1db2 93       		.byte	0x93
 7786 1db3 DC090000 		.4byte	0x9dc
 7787 1db7 72150000 		.4byte	.LLST33
 7788 1dbb 34       		.uleb128 0x34
 7789 1dbc 696400   		.ascii	"id\000"
 7790 1dbf 01       		.byte	0x1
 7791 1dc0 93       		.byte	0x93
 7792 1dc1 CE050000 		.4byte	0x5ce
 7793 1dc5 B4150000 		.4byte	.LLST34
 7794 1dc9 25       		.uleb128 0x25
 7795 1dca 14000000 		.4byte	.LVL71
 7796 1dce 77250000 		.4byte	0x2577
 7797 1dd2 DD1D0000 		.4byte	0x1ddd
 7798 1dd6 26       		.uleb128 0x26
 7799 1dd7 01       		.uleb128 0x1
 7800 1dd8 50       		.byte	0x50
 7801 1dd9 02       		.uleb128 0x2
 7802 1dda 75       		.byte	0x75
 7803 1ddb 00       		.sleb128 0
 7804 1ddc 00       		.byte	0
 7805 1ddd 27       		.uleb128 0x27
 7806 1dde 2C000000 		.4byte	.LVL73
 7807 1de2 031E0000 		.4byte	0x1e03
 7808 1de6 F91D0000 		.4byte	0x1df9
 7809 1dea 26       		.uleb128 0x26
ARM GAS  C:\Users\25521\AppData\Local\Temp\ccDmagyc.s 			page 138


 7810 1deb 01       		.uleb128 0x1
 7811 1dec 50       		.byte	0x50
 7812 1ded 03       		.uleb128 0x3
 7813 1dee F3       		.byte	0xf3
 7814 1def 01       		.uleb128 0x1
 7815 1df0 50       		.byte	0x50
 7816 1df1 26       		.uleb128 0x26
 7817 1df2 01       		.uleb128 0x1
 7818 1df3 51       		.byte	0x51
 7819 1df4 03       		.uleb128 0x3
 7820 1df5 F3       		.byte	0xf3
 7821 1df6 01       		.uleb128 0x1
 7822 1df7 51       		.byte	0x51
 7823 1df8 00       		.byte	0
 7824 1df9 24       		.uleb128 0x24
 7825 1dfa 30000000 		.4byte	.LVL74
 7826 1dfe 6E250000 		.4byte	0x256e
 7827 1e02 00       		.byte	0
 7828 1e03 3C       		.uleb128 0x3c
 7829 1e04 E5030000 		.4byte	.LASF199
 7830 1e08 01       		.byte	0x1
 7831 1e09 82       		.byte	0x82
 7832 1e0a E2090000 		.4byte	0x9e2
 7833 1e0e 00000000 		.4byte	.LFB6
 7834 1e12 CC000000 		.4byte	.LFE6-.LFB6
 7835 1e16 01       		.uleb128 0x1
 7836 1e17 9C       		.byte	0x9c
 7837 1e18 6F1F0000 		.4byte	0x1f6f
 7838 1e1c 34       		.uleb128 0x34
 7839 1e1d 6E7300   		.ascii	"ns\000"
 7840 1e20 01       		.byte	0x1
 7841 1e21 82       		.byte	0x82
 7842 1e22 DC090000 		.4byte	0x9dc
 7843 1e26 F6150000 		.4byte	.LLST19
 7844 1e2a 34       		.uleb128 0x34
 7845 1e2b 696400   		.ascii	"id\000"
 7846 1e2e 01       		.byte	0x1
 7847 1e2f 83       		.byte	0x83
 7848 1e30 CE050000 		.4byte	0x5ce
 7849 1e34 17160000 		.4byte	.LLST20
 7850 1e38 35       		.uleb128 0x35
 7851 1e39 C4060000 		.4byte	.LASF200
 7852 1e3d 01       		.byte	0x1
 7853 1e3e 83       		.byte	0x83
 7854 1e3f 33000000 		.4byte	0x33
 7855 1e43 5C160000 		.4byte	.LLST21
 7856 1e47 3F       		.uleb128 0x3f
 7857 1e48 706E7300 		.ascii	"pns\000"
 7858 1e4c 01       		.byte	0x1
 7859 1e4d 85       		.byte	0x85
 7860 1e4e DC090000 		.4byte	0x9dc
 7861 1e52 BA160000 		.4byte	.LLST22
 7862 1e56 3F       		.uleb128 0x3f
 7863 1e57 6900     		.ascii	"i\000"
 7864 1e59 01       		.byte	0x1
 7865 1e5a 86       		.byte	0x86
 7866 1e5b F3080000 		.4byte	0x8f3
ARM GAS  C:\Users\25521\AppData\Local\Temp\ccDmagyc.s 			page 139


 7867 1e5f 05170000 		.4byte	.LLST23
 7868 1e63 40       		.uleb128 0x40
 7869 1e64 48000000 		.4byte	.Ldebug_ranges0+0x48
 7870 1e68 651F0000 		.4byte	0x1f65
 7871 1e6c 3A       		.uleb128 0x3a
 7872 1e6d 5F070000 		.4byte	.LASF201
 7873 1e71 01       		.byte	0x1
 7874 1e72 88       		.byte	0x88
 7875 1e73 2C000000 		.4byte	0x2c
 7876 1e77 36       		.uleb128 0x36
 7877 1e78 A6210000 		.4byte	0x21a6
 7878 1e7c 1E000000 		.4byte	.LBB60
 7879 1e80 60000000 		.4byte	.Ldebug_ranges0+0x60
 7880 1e84 01       		.byte	0x1
 7881 1e85 88       		.byte	0x88
 7882 1e86 AC1E0000 		.4byte	0x1eac
 7883 1e8a 2C       		.uleb128 0x2c
 7884 1e8b C0210000 		.4byte	0x21c0
 7885 1e8f 45170000 		.4byte	.LLST24
 7886 1e93 2C       		.uleb128 0x2c
 7887 1e94 B6210000 		.4byte	0x21b6
 7888 1e98 6E170000 		.4byte	.LLST25
 7889 1e9c 41       		.uleb128 0x41
 7890 1e9d 60000000 		.4byte	.Ldebug_ranges0+0x60
 7891 1ea1 42       		.uleb128 0x42
 7892 1ea2 CB210000 		.4byte	0x21cb
 7893 1ea6 8C170000 		.4byte	.LLST26
 7894 1eaa 00       		.byte	0
 7895 1eab 00       		.byte	0
 7896 1eac 36       		.uleb128 0x36
 7897 1ead 6C210000 		.4byte	0x216c
 7898 1eb1 56000000 		.4byte	.LBB65
 7899 1eb5 80000000 		.4byte	.Ldebug_ranges0+0x80
 7900 1eb9 01       		.byte	0x1
 7901 1eba 8A       		.byte	0x8a
 7902 1ebb F81E0000 		.4byte	0x1ef8
 7903 1ebf 43       		.uleb128 0x43
 7904 1ec0 91210000 		.4byte	0x2191
 7905 1ec4 2C       		.uleb128 0x2c
 7906 1ec5 86210000 		.4byte	0x2186
 7907 1ec9 B7170000 		.4byte	.LLST27
 7908 1ecd 2C       		.uleb128 0x2c
 7909 1ece 7C210000 		.4byte	0x217c
 7910 1ed2 D5170000 		.4byte	.LLST28
 7911 1ed6 41       		.uleb128 0x41
 7912 1ed7 80000000 		.4byte	.Ldebug_ranges0+0x80
 7913 1edb 44       		.uleb128 0x44
 7914 1edc 9C210000 		.4byte	0x219c
 7915 1ee0 45       		.uleb128 0x45
 7916 1ee1 5E000000 		.4byte	.LVL49
 7917 1ee5 D5210000 		.4byte	0x21d5
 7918 1ee9 26       		.uleb128 0x26
 7919 1eea 01       		.uleb128 0x1
 7920 1eeb 51       		.byte	0x51
 7921 1eec 02       		.uleb128 0x2
 7922 1eed 76       		.byte	0x76
 7923 1eee 00       		.sleb128 0
ARM GAS  C:\Users\25521\AppData\Local\Temp\ccDmagyc.s 			page 140


 7924 1eef 26       		.uleb128 0x26
 7925 1ef0 01       		.uleb128 0x1
 7926 1ef1 52       		.byte	0x52
 7927 1ef2 02       		.uleb128 0x2
 7928 1ef3 74       		.byte	0x74
 7929 1ef4 00       		.sleb128 0
 7930 1ef5 00       		.byte	0
 7931 1ef6 00       		.byte	0
 7932 1ef7 00       		.byte	0
 7933 1ef8 46       		.uleb128 0x46
 7934 1ef9 33210000 		.4byte	0x2133
 7935 1efd 8C000000 		.4byte	.LBB70
 7936 1f01 30000000 		.4byte	.LBE70-.LBB70
 7937 1f05 01       		.byte	0x1
 7938 1f06 8C       		.byte	0x8c
 7939 1f07 2C       		.uleb128 0x2c
 7940 1f08 43210000 		.4byte	0x2143
 7941 1f0c F3170000 		.4byte	.LLST29
 7942 1f10 2C       		.uleb128 0x2c
 7943 1f11 57210000 		.4byte	0x2157
 7944 1f15 1E180000 		.4byte	.LLST30
 7945 1f19 2C       		.uleb128 0x2c
 7946 1f1a 4D210000 		.4byte	0x214d
 7947 1f1e 31180000 		.4byte	.LLST31
 7948 1f22 47       		.uleb128 0x47
 7949 1f23 8C000000 		.4byte	.LBB71
 7950 1f27 30000000 		.4byte	.LBE71-.LBB71
 7951 1f2b 42       		.uleb128 0x42
 7952 1f2c 62210000 		.4byte	0x2162
 7953 1f30 44180000 		.4byte	.LLST32
 7954 1f34 24       		.uleb128 0x24
 7955 1f35 94000000 		.4byte	.LVL60
 7956 1f39 49250000 		.4byte	0x2549
 7957 1f3d 24       		.uleb128 0x24
 7958 1f3e 9C000000 		.4byte	.LVL62
 7959 1f42 63250000 		.4byte	0x2563
 7960 1f46 45       		.uleb128 0x45
 7961 1f47 AC000000 		.4byte	.LVL64
 7962 1f4b 8D250000 		.4byte	0x258d
 7963 1f4f 26       		.uleb128 0x26
 7964 1f50 01       		.uleb128 0x1
 7965 1f51 50       		.byte	0x50
 7966 1f52 02       		.uleb128 0x2
 7967 1f53 76       		.byte	0x76
 7968 1f54 00       		.sleb128 0
 7969 1f55 26       		.uleb128 0x26
 7970 1f56 01       		.uleb128 0x1
 7971 1f57 51       		.byte	0x51
 7972 1f58 02       		.uleb128 0x2
 7973 1f59 77       		.byte	0x77
 7974 1f5a 00       		.sleb128 0
 7975 1f5b 26       		.uleb128 0x26
 7976 1f5c 01       		.uleb128 0x1
 7977 1f5d 52       		.byte	0x52
 7978 1f5e 02       		.uleb128 0x2
 7979 1f5f 74       		.byte	0x74
 7980 1f60 00       		.sleb128 0
ARM GAS  C:\Users\25521\AppData\Local\Temp\ccDmagyc.s 			page 141


 7981 1f61 00       		.byte	0
 7982 1f62 00       		.byte	0
 7983 1f63 00       		.byte	0
 7984 1f64 00       		.byte	0
 7985 1f65 24       		.uleb128 0x24
 7986 1f66 C8000000 		.4byte	.LVL68
 7987 1f6a 6E250000 		.4byte	0x256e
 7988 1f6e 00       		.byte	0
 7989 1f6f 3C       		.uleb128 0x3c
 7990 1f70 440A0000 		.4byte	.LASF202
 7991 1f74 01       		.byte	0x1
 7992 1f75 7C       		.byte	0x7c
 7993 1f76 DC090000 		.4byte	0x9dc
 7994 1f7a 00000000 		.4byte	.LFB5
 7995 1f7e 34000000 		.4byte	.LFE5-.LFB5
 7996 1f82 01       		.uleb128 0x1
 7997 1f83 9C       		.byte	0x9c
 7998 1f84 DE1F0000 		.4byte	0x1fde
 7999 1f88 34       		.uleb128 0x34
 8000 1f89 6E7300   		.ascii	"ns\000"
 8001 1f8c 01       		.byte	0x1
 8002 1f8d 7C       		.byte	0x7c
 8003 1f8e DC090000 		.4byte	0x9dc
 8004 1f92 57180000 		.4byte	.LLST17
 8005 1f96 34       		.uleb128 0x34
 8006 1f97 696400   		.ascii	"id\000"
 8007 1f9a 01       		.byte	0x1
 8008 1f9b 7D       		.byte	0x7d
 8009 1f9c CE050000 		.4byte	0x5ce
 8010 1fa0 99180000 		.4byte	.LLST18
 8011 1fa4 25       		.uleb128 0x25
 8012 1fa5 14000000 		.4byte	.LVL36
 8013 1fa9 77250000 		.4byte	0x2577
 8014 1fad B81F0000 		.4byte	0x1fb8
 8015 1fb1 26       		.uleb128 0x26
 8016 1fb2 01       		.uleb128 0x1
 8017 1fb3 50       		.byte	0x50
 8018 1fb4 02       		.uleb128 0x2
 8019 1fb5 75       		.byte	0x75
 8020 1fb6 00       		.sleb128 0
 8021 1fb7 00       		.byte	0
 8022 1fb8 27       		.uleb128 0x27
 8023 1fb9 2C000000 		.4byte	.LVL38
 8024 1fbd DE1F0000 		.4byte	0x1fde
 8025 1fc1 D41F0000 		.4byte	0x1fd4
 8026 1fc5 26       		.uleb128 0x26
 8027 1fc6 01       		.uleb128 0x1
 8028 1fc7 50       		.byte	0x50
 8029 1fc8 03       		.uleb128 0x3
 8030 1fc9 F3       		.byte	0xf3
 8031 1fca 01       		.uleb128 0x1
 8032 1fcb 50       		.byte	0x50
 8033 1fcc 26       		.uleb128 0x26
 8034 1fcd 01       		.uleb128 0x1
 8035 1fce 51       		.byte	0x51
 8036 1fcf 03       		.uleb128 0x3
 8037 1fd0 F3       		.byte	0xf3
ARM GAS  C:\Users\25521\AppData\Local\Temp\ccDmagyc.s 			page 142


 8038 1fd1 01       		.uleb128 0x1
 8039 1fd2 51       		.byte	0x51
 8040 1fd3 00       		.byte	0
 8041 1fd4 24       		.uleb128 0x24
 8042 1fd5 30000000 		.4byte	.LVL39
 8043 1fd9 6E250000 		.4byte	0x256e
 8044 1fdd 00       		.byte	0
 8045 1fde 3C       		.uleb128 0x3c
 8046 1fdf 93010000 		.4byte	.LASF203
 8047 1fe3 01       		.byte	0x1
 8048 1fe4 6F       		.byte	0x6f
 8049 1fe5 DC090000 		.4byte	0x9dc
 8050 1fe9 00000000 		.4byte	.LFB4
 8051 1fed 7C000000 		.4byte	.LFE4-.LFB4
 8052 1ff1 01       		.uleb128 0x1
 8053 1ff2 9C       		.byte	0x9c
 8054 1ff3 D7200000 		.4byte	0x20d7
 8055 1ff7 34       		.uleb128 0x34
 8056 1ff8 6E7300   		.ascii	"ns\000"
 8057 1ffb 01       		.byte	0x1
 8058 1ffc 6F       		.byte	0x6f
 8059 1ffd DC090000 		.4byte	0x9dc
 8060 2001 DB180000 		.4byte	.LLST7
 8061 2005 34       		.uleb128 0x34
 8062 2006 696400   		.ascii	"id\000"
 8063 2009 01       		.byte	0x1
 8064 200a 70       		.byte	0x70
 8065 200b CE050000 		.4byte	0x5ce
 8066 200f FC180000 		.4byte	.LLST8
 8067 2013 35       		.uleb128 0x35
 8068 2014 C4060000 		.4byte	.LASF200
 8069 2018 01       		.byte	0x1
 8070 2019 70       		.byte	0x70
 8071 201a 33000000 		.4byte	0x33
 8072 201e 41190000 		.4byte	.LLST9
 8073 2022 3D       		.uleb128 0x3d
 8074 2023 9B030000 		.4byte	.LASF204
 8075 2027 01       		.byte	0x1
 8076 2028 72       		.byte	0x72
 8077 2029 DC090000 		.4byte	0x9dc
 8078 202d 86190000 		.4byte	.LLST10
 8079 2031 3F       		.uleb128 0x3f
 8080 2032 6900     		.ascii	"i\000"
 8081 2034 01       		.byte	0x1
 8082 2035 73       		.byte	0x73
 8083 2036 F3080000 		.4byte	0x8f3
 8084 203a BA190000 		.4byte	.LLST11
 8085 203e 40       		.uleb128 0x40
 8086 203f 00000000 		.4byte	.Ldebug_ranges0+0
 8087 2043 CD200000 		.4byte	0x20cd
 8088 2047 3A       		.uleb128 0x3a
 8089 2048 5F070000 		.4byte	.LASF201
 8090 204c 01       		.byte	0x1
 8091 204d 75       		.byte	0x75
 8092 204e 2C000000 		.4byte	0x2c
 8093 2052 36       		.uleb128 0x36
 8094 2053 A6210000 		.4byte	0x21a6
ARM GAS  C:\Users\25521\AppData\Local\Temp\ccDmagyc.s 			page 143


 8095 2057 1E000000 		.4byte	.LBB43
 8096 205b 18000000 		.4byte	.Ldebug_ranges0+0x18
 8097 205f 01       		.byte	0x1
 8098 2060 75       		.byte	0x75
 8099 2061 87200000 		.4byte	0x2087
 8100 2065 2C       		.uleb128 0x2c
 8101 2066 C0210000 		.4byte	0x21c0
 8102 206a E4190000 		.4byte	.LLST12
 8103 206e 2C       		.uleb128 0x2c
 8104 206f B6210000 		.4byte	0x21b6
 8105 2073 021A0000 		.4byte	.LLST13
 8106 2077 41       		.uleb128 0x41
 8107 2078 18000000 		.4byte	.Ldebug_ranges0+0x18
 8108 207c 42       		.uleb128 0x42
 8109 207d CB210000 		.4byte	0x21cb
 8110 2081 151A0000 		.4byte	.LLST14
 8111 2085 00       		.byte	0
 8112 2086 00       		.byte	0
 8113 2087 37       		.uleb128 0x37
 8114 2088 6C210000 		.4byte	0x216c
 8115 208c 4A000000 		.4byte	.LBB47
 8116 2090 30000000 		.4byte	.Ldebug_ranges0+0x30
 8117 2094 01       		.byte	0x1
 8118 2095 76       		.byte	0x76
 8119 2096 43       		.uleb128 0x43
 8120 2097 91210000 		.4byte	0x2191
 8121 209b 2C       		.uleb128 0x2c
 8122 209c 86210000 		.4byte	0x2186
 8123 20a0 341A0000 		.4byte	.LLST15
 8124 20a4 2C       		.uleb128 0x2c
 8125 20a5 7C210000 		.4byte	0x217c
 8126 20a9 621A0000 		.4byte	.LLST16
 8127 20ad 41       		.uleb128 0x41
 8128 20ae 30000000 		.4byte	.Ldebug_ranges0+0x30
 8129 20b2 44       		.uleb128 0x44
 8130 20b3 9C210000 		.4byte	0x219c
 8131 20b7 45       		.uleb128 0x45
 8132 20b8 4E000000 		.4byte	.LVL25
 8133 20bc D5210000 		.4byte	0x21d5
 8134 20c0 26       		.uleb128 0x26
 8135 20c1 01       		.uleb128 0x1
 8136 20c2 51       		.byte	0x51
 8137 20c3 05       		.uleb128 0x5
 8138 20c4 7A       		.byte	0x7a
 8139 20c5 00       		.sleb128 0
 8140 20c6 77       		.byte	0x77
 8141 20c7 00       		.sleb128 0
 8142 20c8 22       		.byte	0x22
 8143 20c9 00       		.byte	0
 8144 20ca 00       		.byte	0
 8145 20cb 00       		.byte	0
 8146 20cc 00       		.byte	0
 8147 20cd 24       		.uleb128 0x24
 8148 20ce 78000000 		.4byte	.LVL33
 8149 20d2 6E250000 		.4byte	0x256e
 8150 20d6 00       		.byte	0
 8151 20d7 33       		.uleb128 0x33
ARM GAS  C:\Users\25521\AppData\Local\Temp\ccDmagyc.s 			page 144


 8152 20d8 E10A0000 		.4byte	.LASF205
 8153 20dc 01       		.byte	0x1
 8154 20dd 5A       		.byte	0x5a
 8155 20de 00000000 		.4byte	.LFB3
 8156 20e2 50000000 		.4byte	.LFE3-.LFB3
 8157 20e6 01       		.uleb128 0x1
 8158 20e7 9C       		.byte	0x9c
 8159 20e8 33210000 		.4byte	0x2133
 8160 20ec 34       		.uleb128 0x34
 8161 20ed 6E7300   		.ascii	"ns\000"
 8162 20f0 01       		.byte	0x1
 8163 20f1 5A       		.byte	0x5a
 8164 20f2 DC090000 		.4byte	0x9dc
 8165 20f6 801A0000 		.4byte	.LLST4
 8166 20fa 35       		.uleb128 0x35
 8167 20fb 9A020000 		.4byte	.LASF135
 8168 20ff 01       		.byte	0x1
 8169 2100 5B       		.byte	0x5b
 8170 2101 DC090000 		.4byte	0x9dc
 8171 2105 C31A0000 		.4byte	.LLST5
 8172 2109 34       		.uleb128 0x34
 8173 210a 696400   		.ascii	"id\000"
 8174 210d 01       		.byte	0x1
 8175 210e 5C       		.byte	0x5c
 8176 210f CE050000 		.4byte	0x5ce
 8177 2113 E41A0000 		.4byte	.LLST6
 8178 2117 24       		.uleb128 0x24
 8179 2118 2C000000 		.4byte	.LVL13
 8180 211c 49250000 		.4byte	0x2549
 8181 2120 32       		.uleb128 0x32
 8182 2121 46000000 		.4byte	.LVL15
 8183 2125 63250000 		.4byte	0x2563
 8184 2129 24       		.uleb128 0x24
 8185 212a 4A000000 		.4byte	.LVL16
 8186 212e 6E250000 		.4byte	0x256e
 8187 2132 00       		.byte	0
 8188 2133 48       		.uleb128 0x48
 8189 2134 37070000 		.4byte	.LASF207
 8190 2138 01       		.byte	0x1
 8191 2139 46       		.byte	0x46
 8192 213a E2090000 		.4byte	0x9e2
 8193 213e 01       		.byte	0x1
 8194 213f 6C210000 		.4byte	0x216c
 8195 2143 39       		.uleb128 0x39
 8196 2144 6E7300   		.ascii	"ns\000"
 8197 2147 01       		.byte	0x1
 8198 2148 46       		.byte	0x46
 8199 2149 DC090000 		.4byte	0x9dc
 8200 214d 39       		.uleb128 0x39
 8201 214e 696400   		.ascii	"id\000"
 8202 2151 01       		.byte	0x1
 8203 2152 46       		.byte	0x46
 8204 2153 CE050000 		.4byte	0x5ce
 8205 2157 49       		.uleb128 0x49
 8206 2158 D3060000 		.4byte	.LASF206
 8207 215c 01       		.byte	0x1
 8208 215d 47       		.byte	0x47
ARM GAS  C:\Users\25521\AppData\Local\Temp\ccDmagyc.s 			page 145


 8209 215e 33000000 		.4byte	0x33
 8210 2162 3B       		.uleb128 0x3b
 8211 2163 6900     		.ascii	"i\000"
 8212 2165 01       		.byte	0x1
 8213 2166 4D       		.byte	0x4d
 8214 2167 E2090000 		.4byte	0x9e2
 8215 216b 00       		.byte	0
 8216 216c 48       		.uleb128 0x48
 8217 216d 680A0000 		.4byte	.LASF208
 8218 2171 01       		.byte	0x1
 8219 2172 2E       		.byte	0x2e
 8220 2173 DC090000 		.4byte	0x9dc
 8221 2177 01       		.byte	0x1
 8222 2178 A6210000 		.4byte	0x21a6
 8223 217c 39       		.uleb128 0x39
 8224 217d 6E7300   		.ascii	"ns\000"
 8225 2180 01       		.byte	0x1
 8226 2181 2E       		.byte	0x2e
 8227 2182 DC090000 		.4byte	0x9dc
 8228 2186 49       		.uleb128 0x49
 8229 2187 13030000 		.4byte	.LASF209
 8230 218b 01       		.byte	0x1
 8231 218c 2F       		.byte	0x2f
 8232 218d CE050000 		.4byte	0x5ce
 8233 2191 49       		.uleb128 0x49
 8234 2192 3A080000 		.4byte	.LASF210
 8235 2196 01       		.byte	0x1
 8236 2197 30       		.byte	0x30
 8237 2198 33000000 		.4byte	0x33
 8238 219c 3B       		.uleb128 0x3b
 8239 219d 6900     		.ascii	"i\000"
 8240 219f 01       		.byte	0x1
 8241 21a0 36       		.byte	0x36
 8242 21a1 DC090000 		.4byte	0x9dc
 8243 21a5 00       		.byte	0
 8244 21a6 48       		.uleb128 0x48
 8245 21a7 96080000 		.4byte	.LASF211
 8246 21ab 01       		.byte	0x1
 8247 21ac 1F       		.byte	0x1f
 8248 21ad 2C000000 		.4byte	0x2c
 8249 21b1 01       		.byte	0x1
 8250 21b2 D5210000 		.4byte	0x21d5
 8251 21b6 39       		.uleb128 0x39
 8252 21b7 696400   		.ascii	"id\000"
 8253 21ba 01       		.byte	0x1
 8254 21bb 1F       		.byte	0x1f
 8255 21bc CE050000 		.4byte	0x5ce
 8256 21c0 49       		.uleb128 0x49
 8257 21c1 C4060000 		.4byte	.LASF200
 8258 21c5 01       		.byte	0x1
 8259 21c6 1F       		.byte	0x1f
 8260 21c7 2C000000 		.4byte	0x2c
 8261 21cb 3B       		.uleb128 0x3b
 8262 21cc 6900     		.ascii	"i\000"
 8263 21ce 01       		.byte	0x1
 8264 21cf 21       		.byte	0x21
 8265 21d0 2C000000 		.4byte	0x2c
ARM GAS  C:\Users\25521\AppData\Local\Temp\ccDmagyc.s 			page 146


 8266 21d4 00       		.byte	0
 8267 21d5 4A       		.uleb128 0x4a
 8268 21d6 6C210000 		.4byte	0x216c
 8269 21da 00000000 		.4byte	.LFB48
 8270 21de 54000000 		.4byte	.LFE48-.LFB48
 8271 21e2 01       		.uleb128 0x1
 8272 21e3 9C       		.byte	0x9c
 8273 21e4 48220000 		.4byte	0x2248
 8274 21e8 2C       		.uleb128 0x2c
 8275 21e9 7C210000 		.4byte	0x217c
 8276 21ed 1C1B0000 		.4byte	.LLST0
 8277 21f1 2C       		.uleb128 0x2c
 8278 21f2 86210000 		.4byte	0x2186
 8279 21f6 481B0000 		.4byte	.LLST1
 8280 21fa 2C       		.uleb128 0x2c
 8281 21fb 91210000 		.4byte	0x2191
 8282 21ff 661B0000 		.4byte	.LLST2
 8283 2203 42       		.uleb128 0x42
 8284 2204 9C210000 		.4byte	0x219c
 8285 2208 841B0000 		.4byte	.LLST3
 8286 220c 24       		.uleb128 0x24
 8287 220d 1A000000 		.4byte	.LVL1
 8288 2211 49250000 		.4byte	0x2549
 8289 2215 24       		.uleb128 0x24
 8290 2216 20000000 		.4byte	.LVL3
 8291 221a 63250000 		.4byte	0x2563
 8292 221e 25       		.uleb128 0x25
 8293 221f 2E000000 		.4byte	.LVL4
 8294 2223 8D250000 		.4byte	0x258d
 8295 2227 3E220000 		.4byte	0x223e
 8296 222b 26       		.uleb128 0x26
 8297 222c 01       		.uleb128 0x1
 8298 222d 50       		.byte	0x50
 8299 222e 02       		.uleb128 0x2
 8300 222f 77       		.byte	0x77
 8301 2230 00       		.sleb128 0
 8302 2231 26       		.uleb128 0x26
 8303 2232 01       		.uleb128 0x1
 8304 2233 51       		.byte	0x51
 8305 2234 02       		.uleb128 0x2
 8306 2235 75       		.byte	0x75
 8307 2236 00       		.sleb128 0
 8308 2237 26       		.uleb128 0x26
 8309 2238 01       		.uleb128 0x1
 8310 2239 52       		.byte	0x52
 8311 223a 02       		.uleb128 0x2
 8312 223b 76       		.byte	0x76
 8313 223c 00       		.sleb128 0
 8314 223d 00       		.byte	0
 8315 223e 24       		.uleb128 0x24
 8316 223f 50000000 		.4byte	.LVL8
 8317 2243 6E250000 		.4byte	0x256e
 8318 2247 00       		.byte	0
 8319 2248 4A       		.uleb128 0x4a
 8320 2249 6A1D0000 		.4byte	0x1d6a
 8321 224d 00000000 		.4byte	.LFB8
 8322 2251 3C000000 		.4byte	.LFE8-.LFB8
ARM GAS  C:\Users\25521\AppData\Local\Temp\ccDmagyc.s 			page 147


 8323 2255 01       		.uleb128 0x1
 8324 2256 9C       		.byte	0x9c
 8325 2257 92220000 		.4byte	0x2292
 8326 225b 2C       		.uleb128 0x2c
 8327 225c 761D0000 		.4byte	0x1d76
 8328 2260 AD1B0000 		.4byte	.LLST35
 8329 2264 2C       		.uleb128 0x2c
 8330 2265 7F1D0000 		.4byte	0x1d7f
 8331 2269 F01B0000 		.4byte	.LLST36
 8332 226d 2C       		.uleb128 0x2c
 8333 226e 891D0000 		.4byte	0x1d89
 8334 2272 1D1C0000 		.4byte	.LLST37
 8335 2276 24       		.uleb128 0x24
 8336 2277 1A000000 		.4byte	.LVL77
 8337 227b 49250000 		.4byte	0x2549
 8338 227f 32       		.uleb128 0x32
 8339 2280 34000000 		.4byte	.LVL79
 8340 2284 63250000 		.4byte	0x2563
 8341 2288 24       		.uleb128 0x24
 8342 2289 38000000 		.4byte	.LVL80
 8343 228d 6E250000 		.4byte	0x256e
 8344 2291 00       		.byte	0
 8345 2292 4A       		.uleb128 0x4a
 8346 2293 431C0000 		.4byte	0x1c43
 8347 2297 00000000 		.4byte	.LFB12
 8348 229b 4C000000 		.4byte	.LFE12-.LFB12
 8349 229f 01       		.uleb128 0x1
 8350 22a0 9C       		.byte	0x9c
 8351 22a1 1D230000 		.4byte	0x231d
 8352 22a5 2C       		.uleb128 0x2c
 8353 22a6 4F1C0000 		.4byte	0x1c4f
 8354 22aa 3E1C0000 		.4byte	.LLST42
 8355 22ae 42       		.uleb128 0x42
 8356 22af 581C0000 		.4byte	0x1c58
 8357 22b3 5C1C0000 		.4byte	.LLST43
 8358 22b7 44       		.uleb128 0x44
 8359 22b8 631C0000 		.4byte	0x1c63
 8360 22bc 4B       		.uleb128 0x4b
 8361 22bd 431C0000 		.4byte	0x1c43
 8362 22c1 1C000000 		.4byte	.LBB75
 8363 22c5 1C000000 		.4byte	.LBE75-.LBB75
 8364 22c9 01230000 		.4byte	0x2301
 8365 22cd 2C       		.uleb128 0x2c
 8366 22ce 4F1C0000 		.4byte	0x1c4f
 8367 22d2 6F1C0000 		.4byte	.LLST44
 8368 22d6 47       		.uleb128 0x47
 8369 22d7 1C000000 		.4byte	.LBB76
 8370 22db 1C000000 		.4byte	.LBE76-.LBB76
 8371 22df 44       		.uleb128 0x44
 8372 22e0 AE220000 		.4byte	0x22ae
 8373 22e4 42       		.uleb128 0x42
 8374 22e5 B7220000 		.4byte	0x22b7
 8375 22e9 821C0000 		.4byte	.LLST45
 8376 22ed 24       		.uleb128 0x24
 8377 22ee 24000000 		.4byte	.LVL104
 8378 22f2 49250000 		.4byte	0x2549
 8379 22f6 24       		.uleb128 0x24
ARM GAS  C:\Users\25521\AppData\Local\Temp\ccDmagyc.s 			page 148


 8380 22f7 2E000000 		.4byte	.LVL105
 8381 22fb 63250000 		.4byte	0x2563
 8382 22ff 00       		.byte	0
 8383 2300 00       		.byte	0
 8384 2301 24       		.uleb128 0x24
 8385 2302 10000000 		.4byte	.LVL99
 8386 2306 49250000 		.4byte	0x2549
 8387 230a 24       		.uleb128 0x24
 8388 230b 1A000000 		.4byte	.LVL101
 8389 230f 63250000 		.4byte	0x2563
 8390 2313 24       		.uleb128 0x24
 8391 2314 48000000 		.4byte	.LVL109
 8392 2318 6E250000 		.4byte	0x256e
 8393 231c 00       		.byte	0
 8394 231d 4A       		.uleb128 0x4a
 8395 231e 181C0000 		.4byte	0x1c18
 8396 2322 00000000 		.4byte	.LFB13
 8397 2326 48000000 		.4byte	.LFE13-.LFB13
 8398 232a 01       		.uleb128 0x1
 8399 232b 9C       		.byte	0x9c
 8400 232c A6230000 		.4byte	0x23a6
 8401 2330 2C       		.uleb128 0x2c
 8402 2331 241C0000 		.4byte	0x1c24
 8403 2335 951C0000 		.4byte	.LLST46
 8404 2339 4C       		.uleb128 0x4c
 8405 233a 2D1C0000 		.4byte	0x1c2d
 8406 233e 01       		.uleb128 0x1
 8407 233f 56       		.byte	0x56
 8408 2340 44       		.uleb128 0x44
 8409 2341 381C0000 		.4byte	0x1c38
 8410 2345 4B       		.uleb128 0x4b
 8411 2346 181C0000 		.4byte	0x1c18
 8412 234a 1C000000 		.4byte	.LBB79
 8413 234e 18000000 		.4byte	.LBE79-.LBB79
 8414 2352 8A230000 		.4byte	0x238a
 8415 2356 2C       		.uleb128 0x2c
 8416 2357 241C0000 		.4byte	0x1c24
 8417 235b C11C0000 		.4byte	.LLST47
 8418 235f 47       		.uleb128 0x47
 8419 2360 1C000000 		.4byte	.LBB80
 8420 2364 18000000 		.4byte	.LBE80-.LBB80
 8421 2368 44       		.uleb128 0x44
 8422 2369 39230000 		.4byte	0x2339
 8423 236d 42       		.uleb128 0x42
 8424 236e 40230000 		.4byte	0x2340
 8425 2372 E21C0000 		.4byte	.LLST48
 8426 2376 24       		.uleb128 0x24
 8427 2377 24000000 		.4byte	.LVL116
 8428 237b 49250000 		.4byte	0x2549
 8429 237f 24       		.uleb128 0x24
 8430 2380 2E000000 		.4byte	.LVL117
 8431 2384 63250000 		.4byte	0x2563
 8432 2388 00       		.byte	0
 8433 2389 00       		.byte	0
 8434 238a 24       		.uleb128 0x24
 8435 238b 10000000 		.4byte	.LVL111
 8436 238f 49250000 		.4byte	0x2549
ARM GAS  C:\Users\25521\AppData\Local\Temp\ccDmagyc.s 			page 149


 8437 2393 24       		.uleb128 0x24
 8438 2394 1A000000 		.4byte	.LVL113
 8439 2398 63250000 		.4byte	0x2563
 8440 239c 24       		.uleb128 0x24
 8441 239d 44000000 		.4byte	.LVL121
 8442 23a1 6E250000 		.4byte	0x256e
 8443 23a5 00       		.byte	0
 8444 23a6 4A       		.uleb128 0x4a
 8445 23a7 9D140000 		.4byte	0x149d
 8446 23ab 00000000 		.4byte	.LFB29
 8447 23af 48000000 		.4byte	.LFE29-.LFB29
 8448 23b3 01       		.uleb128 0x1
 8449 23b4 9C       		.byte	0x9c
 8450 23b5 2E240000 		.4byte	0x242e
 8451 23b9 2C       		.uleb128 0x2c
 8452 23ba AA140000 		.4byte	0x14aa
 8453 23be F51C0000 		.4byte	.LLST101
 8454 23c2 2C       		.uleb128 0x2c
 8455 23c3 B4140000 		.4byte	0x14b4
 8456 23c7 381D0000 		.4byte	.LLST102
 8457 23cb 2C       		.uleb128 0x2c
 8458 23cc BF140000 		.4byte	0x14bf
 8459 23d0 651D0000 		.4byte	.LLST103
 8460 23d4 2C       		.uleb128 0x2c
 8461 23d5 CA140000 		.4byte	0x14ca
 8462 23d9 861D0000 		.4byte	.LLST104
 8463 23dd 2C       		.uleb128 0x2c
 8464 23de D6140000 		.4byte	0x14d6
 8465 23e2 B31D0000 		.4byte	.LLST105
 8466 23e6 2D       		.uleb128 0x2d
 8467 23e7 6A1D0000 		.4byte	0x1d6a
 8468 23eb 10000000 		.4byte	.LBB141
 8469 23ef B8010000 		.4byte	.Ldebug_ranges0+0x1b8
 8470 23f3 01       		.byte	0x1
 8471 23f4 8101     		.2byte	0x181
 8472 23f6 2C       		.uleb128 0x2c
 8473 23f7 891D0000 		.4byte	0x1d89
 8474 23fb DF1D0000 		.4byte	.LLST106
 8475 23ff 2C       		.uleb128 0x2c
 8476 2400 7F1D0000 		.4byte	0x1d7f
 8477 2404 001E0000 		.4byte	.LLST107
 8478 2408 2C       		.uleb128 0x2c
 8479 2409 761D0000 		.4byte	0x1d76
 8480 240d 2D1E0000 		.4byte	.LLST108
 8481 2411 24       		.uleb128 0x24
 8482 2412 26000000 		.4byte	.LVL245
 8483 2416 49250000 		.4byte	0x2549
 8484 241a 32       		.uleb128 0x32
 8485 241b 40000000 		.4byte	.LVL247
 8486 241f 63250000 		.4byte	0x2563
 8487 2423 24       		.uleb128 0x24
 8488 2424 44000000 		.4byte	.LVL248
 8489 2428 6E250000 		.4byte	0x256e
 8490 242c 00       		.byte	0
 8491 242d 00       		.byte	0
 8492 242e 4A       		.uleb128 0x4a
 8493 242f C3110000 		.4byte	0x11c3
ARM GAS  C:\Users\25521\AppData\Local\Temp\ccDmagyc.s 			page 150


 8494 2433 00000000 		.4byte	.LFB35
 8495 2437 48000000 		.4byte	.LFE35-.LFB35
 8496 243b 01       		.uleb128 0x1
 8497 243c 9C       		.byte	0x9c
 8498 243d B6240000 		.4byte	0x24b6
 8499 2441 2C       		.uleb128 0x2c
 8500 2442 D0110000 		.4byte	0x11d0
 8501 2446 651E0000 		.4byte	.LLST131
 8502 244a 2C       		.uleb128 0x2c
 8503 244b DA110000 		.4byte	0x11da
 8504 244f A81E0000 		.4byte	.LLST132
 8505 2453 2C       		.uleb128 0x2c
 8506 2454 E5110000 		.4byte	0x11e5
 8507 2458 D51E0000 		.4byte	.LLST133
 8508 245c 2C       		.uleb128 0x2c
 8509 245d F0110000 		.4byte	0x11f0
 8510 2461 F61E0000 		.4byte	.LLST134
 8511 2465 2C       		.uleb128 0x2c
 8512 2466 FC110000 		.4byte	0x11fc
 8513 246a 231F0000 		.4byte	.LLST135
 8514 246e 2D       		.uleb128 0x2d
 8515 246f 6A1D0000 		.4byte	0x1d6a
 8516 2473 10000000 		.4byte	.LBB161
 8517 2477 20020000 		.4byte	.Ldebug_ranges0+0x220
 8518 247b 01       		.byte	0x1
 8519 247c C001     		.2byte	0x1c0
 8520 247e 2C       		.uleb128 0x2c
 8521 247f 891D0000 		.4byte	0x1d89
 8522 2483 4F1F0000 		.4byte	.LLST136
 8523 2487 2C       		.uleb128 0x2c
 8524 2488 7F1D0000 		.4byte	0x1d7f
 8525 248c 701F0000 		.4byte	.LLST137
 8526 2490 2C       		.uleb128 0x2c
 8527 2491 761D0000 		.4byte	0x1d76
 8528 2495 9D1F0000 		.4byte	.LLST138
 8529 2499 24       		.uleb128 0x24
 8530 249a 26000000 		.4byte	.LVL296
 8531 249e 49250000 		.4byte	0x2549
 8532 24a2 32       		.uleb128 0x32
 8533 24a3 40000000 		.4byte	.LVL298
 8534 24a7 63250000 		.4byte	0x2563
 8535 24ab 24       		.uleb128 0x24
 8536 24ac 44000000 		.4byte	.LVL299
 8537 24b0 6E250000 		.4byte	0x256e
 8538 24b4 00       		.byte	0
 8539 24b5 00       		.byte	0
 8540 24b6 4A       		.uleb128 0x4a
 8541 24b7 9B0E0000 		.4byte	0xe9b
 8542 24bb 00000000 		.4byte	.LFB41
 8543 24bf 48000000 		.4byte	.LFE41-.LFB41
 8544 24c3 01       		.uleb128 0x1
 8545 24c4 9C       		.byte	0x9c
 8546 24c5 3E250000 		.4byte	0x253e
 8547 24c9 2C       		.uleb128 0x2c
 8548 24ca A80E0000 		.4byte	0xea8
 8549 24ce D51F0000 		.4byte	.LLST163
 8550 24d2 2C       		.uleb128 0x2c
ARM GAS  C:\Users\25521\AppData\Local\Temp\ccDmagyc.s 			page 151


 8551 24d3 B20E0000 		.4byte	0xeb2
 8552 24d7 18200000 		.4byte	.LLST164
 8553 24db 2C       		.uleb128 0x2c
 8554 24dc BD0E0000 		.4byte	0xebd
 8555 24e0 45200000 		.4byte	.LLST165
 8556 24e4 2C       		.uleb128 0x2c
 8557 24e5 C80E0000 		.4byte	0xec8
 8558 24e9 66200000 		.4byte	.LLST166
 8559 24ed 2C       		.uleb128 0x2c
 8560 24ee D40E0000 		.4byte	0xed4
 8561 24f2 93200000 		.4byte	.LLST167
 8562 24f6 2D       		.uleb128 0x2d
 8563 24f7 6A1D0000 		.4byte	0x1d6a
 8564 24fb 10000000 		.4byte	.LBB185
 8565 24ff 98020000 		.4byte	.Ldebug_ranges0+0x298
 8566 2503 01       		.byte	0x1
 8567 2504 0602     		.2byte	0x206
 8568 2506 2C       		.uleb128 0x2c
 8569 2507 891D0000 		.4byte	0x1d89
 8570 250b BF200000 		.4byte	.LLST168
 8571 250f 2C       		.uleb128 0x2c
 8572 2510 7F1D0000 		.4byte	0x1d7f
 8573 2514 E0200000 		.4byte	.LLST169
 8574 2518 2C       		.uleb128 0x2c
 8575 2519 761D0000 		.4byte	0x1d76
 8576 251d 0D210000 		.4byte	.LLST170
 8577 2521 24       		.uleb128 0x24
 8578 2522 26000000 		.4byte	.LVL347
 8579 2526 49250000 		.4byte	0x2549
 8580 252a 32       		.uleb128 0x32
 8581 252b 40000000 		.4byte	.LVL349
 8582 252f 63250000 		.4byte	0x2563
 8583 2533 24       		.uleb128 0x24
 8584 2534 44000000 		.4byte	.LVL350
 8585 2538 6E250000 		.4byte	0x256e
 8586 253c 00       		.byte	0
 8587 253d 00       		.byte	0
 8588 253e 4D       		.uleb128 0x4d
 8589 253f 3B010000 		.4byte	.LASF212
 8590 2543 3B010000 		.4byte	.LASF212
 8591 2547 0A       		.byte	0xa
 8592 2548 0F       		.byte	0xf
 8593 2549 4D       		.uleb128 0x4d
 8594 254a 01060000 		.4byte	.LASF213
 8595 254e 01060000 		.4byte	.LASF213
 8596 2552 0A       		.byte	0xa
 8597 2553 09       		.byte	0x9
 8598 2554 4E       		.uleb128 0x4e
 8599 2555 97060000 		.4byte	.LASF221
 8600 2559 AD060000 		.4byte	.LASF222
 8601 255d 0C       		.byte	0xc
 8602 255e 00       		.byte	0
 8603 255f 97060000 		.4byte	.LASF221
 8604 2563 4D       		.uleb128 0x4d
 8605 2564 BF0C0000 		.4byte	.LASF214
 8606 2568 BF0C0000 		.4byte	.LASF214
 8607 256c 0A       		.byte	0xa
ARM GAS  C:\Users\25521\AppData\Local\Temp\ccDmagyc.s 			page 152


 8608 256d 0C       		.byte	0xc
 8609 256e 4F       		.uleb128 0x4f
 8610 256f 57090000 		.4byte	.LASF223
 8611 2573 57090000 		.4byte	.LASF223
 8612 2577 4D       		.uleb128 0x4d
 8613 2578 68060000 		.4byte	.LASF215
 8614 257c 68060000 		.4byte	.LASF215
 8615 2580 0B       		.byte	0xb
 8616 2581 29       		.byte	0x29
 8617 2582 4D       		.uleb128 0x4d
 8618 2583 A5000000 		.4byte	.LASF216
 8619 2587 A5000000 		.4byte	.LASF216
 8620 258b 0B       		.byte	0xb
 8621 258c 2C       		.byte	0x2c
 8622 258d 4D       		.uleb128 0x4d
 8623 258e 0B070000 		.4byte	.LASF217
 8624 2592 0B070000 		.4byte	.LASF217
 8625 2596 0B       		.byte	0xb
 8626 2597 2B       		.byte	0x2b
 8627 2598 00       		.byte	0
 8628              		.section	.debug_abbrev,"",%progbits
 8629              	.Ldebug_abbrev0:
 8630 0000 01       		.uleb128 0x1
 8631 0001 11       		.uleb128 0x11
 8632 0002 01       		.byte	0x1
 8633 0003 25       		.uleb128 0x25
 8634 0004 0E       		.uleb128 0xe
 8635 0005 13       		.uleb128 0x13
 8636 0006 0B       		.uleb128 0xb
 8637 0007 03       		.uleb128 0x3
 8638 0008 0E       		.uleb128 0xe
 8639 0009 1B       		.uleb128 0x1b
 8640 000a 0E       		.uleb128 0xe
 8641 000b 55       		.uleb128 0x55
 8642 000c 17       		.uleb128 0x17
 8643 000d 11       		.uleb128 0x11
 8644 000e 01       		.uleb128 0x1
 8645 000f 10       		.uleb128 0x10
 8646 0010 17       		.uleb128 0x17
 8647 0011 00       		.byte	0
 8648 0012 00       		.byte	0
 8649 0013 02       		.uleb128 0x2
 8650 0014 24       		.uleb128 0x24
 8651 0015 00       		.byte	0
 8652 0016 0B       		.uleb128 0xb
 8653 0017 0B       		.uleb128 0xb
 8654 0018 3E       		.uleb128 0x3e
 8655 0019 0B       		.uleb128 0xb
 8656 001a 03       		.uleb128 0x3
 8657 001b 0E       		.uleb128 0xe
 8658 001c 00       		.byte	0
 8659 001d 00       		.byte	0
 8660 001e 03       		.uleb128 0x3
 8661 001f 24       		.uleb128 0x24
 8662 0020 00       		.byte	0
 8663 0021 0B       		.uleb128 0xb
 8664 0022 0B       		.uleb128 0xb
ARM GAS  C:\Users\25521\AppData\Local\Temp\ccDmagyc.s 			page 153


 8665 0023 3E       		.uleb128 0x3e
 8666 0024 0B       		.uleb128 0xb
 8667 0025 03       		.uleb128 0x3
 8668 0026 08       		.uleb128 0x8
 8669 0027 00       		.byte	0
 8670 0028 00       		.byte	0
 8671 0029 04       		.uleb128 0x4
 8672 002a 16       		.uleb128 0x16
 8673 002b 00       		.byte	0
 8674 002c 03       		.uleb128 0x3
 8675 002d 0E       		.uleb128 0xe
 8676 002e 3A       		.uleb128 0x3a
 8677 002f 0B       		.uleb128 0xb
 8678 0030 3B       		.uleb128 0x3b
 8679 0031 0B       		.uleb128 0xb
 8680 0032 49       		.uleb128 0x49
 8681 0033 13       		.uleb128 0x13
 8682 0034 00       		.byte	0
 8683 0035 00       		.byte	0
 8684 0036 05       		.uleb128 0x5
 8685 0037 0F       		.uleb128 0xf
 8686 0038 00       		.byte	0
 8687 0039 0B       		.uleb128 0xb
 8688 003a 0B       		.uleb128 0xb
 8689 003b 49       		.uleb128 0x49
 8690 003c 13       		.uleb128 0x13
 8691 003d 00       		.byte	0
 8692 003e 00       		.byte	0
 8693 003f 06       		.uleb128 0x6
 8694 0040 13       		.uleb128 0x13
 8695 0041 00       		.byte	0
 8696 0042 03       		.uleb128 0x3
 8697 0043 0E       		.uleb128 0xe
 8698 0044 3C       		.uleb128 0x3c
 8699 0045 19       		.uleb128 0x19
 8700 0046 00       		.byte	0
 8701 0047 00       		.byte	0
 8702 0048 07       		.uleb128 0x7
 8703 0049 16       		.uleb128 0x16
 8704 004a 00       		.byte	0
 8705 004b 03       		.uleb128 0x3
 8706 004c 0E       		.uleb128 0xe
 8707 004d 3A       		.uleb128 0x3a
 8708 004e 0B       		.uleb128 0xb
 8709 004f 3B       		.uleb128 0x3b
 8710 0050 05       		.uleb128 0x5
 8711 0051 49       		.uleb128 0x49
 8712 0052 13       		.uleb128 0x13
 8713 0053 00       		.byte	0
 8714 0054 00       		.byte	0
 8715 0055 08       		.uleb128 0x8
 8716 0056 17       		.uleb128 0x17
 8717 0057 01       		.byte	0x1
 8718 0058 0B       		.uleb128 0xb
 8719 0059 0B       		.uleb128 0xb
 8720 005a 3A       		.uleb128 0x3a
 8721 005b 0B       		.uleb128 0xb
ARM GAS  C:\Users\25521\AppData\Local\Temp\ccDmagyc.s 			page 154


 8722 005c 3B       		.uleb128 0x3b
 8723 005d 0B       		.uleb128 0xb
 8724 005e 01       		.uleb128 0x1
 8725 005f 13       		.uleb128 0x13
 8726 0060 00       		.byte	0
 8727 0061 00       		.byte	0
 8728 0062 09       		.uleb128 0x9
 8729 0063 0D       		.uleb128 0xd
 8730 0064 00       		.byte	0
 8731 0065 03       		.uleb128 0x3
 8732 0066 0E       		.uleb128 0xe
 8733 0067 3A       		.uleb128 0x3a
 8734 0068 0B       		.uleb128 0xb
 8735 0069 3B       		.uleb128 0x3b
 8736 006a 0B       		.uleb128 0xb
 8737 006b 49       		.uleb128 0x49
 8738 006c 13       		.uleb128 0x13
 8739 006d 00       		.byte	0
 8740 006e 00       		.byte	0
 8741 006f 0A       		.uleb128 0xa
 8742 0070 01       		.uleb128 0x1
 8743 0071 01       		.byte	0x1
 8744 0072 49       		.uleb128 0x49
 8745 0073 13       		.uleb128 0x13
 8746 0074 01       		.uleb128 0x1
 8747 0075 13       		.uleb128 0x13
 8748 0076 00       		.byte	0
 8749 0077 00       		.byte	0
 8750 0078 0B       		.uleb128 0xb
 8751 0079 21       		.uleb128 0x21
 8752 007a 00       		.byte	0
 8753 007b 49       		.uleb128 0x49
 8754 007c 13       		.uleb128 0x13
 8755 007d 2F       		.uleb128 0x2f
 8756 007e 0B       		.uleb128 0xb
 8757 007f 00       		.byte	0
 8758 0080 00       		.byte	0
 8759 0081 0C       		.uleb128 0xc
 8760 0082 13       		.uleb128 0x13
 8761 0083 01       		.byte	0x1
 8762 0084 0B       		.uleb128 0xb
 8763 0085 0B       		.uleb128 0xb
 8764 0086 3A       		.uleb128 0x3a
 8765 0087 0B       		.uleb128 0xb
 8766 0088 3B       		.uleb128 0x3b
 8767 0089 0B       		.uleb128 0xb
 8768 008a 01       		.uleb128 0x1
 8769 008b 13       		.uleb128 0x13
 8770 008c 00       		.byte	0
 8771 008d 00       		.byte	0
 8772 008e 0D       		.uleb128 0xd
 8773 008f 0D       		.uleb128 0xd
 8774 0090 00       		.byte	0
 8775 0091 03       		.uleb128 0x3
 8776 0092 0E       		.uleb128 0xe
 8777 0093 3A       		.uleb128 0x3a
 8778 0094 0B       		.uleb128 0xb
ARM GAS  C:\Users\25521\AppData\Local\Temp\ccDmagyc.s 			page 155


 8779 0095 3B       		.uleb128 0x3b
 8780 0096 0B       		.uleb128 0xb
 8781 0097 49       		.uleb128 0x49
 8782 0098 13       		.uleb128 0x13
 8783 0099 38       		.uleb128 0x38
 8784 009a 0B       		.uleb128 0xb
 8785 009b 00       		.byte	0
 8786 009c 00       		.byte	0
 8787 009d 0E       		.uleb128 0xe
 8788 009e 0F       		.uleb128 0xf
 8789 009f 00       		.byte	0
 8790 00a0 0B       		.uleb128 0xb
 8791 00a1 0B       		.uleb128 0xb
 8792 00a2 00       		.byte	0
 8793 00a3 00       		.byte	0
 8794 00a4 0F       		.uleb128 0xf
 8795 00a5 26       		.uleb128 0x26
 8796 00a6 00       		.byte	0
 8797 00a7 49       		.uleb128 0x49
 8798 00a8 13       		.uleb128 0x13
 8799 00a9 00       		.byte	0
 8800 00aa 00       		.byte	0
 8801 00ab 10       		.uleb128 0x10
 8802 00ac 13       		.uleb128 0x13
 8803 00ad 01       		.byte	0x1
 8804 00ae 03       		.uleb128 0x3
 8805 00af 0E       		.uleb128 0xe
 8806 00b0 0B       		.uleb128 0xb
 8807 00b1 0B       		.uleb128 0xb
 8808 00b2 3A       		.uleb128 0x3a
 8809 00b3 0B       		.uleb128 0xb
 8810 00b4 3B       		.uleb128 0x3b
 8811 00b5 0B       		.uleb128 0xb
 8812 00b6 01       		.uleb128 0x1
 8813 00b7 13       		.uleb128 0x13
 8814 00b8 00       		.byte	0
 8815 00b9 00       		.byte	0
 8816 00ba 11       		.uleb128 0x11
 8817 00bb 0D       		.uleb128 0xd
 8818 00bc 00       		.byte	0
 8819 00bd 03       		.uleb128 0x3
 8820 00be 08       		.uleb128 0x8
 8821 00bf 3A       		.uleb128 0x3a
 8822 00c0 0B       		.uleb128 0xb
 8823 00c1 3B       		.uleb128 0x3b
 8824 00c2 0B       		.uleb128 0xb
 8825 00c3 49       		.uleb128 0x49
 8826 00c4 13       		.uleb128 0x13
 8827 00c5 38       		.uleb128 0x38
 8828 00c6 0B       		.uleb128 0xb
 8829 00c7 00       		.byte	0
 8830 00c8 00       		.byte	0
 8831 00c9 12       		.uleb128 0x12
 8832 00ca 13       		.uleb128 0x13
 8833 00cb 01       		.byte	0x1
 8834 00cc 03       		.uleb128 0x3
 8835 00cd 0E       		.uleb128 0xe
ARM GAS  C:\Users\25521\AppData\Local\Temp\ccDmagyc.s 			page 156


 8836 00ce 0B       		.uleb128 0xb
 8837 00cf 05       		.uleb128 0x5
 8838 00d0 3A       		.uleb128 0x3a
 8839 00d1 0B       		.uleb128 0xb
 8840 00d2 3B       		.uleb128 0x3b
 8841 00d3 0B       		.uleb128 0xb
 8842 00d4 01       		.uleb128 0x1
 8843 00d5 13       		.uleb128 0x13
 8844 00d6 00       		.byte	0
 8845 00d7 00       		.byte	0
 8846 00d8 13       		.uleb128 0x13
 8847 00d9 0D       		.uleb128 0xd
 8848 00da 00       		.byte	0
 8849 00db 03       		.uleb128 0x3
 8850 00dc 0E       		.uleb128 0xe
 8851 00dd 3A       		.uleb128 0x3a
 8852 00de 0B       		.uleb128 0xb
 8853 00df 3B       		.uleb128 0x3b
 8854 00e0 0B       		.uleb128 0xb
 8855 00e1 49       		.uleb128 0x49
 8856 00e2 13       		.uleb128 0x13
 8857 00e3 38       		.uleb128 0x38
 8858 00e4 05       		.uleb128 0x5
 8859 00e5 00       		.byte	0
 8860 00e6 00       		.byte	0
 8861 00e7 14       		.uleb128 0x14
 8862 00e8 15       		.uleb128 0x15
 8863 00e9 00       		.byte	0
 8864 00ea 27       		.uleb128 0x27
 8865 00eb 19       		.uleb128 0x19
 8866 00ec 00       		.byte	0
 8867 00ed 00       		.byte	0
 8868 00ee 15       		.uleb128 0x15
 8869 00ef 15       		.uleb128 0x15
 8870 00f0 01       		.byte	0x1
 8871 00f1 27       		.uleb128 0x27
 8872 00f2 19       		.uleb128 0x19
 8873 00f3 49       		.uleb128 0x49
 8874 00f4 13       		.uleb128 0x13
 8875 00f5 01       		.uleb128 0x1
 8876 00f6 13       		.uleb128 0x13
 8877 00f7 00       		.byte	0
 8878 00f8 00       		.byte	0
 8879 00f9 16       		.uleb128 0x16
 8880 00fa 05       		.uleb128 0x5
 8881 00fb 00       		.byte	0
 8882 00fc 49       		.uleb128 0x49
 8883 00fd 13       		.uleb128 0x13
 8884 00fe 00       		.byte	0
 8885 00ff 00       		.byte	0
 8886 0100 17       		.uleb128 0x17
 8887 0101 13       		.uleb128 0x13
 8888 0102 01       		.byte	0x1
 8889 0103 03       		.uleb128 0x3
 8890 0104 0E       		.uleb128 0xe
 8891 0105 0B       		.uleb128 0xb
 8892 0106 05       		.uleb128 0x5
ARM GAS  C:\Users\25521\AppData\Local\Temp\ccDmagyc.s 			page 157


 8893 0107 3A       		.uleb128 0x3a
 8894 0108 0B       		.uleb128 0xb
 8895 0109 3B       		.uleb128 0x3b
 8896 010a 05       		.uleb128 0x5
 8897 010b 01       		.uleb128 0x1
 8898 010c 13       		.uleb128 0x13
 8899 010d 00       		.byte	0
 8900 010e 00       		.byte	0
 8901 010f 18       		.uleb128 0x18
 8902 0110 0D       		.uleb128 0xd
 8903 0111 00       		.byte	0
 8904 0112 03       		.uleb128 0x3
 8905 0113 0E       		.uleb128 0xe
 8906 0114 3A       		.uleb128 0x3a
 8907 0115 0B       		.uleb128 0xb
 8908 0116 3B       		.uleb128 0x3b
 8909 0117 05       		.uleb128 0x5
 8910 0118 49       		.uleb128 0x49
 8911 0119 13       		.uleb128 0x13
 8912 011a 38       		.uleb128 0x38
 8913 011b 0B       		.uleb128 0xb
 8914 011c 00       		.byte	0
 8915 011d 00       		.byte	0
 8916 011e 19       		.uleb128 0x19
 8917 011f 0D       		.uleb128 0xd
 8918 0120 00       		.byte	0
 8919 0121 03       		.uleb128 0x3
 8920 0122 0E       		.uleb128 0xe
 8921 0123 3A       		.uleb128 0x3a
 8922 0124 0B       		.uleb128 0xb
 8923 0125 3B       		.uleb128 0x3b
 8924 0126 05       		.uleb128 0x5
 8925 0127 49       		.uleb128 0x49
 8926 0128 13       		.uleb128 0x13
 8927 0129 38       		.uleb128 0x38
 8928 012a 05       		.uleb128 0x5
 8929 012b 00       		.byte	0
 8930 012c 00       		.byte	0
 8931 012d 1A       		.uleb128 0x1a
 8932 012e 13       		.uleb128 0x13
 8933 012f 01       		.byte	0x1
 8934 0130 03       		.uleb128 0x3
 8935 0131 0E       		.uleb128 0xe
 8936 0132 0B       		.uleb128 0xb
 8937 0133 0B       		.uleb128 0xb
 8938 0134 3A       		.uleb128 0x3a
 8939 0135 0B       		.uleb128 0xb
 8940 0136 3B       		.uleb128 0x3b
 8941 0137 05       		.uleb128 0x5
 8942 0138 01       		.uleb128 0x1
 8943 0139 13       		.uleb128 0x13
 8944 013a 00       		.byte	0
 8945 013b 00       		.byte	0
 8946 013c 1B       		.uleb128 0x1b
 8947 013d 13       		.uleb128 0x13
 8948 013e 01       		.byte	0x1
 8949 013f 0B       		.uleb128 0xb
ARM GAS  C:\Users\25521\AppData\Local\Temp\ccDmagyc.s 			page 158


 8950 0140 0B       		.uleb128 0xb
 8951 0141 3A       		.uleb128 0x3a
 8952 0142 0B       		.uleb128 0xb
 8953 0143 3B       		.uleb128 0x3b
 8954 0144 05       		.uleb128 0x5
 8955 0145 01       		.uleb128 0x1
 8956 0146 13       		.uleb128 0x13
 8957 0147 00       		.byte	0
 8958 0148 00       		.byte	0
 8959 0149 1C       		.uleb128 0x1c
 8960 014a 17       		.uleb128 0x17
 8961 014b 01       		.byte	0x1
 8962 014c 0B       		.uleb128 0xb
 8963 014d 0B       		.uleb128 0xb
 8964 014e 3A       		.uleb128 0x3a
 8965 014f 0B       		.uleb128 0xb
 8966 0150 3B       		.uleb128 0x3b
 8967 0151 05       		.uleb128 0x5
 8968 0152 01       		.uleb128 0x1
 8969 0153 13       		.uleb128 0x13
 8970 0154 00       		.byte	0
 8971 0155 00       		.byte	0
 8972 0156 1D       		.uleb128 0x1d
 8973 0157 0D       		.uleb128 0xd
 8974 0158 00       		.byte	0
 8975 0159 03       		.uleb128 0x3
 8976 015a 0E       		.uleb128 0xe
 8977 015b 3A       		.uleb128 0x3a
 8978 015c 0B       		.uleb128 0xb
 8979 015d 3B       		.uleb128 0x3b
 8980 015e 05       		.uleb128 0x5
 8981 015f 49       		.uleb128 0x49
 8982 0160 13       		.uleb128 0x13
 8983 0161 00       		.byte	0
 8984 0162 00       		.byte	0
 8985 0163 1E       		.uleb128 0x1e
 8986 0164 15       		.uleb128 0x15
 8987 0165 01       		.byte	0x1
 8988 0166 27       		.uleb128 0x27
 8989 0167 19       		.uleb128 0x19
 8990 0168 01       		.uleb128 0x1
 8991 0169 13       		.uleb128 0x13
 8992 016a 00       		.byte	0
 8993 016b 00       		.byte	0
 8994 016c 1F       		.uleb128 0x1f
 8995 016d 34       		.uleb128 0x34
 8996 016e 00       		.byte	0
 8997 016f 03       		.uleb128 0x3
 8998 0170 0E       		.uleb128 0xe
 8999 0171 3A       		.uleb128 0x3a
 9000 0172 0B       		.uleb128 0xb
 9001 0173 3B       		.uleb128 0x3b
 9002 0174 05       		.uleb128 0x5
 9003 0175 49       		.uleb128 0x49
 9004 0176 13       		.uleb128 0x13
 9005 0177 3F       		.uleb128 0x3f
 9006 0178 19       		.uleb128 0x19
ARM GAS  C:\Users\25521\AppData\Local\Temp\ccDmagyc.s 			page 159


 9007 0179 3C       		.uleb128 0x3c
 9008 017a 19       		.uleb128 0x19
 9009 017b 00       		.byte	0
 9010 017c 00       		.byte	0
 9011 017d 20       		.uleb128 0x20
 9012 017e 34       		.uleb128 0x34
 9013 017f 00       		.byte	0
 9014 0180 03       		.uleb128 0x3
 9015 0181 0E       		.uleb128 0xe
 9016 0182 3A       		.uleb128 0x3a
 9017 0183 0B       		.uleb128 0xb
 9018 0184 3B       		.uleb128 0x3b
 9019 0185 0B       		.uleb128 0xb
 9020 0186 49       		.uleb128 0x49
 9021 0187 13       		.uleb128 0x13
 9022 0188 3F       		.uleb128 0x3f
 9023 0189 19       		.uleb128 0x19
 9024 018a 3C       		.uleb128 0x3c
 9025 018b 19       		.uleb128 0x19
 9026 018c 00       		.byte	0
 9027 018d 00       		.byte	0
 9028 018e 21       		.uleb128 0x21
 9029 018f 0D       		.uleb128 0xd
 9030 0190 00       		.byte	0
 9031 0191 03       		.uleb128 0x3
 9032 0192 08       		.uleb128 0x8
 9033 0193 3A       		.uleb128 0x3a
 9034 0194 0B       		.uleb128 0xb
 9035 0195 3B       		.uleb128 0x3b
 9036 0196 0B       		.uleb128 0xb
 9037 0197 49       		.uleb128 0x49
 9038 0198 13       		.uleb128 0x13
 9039 0199 00       		.byte	0
 9040 019a 00       		.byte	0
 9041 019b 22       		.uleb128 0x22
 9042 019c 2E       		.uleb128 0x2e
 9043 019d 01       		.byte	0x1
 9044 019e 3F       		.uleb128 0x3f
 9045 019f 19       		.uleb128 0x19
 9046 01a0 03       		.uleb128 0x3
 9047 01a1 0E       		.uleb128 0xe
 9048 01a2 3A       		.uleb128 0x3a
 9049 01a3 0B       		.uleb128 0xb
 9050 01a4 3B       		.uleb128 0x3b
 9051 01a5 05       		.uleb128 0x5
 9052 01a6 27       		.uleb128 0x27
 9053 01a7 19       		.uleb128 0x19
 9054 01a8 11       		.uleb128 0x11
 9055 01a9 01       		.uleb128 0x1
 9056 01aa 12       		.uleb128 0x12
 9057 01ab 06       		.uleb128 0x6
 9058 01ac 40       		.uleb128 0x40
 9059 01ad 18       		.uleb128 0x18
 9060 01ae 9742     		.uleb128 0x2117
 9061 01b0 19       		.uleb128 0x19
 9062 01b1 01       		.uleb128 0x1
 9063 01b2 13       		.uleb128 0x13
ARM GAS  C:\Users\25521\AppData\Local\Temp\ccDmagyc.s 			page 160


 9064 01b3 00       		.byte	0
 9065 01b4 00       		.byte	0
 9066 01b5 23       		.uleb128 0x23
 9067 01b6 05       		.uleb128 0x5
 9068 01b7 00       		.byte	0
 9069 01b8 03       		.uleb128 0x3
 9070 01b9 08       		.uleb128 0x8
 9071 01ba 3A       		.uleb128 0x3a
 9072 01bb 0B       		.uleb128 0xb
 9073 01bc 3B       		.uleb128 0x3b
 9074 01bd 05       		.uleb128 0x5
 9075 01be 49       		.uleb128 0x49
 9076 01bf 13       		.uleb128 0x13
 9077 01c0 02       		.uleb128 0x2
 9078 01c1 17       		.uleb128 0x17
 9079 01c2 00       		.byte	0
 9080 01c3 00       		.byte	0
 9081 01c4 24       		.uleb128 0x24
 9082 01c5 898201   		.uleb128 0x4109
 9083 01c8 00       		.byte	0
 9084 01c9 11       		.uleb128 0x11
 9085 01ca 01       		.uleb128 0x1
 9086 01cb 31       		.uleb128 0x31
 9087 01cc 13       		.uleb128 0x13
 9088 01cd 00       		.byte	0
 9089 01ce 00       		.byte	0
 9090 01cf 25       		.uleb128 0x25
 9091 01d0 898201   		.uleb128 0x4109
 9092 01d3 01       		.byte	0x1
 9093 01d4 11       		.uleb128 0x11
 9094 01d5 01       		.uleb128 0x1
 9095 01d6 31       		.uleb128 0x31
 9096 01d7 13       		.uleb128 0x13
 9097 01d8 01       		.uleb128 0x1
 9098 01d9 13       		.uleb128 0x13
 9099 01da 00       		.byte	0
 9100 01db 00       		.byte	0
 9101 01dc 26       		.uleb128 0x26
 9102 01dd 8A8201   		.uleb128 0x410a
 9103 01e0 00       		.byte	0
 9104 01e1 02       		.uleb128 0x2
 9105 01e2 18       		.uleb128 0x18
 9106 01e3 9142     		.uleb128 0x2111
 9107 01e5 18       		.uleb128 0x18
 9108 01e6 00       		.byte	0
 9109 01e7 00       		.byte	0
 9110 01e8 27       		.uleb128 0x27
 9111 01e9 898201   		.uleb128 0x4109
 9112 01ec 01       		.byte	0x1
 9113 01ed 11       		.uleb128 0x11
 9114 01ee 01       		.uleb128 0x1
 9115 01ef 9542     		.uleb128 0x2115
 9116 01f1 19       		.uleb128 0x19
 9117 01f2 31       		.uleb128 0x31
 9118 01f3 13       		.uleb128 0x13
 9119 01f4 01       		.uleb128 0x1
 9120 01f5 13       		.uleb128 0x13
ARM GAS  C:\Users\25521\AppData\Local\Temp\ccDmagyc.s 			page 161


 9121 01f6 00       		.byte	0
 9122 01f7 00       		.byte	0
 9123 01f8 28       		.uleb128 0x28
 9124 01f9 2E       		.uleb128 0x2e
 9125 01fa 01       		.byte	0x1
 9126 01fb 3F       		.uleb128 0x3f
 9127 01fc 19       		.uleb128 0x19
 9128 01fd 03       		.uleb128 0x3
 9129 01fe 0E       		.uleb128 0xe
 9130 01ff 3A       		.uleb128 0x3a
 9131 0200 0B       		.uleb128 0xb
 9132 0201 3B       		.uleb128 0x3b
 9133 0202 05       		.uleb128 0x5
 9134 0203 27       		.uleb128 0x27
 9135 0204 19       		.uleb128 0x19
 9136 0205 49       		.uleb128 0x49
 9137 0206 13       		.uleb128 0x13
 9138 0207 11       		.uleb128 0x11
 9139 0208 01       		.uleb128 0x1
 9140 0209 12       		.uleb128 0x12
 9141 020a 06       		.uleb128 0x6
 9142 020b 40       		.uleb128 0x40
 9143 020c 18       		.uleb128 0x18
 9144 020d 9742     		.uleb128 0x2117
 9145 020f 19       		.uleb128 0x19
 9146 0210 01       		.uleb128 0x1
 9147 0211 13       		.uleb128 0x13
 9148 0212 00       		.byte	0
 9149 0213 00       		.byte	0
 9150 0214 29       		.uleb128 0x29
 9151 0215 05       		.uleb128 0x5
 9152 0216 00       		.byte	0
 9153 0217 03       		.uleb128 0x3
 9154 0218 0E       		.uleb128 0xe
 9155 0219 3A       		.uleb128 0x3a
 9156 021a 0B       		.uleb128 0xb
 9157 021b 3B       		.uleb128 0x3b
 9158 021c 05       		.uleb128 0x5
 9159 021d 49       		.uleb128 0x49
 9160 021e 13       		.uleb128 0x13
 9161 021f 02       		.uleb128 0x2
 9162 0220 17       		.uleb128 0x17
 9163 0221 00       		.byte	0
 9164 0222 00       		.byte	0
 9165 0223 2A       		.uleb128 0x2a
 9166 0224 34       		.uleb128 0x34
 9167 0225 00       		.byte	0
 9168 0226 03       		.uleb128 0x3
 9169 0227 08       		.uleb128 0x8
 9170 0228 3A       		.uleb128 0x3a
 9171 0229 0B       		.uleb128 0xb
 9172 022a 3B       		.uleb128 0x3b
 9173 022b 05       		.uleb128 0x5
 9174 022c 49       		.uleb128 0x49
 9175 022d 13       		.uleb128 0x13
 9176 022e 02       		.uleb128 0x2
 9177 022f 18       		.uleb128 0x18
ARM GAS  C:\Users\25521\AppData\Local\Temp\ccDmagyc.s 			page 162


 9178 0230 00       		.byte	0
 9179 0231 00       		.byte	0
 9180 0232 2B       		.uleb128 0x2b
 9181 0233 1D       		.uleb128 0x1d
 9182 0234 01       		.byte	0x1
 9183 0235 31       		.uleb128 0x31
 9184 0236 13       		.uleb128 0x13
 9185 0237 52       		.uleb128 0x52
 9186 0238 01       		.uleb128 0x1
 9187 0239 55       		.uleb128 0x55
 9188 023a 17       		.uleb128 0x17
 9189 023b 58       		.uleb128 0x58
 9190 023c 0B       		.uleb128 0xb
 9191 023d 59       		.uleb128 0x59
 9192 023e 05       		.uleb128 0x5
 9193 023f 01       		.uleb128 0x1
 9194 0240 13       		.uleb128 0x13
 9195 0241 00       		.byte	0
 9196 0242 00       		.byte	0
 9197 0243 2C       		.uleb128 0x2c
 9198 0244 05       		.uleb128 0x5
 9199 0245 00       		.byte	0
 9200 0246 31       		.uleb128 0x31
 9201 0247 13       		.uleb128 0x13
 9202 0248 02       		.uleb128 0x2
 9203 0249 17       		.uleb128 0x17
 9204 024a 00       		.byte	0
 9205 024b 00       		.byte	0
 9206 024c 2D       		.uleb128 0x2d
 9207 024d 1D       		.uleb128 0x1d
 9208 024e 01       		.byte	0x1
 9209 024f 31       		.uleb128 0x31
 9210 0250 13       		.uleb128 0x13
 9211 0251 52       		.uleb128 0x52
 9212 0252 01       		.uleb128 0x1
 9213 0253 55       		.uleb128 0x55
 9214 0254 17       		.uleb128 0x17
 9215 0255 58       		.uleb128 0x58
 9216 0256 0B       		.uleb128 0xb
 9217 0257 59       		.uleb128 0x59
 9218 0258 05       		.uleb128 0x5
 9219 0259 00       		.byte	0
 9220 025a 00       		.byte	0
 9221 025b 2E       		.uleb128 0x2e
 9222 025c 2E       		.uleb128 0x2e
 9223 025d 01       		.byte	0x1
 9224 025e 3F       		.uleb128 0x3f
 9225 025f 19       		.uleb128 0x19
 9226 0260 03       		.uleb128 0x3
 9227 0261 0E       		.uleb128 0xe
 9228 0262 3A       		.uleb128 0x3a
 9229 0263 0B       		.uleb128 0xb
 9230 0264 3B       		.uleb128 0x3b
 9231 0265 05       		.uleb128 0x5
 9232 0266 27       		.uleb128 0x27
 9233 0267 19       		.uleb128 0x19
 9234 0268 20       		.uleb128 0x20
ARM GAS  C:\Users\25521\AppData\Local\Temp\ccDmagyc.s 			page 163


 9235 0269 0B       		.uleb128 0xb
 9236 026a 01       		.uleb128 0x1
 9237 026b 13       		.uleb128 0x13
 9238 026c 00       		.byte	0
 9239 026d 00       		.byte	0
 9240 026e 2F       		.uleb128 0x2f
 9241 026f 05       		.uleb128 0x5
 9242 0270 00       		.byte	0
 9243 0271 03       		.uleb128 0x3
 9244 0272 08       		.uleb128 0x8
 9245 0273 3A       		.uleb128 0x3a
 9246 0274 0B       		.uleb128 0xb
 9247 0275 3B       		.uleb128 0x3b
 9248 0276 05       		.uleb128 0x5
 9249 0277 49       		.uleb128 0x49
 9250 0278 13       		.uleb128 0x13
 9251 0279 00       		.byte	0
 9252 027a 00       		.byte	0
 9253 027b 30       		.uleb128 0x30
 9254 027c 05       		.uleb128 0x5
 9255 027d 00       		.byte	0
 9256 027e 03       		.uleb128 0x3
 9257 027f 0E       		.uleb128 0xe
 9258 0280 3A       		.uleb128 0x3a
 9259 0281 0B       		.uleb128 0xb
 9260 0282 3B       		.uleb128 0x3b
 9261 0283 05       		.uleb128 0x5
 9262 0284 49       		.uleb128 0x49
 9263 0285 13       		.uleb128 0x13
 9264 0286 00       		.byte	0
 9265 0287 00       		.byte	0
 9266 0288 31       		.uleb128 0x31
 9267 0289 34       		.uleb128 0x34
 9268 028a 00       		.byte	0
 9269 028b 03       		.uleb128 0x3
 9270 028c 08       		.uleb128 0x8
 9271 028d 3A       		.uleb128 0x3a
 9272 028e 0B       		.uleb128 0xb
 9273 028f 3B       		.uleb128 0x3b
 9274 0290 05       		.uleb128 0x5
 9275 0291 49       		.uleb128 0x49
 9276 0292 13       		.uleb128 0x13
 9277 0293 02       		.uleb128 0x2
 9278 0294 17       		.uleb128 0x17
 9279 0295 00       		.byte	0
 9280 0296 00       		.byte	0
 9281 0297 32       		.uleb128 0x32
 9282 0298 898201   		.uleb128 0x4109
 9283 029b 00       		.byte	0
 9284 029c 11       		.uleb128 0x11
 9285 029d 01       		.uleb128 0x1
 9286 029e 9542     		.uleb128 0x2115
 9287 02a0 19       		.uleb128 0x19
 9288 02a1 31       		.uleb128 0x31
 9289 02a2 13       		.uleb128 0x13
 9290 02a3 00       		.byte	0
 9291 02a4 00       		.byte	0
ARM GAS  C:\Users\25521\AppData\Local\Temp\ccDmagyc.s 			page 164


 9292 02a5 33       		.uleb128 0x33
 9293 02a6 2E       		.uleb128 0x2e
 9294 02a7 01       		.byte	0x1
 9295 02a8 3F       		.uleb128 0x3f
 9296 02a9 19       		.uleb128 0x19
 9297 02aa 03       		.uleb128 0x3
 9298 02ab 0E       		.uleb128 0xe
 9299 02ac 3A       		.uleb128 0x3a
 9300 02ad 0B       		.uleb128 0xb
 9301 02ae 3B       		.uleb128 0x3b
 9302 02af 0B       		.uleb128 0xb
 9303 02b0 27       		.uleb128 0x27
 9304 02b1 19       		.uleb128 0x19
 9305 02b2 11       		.uleb128 0x11
 9306 02b3 01       		.uleb128 0x1
 9307 02b4 12       		.uleb128 0x12
 9308 02b5 06       		.uleb128 0x6
 9309 02b6 40       		.uleb128 0x40
 9310 02b7 18       		.uleb128 0x18
 9311 02b8 9742     		.uleb128 0x2117
 9312 02ba 19       		.uleb128 0x19
 9313 02bb 01       		.uleb128 0x1
 9314 02bc 13       		.uleb128 0x13
 9315 02bd 00       		.byte	0
 9316 02be 00       		.byte	0
 9317 02bf 34       		.uleb128 0x34
 9318 02c0 05       		.uleb128 0x5
 9319 02c1 00       		.byte	0
 9320 02c2 03       		.uleb128 0x3
 9321 02c3 08       		.uleb128 0x8
 9322 02c4 3A       		.uleb128 0x3a
 9323 02c5 0B       		.uleb128 0xb
 9324 02c6 3B       		.uleb128 0x3b
 9325 02c7 0B       		.uleb128 0xb
 9326 02c8 49       		.uleb128 0x49
 9327 02c9 13       		.uleb128 0x13
 9328 02ca 02       		.uleb128 0x2
 9329 02cb 17       		.uleb128 0x17
 9330 02cc 00       		.byte	0
 9331 02cd 00       		.byte	0
 9332 02ce 35       		.uleb128 0x35
 9333 02cf 05       		.uleb128 0x5
 9334 02d0 00       		.byte	0
 9335 02d1 03       		.uleb128 0x3
 9336 02d2 0E       		.uleb128 0xe
 9337 02d3 3A       		.uleb128 0x3a
 9338 02d4 0B       		.uleb128 0xb
 9339 02d5 3B       		.uleb128 0x3b
 9340 02d6 0B       		.uleb128 0xb
 9341 02d7 49       		.uleb128 0x49
 9342 02d8 13       		.uleb128 0x13
 9343 02d9 02       		.uleb128 0x2
 9344 02da 17       		.uleb128 0x17
 9345 02db 00       		.byte	0
 9346 02dc 00       		.byte	0
 9347 02dd 36       		.uleb128 0x36
 9348 02de 1D       		.uleb128 0x1d
ARM GAS  C:\Users\25521\AppData\Local\Temp\ccDmagyc.s 			page 165


 9349 02df 01       		.byte	0x1
 9350 02e0 31       		.uleb128 0x31
 9351 02e1 13       		.uleb128 0x13
 9352 02e2 52       		.uleb128 0x52
 9353 02e3 01       		.uleb128 0x1
 9354 02e4 55       		.uleb128 0x55
 9355 02e5 17       		.uleb128 0x17
 9356 02e6 58       		.uleb128 0x58
 9357 02e7 0B       		.uleb128 0xb
 9358 02e8 59       		.uleb128 0x59
 9359 02e9 0B       		.uleb128 0xb
 9360 02ea 01       		.uleb128 0x1
 9361 02eb 13       		.uleb128 0x13
 9362 02ec 00       		.byte	0
 9363 02ed 00       		.byte	0
 9364 02ee 37       		.uleb128 0x37
 9365 02ef 1D       		.uleb128 0x1d
 9366 02f0 01       		.byte	0x1
 9367 02f1 31       		.uleb128 0x31
 9368 02f2 13       		.uleb128 0x13
 9369 02f3 52       		.uleb128 0x52
 9370 02f4 01       		.uleb128 0x1
 9371 02f5 55       		.uleb128 0x55
 9372 02f6 17       		.uleb128 0x17
 9373 02f7 58       		.uleb128 0x58
 9374 02f8 0B       		.uleb128 0xb
 9375 02f9 59       		.uleb128 0x59
 9376 02fa 0B       		.uleb128 0xb
 9377 02fb 00       		.byte	0
 9378 02fc 00       		.byte	0
 9379 02fd 38       		.uleb128 0x38
 9380 02fe 2E       		.uleb128 0x2e
 9381 02ff 01       		.byte	0x1
 9382 0300 3F       		.uleb128 0x3f
 9383 0301 19       		.uleb128 0x19
 9384 0302 03       		.uleb128 0x3
 9385 0303 0E       		.uleb128 0xe
 9386 0304 3A       		.uleb128 0x3a
 9387 0305 0B       		.uleb128 0xb
 9388 0306 3B       		.uleb128 0x3b
 9389 0307 0B       		.uleb128 0xb
 9390 0308 27       		.uleb128 0x27
 9391 0309 19       		.uleb128 0x19
 9392 030a 20       		.uleb128 0x20
 9393 030b 0B       		.uleb128 0xb
 9394 030c 01       		.uleb128 0x1
 9395 030d 13       		.uleb128 0x13
 9396 030e 00       		.byte	0
 9397 030f 00       		.byte	0
 9398 0310 39       		.uleb128 0x39
 9399 0311 05       		.uleb128 0x5
 9400 0312 00       		.byte	0
 9401 0313 03       		.uleb128 0x3
 9402 0314 08       		.uleb128 0x8
 9403 0315 3A       		.uleb128 0x3a
 9404 0316 0B       		.uleb128 0xb
 9405 0317 3B       		.uleb128 0x3b
ARM GAS  C:\Users\25521\AppData\Local\Temp\ccDmagyc.s 			page 166


 9406 0318 0B       		.uleb128 0xb
 9407 0319 49       		.uleb128 0x49
 9408 031a 13       		.uleb128 0x13
 9409 031b 00       		.byte	0
 9410 031c 00       		.byte	0
 9411 031d 3A       		.uleb128 0x3a
 9412 031e 34       		.uleb128 0x34
 9413 031f 00       		.byte	0
 9414 0320 03       		.uleb128 0x3
 9415 0321 0E       		.uleb128 0xe
 9416 0322 3A       		.uleb128 0x3a
 9417 0323 0B       		.uleb128 0xb
 9418 0324 3B       		.uleb128 0x3b
 9419 0325 0B       		.uleb128 0xb
 9420 0326 49       		.uleb128 0x49
 9421 0327 13       		.uleb128 0x13
 9422 0328 00       		.byte	0
 9423 0329 00       		.byte	0
 9424 032a 3B       		.uleb128 0x3b
 9425 032b 34       		.uleb128 0x34
 9426 032c 00       		.byte	0
 9427 032d 03       		.uleb128 0x3
 9428 032e 08       		.uleb128 0x8
 9429 032f 3A       		.uleb128 0x3a
 9430 0330 0B       		.uleb128 0xb
 9431 0331 3B       		.uleb128 0x3b
 9432 0332 0B       		.uleb128 0xb
 9433 0333 49       		.uleb128 0x49
 9434 0334 13       		.uleb128 0x13
 9435 0335 00       		.byte	0
 9436 0336 00       		.byte	0
 9437 0337 3C       		.uleb128 0x3c
 9438 0338 2E       		.uleb128 0x2e
 9439 0339 01       		.byte	0x1
 9440 033a 3F       		.uleb128 0x3f
 9441 033b 19       		.uleb128 0x19
 9442 033c 03       		.uleb128 0x3
 9443 033d 0E       		.uleb128 0xe
 9444 033e 3A       		.uleb128 0x3a
 9445 033f 0B       		.uleb128 0xb
 9446 0340 3B       		.uleb128 0x3b
 9447 0341 0B       		.uleb128 0xb
 9448 0342 27       		.uleb128 0x27
 9449 0343 19       		.uleb128 0x19
 9450 0344 49       		.uleb128 0x49
 9451 0345 13       		.uleb128 0x13
 9452 0346 11       		.uleb128 0x11
 9453 0347 01       		.uleb128 0x1
 9454 0348 12       		.uleb128 0x12
 9455 0349 06       		.uleb128 0x6
 9456 034a 40       		.uleb128 0x40
 9457 034b 18       		.uleb128 0x18
 9458 034c 9742     		.uleb128 0x2117
 9459 034e 19       		.uleb128 0x19
 9460 034f 01       		.uleb128 0x1
 9461 0350 13       		.uleb128 0x13
 9462 0351 00       		.byte	0
ARM GAS  C:\Users\25521\AppData\Local\Temp\ccDmagyc.s 			page 167


 9463 0352 00       		.byte	0
 9464 0353 3D       		.uleb128 0x3d
 9465 0354 34       		.uleb128 0x34
 9466 0355 00       		.byte	0
 9467 0356 03       		.uleb128 0x3
 9468 0357 0E       		.uleb128 0xe
 9469 0358 3A       		.uleb128 0x3a
 9470 0359 0B       		.uleb128 0xb
 9471 035a 3B       		.uleb128 0x3b
 9472 035b 0B       		.uleb128 0xb
 9473 035c 49       		.uleb128 0x49
 9474 035d 13       		.uleb128 0x13
 9475 035e 02       		.uleb128 0x2
 9476 035f 17       		.uleb128 0x17
 9477 0360 00       		.byte	0
 9478 0361 00       		.byte	0
 9479 0362 3E       		.uleb128 0x3e
 9480 0363 34       		.uleb128 0x34
 9481 0364 00       		.byte	0
 9482 0365 03       		.uleb128 0x3
 9483 0366 0E       		.uleb128 0xe
 9484 0367 3A       		.uleb128 0x3a
 9485 0368 0B       		.uleb128 0xb
 9486 0369 3B       		.uleb128 0x3b
 9487 036a 0B       		.uleb128 0xb
 9488 036b 49       		.uleb128 0x49
 9489 036c 13       		.uleb128 0x13
 9490 036d 02       		.uleb128 0x2
 9491 036e 18       		.uleb128 0x18
 9492 036f 00       		.byte	0
 9493 0370 00       		.byte	0
 9494 0371 3F       		.uleb128 0x3f
 9495 0372 34       		.uleb128 0x34
 9496 0373 00       		.byte	0
 9497 0374 03       		.uleb128 0x3
 9498 0375 08       		.uleb128 0x8
 9499 0376 3A       		.uleb128 0x3a
 9500 0377 0B       		.uleb128 0xb
 9501 0378 3B       		.uleb128 0x3b
 9502 0379 0B       		.uleb128 0xb
 9503 037a 49       		.uleb128 0x49
 9504 037b 13       		.uleb128 0x13
 9505 037c 02       		.uleb128 0x2
 9506 037d 17       		.uleb128 0x17
 9507 037e 00       		.byte	0
 9508 037f 00       		.byte	0
 9509 0380 40       		.uleb128 0x40
 9510 0381 0B       		.uleb128 0xb
 9511 0382 01       		.byte	0x1
 9512 0383 55       		.uleb128 0x55
 9513 0384 17       		.uleb128 0x17
 9514 0385 01       		.uleb128 0x1
 9515 0386 13       		.uleb128 0x13
 9516 0387 00       		.byte	0
 9517 0388 00       		.byte	0
 9518 0389 41       		.uleb128 0x41
 9519 038a 0B       		.uleb128 0xb
ARM GAS  C:\Users\25521\AppData\Local\Temp\ccDmagyc.s 			page 168


 9520 038b 01       		.byte	0x1
 9521 038c 55       		.uleb128 0x55
 9522 038d 17       		.uleb128 0x17
 9523 038e 00       		.byte	0
 9524 038f 00       		.byte	0
 9525 0390 42       		.uleb128 0x42
 9526 0391 34       		.uleb128 0x34
 9527 0392 00       		.byte	0
 9528 0393 31       		.uleb128 0x31
 9529 0394 13       		.uleb128 0x13
 9530 0395 02       		.uleb128 0x2
 9531 0396 17       		.uleb128 0x17
 9532 0397 00       		.byte	0
 9533 0398 00       		.byte	0
 9534 0399 43       		.uleb128 0x43
 9535 039a 05       		.uleb128 0x5
 9536 039b 00       		.byte	0
 9537 039c 31       		.uleb128 0x31
 9538 039d 13       		.uleb128 0x13
 9539 039e 00       		.byte	0
 9540 039f 00       		.byte	0
 9541 03a0 44       		.uleb128 0x44
 9542 03a1 34       		.uleb128 0x34
 9543 03a2 00       		.byte	0
 9544 03a3 31       		.uleb128 0x31
 9545 03a4 13       		.uleb128 0x13
 9546 03a5 00       		.byte	0
 9547 03a6 00       		.byte	0
 9548 03a7 45       		.uleb128 0x45
 9549 03a8 898201   		.uleb128 0x4109
 9550 03ab 01       		.byte	0x1
 9551 03ac 11       		.uleb128 0x11
 9552 03ad 01       		.uleb128 0x1
 9553 03ae 31       		.uleb128 0x31
 9554 03af 13       		.uleb128 0x13
 9555 03b0 00       		.byte	0
 9556 03b1 00       		.byte	0
 9557 03b2 46       		.uleb128 0x46
 9558 03b3 1D       		.uleb128 0x1d
 9559 03b4 01       		.byte	0x1
 9560 03b5 31       		.uleb128 0x31
 9561 03b6 13       		.uleb128 0x13
 9562 03b7 11       		.uleb128 0x11
 9563 03b8 01       		.uleb128 0x1
 9564 03b9 12       		.uleb128 0x12
 9565 03ba 06       		.uleb128 0x6
 9566 03bb 58       		.uleb128 0x58
 9567 03bc 0B       		.uleb128 0xb
 9568 03bd 59       		.uleb128 0x59
 9569 03be 0B       		.uleb128 0xb
 9570 03bf 00       		.byte	0
 9571 03c0 00       		.byte	0
 9572 03c1 47       		.uleb128 0x47
 9573 03c2 0B       		.uleb128 0xb
 9574 03c3 01       		.byte	0x1
 9575 03c4 11       		.uleb128 0x11
 9576 03c5 01       		.uleb128 0x1
ARM GAS  C:\Users\25521\AppData\Local\Temp\ccDmagyc.s 			page 169


 9577 03c6 12       		.uleb128 0x12
 9578 03c7 06       		.uleb128 0x6
 9579 03c8 00       		.byte	0
 9580 03c9 00       		.byte	0
 9581 03ca 48       		.uleb128 0x48
 9582 03cb 2E       		.uleb128 0x2e
 9583 03cc 01       		.byte	0x1
 9584 03cd 03       		.uleb128 0x3
 9585 03ce 0E       		.uleb128 0xe
 9586 03cf 3A       		.uleb128 0x3a
 9587 03d0 0B       		.uleb128 0xb
 9588 03d1 3B       		.uleb128 0x3b
 9589 03d2 0B       		.uleb128 0xb
 9590 03d3 27       		.uleb128 0x27
 9591 03d4 19       		.uleb128 0x19
 9592 03d5 49       		.uleb128 0x49
 9593 03d6 13       		.uleb128 0x13
 9594 03d7 20       		.uleb128 0x20
 9595 03d8 0B       		.uleb128 0xb
 9596 03d9 01       		.uleb128 0x1
 9597 03da 13       		.uleb128 0x13
 9598 03db 00       		.byte	0
 9599 03dc 00       		.byte	0
 9600 03dd 49       		.uleb128 0x49
 9601 03de 05       		.uleb128 0x5
 9602 03df 00       		.byte	0
 9603 03e0 03       		.uleb128 0x3
 9604 03e1 0E       		.uleb128 0xe
 9605 03e2 3A       		.uleb128 0x3a
 9606 03e3 0B       		.uleb128 0xb
 9607 03e4 3B       		.uleb128 0x3b
 9608 03e5 0B       		.uleb128 0xb
 9609 03e6 49       		.uleb128 0x49
 9610 03e7 13       		.uleb128 0x13
 9611 03e8 00       		.byte	0
 9612 03e9 00       		.byte	0
 9613 03ea 4A       		.uleb128 0x4a
 9614 03eb 2E       		.uleb128 0x2e
 9615 03ec 01       		.byte	0x1
 9616 03ed 31       		.uleb128 0x31
 9617 03ee 13       		.uleb128 0x13
 9618 03ef 11       		.uleb128 0x11
 9619 03f0 01       		.uleb128 0x1
 9620 03f1 12       		.uleb128 0x12
 9621 03f2 06       		.uleb128 0x6
 9622 03f3 40       		.uleb128 0x40
 9623 03f4 18       		.uleb128 0x18
 9624 03f5 9742     		.uleb128 0x2117
 9625 03f7 19       		.uleb128 0x19
 9626 03f8 01       		.uleb128 0x1
 9627 03f9 13       		.uleb128 0x13
 9628 03fa 00       		.byte	0
 9629 03fb 00       		.byte	0
 9630 03fc 4B       		.uleb128 0x4b
 9631 03fd 0B       		.uleb128 0xb
 9632 03fe 01       		.byte	0x1
 9633 03ff 31       		.uleb128 0x31
ARM GAS  C:\Users\25521\AppData\Local\Temp\ccDmagyc.s 			page 170


 9634 0400 13       		.uleb128 0x13
 9635 0401 11       		.uleb128 0x11
 9636 0402 01       		.uleb128 0x1
 9637 0403 12       		.uleb128 0x12
 9638 0404 06       		.uleb128 0x6
 9639 0405 01       		.uleb128 0x1
 9640 0406 13       		.uleb128 0x13
 9641 0407 00       		.byte	0
 9642 0408 00       		.byte	0
 9643 0409 4C       		.uleb128 0x4c
 9644 040a 34       		.uleb128 0x34
 9645 040b 00       		.byte	0
 9646 040c 31       		.uleb128 0x31
 9647 040d 13       		.uleb128 0x13
 9648 040e 02       		.uleb128 0x2
 9649 040f 18       		.uleb128 0x18
 9650 0410 00       		.byte	0
 9651 0411 00       		.byte	0
 9652 0412 4D       		.uleb128 0x4d
 9653 0413 2E       		.uleb128 0x2e
 9654 0414 00       		.byte	0
 9655 0415 3F       		.uleb128 0x3f
 9656 0416 19       		.uleb128 0x19
 9657 0417 3C       		.uleb128 0x3c
 9658 0418 19       		.uleb128 0x19
 9659 0419 6E       		.uleb128 0x6e
 9660 041a 0E       		.uleb128 0xe
 9661 041b 03       		.uleb128 0x3
 9662 041c 0E       		.uleb128 0xe
 9663 041d 3A       		.uleb128 0x3a
 9664 041e 0B       		.uleb128 0xb
 9665 041f 3B       		.uleb128 0x3b
 9666 0420 0B       		.uleb128 0xb
 9667 0421 00       		.byte	0
 9668 0422 00       		.byte	0
 9669 0423 4E       		.uleb128 0x4e
 9670 0424 2E       		.uleb128 0x2e
 9671 0425 00       		.byte	0
 9672 0426 3F       		.uleb128 0x3f
 9673 0427 19       		.uleb128 0x19
 9674 0428 3C       		.uleb128 0x3c
 9675 0429 19       		.uleb128 0x19
 9676 042a 6E       		.uleb128 0x6e
 9677 042b 0E       		.uleb128 0xe
 9678 042c 03       		.uleb128 0x3
 9679 042d 0E       		.uleb128 0xe
 9680 042e 3A       		.uleb128 0x3a
 9681 042f 0B       		.uleb128 0xb
 9682 0430 3B       		.uleb128 0x3b
 9683 0431 0B       		.uleb128 0xb
 9684 0432 6E       		.uleb128 0x6e
 9685 0433 0E       		.uleb128 0xe
 9686 0434 00       		.byte	0
 9687 0435 00       		.byte	0
 9688 0436 4F       		.uleb128 0x4f
 9689 0437 2E       		.uleb128 0x2e
 9690 0438 00       		.byte	0
ARM GAS  C:\Users\25521\AppData\Local\Temp\ccDmagyc.s 			page 171


 9691 0439 3F       		.uleb128 0x3f
 9692 043a 19       		.uleb128 0x19
 9693 043b 3C       		.uleb128 0x3c
 9694 043c 19       		.uleb128 0x19
 9695 043d 6E       		.uleb128 0x6e
 9696 043e 0E       		.uleb128 0xe
 9697 043f 03       		.uleb128 0x3
 9698 0440 0E       		.uleb128 0xe
 9699 0441 00       		.byte	0
 9700 0442 00       		.byte	0
 9701 0443 00       		.byte	0
 9702              		.section	.debug_loc,"",%progbits
 9703              	.Ldebug_loc0:
 9704              	.LLST192:
 9705 0000 00000000 		.4byte	.LVL387
 9706 0004 06000000 		.4byte	.LVL388
 9707 0008 0100     		.2byte	0x1
 9708 000a 50       		.byte	0x50
 9709 000b 06000000 		.4byte	.LVL388
 9710 000f 52000000 		.4byte	.LVL394
 9711 0013 0100     		.2byte	0x1
 9712 0015 54       		.byte	0x54
 9713 0016 52000000 		.4byte	.LVL394
 9714 001a 55000000 		.4byte	.LVL395-1
 9715 001e 0100     		.2byte	0x1
 9716 0020 50       		.byte	0x50
 9717 0021 55000000 		.4byte	.LVL395-1
 9718 0025 56000000 		.4byte	.LVL395
 9719 0029 0400     		.2byte	0x4
 9720 002b F3       		.byte	0xf3
 9721 002c 01       		.uleb128 0x1
 9722 002d 50       		.byte	0x50
 9723 002e 9F       		.byte	0x9f
 9724 002f 56000000 		.4byte	.LVL395
 9725 0033 60000000 		.4byte	.LFE47
 9726 0037 0100     		.2byte	0x1
 9727 0039 54       		.byte	0x54
 9728 003a 00000000 		.4byte	0
 9729 003e 00000000 		.4byte	0
 9730              	.LLST193:
 9731 0042 00000000 		.4byte	.LVL387
 9732 0046 1F000000 		.4byte	.LVL389-1
 9733 004a 0100     		.2byte	0x1
 9734 004c 51       		.byte	0x51
 9735 004d 1F000000 		.4byte	.LVL389-1
 9736 0051 52000000 		.4byte	.LVL394
 9737 0055 0100     		.2byte	0x1
 9738 0057 57       		.byte	0x57
 9739 0058 52000000 		.4byte	.LVL394
 9740 005c 56000000 		.4byte	.LVL395
 9741 0060 0400     		.2byte	0x4
 9742 0062 F3       		.byte	0xf3
 9743 0063 01       		.uleb128 0x1
 9744 0064 51       		.byte	0x51
 9745 0065 9F       		.byte	0x9f
 9746 0066 56000000 		.4byte	.LVL395
 9747 006a 60000000 		.4byte	.LFE47
ARM GAS  C:\Users\25521\AppData\Local\Temp\ccDmagyc.s 			page 172


 9748 006e 0100     		.2byte	0x1
 9749 0070 57       		.byte	0x57
 9750 0071 00000000 		.4byte	0
 9751 0075 00000000 		.4byte	0
 9752              	.LLST194:
 9753 0079 00000000 		.4byte	.LVL387
 9754 007d 1F000000 		.4byte	.LVL389-1
 9755 0081 0100     		.2byte	0x1
 9756 0083 52       		.byte	0x52
 9757 0084 1F000000 		.4byte	.LVL389-1
 9758 0088 60000000 		.4byte	.LFE47
 9759 008c 0400     		.2byte	0x4
 9760 008e F3       		.byte	0xf3
 9761 008f 01       		.uleb128 0x1
 9762 0090 52       		.byte	0x52
 9763 0091 9F       		.byte	0x9f
 9764 0092 00000000 		.4byte	0
 9765 0096 00000000 		.4byte	0
 9766              	.LLST195:
 9767 009a 00000000 		.4byte	.LVL397
 9768 009e 0E000000 		.4byte	.LVL398
 9769 00a2 0100     		.2byte	0x1
 9770 00a4 50       		.byte	0x50
 9771 00a5 0E000000 		.4byte	.LVL398
 9772 00a9 28000000 		.4byte	.LVL400
 9773 00ad 0100     		.2byte	0x1
 9774 00af 56       		.byte	0x56
 9775 00b0 28000000 		.4byte	.LVL400
 9776 00b4 2B000000 		.4byte	.LVL401-1
 9777 00b8 0100     		.2byte	0x1
 9778 00ba 50       		.byte	0x50
 9779 00bb 2B000000 		.4byte	.LVL401-1
 9780 00bf 2C000000 		.4byte	.LVL401
 9781 00c3 0400     		.2byte	0x4
 9782 00c5 F3       		.byte	0xf3
 9783 00c6 01       		.uleb128 0x1
 9784 00c7 50       		.byte	0x50
 9785 00c8 9F       		.byte	0x9f
 9786 00c9 2C000000 		.4byte	.LVL401
 9787 00cd 34000000 		.4byte	.LFE46
 9788 00d1 0100     		.2byte	0x1
 9789 00d3 56       		.byte	0x56
 9790 00d4 00000000 		.4byte	0
 9791 00d8 00000000 		.4byte	0
 9792              	.LLST196:
 9793 00dc 00000000 		.4byte	.LVL397
 9794 00e0 13000000 		.4byte	.LVL399-1
 9795 00e4 0100     		.2byte	0x1
 9796 00e6 51       		.byte	0x51
 9797 00e7 13000000 		.4byte	.LVL399-1
 9798 00eb 28000000 		.4byte	.LVL400
 9799 00ef 0100     		.2byte	0x1
 9800 00f1 55       		.byte	0x55
 9801 00f2 28000000 		.4byte	.LVL400
 9802 00f6 2B000000 		.4byte	.LVL401-1
 9803 00fa 0100     		.2byte	0x1
 9804 00fc 51       		.byte	0x51
ARM GAS  C:\Users\25521\AppData\Local\Temp\ccDmagyc.s 			page 173


 9805 00fd 2B000000 		.4byte	.LVL401-1
 9806 0101 2C000000 		.4byte	.LVL401
 9807 0105 0400     		.2byte	0x4
 9808 0107 F3       		.byte	0xf3
 9809 0108 01       		.uleb128 0x1
 9810 0109 51       		.byte	0x51
 9811 010a 9F       		.byte	0x9f
 9812 010b 2C000000 		.4byte	.LVL401
 9813 010f 34000000 		.4byte	.LFE46
 9814 0113 0100     		.2byte	0x1
 9815 0115 55       		.byte	0x55
 9816 0116 00000000 		.4byte	0
 9817 011a 00000000 		.4byte	0
 9818              	.LLST186:
 9819 011e 00000000 		.4byte	.LVL369
 9820 0122 08000000 		.4byte	.LVL370
 9821 0126 0100     		.2byte	0x1
 9822 0128 50       		.byte	0x50
 9823 0129 08000000 		.4byte	.LVL370
 9824 012d 74000000 		.4byte	.LFE45
 9825 0131 0100     		.2byte	0x1
 9826 0133 54       		.byte	0x54
 9827 0134 00000000 		.4byte	0
 9828 0138 00000000 		.4byte	0
 9829              	.LLST187:
 9830 013c 00000000 		.4byte	.LVL369
 9831 0140 25000000 		.4byte	.LVL371-1
 9832 0144 0100     		.2byte	0x1
 9833 0146 51       		.byte	0x51
 9834 0147 25000000 		.4byte	.LVL371-1
 9835 014b 3E000000 		.4byte	.LVL375
 9836 014f 0100     		.2byte	0x1
 9837 0151 55       		.byte	0x55
 9838 0152 3E000000 		.4byte	.LVL375
 9839 0156 41000000 		.4byte	.LVL376-1
 9840 015a 0100     		.2byte	0x1
 9841 015c 50       		.byte	0x50
 9842 015d 41000000 		.4byte	.LVL376-1
 9843 0161 5E000000 		.4byte	.LVL378
 9844 0165 0400     		.2byte	0x4
 9845 0167 F3       		.byte	0xf3
 9846 0168 01       		.uleb128 0x1
 9847 0169 51       		.byte	0x51
 9848 016a 9F       		.byte	0x9f
 9849 016b 5E000000 		.4byte	.LVL378
 9850 016f 6C000000 		.4byte	.LVL380
 9851 0173 0100     		.2byte	0x1
 9852 0175 55       		.byte	0x55
 9853 0176 6C000000 		.4byte	.LVL380
 9854 017a 74000000 		.4byte	.LFE45
 9855 017e 0400     		.2byte	0x4
 9856 0180 F3       		.byte	0xf3
 9857 0181 01       		.uleb128 0x1
 9858 0182 51       		.byte	0x51
 9859 0183 9F       		.byte	0x9f
 9860 0184 00000000 		.4byte	0
 9861 0188 00000000 		.4byte	0
ARM GAS  C:\Users\25521\AppData\Local\Temp\ccDmagyc.s 			page 174


 9862              	.LLST188:
 9863 018c 00000000 		.4byte	.LVL369
 9864 0190 25000000 		.4byte	.LVL371-1
 9865 0194 0100     		.2byte	0x1
 9866 0196 52       		.byte	0x52
 9867 0197 25000000 		.4byte	.LVL371-1
 9868 019b 74000000 		.4byte	.LFE45
 9869 019f 0400     		.2byte	0x4
 9870 01a1 F3       		.byte	0xf3
 9871 01a2 01       		.uleb128 0x1
 9872 01a3 52       		.byte	0x52
 9873 01a4 9F       		.byte	0x9f
 9874 01a5 00000000 		.4byte	0
 9875 01a9 00000000 		.4byte	0
 9876              	.LLST189:
 9877 01ad 00000000 		.4byte	.LVL382
 9878 01b1 13000000 		.4byte	.LVL383-1
 9879 01b5 0100     		.2byte	0x1
 9880 01b7 50       		.byte	0x50
 9881 01b8 13000000 		.4byte	.LVL383-1
 9882 01bc 28000000 		.4byte	.LVL384
 9883 01c0 0100     		.2byte	0x1
 9884 01c2 55       		.byte	0x55
 9885 01c3 28000000 		.4byte	.LVL384
 9886 01c7 2B000000 		.4byte	.LVL385-1
 9887 01cb 0100     		.2byte	0x1
 9888 01cd 50       		.byte	0x50
 9889 01ce 2B000000 		.4byte	.LVL385-1
 9890 01d2 2C000000 		.4byte	.LVL385
 9891 01d6 0400     		.2byte	0x4
 9892 01d8 F3       		.byte	0xf3
 9893 01d9 01       		.uleb128 0x1
 9894 01da 50       		.byte	0x50
 9895 01db 9F       		.byte	0x9f
 9896 01dc 2C000000 		.4byte	.LVL385
 9897 01e0 34000000 		.4byte	.LFE44
 9898 01e4 0100     		.2byte	0x1
 9899 01e6 55       		.byte	0x55
 9900 01e7 00000000 		.4byte	0
 9901 01eb 00000000 		.4byte	0
 9902              	.LLST190:
 9903 01ef 00000000 		.4byte	.LVL382
 9904 01f3 13000000 		.4byte	.LVL383-1
 9905 01f7 0100     		.2byte	0x1
 9906 01f9 51       		.byte	0x51
 9907 01fa 13000000 		.4byte	.LVL383-1
 9908 01fe 28000000 		.4byte	.LVL384
 9909 0202 0100     		.2byte	0x1
 9910 0204 56       		.byte	0x56
 9911 0205 28000000 		.4byte	.LVL384
 9912 0209 2B000000 		.4byte	.LVL385-1
 9913 020d 0100     		.2byte	0x1
 9914 020f 51       		.byte	0x51
 9915 0210 2B000000 		.4byte	.LVL385-1
 9916 0214 2C000000 		.4byte	.LVL385
 9917 0218 0400     		.2byte	0x4
 9918 021a F3       		.byte	0xf3
ARM GAS  C:\Users\25521\AppData\Local\Temp\ccDmagyc.s 			page 175


 9919 021b 01       		.uleb128 0x1
 9920 021c 51       		.byte	0x51
 9921 021d 9F       		.byte	0x9f
 9922 021e 2C000000 		.4byte	.LVL385
 9923 0222 34000000 		.4byte	.LFE44
 9924 0226 0100     		.2byte	0x1
 9925 0228 56       		.byte	0x56
 9926 0229 00000000 		.4byte	0
 9927 022d 00000000 		.4byte	0
 9928              	.LLST191:
 9929 0231 00000000 		.4byte	.LVL382
 9930 0235 13000000 		.4byte	.LVL383-1
 9931 0239 0100     		.2byte	0x1
 9932 023b 52       		.byte	0x52
 9933 023c 13000000 		.4byte	.LVL383-1
 9934 0240 34000000 		.4byte	.LFE44
 9935 0244 0400     		.2byte	0x4
 9936 0246 F3       		.byte	0xf3
 9937 0247 01       		.uleb128 0x1
 9938 0248 52       		.byte	0x52
 9939 0249 9F       		.byte	0x9f
 9940 024a 00000000 		.4byte	0
 9941 024e 00000000 		.4byte	0
 9942              	.LLST185:
 9943 0252 00000000 		.4byte	.LVL364
 9944 0256 06000000 		.4byte	.LVL365
 9945 025a 0100     		.2byte	0x1
 9946 025c 50       		.byte	0x50
 9947 025d 06000000 		.4byte	.LVL365
 9948 0261 38000000 		.4byte	.LFE43
 9949 0265 0100     		.2byte	0x1
 9950 0267 55       		.byte	0x55
 9951 0268 00000000 		.4byte	0
 9952 026c 00000000 		.4byte	0
 9953              	.LLST171:
 9954 0270 00000000 		.4byte	.LVL351
 9955 0274 12000000 		.4byte	.LVL352
 9956 0278 0100     		.2byte	0x1
 9957 027a 50       		.byte	0x50
 9958 027b 12000000 		.4byte	.LVL352
 9959 027f 64000000 		.4byte	.LVL361
 9960 0283 0100     		.2byte	0x1
 9961 0285 54       		.byte	0x54
 9962 0286 64000000 		.4byte	.LVL361
 9963 028a 67000000 		.4byte	.LVL362-1
 9964 028e 0100     		.2byte	0x1
 9965 0290 50       		.byte	0x50
 9966 0291 67000000 		.4byte	.LVL362-1
 9967 0295 68000000 		.4byte	.LVL362
 9968 0299 0400     		.2byte	0x4
 9969 029b F3       		.byte	0xf3
 9970 029c 01       		.uleb128 0x1
 9971 029d 50       		.byte	0x50
 9972 029e 9F       		.byte	0x9f
 9973 029f 68000000 		.4byte	.LVL362
 9974 02a3 70000000 		.4byte	.LFE42
 9975 02a7 0100     		.2byte	0x1
ARM GAS  C:\Users\25521\AppData\Local\Temp\ccDmagyc.s 			page 176


 9976 02a9 54       		.byte	0x54
 9977 02aa 00000000 		.4byte	0
 9978 02ae 00000000 		.4byte	0
 9979              	.LLST172:
 9980 02b2 00000000 		.4byte	.LVL351
 9981 02b6 16000000 		.4byte	.LVL354
 9982 02ba 0100     		.2byte	0x1
 9983 02bc 51       		.byte	0x51
 9984 02bd 16000000 		.4byte	.LVL354
 9985 02c1 27000000 		.4byte	.LVL356-1
 9986 02c5 0200     		.2byte	0x2
 9987 02c7 74       		.byte	0x74
 9988 02c8 04       		.sleb128 4
 9989 02c9 27000000 		.4byte	.LVL356-1
 9990 02cd 70000000 		.4byte	.LFE42
 9991 02d1 0400     		.2byte	0x4
 9992 02d3 F3       		.byte	0xf3
 9993 02d4 01       		.uleb128 0x1
 9994 02d5 51       		.byte	0x51
 9995 02d6 9F       		.byte	0x9f
 9996 02d7 00000000 		.4byte	0
 9997 02db 00000000 		.4byte	0
 9998              	.LLST173:
 9999 02df 00000000 		.4byte	.LVL351
 10000 02e3 27000000 		.4byte	.LVL356-1
 10001 02e7 0100     		.2byte	0x1
 10002 02e9 52       		.byte	0x52
 10003 02ea 27000000 		.4byte	.LVL356-1
 10004 02ee 70000000 		.4byte	.LFE42
 10005 02f2 0400     		.2byte	0x4
 10006 02f4 F3       		.byte	0xf3
 10007 02f5 01       		.uleb128 0x1
 10008 02f6 52       		.byte	0x52
 10009 02f7 9F       		.byte	0x9f
 10010 02f8 00000000 		.4byte	0
 10011 02fc 00000000 		.4byte	0
 10012              	.LLST174:
 10013 0300 00000000 		.4byte	.LVL351
 10014 0304 14000000 		.4byte	.LVL353
 10015 0308 0100     		.2byte	0x1
 10016 030a 53       		.byte	0x53
 10017 030b 14000000 		.4byte	.LVL353
 10018 030f 27000000 		.4byte	.LVL356-1
 10019 0313 0200     		.2byte	0x2
 10020 0315 74       		.byte	0x74
 10021 0316 10       		.sleb128 16
 10022 0317 27000000 		.4byte	.LVL356-1
 10023 031b 70000000 		.4byte	.LFE42
 10024 031f 0400     		.2byte	0x4
 10025 0321 F3       		.byte	0xf3
 10026 0322 01       		.uleb128 0x1
 10027 0323 53       		.byte	0x53
 10028 0324 9F       		.byte	0x9f
 10029 0325 00000000 		.4byte	0
 10030 0329 00000000 		.4byte	0
 10031              	.LLST175:
 10032 032d 00000000 		.4byte	.LVL351
ARM GAS  C:\Users\25521\AppData\Local\Temp\ccDmagyc.s 			page 177


 10033 0331 64000000 		.4byte	.LVL361
 10034 0335 0200     		.2byte	0x2
 10035 0337 91       		.byte	0x91
 10036 0338 00       		.sleb128 0
 10037 0339 64000000 		.4byte	.LVL361
 10038 033d 68000000 		.4byte	.LVL362
 10039 0341 0200     		.2byte	0x2
 10040 0343 7D       		.byte	0x7d
 10041 0344 00       		.sleb128 0
 10042 0345 68000000 		.4byte	.LVL362
 10043 0349 70000000 		.4byte	.LFE42
 10044 034d 0200     		.2byte	0x2
 10045 034f 91       		.byte	0x91
 10046 0350 00       		.sleb128 0
 10047 0351 00000000 		.4byte	0
 10048 0355 00000000 		.4byte	0
 10049              	.LLST176:
 10050 0359 00000000 		.4byte	.LVL351
 10051 035d 64000000 		.4byte	.LVL361
 10052 0361 0200     		.2byte	0x2
 10053 0363 91       		.byte	0x91
 10054 0364 04       		.sleb128 4
 10055 0365 64000000 		.4byte	.LVL361
 10056 0369 68000000 		.4byte	.LVL362
 10057 036d 0200     		.2byte	0x2
 10058 036f 7D       		.byte	0x7d
 10059 0370 04       		.sleb128 4
 10060 0371 68000000 		.4byte	.LVL362
 10061 0375 70000000 		.4byte	.LFE42
 10062 0379 0200     		.2byte	0x2
 10063 037b 91       		.byte	0x91
 10064 037c 04       		.sleb128 4
 10065 037d 00000000 		.4byte	0
 10066 0381 00000000 		.4byte	0
 10067              	.LLST177:
 10068 0385 22000000 		.4byte	.LVL355
 10069 0389 34000000 		.4byte	.LVL357
 10070 038d 0100     		.2byte	0x1
 10071 038f 55       		.byte	0x55
 10072 0390 00000000 		.4byte	0
 10073 0394 00000000 		.4byte	0
 10074              	.LLST178:
 10075 0398 22000000 		.4byte	.LVL355
 10076 039c 27000000 		.4byte	.LVL356-1
 10077 03a0 0200     		.2byte	0x2
 10078 03a2 74       		.byte	0x74
 10079 03a3 10       		.sleb128 16
 10080 03a4 27000000 		.4byte	.LVL356-1
 10081 03a8 34000000 		.4byte	.LVL357
 10082 03ac 0400     		.2byte	0x4
 10083 03ae F3       		.byte	0xf3
 10084 03af 01       		.uleb128 0x1
 10085 03b0 53       		.byte	0x53
 10086 03b1 9F       		.byte	0x9f
 10087 03b2 00000000 		.4byte	0
 10088 03b6 00000000 		.4byte	0
 10089              	.LLST179:
ARM GAS  C:\Users\25521\AppData\Local\Temp\ccDmagyc.s 			page 178


 10090 03ba 22000000 		.4byte	.LVL355
 10091 03be 27000000 		.4byte	.LVL356-1
 10092 03c2 0100     		.2byte	0x1
 10093 03c4 52       		.byte	0x52
 10094 03c5 27000000 		.4byte	.LVL356-1
 10095 03c9 34000000 		.4byte	.LVL357
 10096 03cd 0400     		.2byte	0x4
 10097 03cf F3       		.byte	0xf3
 10098 03d0 01       		.uleb128 0x1
 10099 03d1 52       		.byte	0x52
 10100 03d2 9F       		.byte	0x9f
 10101 03d3 00000000 		.4byte	0
 10102 03d7 00000000 		.4byte	0
 10103              	.LLST180:
 10104 03db 22000000 		.4byte	.LVL355
 10105 03df 27000000 		.4byte	.LVL356-1
 10106 03e3 0200     		.2byte	0x2
 10107 03e5 74       		.byte	0x74
 10108 03e6 04       		.sleb128 4
 10109 03e7 27000000 		.4byte	.LVL356-1
 10110 03eb 34000000 		.4byte	.LVL357
 10111 03ef 0400     		.2byte	0x4
 10112 03f1 F3       		.byte	0xf3
 10113 03f2 01       		.uleb128 0x1
 10114 03f3 51       		.byte	0x51
 10115 03f4 9F       		.byte	0x9f
 10116 03f5 00000000 		.4byte	0
 10117 03f9 00000000 		.4byte	0
 10118              	.LLST181:
 10119 03fd 22000000 		.4byte	.LVL355
 10120 0401 34000000 		.4byte	.LVL357
 10121 0405 0100     		.2byte	0x1
 10122 0407 54       		.byte	0x54
 10123 0408 00000000 		.4byte	0
 10124 040c 00000000 		.4byte	0
 10125              	.LLST182:
 10126 0410 22000000 		.4byte	.LVL355
 10127 0414 27000000 		.4byte	.LVL356-1
 10128 0418 0100     		.2byte	0x1
 10129 041a 52       		.byte	0x52
 10130 041b 27000000 		.4byte	.LVL356-1
 10131 041f 34000000 		.4byte	.LVL357
 10132 0423 0400     		.2byte	0x4
 10133 0425 F3       		.byte	0xf3
 10134 0426 01       		.uleb128 0x1
 10135 0427 52       		.byte	0x52
 10136 0428 9F       		.byte	0x9f
 10137 0429 00000000 		.4byte	0
 10138 042d 00000000 		.4byte	0
 10139              	.LLST183:
 10140 0431 22000000 		.4byte	.LVL355
 10141 0435 27000000 		.4byte	.LVL356-1
 10142 0439 0200     		.2byte	0x2
 10143 043b 74       		.byte	0x74
 10144 043c 04       		.sleb128 4
 10145 043d 27000000 		.4byte	.LVL356-1
 10146 0441 34000000 		.4byte	.LVL357
ARM GAS  C:\Users\25521\AppData\Local\Temp\ccDmagyc.s 			page 179


 10147 0445 0400     		.2byte	0x4
 10148 0447 F3       		.byte	0xf3
 10149 0448 01       		.uleb128 0x1
 10150 0449 51       		.byte	0x51
 10151 044a 9F       		.byte	0x9f
 10152 044b 00000000 		.4byte	0
 10153 044f 00000000 		.4byte	0
 10154              	.LLST159:
 10155 0453 00000000 		.4byte	.LVL332
 10156 0457 08000000 		.4byte	.LVL333
 10157 045b 0100     		.2byte	0x1
 10158 045d 50       		.byte	0x50
 10159 045e 08000000 		.4byte	.LVL333
 10160 0462 6E000000 		.4byte	.LVL339
 10161 0466 0100     		.2byte	0x1
 10162 0468 56       		.byte	0x56
 10163 0469 6E000000 		.4byte	.LVL339
 10164 046d 71000000 		.4byte	.LVL340-1
 10165 0471 0100     		.2byte	0x1
 10166 0473 50       		.byte	0x50
 10167 0474 71000000 		.4byte	.LVL340-1
 10168 0478 72000000 		.4byte	.LVL340
 10169 047c 0400     		.2byte	0x4
 10170 047e F3       		.byte	0xf3
 10171 047f 01       		.uleb128 0x1
 10172 0480 50       		.byte	0x50
 10173 0481 9F       		.byte	0x9f
 10174 0482 72000000 		.4byte	.LVL340
 10175 0486 7C000000 		.4byte	.LFE40
 10176 048a 0100     		.2byte	0x1
 10177 048c 56       		.byte	0x56
 10178 048d 00000000 		.4byte	0
 10179 0491 00000000 		.4byte	0
 10180              	.LLST160:
 10181 0495 00000000 		.4byte	.LVL332
 10182 0499 25000000 		.4byte	.LVL334-1
 10183 049d 0100     		.2byte	0x1
 10184 049f 51       		.byte	0x51
 10185 04a0 25000000 		.4byte	.LVL334-1
 10186 04a4 6E000000 		.4byte	.LVL339
 10187 04a8 0100     		.2byte	0x1
 10188 04aa 57       		.byte	0x57
 10189 04ab 6E000000 		.4byte	.LVL339
 10190 04af 72000000 		.4byte	.LVL340
 10191 04b3 0400     		.2byte	0x4
 10192 04b5 F3       		.byte	0xf3
 10193 04b6 01       		.uleb128 0x1
 10194 04b7 51       		.byte	0x51
 10195 04b8 9F       		.byte	0x9f
 10196 04b9 72000000 		.4byte	.LVL340
 10197 04bd 7C000000 		.4byte	.LFE40
 10198 04c1 0100     		.2byte	0x1
 10199 04c3 57       		.byte	0x57
 10200 04c4 00000000 		.4byte	0
 10201 04c8 00000000 		.4byte	0
 10202              	.LLST161:
 10203 04cc 00000000 		.4byte	.LVL332
ARM GAS  C:\Users\25521\AppData\Local\Temp\ccDmagyc.s 			page 180


 10204 04d0 25000000 		.4byte	.LVL334-1
 10205 04d4 0100     		.2byte	0x1
 10206 04d6 52       		.byte	0x52
 10207 04d7 25000000 		.4byte	.LVL334-1
 10208 04db 7C000000 		.4byte	.LFE40
 10209 04df 0400     		.2byte	0x4
 10210 04e1 F3       		.byte	0xf3
 10211 04e2 01       		.uleb128 0x1
 10212 04e3 52       		.byte	0x52
 10213 04e4 9F       		.byte	0x9f
 10214 04e5 00000000 		.4byte	0
 10215 04e9 00000000 		.4byte	0
 10216              	.LLST162:
 10217 04ed 38000000 		.4byte	.LVL336
 10218 04f1 44000000 		.4byte	.LVL337
 10219 04f5 0200     		.2byte	0x2
 10220 04f7 30       		.byte	0x30
 10221 04f8 9F       		.byte	0x9f
 10222 04f9 00000000 		.4byte	0
 10223 04fd 00000000 		.4byte	0
 10224              	.LLST154:
 10225 0501 00000000 		.4byte	.LVL316
 10226 0505 06000000 		.4byte	.LVL317
 10227 0509 0100     		.2byte	0x1
 10228 050b 50       		.byte	0x50
 10229 050c 06000000 		.4byte	.LVL317
 10230 0510 60000000 		.4byte	.LFE39
 10231 0514 0100     		.2byte	0x1
 10232 0516 54       		.byte	0x54
 10233 0517 00000000 		.4byte	0
 10234 051b 00000000 		.4byte	0
 10235              	.LLST155:
 10236 051f 00000000 		.4byte	.LVL316
 10237 0523 1D000000 		.4byte	.LVL318-1
 10238 0527 0100     		.2byte	0x1
 10239 0529 51       		.byte	0x51
 10240 052a 1D000000 		.4byte	.LVL318-1
 10241 052e 60000000 		.4byte	.LFE39
 10242 0532 0100     		.2byte	0x1
 10243 0534 56       		.byte	0x56
 10244 0535 00000000 		.4byte	0
 10245 0539 00000000 		.4byte	0
 10246              	.LLST156:
 10247 053d 28000000 		.4byte	.LVL320
 10248 0541 30000000 		.4byte	.LVL321
 10249 0545 0200     		.2byte	0x2
 10250 0547 30       		.byte	0x30
 10251 0548 9F       		.byte	0x9f
 10252 0549 30000000 		.4byte	.LVL321
 10253 054d 44000000 		.4byte	.LVL323
 10254 0551 0100     		.2byte	0x1
 10255 0553 53       		.byte	0x53
 10256 0554 00000000 		.4byte	0
 10257 0558 00000000 		.4byte	0
 10258              	.LLST157:
 10259 055c 00000000 		.4byte	.LVL327
 10260 0560 11000000 		.4byte	.LVL328-1
ARM GAS  C:\Users\25521\AppData\Local\Temp\ccDmagyc.s 			page 181


 10261 0564 0100     		.2byte	0x1
 10262 0566 50       		.byte	0x50
 10263 0567 11000000 		.4byte	.LVL328-1
 10264 056b 24000000 		.4byte	.LVL329
 10265 056f 0100     		.2byte	0x1
 10266 0571 55       		.byte	0x55
 10267 0572 24000000 		.4byte	.LVL329
 10268 0576 27000000 		.4byte	.LVL330-1
 10269 057a 0100     		.2byte	0x1
 10270 057c 50       		.byte	0x50
 10271 057d 27000000 		.4byte	.LVL330-1
 10272 0581 28000000 		.4byte	.LVL330
 10273 0585 0400     		.2byte	0x4
 10274 0587 F3       		.byte	0xf3
 10275 0588 01       		.uleb128 0x1
 10276 0589 50       		.byte	0x50
 10277 058a 9F       		.byte	0x9f
 10278 058b 28000000 		.4byte	.LVL330
 10279 058f 30000000 		.4byte	.LFE38
 10280 0593 0100     		.2byte	0x1
 10281 0595 55       		.byte	0x55
 10282 0596 00000000 		.4byte	0
 10283 059a 00000000 		.4byte	0
 10284              	.LLST158:
 10285 059e 00000000 		.4byte	.LVL327
 10286 05a2 11000000 		.4byte	.LVL328-1
 10287 05a6 0100     		.2byte	0x1
 10288 05a8 51       		.byte	0x51
 10289 05a9 11000000 		.4byte	.LVL328-1
 10290 05ad 24000000 		.4byte	.LVL329
 10291 05b1 0100     		.2byte	0x1
 10292 05b3 56       		.byte	0x56
 10293 05b4 24000000 		.4byte	.LVL329
 10294 05b8 27000000 		.4byte	.LVL330-1
 10295 05bc 0100     		.2byte	0x1
 10296 05be 51       		.byte	0x51
 10297 05bf 27000000 		.4byte	.LVL330-1
 10298 05c3 28000000 		.4byte	.LVL330
 10299 05c7 0400     		.2byte	0x4
 10300 05c9 F3       		.byte	0xf3
 10301 05ca 01       		.uleb128 0x1
 10302 05cb 51       		.byte	0x51
 10303 05cc 9F       		.byte	0x9f
 10304 05cd 28000000 		.4byte	.LVL330
 10305 05d1 30000000 		.4byte	.LFE38
 10306 05d5 0100     		.2byte	0x1
 10307 05d7 56       		.byte	0x56
 10308 05d8 00000000 		.4byte	0
 10309 05dc 00000000 		.4byte	0
 10310              	.LLST153:
 10311 05e0 00000000 		.4byte	.LVL311
 10312 05e4 06000000 		.4byte	.LVL312
 10313 05e8 0100     		.2byte	0x1
 10314 05ea 50       		.byte	0x50
 10315 05eb 06000000 		.4byte	.LVL312
 10316 05ef 34000000 		.4byte	.LFE37
 10317 05f3 0100     		.2byte	0x1
ARM GAS  C:\Users\25521\AppData\Local\Temp\ccDmagyc.s 			page 182


 10318 05f5 54       		.byte	0x54
 10319 05f6 00000000 		.4byte	0
 10320 05fa 00000000 		.4byte	0
 10321              	.LLST139:
 10322 05fe 00000000 		.4byte	.LVL300
 10323 0602 12000000 		.4byte	.LVL301
 10324 0606 0100     		.2byte	0x1
 10325 0608 50       		.byte	0x50
 10326 0609 12000000 		.4byte	.LVL301
 10327 060d 54000000 		.4byte	.LVL308
 10328 0611 0100     		.2byte	0x1
 10329 0613 54       		.byte	0x54
 10330 0614 54000000 		.4byte	.LVL308
 10331 0618 57000000 		.4byte	.LVL309-1
 10332 061c 0100     		.2byte	0x1
 10333 061e 50       		.byte	0x50
 10334 061f 57000000 		.4byte	.LVL309-1
 10335 0623 58000000 		.4byte	.LVL309
 10336 0627 0400     		.2byte	0x4
 10337 0629 F3       		.byte	0xf3
 10338 062a 01       		.uleb128 0x1
 10339 062b 50       		.byte	0x50
 10340 062c 9F       		.byte	0x9f
 10341 062d 58000000 		.4byte	.LVL309
 10342 0631 60000000 		.4byte	.LFE36
 10343 0635 0100     		.2byte	0x1
 10344 0637 54       		.byte	0x54
 10345 0638 00000000 		.4byte	0
 10346 063c 00000000 		.4byte	0
 10347              	.LLST140:
 10348 0640 00000000 		.4byte	.LVL300
 10349 0644 18000000 		.4byte	.LVL303
 10350 0648 0100     		.2byte	0x1
 10351 064a 51       		.byte	0x51
 10352 064b 18000000 		.4byte	.LVL303
 10353 064f 29000000 		.4byte	.LVL305-1
 10354 0653 0200     		.2byte	0x2
 10355 0655 74       		.byte	0x74
 10356 0656 04       		.sleb128 4
 10357 0657 29000000 		.4byte	.LVL305-1
 10358 065b 60000000 		.4byte	.LFE36
 10359 065f 0400     		.2byte	0x4
 10360 0661 F3       		.byte	0xf3
 10361 0662 01       		.uleb128 0x1
 10362 0663 51       		.byte	0x51
 10363 0664 9F       		.byte	0x9f
 10364 0665 00000000 		.4byte	0
 10365 0669 00000000 		.4byte	0
 10366              	.LLST141:
 10367 066d 00000000 		.4byte	.LVL300
 10368 0671 29000000 		.4byte	.LVL305-1
 10369 0675 0100     		.2byte	0x1
 10370 0677 52       		.byte	0x52
 10371 0678 29000000 		.4byte	.LVL305-1
 10372 067c 60000000 		.4byte	.LFE36
 10373 0680 0400     		.2byte	0x4
 10374 0682 F3       		.byte	0xf3
ARM GAS  C:\Users\25521\AppData\Local\Temp\ccDmagyc.s 			page 183


 10375 0683 01       		.uleb128 0x1
 10376 0684 52       		.byte	0x52
 10377 0685 9F       		.byte	0x9f
 10378 0686 00000000 		.4byte	0
 10379 068a 00000000 		.4byte	0
 10380              	.LLST142:
 10381 068e 00000000 		.4byte	.LVL300
 10382 0692 14000000 		.4byte	.LVL302
 10383 0696 0100     		.2byte	0x1
 10384 0698 53       		.byte	0x53
 10385 0699 14000000 		.4byte	.LVL302
 10386 069d 29000000 		.4byte	.LVL305-1
 10387 06a1 0200     		.2byte	0x2
 10388 06a3 74       		.byte	0x74
 10389 06a4 10       		.sleb128 16
 10390 06a5 29000000 		.4byte	.LVL305-1
 10391 06a9 60000000 		.4byte	.LFE36
 10392 06ad 0400     		.2byte	0x4
 10393 06af F3       		.byte	0xf3
 10394 06b0 01       		.uleb128 0x1
 10395 06b1 53       		.byte	0x53
 10396 06b2 9F       		.byte	0x9f
 10397 06b3 00000000 		.4byte	0
 10398 06b7 00000000 		.4byte	0
 10399              	.LLST143:
 10400 06bb 00000000 		.4byte	.LVL300
 10401 06bf 54000000 		.4byte	.LVL308
 10402 06c3 0200     		.2byte	0x2
 10403 06c5 91       		.byte	0x91
 10404 06c6 00       		.sleb128 0
 10405 06c7 54000000 		.4byte	.LVL308
 10406 06cb 58000000 		.4byte	.LVL309
 10407 06cf 0200     		.2byte	0x2
 10408 06d1 7D       		.byte	0x7d
 10409 06d2 00       		.sleb128 0
 10410 06d3 58000000 		.4byte	.LVL309
 10411 06d7 60000000 		.4byte	.LFE36
 10412 06db 0200     		.2byte	0x2
 10413 06dd 91       		.byte	0x91
 10414 06de 00       		.sleb128 0
 10415 06df 00000000 		.4byte	0
 10416 06e3 00000000 		.4byte	0
 10417              	.LLST144:
 10418 06e7 00000000 		.4byte	.LVL300
 10419 06eb 54000000 		.4byte	.LVL308
 10420 06ef 0200     		.2byte	0x2
 10421 06f1 91       		.byte	0x91
 10422 06f2 04       		.sleb128 4
 10423 06f3 54000000 		.4byte	.LVL308
 10424 06f7 58000000 		.4byte	.LVL309
 10425 06fb 0200     		.2byte	0x2
 10426 06fd 7D       		.byte	0x7d
 10427 06fe 04       		.sleb128 4
 10428 06ff 58000000 		.4byte	.LVL309
 10429 0703 60000000 		.4byte	.LFE36
 10430 0707 0200     		.2byte	0x2
 10431 0709 91       		.byte	0x91
ARM GAS  C:\Users\25521\AppData\Local\Temp\ccDmagyc.s 			page 184


 10432 070a 04       		.sleb128 4
 10433 070b 00000000 		.4byte	0
 10434 070f 00000000 		.4byte	0
 10435              	.LLST145:
 10436 0713 22000000 		.4byte	.LVL304
 10437 0717 36000000 		.4byte	.LVL306
 10438 071b 0100     		.2byte	0x1
 10439 071d 57       		.byte	0x57
 10440 071e 00000000 		.4byte	0
 10441 0722 00000000 		.4byte	0
 10442              	.LLST146:
 10443 0726 22000000 		.4byte	.LVL304
 10444 072a 29000000 		.4byte	.LVL305-1
 10445 072e 0200     		.2byte	0x2
 10446 0730 74       		.byte	0x74
 10447 0731 10       		.sleb128 16
 10448 0732 29000000 		.4byte	.LVL305-1
 10449 0736 36000000 		.4byte	.LVL306
 10450 073a 0400     		.2byte	0x4
 10451 073c F3       		.byte	0xf3
 10452 073d 01       		.uleb128 0x1
 10453 073e 53       		.byte	0x53
 10454 073f 9F       		.byte	0x9f
 10455 0740 00000000 		.4byte	0
 10456 0744 00000000 		.4byte	0
 10457              	.LLST147:
 10458 0748 22000000 		.4byte	.LVL304
 10459 074c 29000000 		.4byte	.LVL305-1
 10460 0750 0100     		.2byte	0x1
 10461 0752 52       		.byte	0x52
 10462 0753 29000000 		.4byte	.LVL305-1
 10463 0757 36000000 		.4byte	.LVL306
 10464 075b 0400     		.2byte	0x4
 10465 075d F3       		.byte	0xf3
 10466 075e 01       		.uleb128 0x1
 10467 075f 52       		.byte	0x52
 10468 0760 9F       		.byte	0x9f
 10469 0761 00000000 		.4byte	0
 10470 0765 00000000 		.4byte	0
 10471              	.LLST148:
 10472 0769 22000000 		.4byte	.LVL304
 10473 076d 29000000 		.4byte	.LVL305-1
 10474 0771 0200     		.2byte	0x2
 10475 0773 74       		.byte	0x74
 10476 0774 04       		.sleb128 4
 10477 0775 29000000 		.4byte	.LVL305-1
 10478 0779 36000000 		.4byte	.LVL306
 10479 077d 0400     		.2byte	0x4
 10480 077f F3       		.byte	0xf3
 10481 0780 01       		.uleb128 0x1
 10482 0781 51       		.byte	0x51
 10483 0782 9F       		.byte	0x9f
 10484 0783 00000000 		.4byte	0
 10485 0787 00000000 		.4byte	0
 10486              	.LLST149:
 10487 078b 22000000 		.4byte	.LVL304
 10488 078f 36000000 		.4byte	.LVL306
ARM GAS  C:\Users\25521\AppData\Local\Temp\ccDmagyc.s 			page 185


 10489 0793 0100     		.2byte	0x1
 10490 0795 54       		.byte	0x54
 10491 0796 00000000 		.4byte	0
 10492 079a 00000000 		.4byte	0
 10493              	.LLST150:
 10494 079e 22000000 		.4byte	.LVL304
 10495 07a2 29000000 		.4byte	.LVL305-1
 10496 07a6 0100     		.2byte	0x1
 10497 07a8 52       		.byte	0x52
 10498 07a9 29000000 		.4byte	.LVL305-1
 10499 07ad 36000000 		.4byte	.LVL306
 10500 07b1 0400     		.2byte	0x4
 10501 07b3 F3       		.byte	0xf3
 10502 07b4 01       		.uleb128 0x1
 10503 07b5 52       		.byte	0x52
 10504 07b6 9F       		.byte	0x9f
 10505 07b7 00000000 		.4byte	0
 10506 07bb 00000000 		.4byte	0
 10507              	.LLST151:
 10508 07bf 22000000 		.4byte	.LVL304
 10509 07c3 29000000 		.4byte	.LVL305-1
 10510 07c7 0200     		.2byte	0x2
 10511 07c9 74       		.byte	0x74
 10512 07ca 04       		.sleb128 4
 10513 07cb 29000000 		.4byte	.LVL305-1
 10514 07cf 36000000 		.4byte	.LVL306
 10515 07d3 0400     		.2byte	0x4
 10516 07d5 F3       		.byte	0xf3
 10517 07d6 01       		.uleb128 0x1
 10518 07d7 51       		.byte	0x51
 10519 07d8 9F       		.byte	0x9f
 10520 07d9 00000000 		.4byte	0
 10521 07dd 00000000 		.4byte	0
 10522              	.LLST128:
 10523 07e1 00000000 		.4byte	.LVL280
 10524 07e5 06000000 		.4byte	.LVL281
 10525 07e9 0100     		.2byte	0x1
 10526 07eb 50       		.byte	0x50
 10527 07ec 06000000 		.4byte	.LVL281
 10528 07f0 52000000 		.4byte	.LVL288
 10529 07f4 0100     		.2byte	0x1
 10530 07f6 54       		.byte	0x54
 10531 07f7 52000000 		.4byte	.LVL288
 10532 07fb 55000000 		.4byte	.LVL289-1
 10533 07ff 0100     		.2byte	0x1
 10534 0801 50       		.byte	0x50
 10535 0802 55000000 		.4byte	.LVL289-1
 10536 0806 56000000 		.4byte	.LVL289
 10537 080a 0400     		.2byte	0x4
 10538 080c F3       		.byte	0xf3
 10539 080d 01       		.uleb128 0x1
 10540 080e 50       		.byte	0x50
 10541 080f 9F       		.byte	0x9f
 10542 0810 56000000 		.4byte	.LVL289
 10543 0814 60000000 		.4byte	.LFE34
 10544 0818 0100     		.2byte	0x1
 10545 081a 54       		.byte	0x54
ARM GAS  C:\Users\25521\AppData\Local\Temp\ccDmagyc.s 			page 186


 10546 081b 00000000 		.4byte	0
 10547 081f 00000000 		.4byte	0
 10548              	.LLST129:
 10549 0823 00000000 		.4byte	.LVL280
 10550 0827 1D000000 		.4byte	.LVL282-1
 10551 082b 0100     		.2byte	0x1
 10552 082d 51       		.byte	0x51
 10553 082e 1D000000 		.4byte	.LVL282-1
 10554 0832 52000000 		.4byte	.LVL288
 10555 0836 0100     		.2byte	0x1
 10556 0838 55       		.byte	0x55
 10557 0839 52000000 		.4byte	.LVL288
 10558 083d 56000000 		.4byte	.LVL289
 10559 0841 0400     		.2byte	0x4
 10560 0843 F3       		.byte	0xf3
 10561 0844 01       		.uleb128 0x1
 10562 0845 51       		.byte	0x51
 10563 0846 9F       		.byte	0x9f
 10564 0847 56000000 		.4byte	.LVL289
 10565 084b 60000000 		.4byte	.LFE34
 10566 084f 0100     		.2byte	0x1
 10567 0851 55       		.byte	0x55
 10568 0852 00000000 		.4byte	0
 10569 0856 00000000 		.4byte	0
 10570              	.LLST130:
 10571 085a 22000000 		.4byte	.LVL283
 10572 085e 2A000000 		.4byte	.LVL284
 10573 0862 0200     		.2byte	0x2
 10574 0864 30       		.byte	0x30
 10575 0865 9F       		.byte	0x9f
 10576 0866 2A000000 		.4byte	.LVL284
 10577 086a 3E000000 		.4byte	.LVL286
 10578 086e 0100     		.2byte	0x1
 10579 0870 53       		.byte	0x53
 10580 0871 00000000 		.4byte	0
 10581 0875 00000000 		.4byte	0
 10582              	.LLST123:
 10583 0879 00000000 		.4byte	.LVL264
 10584 087d 06000000 		.4byte	.LVL265
 10585 0881 0100     		.2byte	0x1
 10586 0883 50       		.byte	0x50
 10587 0884 06000000 		.4byte	.LVL265
 10588 0888 52000000 		.4byte	.LVL272
 10589 088c 0100     		.2byte	0x1
 10590 088e 54       		.byte	0x54
 10591 088f 52000000 		.4byte	.LVL272
 10592 0893 56000000 		.4byte	.LVL273
 10593 0897 0400     		.2byte	0x4
 10594 0899 F3       		.byte	0xf3
 10595 089a 01       		.uleb128 0x1
 10596 089b 50       		.byte	0x50
 10597 089c 9F       		.byte	0x9f
 10598 089d 56000000 		.4byte	.LVL273
 10599 08a1 60000000 		.4byte	.LFE33
 10600 08a5 0100     		.2byte	0x1
 10601 08a7 54       		.byte	0x54
 10602 08a8 00000000 		.4byte	0
ARM GAS  C:\Users\25521\AppData\Local\Temp\ccDmagyc.s 			page 187


 10603 08ac 00000000 		.4byte	0
 10604              	.LLST124:
 10605 08b0 00000000 		.4byte	.LVL264
 10606 08b4 1D000000 		.4byte	.LVL266-1
 10607 08b8 0100     		.2byte	0x1
 10608 08ba 51       		.byte	0x51
 10609 08bb 1D000000 		.4byte	.LVL266-1
 10610 08bf 52000000 		.4byte	.LVL272
 10611 08c3 0100     		.2byte	0x1
 10612 08c5 55       		.byte	0x55
 10613 08c6 52000000 		.4byte	.LVL272
 10614 08ca 56000000 		.4byte	.LVL273
 10615 08ce 0400     		.2byte	0x4
 10616 08d0 F3       		.byte	0xf3
 10617 08d1 01       		.uleb128 0x1
 10618 08d2 51       		.byte	0x51
 10619 08d3 9F       		.byte	0x9f
 10620 08d4 56000000 		.4byte	.LVL273
 10621 08d8 60000000 		.4byte	.LFE33
 10622 08dc 0100     		.2byte	0x1
 10623 08de 55       		.byte	0x55
 10624 08df 00000000 		.4byte	0
 10625 08e3 00000000 		.4byte	0
 10626              	.LLST125:
 10627 08e7 28000000 		.4byte	.LVL268
 10628 08eb 30000000 		.4byte	.LVL269
 10629 08ef 0200     		.2byte	0x2
 10630 08f1 30       		.byte	0x30
 10631 08f2 9F       		.byte	0x9f
 10632 08f3 30000000 		.4byte	.LVL269
 10633 08f7 44000000 		.4byte	.LVL271
 10634 08fb 0100     		.2byte	0x1
 10635 08fd 53       		.byte	0x53
 10636 08fe 00000000 		.4byte	0
 10637 0902 00000000 		.4byte	0
 10638              	.LLST126:
 10639 0906 00000000 		.4byte	.LVL275
 10640 090a 11000000 		.4byte	.LVL276-1
 10641 090e 0100     		.2byte	0x1
 10642 0910 50       		.byte	0x50
 10643 0911 11000000 		.4byte	.LVL276-1
 10644 0915 24000000 		.4byte	.LVL277
 10645 0919 0100     		.2byte	0x1
 10646 091b 55       		.byte	0x55
 10647 091c 24000000 		.4byte	.LVL277
 10648 0920 27000000 		.4byte	.LVL278-1
 10649 0924 0100     		.2byte	0x1
 10650 0926 50       		.byte	0x50
 10651 0927 27000000 		.4byte	.LVL278-1
 10652 092b 28000000 		.4byte	.LVL278
 10653 092f 0400     		.2byte	0x4
 10654 0931 F3       		.byte	0xf3
 10655 0932 01       		.uleb128 0x1
 10656 0933 50       		.byte	0x50
 10657 0934 9F       		.byte	0x9f
 10658 0935 28000000 		.4byte	.LVL278
 10659 0939 30000000 		.4byte	.LFE32
ARM GAS  C:\Users\25521\AppData\Local\Temp\ccDmagyc.s 			page 188


 10660 093d 0100     		.2byte	0x1
 10661 093f 55       		.byte	0x55
 10662 0940 00000000 		.4byte	0
 10663 0944 00000000 		.4byte	0
 10664              	.LLST127:
 10665 0948 00000000 		.4byte	.LVL275
 10666 094c 11000000 		.4byte	.LVL276-1
 10667 0950 0100     		.2byte	0x1
 10668 0952 51       		.byte	0x51
 10669 0953 11000000 		.4byte	.LVL276-1
 10670 0957 24000000 		.4byte	.LVL277
 10671 095b 0100     		.2byte	0x1
 10672 095d 56       		.byte	0x56
 10673 095e 24000000 		.4byte	.LVL277
 10674 0962 27000000 		.4byte	.LVL278-1
 10675 0966 0100     		.2byte	0x1
 10676 0968 51       		.byte	0x51
 10677 0969 27000000 		.4byte	.LVL278-1
 10678 096d 28000000 		.4byte	.LVL278
 10679 0971 0400     		.2byte	0x4
 10680 0973 F3       		.byte	0xf3
 10681 0974 01       		.uleb128 0x1
 10682 0975 51       		.byte	0x51
 10683 0976 9F       		.byte	0x9f
 10684 0977 28000000 		.4byte	.LVL278
 10685 097b 30000000 		.4byte	.LFE32
 10686 097f 0100     		.2byte	0x1
 10687 0981 56       		.byte	0x56
 10688 0982 00000000 		.4byte	0
 10689 0986 00000000 		.4byte	0
 10690              	.LLST122:
 10691 098a 00000000 		.4byte	.LVL259
 10692 098e 06000000 		.4byte	.LVL260
 10693 0992 0100     		.2byte	0x1
 10694 0994 50       		.byte	0x50
 10695 0995 06000000 		.4byte	.LVL260
 10696 0999 34000000 		.4byte	.LFE31
 10697 099d 0100     		.2byte	0x1
 10698 099f 54       		.byte	0x54
 10699 09a0 00000000 		.4byte	0
 10700 09a4 00000000 		.4byte	0
 10701              	.LLST109:
 10702 09a8 00000000 		.4byte	.LVL249
 10703 09ac 0C000000 		.4byte	.LVL250
 10704 09b0 0100     		.2byte	0x1
 10705 09b2 50       		.byte	0x50
 10706 09b3 0C000000 		.4byte	.LVL250
 10707 09b7 42000000 		.4byte	.LVL256
 10708 09bb 0100     		.2byte	0x1
 10709 09bd 54       		.byte	0x54
 10710 09be 42000000 		.4byte	.LVL256
 10711 09c2 45000000 		.4byte	.LVL257-1
 10712 09c6 0100     		.2byte	0x1
 10713 09c8 50       		.byte	0x50
 10714 09c9 45000000 		.4byte	.LVL257-1
 10715 09cd 46000000 		.4byte	.LVL257
 10716 09d1 0400     		.2byte	0x4
ARM GAS  C:\Users\25521\AppData\Local\Temp\ccDmagyc.s 			page 189


 10717 09d3 F3       		.byte	0xf3
 10718 09d4 01       		.uleb128 0x1
 10719 09d5 50       		.byte	0x50
 10720 09d6 9F       		.byte	0x9f
 10721 09d7 46000000 		.4byte	.LVL257
 10722 09db 50000000 		.4byte	.LFE30
 10723 09df 0100     		.2byte	0x1
 10724 09e1 54       		.byte	0x54
 10725 09e2 00000000 		.4byte	0
 10726 09e6 00000000 		.4byte	0
 10727              	.LLST110:
 10728 09ea 00000000 		.4byte	.LVL249
 10729 09ee 18000000 		.4byte	.LVL252
 10730 09f2 0100     		.2byte	0x1
 10731 09f4 51       		.byte	0x51
 10732 09f5 18000000 		.4byte	.LVL252
 10733 09f9 25000000 		.4byte	.LVL254-1
 10734 09fd 0200     		.2byte	0x2
 10735 09ff 74       		.byte	0x74
 10736 0a00 04       		.sleb128 4
 10737 0a01 25000000 		.4byte	.LVL254-1
 10738 0a05 50000000 		.4byte	.LFE30
 10739 0a09 0400     		.2byte	0x4
 10740 0a0b F3       		.byte	0xf3
 10741 0a0c 01       		.uleb128 0x1
 10742 0a0d 51       		.byte	0x51
 10743 0a0e 9F       		.byte	0x9f
 10744 0a0f 00000000 		.4byte	0
 10745 0a13 00000000 		.4byte	0
 10746              	.LLST111:
 10747 0a17 00000000 		.4byte	.LVL249
 10748 0a1b 25000000 		.4byte	.LVL254-1
 10749 0a1f 0100     		.2byte	0x1
 10750 0a21 52       		.byte	0x52
 10751 0a22 25000000 		.4byte	.LVL254-1
 10752 0a26 50000000 		.4byte	.LFE30
 10753 0a2a 0400     		.2byte	0x4
 10754 0a2c F3       		.byte	0xf3
 10755 0a2d 01       		.uleb128 0x1
 10756 0a2e 52       		.byte	0x52
 10757 0a2f 9F       		.byte	0x9f
 10758 0a30 00000000 		.4byte	0
 10759 0a34 00000000 		.4byte	0
 10760              	.LLST112:
 10761 0a38 00000000 		.4byte	.LVL249
 10762 0a3c 12000000 		.4byte	.LVL251
 10763 0a40 0100     		.2byte	0x1
 10764 0a42 53       		.byte	0x53
 10765 0a43 12000000 		.4byte	.LVL251
 10766 0a47 25000000 		.4byte	.LVL254-1
 10767 0a4b 0200     		.2byte	0x2
 10768 0a4d 74       		.byte	0x74
 10769 0a4e 10       		.sleb128 16
 10770 0a4f 25000000 		.4byte	.LVL254-1
 10771 0a53 50000000 		.4byte	.LFE30
 10772 0a57 0400     		.2byte	0x4
 10773 0a59 F3       		.byte	0xf3
ARM GAS  C:\Users\25521\AppData\Local\Temp\ccDmagyc.s 			page 190


 10774 0a5a 01       		.uleb128 0x1
 10775 0a5b 53       		.byte	0x53
 10776 0a5c 9F       		.byte	0x9f
 10777 0a5d 00000000 		.4byte	0
 10778 0a61 00000000 		.4byte	0
 10779              	.LLST113:
 10780 0a65 00000000 		.4byte	.LVL249
 10781 0a69 42000000 		.4byte	.LVL256
 10782 0a6d 0200     		.2byte	0x2
 10783 0a6f 91       		.byte	0x91
 10784 0a70 00       		.sleb128 0
 10785 0a71 42000000 		.4byte	.LVL256
 10786 0a75 46000000 		.4byte	.LVL257
 10787 0a79 0200     		.2byte	0x2
 10788 0a7b 7D       		.byte	0x7d
 10789 0a7c 00       		.sleb128 0
 10790 0a7d 46000000 		.4byte	.LVL257
 10791 0a81 50000000 		.4byte	.LFE30
 10792 0a85 0200     		.2byte	0x2
 10793 0a87 91       		.byte	0x91
 10794 0a88 00       		.sleb128 0
 10795 0a89 00000000 		.4byte	0
 10796 0a8d 00000000 		.4byte	0
 10797              	.LLST114:
 10798 0a91 22000000 		.4byte	.LVL253
 10799 0a95 25000000 		.4byte	.LVL254-1
 10800 0a99 0100     		.2byte	0x1
 10801 0a9b 50       		.byte	0x50
 10802 0a9c 25000000 		.4byte	.LVL254-1
 10803 0aa0 32000000 		.4byte	.LVL255
 10804 0aa4 0200     		.2byte	0x2
 10805 0aa6 91       		.byte	0x91
 10806 0aa7 00       		.sleb128 0
 10807 0aa8 00000000 		.4byte	0
 10808 0aac 00000000 		.4byte	0
 10809              	.LLST115:
 10810 0ab0 22000000 		.4byte	.LVL253
 10811 0ab4 25000000 		.4byte	.LVL254-1
 10812 0ab8 0200     		.2byte	0x2
 10813 0aba 74       		.byte	0x74
 10814 0abb 10       		.sleb128 16
 10815 0abc 25000000 		.4byte	.LVL254-1
 10816 0ac0 32000000 		.4byte	.LVL255
 10817 0ac4 0400     		.2byte	0x4
 10818 0ac6 F3       		.byte	0xf3
 10819 0ac7 01       		.uleb128 0x1
 10820 0ac8 53       		.byte	0x53
 10821 0ac9 9F       		.byte	0x9f
 10822 0aca 00000000 		.4byte	0
 10823 0ace 00000000 		.4byte	0
 10824              	.LLST116:
 10825 0ad2 22000000 		.4byte	.LVL253
 10826 0ad6 25000000 		.4byte	.LVL254-1
 10827 0ada 0100     		.2byte	0x1
 10828 0adc 52       		.byte	0x52
 10829 0add 25000000 		.4byte	.LVL254-1
 10830 0ae1 32000000 		.4byte	.LVL255
ARM GAS  C:\Users\25521\AppData\Local\Temp\ccDmagyc.s 			page 191


 10831 0ae5 0400     		.2byte	0x4
 10832 0ae7 F3       		.byte	0xf3
 10833 0ae8 01       		.uleb128 0x1
 10834 0ae9 52       		.byte	0x52
 10835 0aea 9F       		.byte	0x9f
 10836 0aeb 00000000 		.4byte	0
 10837 0aef 00000000 		.4byte	0
 10838              	.LLST117:
 10839 0af3 22000000 		.4byte	.LVL253
 10840 0af7 25000000 		.4byte	.LVL254-1
 10841 0afb 0200     		.2byte	0x2
 10842 0afd 74       		.byte	0x74
 10843 0afe 04       		.sleb128 4
 10844 0aff 25000000 		.4byte	.LVL254-1
 10845 0b03 32000000 		.4byte	.LVL255
 10846 0b07 0400     		.2byte	0x4
 10847 0b09 F3       		.byte	0xf3
 10848 0b0a 01       		.uleb128 0x1
 10849 0b0b 51       		.byte	0x51
 10850 0b0c 9F       		.byte	0x9f
 10851 0b0d 00000000 		.4byte	0
 10852 0b11 00000000 		.4byte	0
 10853              	.LLST118:
 10854 0b15 22000000 		.4byte	.LVL253
 10855 0b19 32000000 		.4byte	.LVL255
 10856 0b1d 0100     		.2byte	0x1
 10857 0b1f 54       		.byte	0x54
 10858 0b20 00000000 		.4byte	0
 10859 0b24 00000000 		.4byte	0
 10860              	.LLST119:
 10861 0b28 22000000 		.4byte	.LVL253
 10862 0b2c 25000000 		.4byte	.LVL254-1
 10863 0b30 0100     		.2byte	0x1
 10864 0b32 52       		.byte	0x52
 10865 0b33 25000000 		.4byte	.LVL254-1
 10866 0b37 32000000 		.4byte	.LVL255
 10867 0b3b 0400     		.2byte	0x4
 10868 0b3d F3       		.byte	0xf3
 10869 0b3e 01       		.uleb128 0x1
 10870 0b3f 52       		.byte	0x52
 10871 0b40 9F       		.byte	0x9f
 10872 0b41 00000000 		.4byte	0
 10873 0b45 00000000 		.4byte	0
 10874              	.LLST120:
 10875 0b49 22000000 		.4byte	.LVL253
 10876 0b4d 25000000 		.4byte	.LVL254-1
 10877 0b51 0200     		.2byte	0x2
 10878 0b53 74       		.byte	0x74
 10879 0b54 04       		.sleb128 4
 10880 0b55 25000000 		.4byte	.LVL254-1
 10881 0b59 32000000 		.4byte	.LVL255
 10882 0b5d 0400     		.2byte	0x4
 10883 0b5f F3       		.byte	0xf3
 10884 0b60 01       		.uleb128 0x1
 10885 0b61 51       		.byte	0x51
 10886 0b62 9F       		.byte	0x9f
 10887 0b63 00000000 		.4byte	0
ARM GAS  C:\Users\25521\AppData\Local\Temp\ccDmagyc.s 			page 192


 10888 0b67 00000000 		.4byte	0
 10889              	.LLST99:
 10890 0b6b 00000000 		.4byte	.LVL226
 10891 0b6f 06000000 		.4byte	.LVL227
 10892 0b73 0100     		.2byte	0x1
 10893 0b75 50       		.byte	0x50
 10894 0b76 06000000 		.4byte	.LVL227
 10895 0b7a 28000000 		.4byte	.LVL231
 10896 0b7e 0100     		.2byte	0x1
 10897 0b80 54       		.byte	0x54
 10898 0b81 28000000 		.4byte	.LVL231
 10899 0b85 44000000 		.4byte	.LFE28
 10900 0b89 0400     		.2byte	0x4
 10901 0b8b F3       		.byte	0xf3
 10902 0b8c 01       		.uleb128 0x1
 10903 0b8d 50       		.byte	0x50
 10904 0b8e 9F       		.byte	0x9f
 10905 0b8f 00000000 		.4byte	0
 10906 0b93 00000000 		.4byte	0
 10907              	.LLST100:
 10908 0b97 00000000 		.4byte	.LVL235
 10909 0b9b 0F000000 		.4byte	.LVL236-1
 10910 0b9f 0100     		.2byte	0x1
 10911 0ba1 50       		.byte	0x50
 10912 0ba2 0F000000 		.4byte	.LVL236-1
 10913 0ba6 20000000 		.4byte	.LVL237
 10914 0baa 0100     		.2byte	0x1
 10915 0bac 55       		.byte	0x55
 10916 0bad 20000000 		.4byte	.LVL237
 10917 0bb1 23000000 		.4byte	.LVL238-1
 10918 0bb5 0100     		.2byte	0x1
 10919 0bb7 50       		.byte	0x50
 10920 0bb8 23000000 		.4byte	.LVL238-1
 10921 0bbc 24000000 		.4byte	.LVL238
 10922 0bc0 0400     		.2byte	0x4
 10923 0bc2 F3       		.byte	0xf3
 10924 0bc3 01       		.uleb128 0x1
 10925 0bc4 50       		.byte	0x50
 10926 0bc5 9F       		.byte	0x9f
 10927 0bc6 24000000 		.4byte	.LVL238
 10928 0bca 2C000000 		.4byte	.LFE27
 10929 0bce 0100     		.2byte	0x1
 10930 0bd0 55       		.byte	0x55
 10931 0bd1 00000000 		.4byte	0
 10932 0bd5 00000000 		.4byte	0
 10933              	.LLST97:
 10934 0bd9 00000000 		.4byte	.LVL218
 10935 0bdd 06000000 		.4byte	.LVL219
 10936 0be1 0100     		.2byte	0x1
 10937 0be3 50       		.byte	0x50
 10938 0be4 06000000 		.4byte	.LVL219
 10939 0be8 38000000 		.4byte	.LVL223
 10940 0bec 0100     		.2byte	0x1
 10941 0bee 54       		.byte	0x54
 10942 0bef 38000000 		.4byte	.LVL223
 10943 0bf3 3B000000 		.4byte	.LVL224-1
 10944 0bf7 0100     		.2byte	0x1
ARM GAS  C:\Users\25521\AppData\Local\Temp\ccDmagyc.s 			page 193


 10945 0bf9 50       		.byte	0x50
 10946 0bfa 3B000000 		.4byte	.LVL224-1
 10947 0bfe 3C000000 		.4byte	.LVL224
 10948 0c02 0400     		.2byte	0x4
 10949 0c04 F3       		.byte	0xf3
 10950 0c05 01       		.uleb128 0x1
 10951 0c06 50       		.byte	0x50
 10952 0c07 9F       		.byte	0x9f
 10953 0c08 3C000000 		.4byte	.LVL224
 10954 0c0c 44000000 		.4byte	.LFE26
 10955 0c10 0100     		.2byte	0x1
 10956 0c12 54       		.byte	0x54
 10957 0c13 00000000 		.4byte	0
 10958 0c17 00000000 		.4byte	0
 10959              	.LLST98:
 10960 0c1b 00000000 		.4byte	.LVL218
 10961 0c1f 1D000000 		.4byte	.LVL220-1
 10962 0c23 0100     		.2byte	0x1
 10963 0c25 51       		.byte	0x51
 10964 0c26 1D000000 		.4byte	.LVL220-1
 10965 0c2a 44000000 		.4byte	.LFE26
 10966 0c2e 0400     		.2byte	0x4
 10967 0c30 F3       		.byte	0xf3
 10968 0c31 01       		.uleb128 0x1
 10969 0c32 51       		.byte	0x51
 10970 0c33 9F       		.byte	0x9f
 10971 0c34 00000000 		.4byte	0
 10972 0c38 00000000 		.4byte	0
 10973              	.LLST90:
 10974 0c3c 00000000 		.4byte	.LVL208
 10975 0c40 0E000000 		.4byte	.LVL210
 10976 0c44 0100     		.2byte	0x1
 10977 0c46 50       		.byte	0x50
 10978 0c47 0E000000 		.4byte	.LVL210
 10979 0c4b 3C000000 		.4byte	.LVL215
 10980 0c4f 0100     		.2byte	0x1
 10981 0c51 54       		.byte	0x54
 10982 0c52 3C000000 		.4byte	.LVL215
 10983 0c56 3F000000 		.4byte	.LVL216-1
 10984 0c5a 0100     		.2byte	0x1
 10985 0c5c 50       		.byte	0x50
 10986 0c5d 3F000000 		.4byte	.LVL216-1
 10987 0c61 40000000 		.4byte	.LVL216
 10988 0c65 0400     		.2byte	0x4
 10989 0c67 F3       		.byte	0xf3
 10990 0c68 01       		.uleb128 0x1
 10991 0c69 50       		.byte	0x50
 10992 0c6a 9F       		.byte	0x9f
 10993 0c6b 40000000 		.4byte	.LVL216
 10994 0c6f 48000000 		.4byte	.LFE25
 10995 0c73 0100     		.2byte	0x1
 10996 0c75 54       		.byte	0x54
 10997 0c76 00000000 		.4byte	0
 10998 0c7a 00000000 		.4byte	0
 10999              	.LLST91:
 11000 0c7e 00000000 		.4byte	.LVL208
 11001 0c82 14000000 		.4byte	.LVL212
ARM GAS  C:\Users\25521\AppData\Local\Temp\ccDmagyc.s 			page 194


 11002 0c86 0100     		.2byte	0x1
 11003 0c88 51       		.byte	0x51
 11004 0c89 14000000 		.4byte	.LVL212
 11005 0c8d 1F000000 		.4byte	.LVL213-1
 11006 0c91 0200     		.2byte	0x2
 11007 0c93 74       		.byte	0x74
 11008 0c94 04       		.sleb128 4
 11009 0c95 1F000000 		.4byte	.LVL213-1
 11010 0c99 48000000 		.4byte	.LFE25
 11011 0c9d 0400     		.2byte	0x4
 11012 0c9f F3       		.byte	0xf3
 11013 0ca0 01       		.uleb128 0x1
 11014 0ca1 51       		.byte	0x51
 11015 0ca2 9F       		.byte	0x9f
 11016 0ca3 00000000 		.4byte	0
 11017 0ca7 00000000 		.4byte	0
 11018              	.LLST92:
 11019 0cab 00000000 		.4byte	.LVL208
 11020 0caf 1F000000 		.4byte	.LVL213-1
 11021 0cb3 0100     		.2byte	0x1
 11022 0cb5 52       		.byte	0x52
 11023 0cb6 1F000000 		.4byte	.LVL213-1
 11024 0cba 48000000 		.4byte	.LFE25
 11025 0cbe 0400     		.2byte	0x4
 11026 0cc0 F3       		.byte	0xf3
 11027 0cc1 01       		.uleb128 0x1
 11028 0cc2 52       		.byte	0x52
 11029 0cc3 9F       		.byte	0x9f
 11030 0cc4 00000000 		.4byte	0
 11031 0cc8 00000000 		.4byte	0
 11032              	.LLST93:
 11033 0ccc 00000000 		.4byte	.LVL208
 11034 0cd0 0C000000 		.4byte	.LVL209
 11035 0cd4 0100     		.2byte	0x1
 11036 0cd6 53       		.byte	0x53
 11037 0cd7 0C000000 		.4byte	.LVL209
 11038 0cdb 0E000000 		.4byte	.LVL210
 11039 0cdf 0200     		.2byte	0x2
 11040 0ce1 70       		.byte	0x70
 11041 0ce2 10       		.sleb128 16
 11042 0ce3 0E000000 		.4byte	.LVL210
 11043 0ce7 1F000000 		.4byte	.LVL213-1
 11044 0ceb 0200     		.2byte	0x2
 11045 0ced 74       		.byte	0x74
 11046 0cee 10       		.sleb128 16
 11047 0cef 1F000000 		.4byte	.LVL213-1
 11048 0cf3 48000000 		.4byte	.LFE25
 11049 0cf7 0400     		.2byte	0x4
 11050 0cf9 F3       		.byte	0xf3
 11051 0cfa 01       		.uleb128 0x1
 11052 0cfb 53       		.byte	0x53
 11053 0cfc 9F       		.byte	0x9f
 11054 0cfd 00000000 		.4byte	0
 11055 0d01 00000000 		.4byte	0
 11056              	.LLST94:
 11057 0d05 12000000 		.4byte	.LVL211
 11058 0d09 1F000000 		.4byte	.LVL213-1
ARM GAS  C:\Users\25521\AppData\Local\Temp\ccDmagyc.s 			page 195


 11059 0d0d 0100     		.2byte	0x1
 11060 0d0f 52       		.byte	0x52
 11061 0d10 1F000000 		.4byte	.LVL213-1
 11062 0d14 2C000000 		.4byte	.LVL214
 11063 0d18 0400     		.2byte	0x4
 11064 0d1a F3       		.byte	0xf3
 11065 0d1b 01       		.uleb128 0x1
 11066 0d1c 52       		.byte	0x52
 11067 0d1d 9F       		.byte	0x9f
 11068 0d1e 00000000 		.4byte	0
 11069 0d22 00000000 		.4byte	0
 11070              	.LLST95:
 11071 0d26 12000000 		.4byte	.LVL211
 11072 0d2a 14000000 		.4byte	.LVL212
 11073 0d2e 0100     		.2byte	0x1
 11074 0d30 51       		.byte	0x51
 11075 0d31 14000000 		.4byte	.LVL212
 11076 0d35 1F000000 		.4byte	.LVL213-1
 11077 0d39 0200     		.2byte	0x2
 11078 0d3b 74       		.byte	0x74
 11079 0d3c 04       		.sleb128 4
 11080 0d3d 1F000000 		.4byte	.LVL213-1
 11081 0d41 2C000000 		.4byte	.LVL214
 11082 0d45 0400     		.2byte	0x4
 11083 0d47 F3       		.byte	0xf3
 11084 0d48 01       		.uleb128 0x1
 11085 0d49 51       		.byte	0x51
 11086 0d4a 9F       		.byte	0x9f
 11087 0d4b 00000000 		.4byte	0
 11088 0d4f 00000000 		.4byte	0
 11089              	.LLST96:
 11090 0d53 12000000 		.4byte	.LVL211
 11091 0d57 2C000000 		.4byte	.LVL214
 11092 0d5b 0100     		.2byte	0x1
 11093 0d5d 54       		.byte	0x54
 11094 0d5e 00000000 		.4byte	0
 11095 0d62 00000000 		.4byte	0
 11096              	.LLST84:
 11097 0d66 00000000 		.4byte	.LVL201
 11098 0d6a 1D000000 		.4byte	.LVL204-1
 11099 0d6e 0100     		.2byte	0x1
 11100 0d70 50       		.byte	0x50
 11101 0d71 1D000000 		.4byte	.LVL204-1
 11102 0d75 34000000 		.4byte	.LVL205
 11103 0d79 0100     		.2byte	0x1
 11104 0d7b 54       		.byte	0x54
 11105 0d7c 34000000 		.4byte	.LVL205
 11106 0d80 37000000 		.4byte	.LVL206-1
 11107 0d84 0200     		.2byte	0x2
 11108 0d86 73       		.byte	0x73
 11109 0d87 14       		.sleb128 20
 11110 0d88 37000000 		.4byte	.LVL206-1
 11111 0d8c 38000000 		.4byte	.LVL206
 11112 0d90 0400     		.2byte	0x4
 11113 0d92 F3       		.byte	0xf3
 11114 0d93 01       		.uleb128 0x1
 11115 0d94 50       		.byte	0x50
ARM GAS  C:\Users\25521\AppData\Local\Temp\ccDmagyc.s 			page 196


 11116 0d95 9F       		.byte	0x9f
 11117 0d96 38000000 		.4byte	.LVL206
 11118 0d9a 40000000 		.4byte	.LFE24
 11119 0d9e 0100     		.2byte	0x1
 11120 0da0 54       		.byte	0x54
 11121 0da1 00000000 		.4byte	0
 11122 0da5 00000000 		.4byte	0
 11123              	.LLST85:
 11124 0da9 00000000 		.4byte	.LVL201
 11125 0dad 0E000000 		.4byte	.LVL202
 11126 0db1 0100     		.2byte	0x1
 11127 0db3 51       		.byte	0x51
 11128 0db4 0E000000 		.4byte	.LVL202
 11129 0db8 1D000000 		.4byte	.LVL204-1
 11130 0dbc 0200     		.2byte	0x2
 11131 0dbe 70       		.byte	0x70
 11132 0dbf 04       		.sleb128 4
 11133 0dc0 1D000000 		.4byte	.LVL204-1
 11134 0dc4 40000000 		.4byte	.LFE24
 11135 0dc8 0400     		.2byte	0x4
 11136 0dca F3       		.byte	0xf3
 11137 0dcb 01       		.uleb128 0x1
 11138 0dcc 51       		.byte	0x51
 11139 0dcd 9F       		.byte	0x9f
 11140 0dce 00000000 		.4byte	0
 11141 0dd2 00000000 		.4byte	0
 11142              	.LLST86:
 11143 0dd6 00000000 		.4byte	.LVL201
 11144 0dda 1D000000 		.4byte	.LVL204-1
 11145 0dde 0100     		.2byte	0x1
 11146 0de0 52       		.byte	0x52
 11147 0de1 1D000000 		.4byte	.LVL204-1
 11148 0de5 40000000 		.4byte	.LFE24
 11149 0de9 0400     		.2byte	0x4
 11150 0deb F3       		.byte	0xf3
 11151 0dec 01       		.uleb128 0x1
 11152 0ded 52       		.byte	0x52
 11153 0dee 9F       		.byte	0x9f
 11154 0def 00000000 		.4byte	0
 11155 0df3 00000000 		.4byte	0
 11156              	.LLST87:
 11157 0df7 10000000 		.4byte	.LVL203
 11158 0dfb 1D000000 		.4byte	.LVL204-1
 11159 0dff 0100     		.2byte	0x1
 11160 0e01 52       		.byte	0x52
 11161 0e02 1D000000 		.4byte	.LVL204-1
 11162 0e06 40000000 		.4byte	.LFE24
 11163 0e0a 0400     		.2byte	0x4
 11164 0e0c F3       		.byte	0xf3
 11165 0e0d 01       		.uleb128 0x1
 11166 0e0e 52       		.byte	0x52
 11167 0e0f 9F       		.byte	0x9f
 11168 0e10 00000000 		.4byte	0
 11169 0e14 00000000 		.4byte	0
 11170              	.LLST88:
 11171 0e18 10000000 		.4byte	.LVL203
 11172 0e1c 1D000000 		.4byte	.LVL204-1
ARM GAS  C:\Users\25521\AppData\Local\Temp\ccDmagyc.s 			page 197


 11173 0e20 0200     		.2byte	0x2
 11174 0e22 70       		.byte	0x70
 11175 0e23 04       		.sleb128 4
 11176 0e24 1D000000 		.4byte	.LVL204-1
 11177 0e28 40000000 		.4byte	.LFE24
 11178 0e2c 0400     		.2byte	0x4
 11179 0e2e F3       		.byte	0xf3
 11180 0e2f 01       		.uleb128 0x1
 11181 0e30 51       		.byte	0x51
 11182 0e31 9F       		.byte	0x9f
 11183 0e32 00000000 		.4byte	0
 11184 0e36 00000000 		.4byte	0
 11185              	.LLST89:
 11186 0e3a 10000000 		.4byte	.LVL203
 11187 0e3e 1D000000 		.4byte	.LVL204-1
 11188 0e42 0100     		.2byte	0x1
 11189 0e44 50       		.byte	0x50
 11190 0e45 1D000000 		.4byte	.LVL204-1
 11191 0e49 34000000 		.4byte	.LVL205
 11192 0e4d 0100     		.2byte	0x1
 11193 0e4f 54       		.byte	0x54
 11194 0e50 34000000 		.4byte	.LVL205
 11195 0e54 37000000 		.4byte	.LVL206-1
 11196 0e58 0200     		.2byte	0x2
 11197 0e5a 73       		.byte	0x73
 11198 0e5b 14       		.sleb128 20
 11199 0e5c 37000000 		.4byte	.LVL206-1
 11200 0e60 38000000 		.4byte	.LVL206
 11201 0e64 0400     		.2byte	0x4
 11202 0e66 F3       		.byte	0xf3
 11203 0e67 01       		.uleb128 0x1
 11204 0e68 50       		.byte	0x50
 11205 0e69 9F       		.byte	0x9f
 11206 0e6a 38000000 		.4byte	.LVL206
 11207 0e6e 40000000 		.4byte	.LFE24
 11208 0e72 0100     		.2byte	0x1
 11209 0e74 54       		.byte	0x54
 11210 0e75 00000000 		.4byte	0
 11211 0e79 00000000 		.4byte	0
 11212              	.LLST82:
 11213 0e7d 00000000 		.4byte	.LVL193
 11214 0e81 06000000 		.4byte	.LVL194
 11215 0e85 0100     		.2byte	0x1
 11216 0e87 50       		.byte	0x50
 11217 0e88 06000000 		.4byte	.LVL194
 11218 0e8c 38000000 		.4byte	.LVL198
 11219 0e90 0100     		.2byte	0x1
 11220 0e92 54       		.byte	0x54
 11221 0e93 38000000 		.4byte	.LVL198
 11222 0e97 3B000000 		.4byte	.LVL199-1
 11223 0e9b 0100     		.2byte	0x1
 11224 0e9d 50       		.byte	0x50
 11225 0e9e 3B000000 		.4byte	.LVL199-1
 11226 0ea2 3C000000 		.4byte	.LVL199
 11227 0ea6 0400     		.2byte	0x4
 11228 0ea8 F3       		.byte	0xf3
 11229 0ea9 01       		.uleb128 0x1
ARM GAS  C:\Users\25521\AppData\Local\Temp\ccDmagyc.s 			page 198


 11230 0eaa 50       		.byte	0x50
 11231 0eab 9F       		.byte	0x9f
 11232 0eac 3C000000 		.4byte	.LVL199
 11233 0eb0 44000000 		.4byte	.LFE23
 11234 0eb4 0100     		.2byte	0x1
 11235 0eb6 54       		.byte	0x54
 11236 0eb7 00000000 		.4byte	0
 11237 0ebb 00000000 		.4byte	0
 11238              	.LLST83:
 11239 0ebf 00000000 		.4byte	.LVL193
 11240 0ec3 1D000000 		.4byte	.LVL195-1
 11241 0ec7 0100     		.2byte	0x1
 11242 0ec9 51       		.byte	0x51
 11243 0eca 1D000000 		.4byte	.LVL195-1
 11244 0ece 38000000 		.4byte	.LVL198
 11245 0ed2 0100     		.2byte	0x1
 11246 0ed4 56       		.byte	0x56
 11247 0ed5 38000000 		.4byte	.LVL198
 11248 0ed9 3C000000 		.4byte	.LVL199
 11249 0edd 0400     		.2byte	0x4
 11250 0edf F3       		.byte	0xf3
 11251 0ee0 01       		.uleb128 0x1
 11252 0ee1 51       		.byte	0x51
 11253 0ee2 9F       		.byte	0x9f
 11254 0ee3 3C000000 		.4byte	.LVL199
 11255 0ee7 44000000 		.4byte	.LFE23
 11256 0eeb 0100     		.2byte	0x1
 11257 0eed 56       		.byte	0x56
 11258 0eee 00000000 		.4byte	0
 11259 0ef2 00000000 		.4byte	0
 11260              	.LLST80:
 11261 0ef6 00000000 		.4byte	.LVL179
 11262 0efa 06000000 		.4byte	.LVL180
 11263 0efe 0100     		.2byte	0x1
 11264 0f00 50       		.byte	0x50
 11265 0f01 06000000 		.4byte	.LVL180
 11266 0f05 28000000 		.4byte	.LVL184
 11267 0f09 0100     		.2byte	0x1
 11268 0f0b 54       		.byte	0x54
 11269 0f0c 28000000 		.4byte	.LVL184
 11270 0f10 44000000 		.4byte	.LFE22
 11271 0f14 0400     		.2byte	0x4
 11272 0f16 F3       		.byte	0xf3
 11273 0f17 01       		.uleb128 0x1
 11274 0f18 50       		.byte	0x50
 11275 0f19 9F       		.byte	0x9f
 11276 0f1a 00000000 		.4byte	0
 11277 0f1e 00000000 		.4byte	0
 11278              	.LLST81:
 11279 0f22 00000000 		.4byte	.LVL188
 11280 0f26 0F000000 		.4byte	.LVL189-1
 11281 0f2a 0100     		.2byte	0x1
 11282 0f2c 50       		.byte	0x50
 11283 0f2d 0F000000 		.4byte	.LVL189-1
 11284 0f31 20000000 		.4byte	.LVL190
 11285 0f35 0100     		.2byte	0x1
 11286 0f37 55       		.byte	0x55
ARM GAS  C:\Users\25521\AppData\Local\Temp\ccDmagyc.s 			page 199


 11287 0f38 20000000 		.4byte	.LVL190
 11288 0f3c 23000000 		.4byte	.LVL191-1
 11289 0f40 0100     		.2byte	0x1
 11290 0f42 50       		.byte	0x50
 11291 0f43 23000000 		.4byte	.LVL191-1
 11292 0f47 24000000 		.4byte	.LVL191
 11293 0f4b 0400     		.2byte	0x4
 11294 0f4d F3       		.byte	0xf3
 11295 0f4e 01       		.uleb128 0x1
 11296 0f4f 50       		.byte	0x50
 11297 0f50 9F       		.byte	0x9f
 11298 0f51 24000000 		.4byte	.LVL191
 11299 0f55 2C000000 		.4byte	.LFE21
 11300 0f59 0100     		.2byte	0x1
 11301 0f5b 55       		.byte	0x55
 11302 0f5c 00000000 		.4byte	0
 11303 0f60 00000000 		.4byte	0
 11304              	.LLST73:
 11305 0f64 00000000 		.4byte	.LVL169
 11306 0f68 0E000000 		.4byte	.LVL171
 11307 0f6c 0100     		.2byte	0x1
 11308 0f6e 50       		.byte	0x50
 11309 0f6f 0E000000 		.4byte	.LVL171
 11310 0f73 3C000000 		.4byte	.LVL176
 11311 0f77 0100     		.2byte	0x1
 11312 0f79 54       		.byte	0x54
 11313 0f7a 3C000000 		.4byte	.LVL176
 11314 0f7e 3F000000 		.4byte	.LVL177-1
 11315 0f82 0100     		.2byte	0x1
 11316 0f84 50       		.byte	0x50
 11317 0f85 3F000000 		.4byte	.LVL177-1
 11318 0f89 40000000 		.4byte	.LVL177
 11319 0f8d 0400     		.2byte	0x4
 11320 0f8f F3       		.byte	0xf3
 11321 0f90 01       		.uleb128 0x1
 11322 0f91 50       		.byte	0x50
 11323 0f92 9F       		.byte	0x9f
 11324 0f93 40000000 		.4byte	.LVL177
 11325 0f97 48000000 		.4byte	.LFE20
 11326 0f9b 0100     		.2byte	0x1
 11327 0f9d 54       		.byte	0x54
 11328 0f9e 00000000 		.4byte	0
 11329 0fa2 00000000 		.4byte	0
 11330              	.LLST74:
 11331 0fa6 00000000 		.4byte	.LVL169
 11332 0faa 14000000 		.4byte	.LVL173
 11333 0fae 0100     		.2byte	0x1
 11334 0fb0 51       		.byte	0x51
 11335 0fb1 14000000 		.4byte	.LVL173
 11336 0fb5 1F000000 		.4byte	.LVL174-1
 11337 0fb9 0200     		.2byte	0x2
 11338 0fbb 74       		.byte	0x74
 11339 0fbc 04       		.sleb128 4
 11340 0fbd 1F000000 		.4byte	.LVL174-1
 11341 0fc1 48000000 		.4byte	.LFE20
 11342 0fc5 0400     		.2byte	0x4
 11343 0fc7 F3       		.byte	0xf3
ARM GAS  C:\Users\25521\AppData\Local\Temp\ccDmagyc.s 			page 200


 11344 0fc8 01       		.uleb128 0x1
 11345 0fc9 51       		.byte	0x51
 11346 0fca 9F       		.byte	0x9f
 11347 0fcb 00000000 		.4byte	0
 11348 0fcf 00000000 		.4byte	0
 11349              	.LLST75:
 11350 0fd3 00000000 		.4byte	.LVL169
 11351 0fd7 1F000000 		.4byte	.LVL174-1
 11352 0fdb 0100     		.2byte	0x1
 11353 0fdd 52       		.byte	0x52
 11354 0fde 1F000000 		.4byte	.LVL174-1
 11355 0fe2 48000000 		.4byte	.LFE20
 11356 0fe6 0400     		.2byte	0x4
 11357 0fe8 F3       		.byte	0xf3
 11358 0fe9 01       		.uleb128 0x1
 11359 0fea 52       		.byte	0x52
 11360 0feb 9F       		.byte	0x9f
 11361 0fec 00000000 		.4byte	0
 11362 0ff0 00000000 		.4byte	0
 11363              	.LLST76:
 11364 0ff4 00000000 		.4byte	.LVL169
 11365 0ff8 0C000000 		.4byte	.LVL170
 11366 0ffc 0100     		.2byte	0x1
 11367 0ffe 53       		.byte	0x53
 11368 0fff 0C000000 		.4byte	.LVL170
 11369 1003 0E000000 		.4byte	.LVL171
 11370 1007 0200     		.2byte	0x2
 11371 1009 70       		.byte	0x70
 11372 100a 10       		.sleb128 16
 11373 100b 0E000000 		.4byte	.LVL171
 11374 100f 1F000000 		.4byte	.LVL174-1
 11375 1013 0200     		.2byte	0x2
 11376 1015 74       		.byte	0x74
 11377 1016 10       		.sleb128 16
 11378 1017 1F000000 		.4byte	.LVL174-1
 11379 101b 48000000 		.4byte	.LFE20
 11380 101f 0400     		.2byte	0x4
 11381 1021 F3       		.byte	0xf3
 11382 1022 01       		.uleb128 0x1
 11383 1023 53       		.byte	0x53
 11384 1024 9F       		.byte	0x9f
 11385 1025 00000000 		.4byte	0
 11386 1029 00000000 		.4byte	0
 11387              	.LLST77:
 11388 102d 12000000 		.4byte	.LVL172
 11389 1031 1F000000 		.4byte	.LVL174-1
 11390 1035 0100     		.2byte	0x1
 11391 1037 52       		.byte	0x52
 11392 1038 1F000000 		.4byte	.LVL174-1
 11393 103c 2C000000 		.4byte	.LVL175
 11394 1040 0400     		.2byte	0x4
 11395 1042 F3       		.byte	0xf3
 11396 1043 01       		.uleb128 0x1
 11397 1044 52       		.byte	0x52
 11398 1045 9F       		.byte	0x9f
 11399 1046 00000000 		.4byte	0
 11400 104a 00000000 		.4byte	0
ARM GAS  C:\Users\25521\AppData\Local\Temp\ccDmagyc.s 			page 201


 11401              	.LLST78:
 11402 104e 12000000 		.4byte	.LVL172
 11403 1052 14000000 		.4byte	.LVL173
 11404 1056 0100     		.2byte	0x1
 11405 1058 51       		.byte	0x51
 11406 1059 14000000 		.4byte	.LVL173
 11407 105d 1F000000 		.4byte	.LVL174-1
 11408 1061 0200     		.2byte	0x2
 11409 1063 74       		.byte	0x74
 11410 1064 04       		.sleb128 4
 11411 1065 1F000000 		.4byte	.LVL174-1
 11412 1069 2C000000 		.4byte	.LVL175
 11413 106d 0400     		.2byte	0x4
 11414 106f F3       		.byte	0xf3
 11415 1070 01       		.uleb128 0x1
 11416 1071 51       		.byte	0x51
 11417 1072 9F       		.byte	0x9f
 11418 1073 00000000 		.4byte	0
 11419 1077 00000000 		.4byte	0
 11420              	.LLST79:
 11421 107b 12000000 		.4byte	.LVL172
 11422 107f 2C000000 		.4byte	.LVL175
 11423 1083 0100     		.2byte	0x1
 11424 1085 54       		.byte	0x54
 11425 1086 00000000 		.4byte	0
 11426 108a 00000000 		.4byte	0
 11427              	.LLST67:
 11428 108e 00000000 		.4byte	.LVL162
 11429 1092 1D000000 		.4byte	.LVL165-1
 11430 1096 0100     		.2byte	0x1
 11431 1098 50       		.byte	0x50
 11432 1099 1D000000 		.4byte	.LVL165-1
 11433 109d 34000000 		.4byte	.LVL166
 11434 10a1 0100     		.2byte	0x1
 11435 10a3 54       		.byte	0x54
 11436 10a4 34000000 		.4byte	.LVL166
 11437 10a8 37000000 		.4byte	.LVL167-1
 11438 10ac 0200     		.2byte	0x2
 11439 10ae 73       		.byte	0x73
 11440 10af 14       		.sleb128 20
 11441 10b0 37000000 		.4byte	.LVL167-1
 11442 10b4 38000000 		.4byte	.LVL167
 11443 10b8 0400     		.2byte	0x4
 11444 10ba F3       		.byte	0xf3
 11445 10bb 01       		.uleb128 0x1
 11446 10bc 50       		.byte	0x50
 11447 10bd 9F       		.byte	0x9f
 11448 10be 38000000 		.4byte	.LVL167
 11449 10c2 40000000 		.4byte	.LFE19
 11450 10c6 0100     		.2byte	0x1
 11451 10c8 54       		.byte	0x54
 11452 10c9 00000000 		.4byte	0
 11453 10cd 00000000 		.4byte	0
 11454              	.LLST68:
 11455 10d1 00000000 		.4byte	.LVL162
 11456 10d5 0E000000 		.4byte	.LVL163
 11457 10d9 0100     		.2byte	0x1
ARM GAS  C:\Users\25521\AppData\Local\Temp\ccDmagyc.s 			page 202


 11458 10db 51       		.byte	0x51
 11459 10dc 0E000000 		.4byte	.LVL163
 11460 10e0 1D000000 		.4byte	.LVL165-1
 11461 10e4 0200     		.2byte	0x2
 11462 10e6 70       		.byte	0x70
 11463 10e7 04       		.sleb128 4
 11464 10e8 1D000000 		.4byte	.LVL165-1
 11465 10ec 40000000 		.4byte	.LFE19
 11466 10f0 0400     		.2byte	0x4
 11467 10f2 F3       		.byte	0xf3
 11468 10f3 01       		.uleb128 0x1
 11469 10f4 51       		.byte	0x51
 11470 10f5 9F       		.byte	0x9f
 11471 10f6 00000000 		.4byte	0
 11472 10fa 00000000 		.4byte	0
 11473              	.LLST69:
 11474 10fe 00000000 		.4byte	.LVL162
 11475 1102 1D000000 		.4byte	.LVL165-1
 11476 1106 0100     		.2byte	0x1
 11477 1108 52       		.byte	0x52
 11478 1109 1D000000 		.4byte	.LVL165-1
 11479 110d 40000000 		.4byte	.LFE19
 11480 1111 0400     		.2byte	0x4
 11481 1113 F3       		.byte	0xf3
 11482 1114 01       		.uleb128 0x1
 11483 1115 52       		.byte	0x52
 11484 1116 9F       		.byte	0x9f
 11485 1117 00000000 		.4byte	0
 11486 111b 00000000 		.4byte	0
 11487              	.LLST70:
 11488 111f 10000000 		.4byte	.LVL164
 11489 1123 1D000000 		.4byte	.LVL165-1
 11490 1127 0100     		.2byte	0x1
 11491 1129 52       		.byte	0x52
 11492 112a 1D000000 		.4byte	.LVL165-1
 11493 112e 40000000 		.4byte	.LFE19
 11494 1132 0400     		.2byte	0x4
 11495 1134 F3       		.byte	0xf3
 11496 1135 01       		.uleb128 0x1
 11497 1136 52       		.byte	0x52
 11498 1137 9F       		.byte	0x9f
 11499 1138 00000000 		.4byte	0
 11500 113c 00000000 		.4byte	0
 11501              	.LLST71:
 11502 1140 10000000 		.4byte	.LVL164
 11503 1144 1D000000 		.4byte	.LVL165-1
 11504 1148 0200     		.2byte	0x2
 11505 114a 70       		.byte	0x70
 11506 114b 04       		.sleb128 4
 11507 114c 1D000000 		.4byte	.LVL165-1
 11508 1150 40000000 		.4byte	.LFE19
 11509 1154 0400     		.2byte	0x4
 11510 1156 F3       		.byte	0xf3
 11511 1157 01       		.uleb128 0x1
 11512 1158 51       		.byte	0x51
 11513 1159 9F       		.byte	0x9f
 11514 115a 00000000 		.4byte	0
ARM GAS  C:\Users\25521\AppData\Local\Temp\ccDmagyc.s 			page 203


 11515 115e 00000000 		.4byte	0
 11516              	.LLST72:
 11517 1162 10000000 		.4byte	.LVL164
 11518 1166 1D000000 		.4byte	.LVL165-1
 11519 116a 0100     		.2byte	0x1
 11520 116c 50       		.byte	0x50
 11521 116d 1D000000 		.4byte	.LVL165-1
 11522 1171 34000000 		.4byte	.LVL166
 11523 1175 0100     		.2byte	0x1
 11524 1177 54       		.byte	0x54
 11525 1178 34000000 		.4byte	.LVL166
 11526 117c 37000000 		.4byte	.LVL167-1
 11527 1180 0200     		.2byte	0x2
 11528 1182 73       		.byte	0x73
 11529 1183 14       		.sleb128 20
 11530 1184 37000000 		.4byte	.LVL167-1
 11531 1188 38000000 		.4byte	.LVL167
 11532 118c 0400     		.2byte	0x4
 11533 118e F3       		.byte	0xf3
 11534 118f 01       		.uleb128 0x1
 11535 1190 50       		.byte	0x50
 11536 1191 9F       		.byte	0x9f
 11537 1192 38000000 		.4byte	.LVL167
 11538 1196 40000000 		.4byte	.LFE19
 11539 119a 0100     		.2byte	0x1
 11540 119c 54       		.byte	0x54
 11541 119d 00000000 		.4byte	0
 11542 11a1 00000000 		.4byte	0
 11543              	.LLST65:
 11544 11a5 00000000 		.4byte	.LVL153
 11545 11a9 0A000000 		.4byte	.LVL154
 11546 11ad 0100     		.2byte	0x1
 11547 11af 50       		.byte	0x50
 11548 11b0 0A000000 		.4byte	.LVL154
 11549 11b4 44000000 		.4byte	.LVL159
 11550 11b8 0100     		.2byte	0x1
 11551 11ba 54       		.byte	0x54
 11552 11bb 44000000 		.4byte	.LVL159
 11553 11bf 47000000 		.4byte	.LVL160-1
 11554 11c3 0100     		.2byte	0x1
 11555 11c5 50       		.byte	0x50
 11556 11c6 47000000 		.4byte	.LVL160-1
 11557 11ca 48000000 		.4byte	.LVL160
 11558 11ce 0400     		.2byte	0x4
 11559 11d0 F3       		.byte	0xf3
 11560 11d1 01       		.uleb128 0x1
 11561 11d2 50       		.byte	0x50
 11562 11d3 9F       		.byte	0x9f
 11563 11d4 48000000 		.4byte	.LVL160
 11564 11d8 50000000 		.4byte	.LFE18
 11565 11dc 0100     		.2byte	0x1
 11566 11de 54       		.byte	0x54
 11567 11df 00000000 		.4byte	0
 11568 11e3 00000000 		.4byte	0
 11569              	.LLST66:
 11570 11e7 00000000 		.4byte	.LVL153
 11571 11eb 23000000 		.4byte	.LVL155-1
ARM GAS  C:\Users\25521\AppData\Local\Temp\ccDmagyc.s 			page 204


 11572 11ef 0200     		.2byte	0x2
 11573 11f1 90       		.byte	0x90
 11574 11f2 40       		.uleb128 0x40
 11575 11f3 23000000 		.4byte	.LVL155-1
 11576 11f7 40000000 		.4byte	.LVL158
 11577 11fb 0200     		.2byte	0x2
 11578 11fd 90       		.byte	0x90
 11579 11fe 50       		.uleb128 0x50
 11580 11ff 40000000 		.4byte	.LVL158
 11581 1203 48000000 		.4byte	.LVL160
 11582 1207 0600     		.2byte	0x6
 11583 1209 F3       		.byte	0xf3
 11584 120a 03       		.uleb128 0x3
 11585 120b F5       		.byte	0xf5
 11586 120c 40       		.uleb128 0x40
 11587 120d 25       		.uleb128 0x25
 11588 120e 9F       		.byte	0x9f
 11589 120f 48000000 		.4byte	.LVL160
 11590 1213 50000000 		.4byte	.LFE18
 11591 1217 0200     		.2byte	0x2
 11592 1219 90       		.byte	0x90
 11593 121a 50       		.uleb128 0x50
 11594 121b 00000000 		.4byte	0
 11595 121f 00000000 		.4byte	0
 11596              	.LLST62:
 11597 1223 00000000 		.4byte	.LVL138
 11598 1227 0A000000 		.4byte	.LVL139
 11599 122b 0100     		.2byte	0x1
 11600 122d 50       		.byte	0x50
 11601 122e 0A000000 		.4byte	.LVL139
 11602 1232 50000000 		.4byte	.LFE17
 11603 1236 0100     		.2byte	0x1
 11604 1238 54       		.byte	0x54
 11605 1239 00000000 		.4byte	0
 11606 123d 00000000 		.4byte	0
 11607              	.LLST63:
 11608 1241 2E000000 		.4byte	.LVL143
 11609 1245 44000000 		.4byte	.LVL145
 11610 1249 0200     		.2byte	0x2
 11611 124b 90       		.byte	0x90
 11612 124c 50       		.uleb128 0x50
 11613 124d 44000000 		.4byte	.LVL145
 11614 1251 46000000 		.4byte	.LVL146
 11615 1255 0200     		.2byte	0x2
 11616 1257 90       		.byte	0x90
 11617 1258 40       		.uleb128 0x40
 11618 1259 46000000 		.4byte	.LVL146
 11619 125d 50000000 		.4byte	.LFE17
 11620 1261 0200     		.2byte	0x2
 11621 1263 90       		.byte	0x90
 11622 1264 50       		.uleb128 0x50
 11623 1265 00000000 		.4byte	0
 11624 1269 00000000 		.4byte	0
 11625              	.LLST64:
 11626 126d 00000000 		.4byte	.LVL148
 11627 1271 0F000000 		.4byte	.LVL149-1
 11628 1275 0100     		.2byte	0x1
ARM GAS  C:\Users\25521\AppData\Local\Temp\ccDmagyc.s 			page 205


 11629 1277 50       		.byte	0x50
 11630 1278 0F000000 		.4byte	.LVL149-1
 11631 127c 20000000 		.4byte	.LVL150
 11632 1280 0100     		.2byte	0x1
 11633 1282 55       		.byte	0x55
 11634 1283 20000000 		.4byte	.LVL150
 11635 1287 23000000 		.4byte	.LVL151-1
 11636 128b 0100     		.2byte	0x1
 11637 128d 50       		.byte	0x50
 11638 128e 23000000 		.4byte	.LVL151-1
 11639 1292 24000000 		.4byte	.LVL151
 11640 1296 0400     		.2byte	0x4
 11641 1298 F3       		.byte	0xf3
 11642 1299 01       		.uleb128 0x1
 11643 129a 50       		.byte	0x50
 11644 129b 9F       		.byte	0x9f
 11645 129c 24000000 		.4byte	.LVL151
 11646 12a0 2C000000 		.4byte	.LFE16
 11647 12a4 0100     		.2byte	0x1
 11648 12a6 55       		.byte	0x55
 11649 12a7 00000000 		.4byte	0
 11650 12ab 00000000 		.4byte	0
 11651              	.LLST55:
 11652 12af 00000000 		.4byte	.LVL129
 11653 12b3 10000000 		.4byte	.LVL130
 11654 12b7 0100     		.2byte	0x1
 11655 12b9 50       		.byte	0x50
 11656 12ba 10000000 		.4byte	.LVL130
 11657 12be 3E000000 		.4byte	.LVL135
 11658 12c2 0100     		.2byte	0x1
 11659 12c4 54       		.byte	0x54
 11660 12c5 3E000000 		.4byte	.LVL135
 11661 12c9 41000000 		.4byte	.LVL136-1
 11662 12cd 0100     		.2byte	0x1
 11663 12cf 50       		.byte	0x50
 11664 12d0 41000000 		.4byte	.LVL136-1
 11665 12d4 42000000 		.4byte	.LVL136
 11666 12d8 0400     		.2byte	0x4
 11667 12da F3       		.byte	0xf3
 11668 12db 01       		.uleb128 0x1
 11669 12dc 50       		.byte	0x50
 11670 12dd 9F       		.byte	0x9f
 11671 12de 42000000 		.4byte	.LVL136
 11672 12e2 4C000000 		.4byte	.LFE15
 11673 12e6 0100     		.2byte	0x1
 11674 12e8 54       		.byte	0x54
 11675 12e9 00000000 		.4byte	0
 11676 12ed 00000000 		.4byte	0
 11677              	.LLST56:
 11678 12f1 00000000 		.4byte	.LVL129
 11679 12f5 16000000 		.4byte	.LVL132
 11680 12f9 0100     		.2byte	0x1
 11681 12fb 51       		.byte	0x51
 11682 12fc 16000000 		.4byte	.LVL132
 11683 1300 21000000 		.4byte	.LVL133-1
 11684 1304 0200     		.2byte	0x2
 11685 1306 74       		.byte	0x74
ARM GAS  C:\Users\25521\AppData\Local\Temp\ccDmagyc.s 			page 206


 11686 1307 04       		.sleb128 4
 11687 1308 21000000 		.4byte	.LVL133-1
 11688 130c 4C000000 		.4byte	.LFE15
 11689 1310 0400     		.2byte	0x4
 11690 1312 F3       		.byte	0xf3
 11691 1313 01       		.uleb128 0x1
 11692 1314 51       		.byte	0x51
 11693 1315 9F       		.byte	0x9f
 11694 1316 00000000 		.4byte	0
 11695 131a 00000000 		.4byte	0
 11696              	.LLST57:
 11697 131e 00000000 		.4byte	.LVL129
 11698 1322 21000000 		.4byte	.LVL133-1
 11699 1326 0100     		.2byte	0x1
 11700 1328 52       		.byte	0x52
 11701 1329 21000000 		.4byte	.LVL133-1
 11702 132d 4C000000 		.4byte	.LFE15
 11703 1331 0400     		.2byte	0x4
 11704 1333 F3       		.byte	0xf3
 11705 1334 01       		.uleb128 0x1
 11706 1335 52       		.byte	0x52
 11707 1336 9F       		.byte	0x9f
 11708 1337 00000000 		.4byte	0
 11709 133b 00000000 		.4byte	0
 11710              	.LLST58:
 11711 133f 00000000 		.4byte	.LVL129
 11712 1343 21000000 		.4byte	.LVL133-1
 11713 1347 0200     		.2byte	0x2
 11714 1349 90       		.byte	0x90
 11715 134a 40       		.uleb128 0x40
 11716 134b 21000000 		.4byte	.LVL133-1
 11717 134f 4C000000 		.4byte	.LFE15
 11718 1353 0600     		.2byte	0x6
 11719 1355 F3       		.byte	0xf3
 11720 1356 03       		.uleb128 0x3
 11721 1357 F5       		.byte	0xf5
 11722 1358 40       		.uleb128 0x40
 11723 1359 25       		.uleb128 0x25
 11724 135a 9F       		.byte	0x9f
 11725 135b 00000000 		.4byte	0
 11726 135f 00000000 		.4byte	0
 11727              	.LLST59:
 11728 1363 14000000 		.4byte	.LVL131
 11729 1367 21000000 		.4byte	.LVL133-1
 11730 136b 0100     		.2byte	0x1
 11731 136d 52       		.byte	0x52
 11732 136e 21000000 		.4byte	.LVL133-1
 11733 1372 2E000000 		.4byte	.LVL134
 11734 1376 0400     		.2byte	0x4
 11735 1378 F3       		.byte	0xf3
 11736 1379 01       		.uleb128 0x1
 11737 137a 52       		.byte	0x52
 11738 137b 9F       		.byte	0x9f
 11739 137c 00000000 		.4byte	0
 11740 1380 00000000 		.4byte	0
 11741              	.LLST60:
 11742 1384 14000000 		.4byte	.LVL131
ARM GAS  C:\Users\25521\AppData\Local\Temp\ccDmagyc.s 			page 207


 11743 1388 16000000 		.4byte	.LVL132
 11744 138c 0100     		.2byte	0x1
 11745 138e 51       		.byte	0x51
 11746 138f 16000000 		.4byte	.LVL132
 11747 1393 21000000 		.4byte	.LVL133-1
 11748 1397 0200     		.2byte	0x2
 11749 1399 74       		.byte	0x74
 11750 139a 04       		.sleb128 4
 11751 139b 21000000 		.4byte	.LVL133-1
 11752 139f 2E000000 		.4byte	.LVL134
 11753 13a3 0400     		.2byte	0x4
 11754 13a5 F3       		.byte	0xf3
 11755 13a6 01       		.uleb128 0x1
 11756 13a7 51       		.byte	0x51
 11757 13a8 9F       		.byte	0x9f
 11758 13a9 00000000 		.4byte	0
 11759 13ad 00000000 		.4byte	0
 11760              	.LLST61:
 11761 13b1 14000000 		.4byte	.LVL131
 11762 13b5 2E000000 		.4byte	.LVL134
 11763 13b9 0100     		.2byte	0x1
 11764 13bb 54       		.byte	0x54
 11765 13bc 00000000 		.4byte	0
 11766 13c0 00000000 		.4byte	0
 11767              	.LLST49:
 11768 13c4 00000000 		.4byte	.LVL122
 11769 13c8 1D000000 		.4byte	.LVL125-1
 11770 13cc 0100     		.2byte	0x1
 11771 13ce 50       		.byte	0x50
 11772 13cf 1D000000 		.4byte	.LVL125-1
 11773 13d3 34000000 		.4byte	.LVL126
 11774 13d7 0100     		.2byte	0x1
 11775 13d9 54       		.byte	0x54
 11776 13da 34000000 		.4byte	.LVL126
 11777 13de 37000000 		.4byte	.LVL127-1
 11778 13e2 0200     		.2byte	0x2
 11779 13e4 73       		.byte	0x73
 11780 13e5 14       		.sleb128 20
 11781 13e6 37000000 		.4byte	.LVL127-1
 11782 13ea 38000000 		.4byte	.LVL127
 11783 13ee 0400     		.2byte	0x4
 11784 13f0 F3       		.byte	0xf3
 11785 13f1 01       		.uleb128 0x1
 11786 13f2 50       		.byte	0x50
 11787 13f3 9F       		.byte	0x9f
 11788 13f4 38000000 		.4byte	.LVL127
 11789 13f8 40000000 		.4byte	.LFE14
 11790 13fc 0100     		.2byte	0x1
 11791 13fe 54       		.byte	0x54
 11792 13ff 00000000 		.4byte	0
 11793 1403 00000000 		.4byte	0
 11794              	.LLST50:
 11795 1407 00000000 		.4byte	.LVL122
 11796 140b 0E000000 		.4byte	.LVL123
 11797 140f 0100     		.2byte	0x1
 11798 1411 51       		.byte	0x51
 11799 1412 0E000000 		.4byte	.LVL123
ARM GAS  C:\Users\25521\AppData\Local\Temp\ccDmagyc.s 			page 208


 11800 1416 1D000000 		.4byte	.LVL125-1
 11801 141a 0200     		.2byte	0x2
 11802 141c 70       		.byte	0x70
 11803 141d 04       		.sleb128 4
 11804 141e 1D000000 		.4byte	.LVL125-1
 11805 1422 40000000 		.4byte	.LFE14
 11806 1426 0400     		.2byte	0x4
 11807 1428 F3       		.byte	0xf3
 11808 1429 01       		.uleb128 0x1
 11809 142a 51       		.byte	0x51
 11810 142b 9F       		.byte	0x9f
 11811 142c 00000000 		.4byte	0
 11812 1430 00000000 		.4byte	0
 11813              	.LLST51:
 11814 1434 00000000 		.4byte	.LVL122
 11815 1438 1D000000 		.4byte	.LVL125-1
 11816 143c 0100     		.2byte	0x1
 11817 143e 52       		.byte	0x52
 11818 143f 1D000000 		.4byte	.LVL125-1
 11819 1443 40000000 		.4byte	.LFE14
 11820 1447 0400     		.2byte	0x4
 11821 1449 F3       		.byte	0xf3
 11822 144a 01       		.uleb128 0x1
 11823 144b 52       		.byte	0x52
 11824 144c 9F       		.byte	0x9f
 11825 144d 00000000 		.4byte	0
 11826 1451 00000000 		.4byte	0
 11827              	.LLST52:
 11828 1455 10000000 		.4byte	.LVL124
 11829 1459 1D000000 		.4byte	.LVL125-1
 11830 145d 0100     		.2byte	0x1
 11831 145f 52       		.byte	0x52
 11832 1460 1D000000 		.4byte	.LVL125-1
 11833 1464 40000000 		.4byte	.LFE14
 11834 1468 0400     		.2byte	0x4
 11835 146a F3       		.byte	0xf3
 11836 146b 01       		.uleb128 0x1
 11837 146c 52       		.byte	0x52
 11838 146d 9F       		.byte	0x9f
 11839 146e 00000000 		.4byte	0
 11840 1472 00000000 		.4byte	0
 11841              	.LLST53:
 11842 1476 10000000 		.4byte	.LVL124
 11843 147a 1D000000 		.4byte	.LVL125-1
 11844 147e 0200     		.2byte	0x2
 11845 1480 70       		.byte	0x70
 11846 1481 04       		.sleb128 4
 11847 1482 1D000000 		.4byte	.LVL125-1
 11848 1486 40000000 		.4byte	.LFE14
 11849 148a 0400     		.2byte	0x4
 11850 148c F3       		.byte	0xf3
 11851 148d 01       		.uleb128 0x1
 11852 148e 51       		.byte	0x51
 11853 148f 9F       		.byte	0x9f
 11854 1490 00000000 		.4byte	0
 11855 1494 00000000 		.4byte	0
 11856              	.LLST54:
ARM GAS  C:\Users\25521\AppData\Local\Temp\ccDmagyc.s 			page 209


 11857 1498 10000000 		.4byte	.LVL124
 11858 149c 1D000000 		.4byte	.LVL125-1
 11859 14a0 0100     		.2byte	0x1
 11860 14a2 50       		.byte	0x50
 11861 14a3 1D000000 		.4byte	.LVL125-1
 11862 14a7 34000000 		.4byte	.LVL126
 11863 14ab 0100     		.2byte	0x1
 11864 14ad 54       		.byte	0x54
 11865 14ae 34000000 		.4byte	.LVL126
 11866 14b2 37000000 		.4byte	.LVL127-1
 11867 14b6 0200     		.2byte	0x2
 11868 14b8 73       		.byte	0x73
 11869 14b9 14       		.sleb128 20
 11870 14ba 37000000 		.4byte	.LVL127-1
 11871 14be 38000000 		.4byte	.LVL127
 11872 14c2 0400     		.2byte	0x4
 11873 14c4 F3       		.byte	0xf3
 11874 14c5 01       		.uleb128 0x1
 11875 14c6 50       		.byte	0x50
 11876 14c7 9F       		.byte	0x9f
 11877 14c8 38000000 		.4byte	.LVL127
 11878 14cc 40000000 		.4byte	.LFE14
 11879 14d0 0100     		.2byte	0x1
 11880 14d2 54       		.byte	0x54
 11881 14d3 00000000 		.4byte	0
 11882 14d7 00000000 		.4byte	0
 11883              	.LLST40:
 11884 14db 00000000 		.4byte	.LVL93
 11885 14df 11000000 		.4byte	.LVL94-1
 11886 14e3 0100     		.2byte	0x1
 11887 14e5 50       		.byte	0x50
 11888 14e6 11000000 		.4byte	.LVL94-1
 11889 14ea 14000000 		.4byte	.LVL95
 11890 14ee 0100     		.2byte	0x1
 11891 14f0 54       		.byte	0x54
 11892 14f1 14000000 		.4byte	.LVL95
 11893 14f5 30000000 		.4byte	.LFE11
 11894 14f9 0400     		.2byte	0x4
 11895 14fb F3       		.byte	0xf3
 11896 14fc 01       		.uleb128 0x1
 11897 14fd 50       		.byte	0x50
 11898 14fe 9F       		.byte	0x9f
 11899 14ff 00000000 		.4byte	0
 11900 1503 00000000 		.4byte	0
 11901              	.LLST41:
 11902 1507 14000000 		.4byte	.LVL95
 11903 150b 18000000 		.4byte	.LVL96
 11904 150f 0100     		.2byte	0x1
 11905 1511 54       		.byte	0x54
 11906 1512 00000000 		.4byte	0
 11907 1516 00000000 		.4byte	0
 11908              	.LLST39:
 11909 151a 00000000 		.4byte	.LVL87
 11910 151e 0F000000 		.4byte	.LVL88-1
 11911 1522 0100     		.2byte	0x1
 11912 1524 50       		.byte	0x50
 11913 1525 0F000000 		.4byte	.LVL88-1
ARM GAS  C:\Users\25521\AppData\Local\Temp\ccDmagyc.s 			page 210


 11914 1529 12000000 		.4byte	.LVL89
 11915 152d 0100     		.2byte	0x1
 11916 152f 55       		.byte	0x55
 11917 1530 12000000 		.4byte	.LVL89
 11918 1534 2C000000 		.4byte	.LFE10
 11919 1538 0400     		.2byte	0x4
 11920 153a F3       		.byte	0xf3
 11921 153b 01       		.uleb128 0x1
 11922 153c 50       		.byte	0x50
 11923 153d 9F       		.byte	0x9f
 11924 153e 00000000 		.4byte	0
 11925 1542 00000000 		.4byte	0
 11926              	.LLST38:
 11927 1546 00000000 		.4byte	.LVL81
 11928 154a 0F000000 		.4byte	.LVL82-1
 11929 154e 0100     		.2byte	0x1
 11930 1550 50       		.byte	0x50
 11931 1551 0F000000 		.4byte	.LVL82-1
 11932 1555 12000000 		.4byte	.LVL83
 11933 1559 0100     		.2byte	0x1
 11934 155b 55       		.byte	0x55
 11935 155c 12000000 		.4byte	.LVL83
 11936 1560 30000000 		.4byte	.LFE9
 11937 1564 0400     		.2byte	0x4
 11938 1566 F3       		.byte	0xf3
 11939 1567 01       		.uleb128 0x1
 11940 1568 50       		.byte	0x50
 11941 1569 9F       		.byte	0x9f
 11942 156a 00000000 		.4byte	0
 11943 156e 00000000 		.4byte	0
 11944              	.LLST33:
 11945 1572 00000000 		.4byte	.LVL69
 11946 1576 0E000000 		.4byte	.LVL70
 11947 157a 0100     		.2byte	0x1
 11948 157c 50       		.byte	0x50
 11949 157d 0E000000 		.4byte	.LVL70
 11950 1581 28000000 		.4byte	.LVL72
 11951 1585 0100     		.2byte	0x1
 11952 1587 56       		.byte	0x56
 11953 1588 28000000 		.4byte	.LVL72
 11954 158c 2B000000 		.4byte	.LVL73-1
 11955 1590 0100     		.2byte	0x1
 11956 1592 50       		.byte	0x50
 11957 1593 2B000000 		.4byte	.LVL73-1
 11958 1597 2C000000 		.4byte	.LVL73
 11959 159b 0400     		.2byte	0x4
 11960 159d F3       		.byte	0xf3
 11961 159e 01       		.uleb128 0x1
 11962 159f 50       		.byte	0x50
 11963 15a0 9F       		.byte	0x9f
 11964 15a1 2C000000 		.4byte	.LVL73
 11965 15a5 34000000 		.4byte	.LFE7
 11966 15a9 0100     		.2byte	0x1
 11967 15ab 56       		.byte	0x56
 11968 15ac 00000000 		.4byte	0
 11969 15b0 00000000 		.4byte	0
 11970              	.LLST34:
ARM GAS  C:\Users\25521\AppData\Local\Temp\ccDmagyc.s 			page 211


 11971 15b4 00000000 		.4byte	.LVL69
 11972 15b8 13000000 		.4byte	.LVL71-1
 11973 15bc 0100     		.2byte	0x1
 11974 15be 51       		.byte	0x51
 11975 15bf 13000000 		.4byte	.LVL71-1
 11976 15c3 28000000 		.4byte	.LVL72
 11977 15c7 0100     		.2byte	0x1
 11978 15c9 55       		.byte	0x55
 11979 15ca 28000000 		.4byte	.LVL72
 11980 15ce 2B000000 		.4byte	.LVL73-1
 11981 15d2 0100     		.2byte	0x1
 11982 15d4 51       		.byte	0x51
 11983 15d5 2B000000 		.4byte	.LVL73-1
 11984 15d9 2C000000 		.4byte	.LVL73
 11985 15dd 0400     		.2byte	0x4
 11986 15df F3       		.byte	0xf3
 11987 15e0 01       		.uleb128 0x1
 11988 15e1 51       		.byte	0x51
 11989 15e2 9F       		.byte	0x9f
 11990 15e3 2C000000 		.4byte	.LVL73
 11991 15e7 34000000 		.4byte	.LFE7
 11992 15eb 0100     		.2byte	0x1
 11993 15ed 55       		.byte	0x55
 11994 15ee 00000000 		.4byte	0
 11995 15f2 00000000 		.4byte	0
 11996              	.LLST19:
 11997 15f6 00000000 		.4byte	.LVL40
 11998 15fa 1A000000 		.4byte	.LVL42
 11999 15fe 0100     		.2byte	0x1
 12000 1600 50       		.byte	0x50
 12001 1601 1A000000 		.4byte	.LVL42
 12002 1605 CC000000 		.4byte	.LFE6
 12003 1609 0400     		.2byte	0x4
 12004 160b F3       		.byte	0xf3
 12005 160c 01       		.uleb128 0x1
 12006 160d 50       		.byte	0x50
 12007 160e 9F       		.byte	0x9f
 12008 160f 00000000 		.4byte	0
 12009 1613 00000000 		.4byte	0
 12010              	.LLST20:
 12011 1617 00000000 		.4byte	.LVL40
 12012 161b 1A000000 		.4byte	.LVL42
 12013 161f 0100     		.2byte	0x1
 12014 1621 51       		.byte	0x51
 12015 1622 1A000000 		.4byte	.LVL42
 12016 1626 66000000 		.4byte	.LVL51
 12017 162a 0100     		.2byte	0x1
 12018 162c 59       		.byte	0x59
 12019 162d 66000000 		.4byte	.LVL51
 12020 1631 7A000000 		.4byte	.LVL52
 12021 1635 0400     		.2byte	0x4
 12022 1637 F3       		.byte	0xf3
 12023 1638 01       		.uleb128 0x1
 12024 1639 51       		.byte	0x51
 12025 163a 9F       		.byte	0x9f
 12026 163b 7A000000 		.4byte	.LVL52
 12027 163f C4000000 		.4byte	.LVL67
ARM GAS  C:\Users\25521\AppData\Local\Temp\ccDmagyc.s 			page 212


 12028 1643 0100     		.2byte	0x1
 12029 1645 59       		.byte	0x59
 12030 1646 C4000000 		.4byte	.LVL67
 12031 164a CC000000 		.4byte	.LFE6
 12032 164e 0400     		.2byte	0x4
 12033 1650 F3       		.byte	0xf3
 12034 1651 01       		.uleb128 0x1
 12035 1652 51       		.byte	0x51
 12036 1653 9F       		.byte	0x9f
 12037 1654 00000000 		.4byte	0
 12038 1658 00000000 		.4byte	0
 12039              	.LLST21:
 12040 165c 00000000 		.4byte	.LVL40
 12041 1660 1A000000 		.4byte	.LVL42
 12042 1664 0100     		.2byte	0x1
 12043 1666 52       		.byte	0x52
 12044 1667 1A000000 		.4byte	.LVL42
 12045 166b 66000000 		.4byte	.LVL51
 12046 166f 0100     		.2byte	0x1
 12047 1671 57       		.byte	0x57
 12048 1672 66000000 		.4byte	.LVL51
 12049 1676 7A000000 		.4byte	.LVL52
 12050 167a 0400     		.2byte	0x4
 12051 167c F3       		.byte	0xf3
 12052 167d 01       		.uleb128 0x1
 12053 167e 52       		.byte	0x52
 12054 167f 9F       		.byte	0x9f
 12055 1680 7A000000 		.4byte	.LVL52
 12056 1684 A0000000 		.4byte	.LVL63
 12057 1688 0100     		.2byte	0x1
 12058 168a 57       		.byte	0x57
 12059 168b A0000000 		.4byte	.LVL63
 12060 168f BC000000 		.4byte	.LVL66
 12061 1693 0400     		.2byte	0x4
 12062 1695 F3       		.byte	0xf3
 12063 1696 01       		.uleb128 0x1
 12064 1697 52       		.byte	0x52
 12065 1698 9F       		.byte	0x9f
 12066 1699 BC000000 		.4byte	.LVL66
 12067 169d C4000000 		.4byte	.LVL67
 12068 16a1 0100     		.2byte	0x1
 12069 16a3 57       		.byte	0x57
 12070 16a4 C4000000 		.4byte	.LVL67
 12071 16a8 CC000000 		.4byte	.LFE6
 12072 16ac 0400     		.2byte	0x4
 12073 16ae F3       		.byte	0xf3
 12074 16af 01       		.uleb128 0x1
 12075 16b0 52       		.byte	0x52
 12076 16b1 9F       		.byte	0x9f
 12077 16b2 00000000 		.4byte	0
 12078 16b6 00000000 		.4byte	0
 12079              	.LLST22:
 12080 16ba 10000000 		.4byte	.LVL41
 12081 16be 5D000000 		.4byte	.LVL49-1
 12082 16c2 0100     		.2byte	0x1
 12083 16c4 50       		.byte	0x50
 12084 16c5 62000000 		.4byte	.LVL50
ARM GAS  C:\Users\25521\AppData\Local\Temp\ccDmagyc.s 			page 213


 12085 16c9 66000000 		.4byte	.LVL51
 12086 16cd 0100     		.2byte	0x1
 12087 16cf 50       		.byte	0x50
 12088 16d0 7A000000 		.4byte	.LVL52
 12089 16d4 84000000 		.4byte	.LVL55
 12090 16d8 0100     		.2byte	0x1
 12091 16da 50       		.byte	0x50
 12092 16db 88000000 		.4byte	.LVL56
 12093 16df 93000000 		.4byte	.LVL60-1
 12094 16e3 0100     		.2byte	0x1
 12095 16e5 50       		.byte	0x50
 12096 16e6 93000000 		.4byte	.LVL60-1
 12097 16ea BC000000 		.4byte	.LVL66
 12098 16ee 0200     		.2byte	0x2
 12099 16f0 91       		.byte	0x91
 12100 16f1 54       		.sleb128 -44
 12101 16f2 BC000000 		.4byte	.LVL66
 12102 16f6 C4000000 		.4byte	.LVL67
 12103 16fa 0100     		.2byte	0x1
 12104 16fc 50       		.byte	0x50
 12105 16fd 00000000 		.4byte	0
 12106 1701 00000000 		.4byte	0
 12107              	.LLST23:
 12108 1705 10000000 		.4byte	.LVL41
 12109 1709 1A000000 		.4byte	.LVL42
 12110 170d 0200     		.2byte	0x2
 12111 170f 30       		.byte	0x30
 12112 1710 9F       		.byte	0x9f
 12113 1711 1A000000 		.4byte	.LVL42
 12114 1715 5D000000 		.4byte	.LVL49-1
 12115 1719 0100     		.2byte	0x1
 12116 171b 5C       		.byte	0x5c
 12117 171c 62000000 		.4byte	.LVL50
 12118 1720 66000000 		.4byte	.LVL51
 12119 1724 0100     		.2byte	0x1
 12120 1726 5C       		.byte	0x5c
 12121 1727 7A000000 		.4byte	.LVL52
 12122 172b 93000000 		.4byte	.LVL60-1
 12123 172f 0100     		.2byte	0x1
 12124 1731 5C       		.byte	0x5c
 12125 1732 BC000000 		.4byte	.LVL66
 12126 1736 C4000000 		.4byte	.LVL67
 12127 173a 0100     		.2byte	0x1
 12128 173c 5C       		.byte	0x5c
 12129 173d 00000000 		.4byte	0
 12130 1741 00000000 		.4byte	0
 12131              	.LLST24:
 12132 1745 28000000 		.4byte	.LVL43
 12133 1749 38000000 		.4byte	.LVL44
 12134 174d 0100     		.2byte	0x1
 12135 174f 54       		.byte	0x54
 12136 1750 38000000 		.4byte	.LVL44
 12137 1754 50000000 		.4byte	.LVL47
 12138 1758 0100     		.2byte	0x1
 12139 175a 5E       		.byte	0x5e
 12140 175b 7A000000 		.4byte	.LVL52
 12141 175f 7C000000 		.4byte	.LVL53
ARM GAS  C:\Users\25521\AppData\Local\Temp\ccDmagyc.s 			page 214


 12142 1763 0100     		.2byte	0x1
 12143 1765 54       		.byte	0x54
 12144 1766 00000000 		.4byte	0
 12145 176a 00000000 		.4byte	0
 12146              	.LLST25:
 12147 176e 28000000 		.4byte	.LVL43
 12148 1772 50000000 		.4byte	.LVL47
 12149 1776 0100     		.2byte	0x1
 12150 1778 56       		.byte	0x56
 12151 1779 7A000000 		.4byte	.LVL52
 12152 177d 7C000000 		.4byte	.LVL53
 12153 1781 0100     		.2byte	0x1
 12154 1783 56       		.byte	0x56
 12155 1784 00000000 		.4byte	0
 12156 1788 00000000 		.4byte	0
 12157              	.LLST26:
 12158 178c 28000000 		.4byte	.LVL43
 12159 1790 38000000 		.4byte	.LVL44
 12160 1794 0200     		.2byte	0x2
 12161 1796 30       		.byte	0x30
 12162 1797 9F       		.byte	0x9f
 12163 1798 38000000 		.4byte	.LVL44
 12164 179c 50000000 		.4byte	.LVL47
 12165 17a0 0100     		.2byte	0x1
 12166 17a2 53       		.byte	0x53
 12167 17a3 7A000000 		.4byte	.LVL52
 12168 17a7 7C000000 		.4byte	.LVL53
 12169 17ab 0200     		.2byte	0x2
 12170 17ad 30       		.byte	0x30
 12171 17ae 9F       		.byte	0x9f
 12172 17af 00000000 		.4byte	0
 12173 17b3 00000000 		.4byte	0
 12174              	.LLST27:
 12175 17b7 56000000 		.4byte	.LVL48
 12176 17bb 5E000000 		.4byte	.LVL49
 12177 17bf 0100     		.2byte	0x1
 12178 17c1 56       		.byte	0x56
 12179 17c2 80000000 		.4byte	.LVL54
 12180 17c6 84000000 		.4byte	.LVL55
 12181 17ca 0100     		.2byte	0x1
 12182 17cc 56       		.byte	0x56
 12183 17cd 00000000 		.4byte	0
 12184 17d1 00000000 		.4byte	0
 12185              	.LLST28:
 12186 17d5 56000000 		.4byte	.LVL48
 12187 17d9 5D000000 		.4byte	.LVL49-1
 12188 17dd 0100     		.2byte	0x1
 12189 17df 50       		.byte	0x50
 12190 17e0 80000000 		.4byte	.LVL54
 12191 17e4 84000000 		.4byte	.LVL55
 12192 17e8 0100     		.2byte	0x1
 12193 17ea 50       		.byte	0x50
 12194 17eb 00000000 		.4byte	0
 12195 17ef 00000000 		.4byte	0
 12196              	.LLST29:
 12197 17f3 8A000000 		.4byte	.LVL57
 12198 17f7 8C000000 		.4byte	.LVL58
ARM GAS  C:\Users\25521\AppData\Local\Temp\ccDmagyc.s 			page 215


 12199 17fb 0200     		.2byte	0x2
 12200 17fd 91       		.byte	0x91
 12201 17fe 54       		.sleb128 -44
 12202 17ff 90000000 		.4byte	.LVL59
 12203 1803 93000000 		.4byte	.LVL60-1
 12204 1807 0100     		.2byte	0x1
 12205 1809 50       		.byte	0x50
 12206 180a 93000000 		.4byte	.LVL60-1
 12207 180e BC000000 		.4byte	.LVL66
 12208 1812 0200     		.2byte	0x2
 12209 1814 91       		.byte	0x91
 12210 1815 54       		.sleb128 -44
 12211 1816 00000000 		.4byte	0
 12212 181a 00000000 		.4byte	0
 12213              	.LLST30:
 12214 181e 8A000000 		.4byte	.LVL57
 12215 1822 BC000000 		.4byte	.LVL66
 12216 1826 0100     		.2byte	0x1
 12217 1828 54       		.byte	0x54
 12218 1829 00000000 		.4byte	0
 12219 182d 00000000 		.4byte	0
 12220              	.LLST31:
 12221 1831 8A000000 		.4byte	.LVL57
 12222 1835 BC000000 		.4byte	.LVL66
 12223 1839 0100     		.2byte	0x1
 12224 183b 56       		.byte	0x56
 12225 183c 00000000 		.4byte	0
 12226 1840 00000000 		.4byte	0
 12227              	.LLST32:
 12228 1844 98000000 		.4byte	.LVL61
 12229 1848 BC000000 		.4byte	.LVL66
 12230 184c 0100     		.2byte	0x1
 12231 184e 55       		.byte	0x55
 12232 184f 00000000 		.4byte	0
 12233 1853 00000000 		.4byte	0
 12234              	.LLST17:
 12235 1857 00000000 		.4byte	.LVL34
 12236 185b 0E000000 		.4byte	.LVL35
 12237 185f 0100     		.2byte	0x1
 12238 1861 50       		.byte	0x50
 12239 1862 0E000000 		.4byte	.LVL35
 12240 1866 28000000 		.4byte	.LVL37
 12241 186a 0100     		.2byte	0x1
 12242 186c 56       		.byte	0x56
 12243 186d 28000000 		.4byte	.LVL37
 12244 1871 2B000000 		.4byte	.LVL38-1
 12245 1875 0100     		.2byte	0x1
 12246 1877 50       		.byte	0x50
 12247 1878 2B000000 		.4byte	.LVL38-1
 12248 187c 2C000000 		.4byte	.LVL38
 12249 1880 0400     		.2byte	0x4
 12250 1882 F3       		.byte	0xf3
 12251 1883 01       		.uleb128 0x1
 12252 1884 50       		.byte	0x50
 12253 1885 9F       		.byte	0x9f
 12254 1886 2C000000 		.4byte	.LVL38
 12255 188a 34000000 		.4byte	.LFE5
ARM GAS  C:\Users\25521\AppData\Local\Temp\ccDmagyc.s 			page 216


 12256 188e 0100     		.2byte	0x1
 12257 1890 56       		.byte	0x56
 12258 1891 00000000 		.4byte	0
 12259 1895 00000000 		.4byte	0
 12260              	.LLST18:
 12261 1899 00000000 		.4byte	.LVL34
 12262 189d 13000000 		.4byte	.LVL36-1
 12263 18a1 0100     		.2byte	0x1
 12264 18a3 51       		.byte	0x51
 12265 18a4 13000000 		.4byte	.LVL36-1
 12266 18a8 28000000 		.4byte	.LVL37
 12267 18ac 0100     		.2byte	0x1
 12268 18ae 55       		.byte	0x55
 12269 18af 28000000 		.4byte	.LVL37
 12270 18b3 2B000000 		.4byte	.LVL38-1
 12271 18b7 0100     		.2byte	0x1
 12272 18b9 51       		.byte	0x51
 12273 18ba 2B000000 		.4byte	.LVL38-1
 12274 18be 2C000000 		.4byte	.LVL38
 12275 18c2 0400     		.2byte	0x4
 12276 18c4 F3       		.byte	0xf3
 12277 18c5 01       		.uleb128 0x1
 12278 18c6 51       		.byte	0x51
 12279 18c7 9F       		.byte	0x9f
 12280 18c8 2C000000 		.4byte	.LVL38
 12281 18cc 34000000 		.4byte	.LFE5
 12282 18d0 0100     		.2byte	0x1
 12283 18d2 55       		.byte	0x55
 12284 18d3 00000000 		.4byte	0
 12285 18d7 00000000 		.4byte	0
 12286              	.LLST7:
 12287 18db 00000000 		.4byte	.LVL17
 12288 18df 1A000000 		.4byte	.LVL19
 12289 18e3 0100     		.2byte	0x1
 12290 18e5 50       		.byte	0x50
 12291 18e6 1A000000 		.4byte	.LVL19
 12292 18ea 7C000000 		.4byte	.LFE4
 12293 18ee 0400     		.2byte	0x4
 12294 18f0 F3       		.byte	0xf3
 12295 18f1 01       		.uleb128 0x1
 12296 18f2 50       		.byte	0x50
 12297 18f3 9F       		.byte	0x9f
 12298 18f4 00000000 		.4byte	0
 12299 18f8 00000000 		.4byte	0
 12300              	.LLST8:
 12301 18fc 00000000 		.4byte	.LVL17
 12302 1900 1A000000 		.4byte	.LVL19
 12303 1904 0100     		.2byte	0x1
 12304 1906 51       		.byte	0x51
 12305 1907 1A000000 		.4byte	.LVL19
 12306 190b 56000000 		.4byte	.LVL27
 12307 190f 0100     		.2byte	0x1
 12308 1911 5A       		.byte	0x5a
 12309 1912 56000000 		.4byte	.LVL27
 12310 1916 66000000 		.4byte	.LVL28
 12311 191a 0400     		.2byte	0x4
 12312 191c F3       		.byte	0xf3
ARM GAS  C:\Users\25521\AppData\Local\Temp\ccDmagyc.s 			page 217


 12313 191d 01       		.uleb128 0x1
 12314 191e 51       		.byte	0x51
 12315 191f 9F       		.byte	0x9f
 12316 1920 66000000 		.4byte	.LVL28
 12317 1924 70000000 		.4byte	.LVL31
 12318 1928 0100     		.2byte	0x1
 12319 192a 5A       		.byte	0x5a
 12320 192b 70000000 		.4byte	.LVL31
 12321 192f 7C000000 		.4byte	.LFE4
 12322 1933 0400     		.2byte	0x4
 12323 1935 F3       		.byte	0xf3
 12324 1936 01       		.uleb128 0x1
 12325 1937 51       		.byte	0x51
 12326 1938 9F       		.byte	0x9f
 12327 1939 00000000 		.4byte	0
 12328 193d 00000000 		.4byte	0
 12329              	.LLST9:
 12330 1941 00000000 		.4byte	.LVL17
 12331 1945 1A000000 		.4byte	.LVL19
 12332 1949 0100     		.2byte	0x1
 12333 194b 52       		.byte	0x52
 12334 194c 1A000000 		.4byte	.LVL19
 12335 1950 56000000 		.4byte	.LVL27
 12336 1954 0100     		.2byte	0x1
 12337 1956 58       		.byte	0x58
 12338 1957 56000000 		.4byte	.LVL27
 12339 195b 66000000 		.4byte	.LVL28
 12340 195f 0400     		.2byte	0x4
 12341 1961 F3       		.byte	0xf3
 12342 1962 01       		.uleb128 0x1
 12343 1963 52       		.byte	0x52
 12344 1964 9F       		.byte	0x9f
 12345 1965 66000000 		.4byte	.LVL28
 12346 1969 70000000 		.4byte	.LVL31
 12347 196d 0100     		.2byte	0x1
 12348 196f 58       		.byte	0x58
 12349 1970 70000000 		.4byte	.LVL31
 12350 1974 7C000000 		.4byte	.LFE4
 12351 1978 0400     		.2byte	0x4
 12352 197a F3       		.byte	0xf3
 12353 197b 01       		.uleb128 0x1
 12354 197c 52       		.byte	0x52
 12355 197d 9F       		.byte	0x9f
 12356 197e 00000000 		.4byte	0
 12357 1982 00000000 		.4byte	0
 12358              	.LLST10:
 12359 1986 10000000 		.4byte	.LVL18
 12360 198a 4D000000 		.4byte	.LVL25-1
 12361 198e 0100     		.2byte	0x1
 12362 1990 50       		.byte	0x50
 12363 1991 50000000 		.4byte	.LVL26
 12364 1995 56000000 		.4byte	.LVL27
 12365 1999 0100     		.2byte	0x1
 12366 199b 50       		.byte	0x50
 12367 199c 66000000 		.4byte	.LVL28
 12368 19a0 6C000000 		.4byte	.LVL29
 12369 19a4 0100     		.2byte	0x1
ARM GAS  C:\Users\25521\AppData\Local\Temp\ccDmagyc.s 			page 218


 12370 19a6 50       		.byte	0x50
 12371 19a7 6E000000 		.4byte	.LVL30
 12372 19ab 72000000 		.4byte	.LVL32
 12373 19af 0100     		.2byte	0x1
 12374 19b1 50       		.byte	0x50
 12375 19b2 00000000 		.4byte	0
 12376 19b6 00000000 		.4byte	0
 12377              	.LLST11:
 12378 19ba 10000000 		.4byte	.LVL18
 12379 19be 1A000000 		.4byte	.LVL19
 12380 19c2 0200     		.2byte	0x2
 12381 19c4 30       		.byte	0x30
 12382 19c5 9F       		.byte	0x9f
 12383 19c6 1A000000 		.4byte	.LVL19
 12384 19ca 56000000 		.4byte	.LVL27
 12385 19ce 0100     		.2byte	0x1
 12386 19d0 57       		.byte	0x57
 12387 19d1 66000000 		.4byte	.LVL28
 12388 19d5 70000000 		.4byte	.LVL31
 12389 19d9 0100     		.2byte	0x1
 12390 19db 57       		.byte	0x57
 12391 19dc 00000000 		.4byte	0
 12392 19e0 00000000 		.4byte	0
 12393              	.LLST12:
 12394 19e4 26000000 		.4byte	.LVL20
 12395 19e8 36000000 		.4byte	.LVL21
 12396 19ec 0100     		.2byte	0x1
 12397 19ee 52       		.byte	0x52
 12398 19ef 36000000 		.4byte	.LVL21
 12399 19f3 48000000 		.4byte	.LVL24
 12400 19f7 0100     		.2byte	0x1
 12401 19f9 55       		.byte	0x55
 12402 19fa 00000000 		.4byte	0
 12403 19fe 00000000 		.4byte	0
 12404              	.LLST13:
 12405 1a02 26000000 		.4byte	.LVL20
 12406 1a06 48000000 		.4byte	.LVL24
 12407 1a0a 0100     		.2byte	0x1
 12408 1a0c 51       		.byte	0x51
 12409 1a0d 00000000 		.4byte	0
 12410 1a11 00000000 		.4byte	0
 12411              	.LLST14:
 12412 1a15 26000000 		.4byte	.LVL20
 12413 1a19 36000000 		.4byte	.LVL21
 12414 1a1d 0200     		.2byte	0x2
 12415 1a1f 30       		.byte	0x30
 12416 1a20 9F       		.byte	0x9f
 12417 1a21 36000000 		.4byte	.LVL21
 12418 1a25 48000000 		.4byte	.LVL24
 12419 1a29 0100     		.2byte	0x1
 12420 1a2b 53       		.byte	0x53
 12421 1a2c 00000000 		.4byte	0
 12422 1a30 00000000 		.4byte	0
 12423              	.LLST15:
 12424 1a34 48000000 		.4byte	.LVL24
 12425 1a38 4D000000 		.4byte	.LVL25-1
 12426 1a3c 0100     		.2byte	0x1
ARM GAS  C:\Users\25521\AppData\Local\Temp\ccDmagyc.s 			page 219


 12427 1a3e 51       		.byte	0x51
 12428 1a3f 4D000000 		.4byte	.LVL25-1
 12429 1a43 4E000000 		.4byte	.LVL25
 12430 1a47 0600     		.2byte	0x6
 12431 1a49 7A       		.byte	0x7a
 12432 1a4a 00       		.sleb128 0
 12433 1a4b 77       		.byte	0x77
 12434 1a4c 00       		.sleb128 0
 12435 1a4d 22       		.byte	0x22
 12436 1a4e 9F       		.byte	0x9f
 12437 1a4f 66000000 		.4byte	.LVL28
 12438 1a53 6C000000 		.4byte	.LVL29
 12439 1a57 0100     		.2byte	0x1
 12440 1a59 51       		.byte	0x51
 12441 1a5a 00000000 		.4byte	0
 12442 1a5e 00000000 		.4byte	0
 12443              	.LLST16:
 12444 1a62 48000000 		.4byte	.LVL24
 12445 1a66 4D000000 		.4byte	.LVL25-1
 12446 1a6a 0100     		.2byte	0x1
 12447 1a6c 50       		.byte	0x50
 12448 1a6d 66000000 		.4byte	.LVL28
 12449 1a71 6C000000 		.4byte	.LVL29
 12450 1a75 0100     		.2byte	0x1
 12451 1a77 50       		.byte	0x50
 12452 1a78 00000000 		.4byte	0
 12453 1a7c 00000000 		.4byte	0
 12454              	.LLST4:
 12455 1a80 00000000 		.4byte	.LVL9
 12456 1a84 0C000000 		.4byte	.LVL10
 12457 1a88 0100     		.2byte	0x1
 12458 1a8a 50       		.byte	0x50
 12459 1a8b 0C000000 		.4byte	.LVL10
 12460 1a8f 42000000 		.4byte	.LVL14
 12461 1a93 0100     		.2byte	0x1
 12462 1a95 54       		.byte	0x54
 12463 1a96 42000000 		.4byte	.LVL14
 12464 1a9a 45000000 		.4byte	.LVL15-1
 12465 1a9e 0200     		.2byte	0x2
 12466 1aa0 73       		.byte	0x73
 12467 1aa1 0C       		.sleb128 12
 12468 1aa2 45000000 		.4byte	.LVL15-1
 12469 1aa6 46000000 		.4byte	.LVL15
 12470 1aaa 0400     		.2byte	0x4
 12471 1aac F3       		.byte	0xf3
 12472 1aad 01       		.uleb128 0x1
 12473 1aae 50       		.byte	0x50
 12474 1aaf 9F       		.byte	0x9f
 12475 1ab0 46000000 		.4byte	.LVL15
 12476 1ab4 50000000 		.4byte	.LFE3
 12477 1ab8 0100     		.2byte	0x1
 12478 1aba 54       		.byte	0x54
 12479 1abb 00000000 		.4byte	0
 12480 1abf 00000000 		.4byte	0
 12481              	.LLST5:
 12482 1ac3 00000000 		.4byte	.LVL9
 12483 1ac7 2B000000 		.4byte	.LVL13-1
ARM GAS  C:\Users\25521\AppData\Local\Temp\ccDmagyc.s 			page 220


 12484 1acb 0100     		.2byte	0x1
 12485 1acd 51       		.byte	0x51
 12486 1ace 2B000000 		.4byte	.LVL13-1
 12487 1ad2 50000000 		.4byte	.LFE3
 12488 1ad6 0400     		.2byte	0x4
 12489 1ad8 F3       		.byte	0xf3
 12490 1ad9 01       		.uleb128 0x1
 12491 1ada 51       		.byte	0x51
 12492 1adb 9F       		.byte	0x9f
 12493 1adc 00000000 		.4byte	0
 12494 1ae0 00000000 		.4byte	0
 12495              	.LLST6:
 12496 1ae4 00000000 		.4byte	.LVL9
 12497 1ae8 1C000000 		.4byte	.LVL11
 12498 1aec 0100     		.2byte	0x1
 12499 1aee 52       		.byte	0x52
 12500 1aef 1C000000 		.4byte	.LVL11
 12501 1af3 28000000 		.4byte	.LVL12
 12502 1af7 0200     		.2byte	0x2
 12503 1af9 74       		.byte	0x74
 12504 1afa 00       		.sleb128 0
 12505 1afb 28000000 		.4byte	.LVL12
 12506 1aff 2B000000 		.4byte	.LVL13-1
 12507 1b03 0100     		.2byte	0x1
 12508 1b05 52       		.byte	0x52
 12509 1b06 2B000000 		.4byte	.LVL13-1
 12510 1b0a 50000000 		.4byte	.LFE3
 12511 1b0e 0400     		.2byte	0x4
 12512 1b10 F3       		.byte	0xf3
 12513 1b11 01       		.uleb128 0x1
 12514 1b12 52       		.byte	0x52
 12515 1b13 9F       		.byte	0x9f
 12516 1b14 00000000 		.4byte	0
 12517 1b18 00000000 		.4byte	0
 12518              	.LLST0:
 12519 1b1c 00000000 		.4byte	.LVL0
 12520 1b20 19000000 		.4byte	.LVL1-1
 12521 1b24 0100     		.2byte	0x1
 12522 1b26 50       		.byte	0x50
 12523 1b27 19000000 		.4byte	.LVL1-1
 12524 1b2b 1C000000 		.4byte	.LVL2
 12525 1b2f 0100     		.2byte	0x1
 12526 1b31 54       		.byte	0x54
 12527 1b32 1C000000 		.4byte	.LVL2
 12528 1b36 54000000 		.4byte	.LFE48
 12529 1b3a 0400     		.2byte	0x4
 12530 1b3c F3       		.byte	0xf3
 12531 1b3d 01       		.uleb128 0x1
 12532 1b3e 50       		.byte	0x50
 12533 1b3f 9F       		.byte	0x9f
 12534 1b40 00000000 		.4byte	0
 12535 1b44 00000000 		.4byte	0
 12536              	.LLST1:
 12537 1b48 00000000 		.4byte	.LVL0
 12538 1b4c 19000000 		.4byte	.LVL1-1
 12539 1b50 0100     		.2byte	0x1
 12540 1b52 51       		.byte	0x51
ARM GAS  C:\Users\25521\AppData\Local\Temp\ccDmagyc.s 			page 221


 12541 1b53 19000000 		.4byte	.LVL1-1
 12542 1b57 54000000 		.4byte	.LFE48
 12543 1b5b 0100     		.2byte	0x1
 12544 1b5d 57       		.byte	0x57
 12545 1b5e 00000000 		.4byte	0
 12546 1b62 00000000 		.4byte	0
 12547              	.LLST2:
 12548 1b66 00000000 		.4byte	.LVL0
 12549 1b6a 19000000 		.4byte	.LVL1-1
 12550 1b6e 0100     		.2byte	0x1
 12551 1b70 52       		.byte	0x52
 12552 1b71 19000000 		.4byte	.LVL1-1
 12553 1b75 54000000 		.4byte	.LFE48
 12554 1b79 0100     		.2byte	0x1
 12555 1b7b 56       		.byte	0x56
 12556 1b7c 00000000 		.4byte	0
 12557 1b80 00000000 		.4byte	0
 12558              	.LLST3:
 12559 1b84 1C000000 		.4byte	.LVL2
 12560 1b88 46000000 		.4byte	.LVL6
 12561 1b8c 0100     		.2byte	0x1
 12562 1b8e 54       		.byte	0x54
 12563 1b8f 46000000 		.4byte	.LVL6
 12564 1b93 4F000000 		.4byte	.LVL8-1
 12565 1b97 0100     		.2byte	0x1
 12566 1b99 50       		.byte	0x50
 12567 1b9a 4F000000 		.4byte	.LVL8-1
 12568 1b9e 54000000 		.4byte	.LFE48
 12569 1ba2 0100     		.2byte	0x1
 12570 1ba4 54       		.byte	0x54
 12571 1ba5 00000000 		.4byte	0
 12572 1ba9 00000000 		.4byte	0
 12573              	.LLST35:
 12574 1bad 00000000 		.4byte	.LVL75
 12575 1bb1 19000000 		.4byte	.LVL77-1
 12576 1bb5 0100     		.2byte	0x1
 12577 1bb7 50       		.byte	0x50
 12578 1bb8 19000000 		.4byte	.LVL77-1
 12579 1bbc 30000000 		.4byte	.LVL78
 12580 1bc0 0100     		.2byte	0x1
 12581 1bc2 54       		.byte	0x54
 12582 1bc3 30000000 		.4byte	.LVL78
 12583 1bc7 33000000 		.4byte	.LVL79-1
 12584 1bcb 0200     		.2byte	0x2
 12585 1bcd 73       		.byte	0x73
 12586 1bce 14       		.sleb128 20
 12587 1bcf 33000000 		.4byte	.LVL79-1
 12588 1bd3 34000000 		.4byte	.LVL79
 12589 1bd7 0400     		.2byte	0x4
 12590 1bd9 F3       		.byte	0xf3
 12591 1bda 01       		.uleb128 0x1
 12592 1bdb 50       		.byte	0x50
 12593 1bdc 9F       		.byte	0x9f
 12594 1bdd 34000000 		.4byte	.LVL79
 12595 1be1 3C000000 		.4byte	.LFE8
 12596 1be5 0100     		.2byte	0x1
 12597 1be7 54       		.byte	0x54
ARM GAS  C:\Users\25521\AppData\Local\Temp\ccDmagyc.s 			page 222


 12598 1be8 00000000 		.4byte	0
 12599 1bec 00000000 		.4byte	0
 12600              	.LLST36:
 12601 1bf0 00000000 		.4byte	.LVL75
 12602 1bf4 0E000000 		.4byte	.LVL76
 12603 1bf8 0100     		.2byte	0x1
 12604 1bfa 51       		.byte	0x51
 12605 1bfb 0E000000 		.4byte	.LVL76
 12606 1bff 19000000 		.4byte	.LVL77-1
 12607 1c03 0200     		.2byte	0x2
 12608 1c05 70       		.byte	0x70
 12609 1c06 04       		.sleb128 4
 12610 1c07 19000000 		.4byte	.LVL77-1
 12611 1c0b 3C000000 		.4byte	.LFE8
 12612 1c0f 0400     		.2byte	0x4
 12613 1c11 F3       		.byte	0xf3
 12614 1c12 01       		.uleb128 0x1
 12615 1c13 51       		.byte	0x51
 12616 1c14 9F       		.byte	0x9f
 12617 1c15 00000000 		.4byte	0
 12618 1c19 00000000 		.4byte	0
 12619              	.LLST37:
 12620 1c1d 00000000 		.4byte	.LVL75
 12621 1c21 19000000 		.4byte	.LVL77-1
 12622 1c25 0100     		.2byte	0x1
 12623 1c27 52       		.byte	0x52
 12624 1c28 19000000 		.4byte	.LVL77-1
 12625 1c2c 3C000000 		.4byte	.LFE8
 12626 1c30 0400     		.2byte	0x4
 12627 1c32 F3       		.byte	0xf3
 12628 1c33 01       		.uleb128 0x1
 12629 1c34 52       		.byte	0x52
 12630 1c35 9F       		.byte	0x9f
 12631 1c36 00000000 		.4byte	0
 12632 1c3a 00000000 		.4byte	0
 12633              	.LLST42:
 12634 1c3e 00000000 		.4byte	.LVL98
 12635 1c42 0F000000 		.4byte	.LVL99-1
 12636 1c46 0100     		.2byte	0x1
 12637 1c48 50       		.byte	0x50
 12638 1c49 0F000000 		.4byte	.LVL99-1
 12639 1c4d 4C000000 		.4byte	.LFE12
 12640 1c51 0100     		.2byte	0x1
 12641 1c53 55       		.byte	0x55
 12642 1c54 00000000 		.4byte	0
 12643 1c58 00000000 		.4byte	0
 12644              	.LLST43:
 12645 1c5c 12000000 		.4byte	.LVL100
 12646 1c60 1E000000 		.4byte	.LVL103
 12647 1c64 0100     		.2byte	0x1
 12648 1c66 54       		.byte	0x54
 12649 1c67 00000000 		.4byte	0
 12650 1c6b 00000000 		.4byte	0
 12651              	.LLST44:
 12652 1c6f 1C000000 		.4byte	.LVL102
 12653 1c73 38000000 		.4byte	.LVL107
 12654 1c77 0100     		.2byte	0x1
ARM GAS  C:\Users\25521\AppData\Local\Temp\ccDmagyc.s 			page 223


 12655 1c79 55       		.byte	0x55
 12656 1c7a 00000000 		.4byte	0
 12657 1c7e 00000000 		.4byte	0
 12658              	.LLST45:
 12659 1c82 1E000000 		.4byte	.LVL103
 12660 1c86 38000000 		.4byte	.LVL107
 12661 1c8a 0100     		.2byte	0x1
 12662 1c8c 54       		.byte	0x54
 12663 1c8d 00000000 		.4byte	0
 12664 1c91 00000000 		.4byte	0
 12665              	.LLST46:
 12666 1c95 00000000 		.4byte	.LVL110
 12667 1c99 0F000000 		.4byte	.LVL111-1
 12668 1c9d 0100     		.2byte	0x1
 12669 1c9f 50       		.byte	0x50
 12670 1ca0 0F000000 		.4byte	.LVL111-1
 12671 1ca4 1E000000 		.4byte	.LVL115
 12672 1ca8 0100     		.2byte	0x1
 12673 1caa 54       		.byte	0x54
 12674 1cab 1E000000 		.4byte	.LVL115
 12675 1caf 48000000 		.4byte	.LFE13
 12676 1cb3 0400     		.2byte	0x4
 12677 1cb5 F3       		.byte	0xf3
 12678 1cb6 01       		.uleb128 0x1
 12679 1cb7 50       		.byte	0x50
 12680 1cb8 9F       		.byte	0x9f
 12681 1cb9 00000000 		.4byte	0
 12682 1cbd 00000000 		.4byte	0
 12683              	.LLST47:
 12684 1cc1 1C000000 		.4byte	.LVL114
 12685 1cc5 1E000000 		.4byte	.LVL115
 12686 1cc9 0100     		.2byte	0x1
 12687 1ccb 54       		.byte	0x54
 12688 1ccc 1E000000 		.4byte	.LVL115
 12689 1cd0 34000000 		.4byte	.LVL119
 12690 1cd4 0400     		.2byte	0x4
 12691 1cd6 F3       		.byte	0xf3
 12692 1cd7 01       		.uleb128 0x1
 12693 1cd8 50       		.byte	0x50
 12694 1cd9 9F       		.byte	0x9f
 12695 1cda 00000000 		.4byte	0
 12696 1cde 00000000 		.4byte	0
 12697              	.LLST48:
 12698 1ce2 1E000000 		.4byte	.LVL115
 12699 1ce6 34000000 		.4byte	.LVL119
 12700 1cea 0100     		.2byte	0x1
 12701 1cec 54       		.byte	0x54
 12702 1ced 00000000 		.4byte	0
 12703 1cf1 00000000 		.4byte	0
 12704              	.LLST101:
 12705 1cf5 00000000 		.4byte	.LVL240
 12706 1cf9 0C000000 		.4byte	.LVL241
 12707 1cfd 0100     		.2byte	0x1
 12708 1cff 50       		.byte	0x50
 12709 1d00 0C000000 		.4byte	.LVL241
 12710 1d04 3C000000 		.4byte	.LVL246
 12711 1d08 0100     		.2byte	0x1
ARM GAS  C:\Users\25521\AppData\Local\Temp\ccDmagyc.s 			page 224


 12712 1d0a 54       		.byte	0x54
 12713 1d0b 3C000000 		.4byte	.LVL246
 12714 1d0f 3F000000 		.4byte	.LVL247-1
 12715 1d13 0200     		.2byte	0x2
 12716 1d15 73       		.byte	0x73
 12717 1d16 14       		.sleb128 20
 12718 1d17 3F000000 		.4byte	.LVL247-1
 12719 1d1b 40000000 		.4byte	.LVL247
 12720 1d1f 0400     		.2byte	0x4
 12721 1d21 F3       		.byte	0xf3
 12722 1d22 01       		.uleb128 0x1
 12723 1d23 50       		.byte	0x50
 12724 1d24 9F       		.byte	0x9f
 12725 1d25 40000000 		.4byte	.LVL247
 12726 1d29 48000000 		.4byte	.LFE29
 12727 1d2d 0100     		.2byte	0x1
 12728 1d2f 54       		.byte	0x54
 12729 1d30 00000000 		.4byte	0
 12730 1d34 00000000 		.4byte	0
 12731              	.LLST102:
 12732 1d38 00000000 		.4byte	.LVL240
 12733 1d3c 18000000 		.4byte	.LVL244
 12734 1d40 0100     		.2byte	0x1
 12735 1d42 51       		.byte	0x51
 12736 1d43 18000000 		.4byte	.LVL244
 12737 1d47 25000000 		.4byte	.LVL245-1
 12738 1d4b 0200     		.2byte	0x2
 12739 1d4d 74       		.byte	0x74
 12740 1d4e 04       		.sleb128 4
 12741 1d4f 25000000 		.4byte	.LVL245-1
 12742 1d53 48000000 		.4byte	.LFE29
 12743 1d57 0400     		.2byte	0x4
 12744 1d59 F3       		.byte	0xf3
 12745 1d5a 01       		.uleb128 0x1
 12746 1d5b 51       		.byte	0x51
 12747 1d5c 9F       		.byte	0x9f
 12748 1d5d 00000000 		.4byte	0
 12749 1d61 00000000 		.4byte	0
 12750              	.LLST103:
 12751 1d65 00000000 		.4byte	.LVL240
 12752 1d69 25000000 		.4byte	.LVL245-1
 12753 1d6d 0100     		.2byte	0x1
 12754 1d6f 52       		.byte	0x52
 12755 1d70 25000000 		.4byte	.LVL245-1
 12756 1d74 48000000 		.4byte	.LFE29
 12757 1d78 0400     		.2byte	0x4
 12758 1d7a F3       		.byte	0xf3
 12759 1d7b 01       		.uleb128 0x1
 12760 1d7c 52       		.byte	0x52
 12761 1d7d 9F       		.byte	0x9f
 12762 1d7e 00000000 		.4byte	0
 12763 1d82 00000000 		.4byte	0
 12764              	.LLST104:
 12765 1d86 00000000 		.4byte	.LVL240
 12766 1d8a 12000000 		.4byte	.LVL242
 12767 1d8e 0100     		.2byte	0x1
 12768 1d90 53       		.byte	0x53
ARM GAS  C:\Users\25521\AppData\Local\Temp\ccDmagyc.s 			page 225


 12769 1d91 12000000 		.4byte	.LVL242
 12770 1d95 25000000 		.4byte	.LVL245-1
 12771 1d99 0200     		.2byte	0x2
 12772 1d9b 74       		.byte	0x74
 12773 1d9c 10       		.sleb128 16
 12774 1d9d 25000000 		.4byte	.LVL245-1
 12775 1da1 48000000 		.4byte	.LFE29
 12776 1da5 0400     		.2byte	0x4
 12777 1da7 F3       		.byte	0xf3
 12778 1da8 01       		.uleb128 0x1
 12779 1da9 53       		.byte	0x53
 12780 1daa 9F       		.byte	0x9f
 12781 1dab 00000000 		.4byte	0
 12782 1daf 00000000 		.4byte	0
 12783              	.LLST105:
 12784 1db3 00000000 		.4byte	.LVL240
 12785 1db7 3C000000 		.4byte	.LVL246
 12786 1dbb 0200     		.2byte	0x2
 12787 1dbd 91       		.byte	0x91
 12788 1dbe 00       		.sleb128 0
 12789 1dbf 3C000000 		.4byte	.LVL246
 12790 1dc3 40000000 		.4byte	.LVL247
 12791 1dc7 0200     		.2byte	0x2
 12792 1dc9 7D       		.byte	0x7d
 12793 1dca 00       		.sleb128 0
 12794 1dcb 40000000 		.4byte	.LVL247
 12795 1dcf 48000000 		.4byte	.LFE29
 12796 1dd3 0200     		.2byte	0x2
 12797 1dd5 91       		.byte	0x91
 12798 1dd6 00       		.sleb128 0
 12799 1dd7 00000000 		.4byte	0
 12800 1ddb 00000000 		.4byte	0
 12801              	.LLST106:
 12802 1ddf 16000000 		.4byte	.LVL243
 12803 1de3 25000000 		.4byte	.LVL245-1
 12804 1de7 0100     		.2byte	0x1
 12805 1de9 52       		.byte	0x52
 12806 1dea 25000000 		.4byte	.LVL245-1
 12807 1dee 48000000 		.4byte	.LFE29
 12808 1df2 0400     		.2byte	0x4
 12809 1df4 F3       		.byte	0xf3
 12810 1df5 01       		.uleb128 0x1
 12811 1df6 52       		.byte	0x52
 12812 1df7 9F       		.byte	0x9f
 12813 1df8 00000000 		.4byte	0
 12814 1dfc 00000000 		.4byte	0
 12815              	.LLST107:
 12816 1e00 16000000 		.4byte	.LVL243
 12817 1e04 18000000 		.4byte	.LVL244
 12818 1e08 0100     		.2byte	0x1
 12819 1e0a 51       		.byte	0x51
 12820 1e0b 18000000 		.4byte	.LVL244
 12821 1e0f 25000000 		.4byte	.LVL245-1
 12822 1e13 0200     		.2byte	0x2
 12823 1e15 74       		.byte	0x74
 12824 1e16 04       		.sleb128 4
 12825 1e17 25000000 		.4byte	.LVL245-1
ARM GAS  C:\Users\25521\AppData\Local\Temp\ccDmagyc.s 			page 226


 12826 1e1b 48000000 		.4byte	.LFE29
 12827 1e1f 0400     		.2byte	0x4
 12828 1e21 F3       		.byte	0xf3
 12829 1e22 01       		.uleb128 0x1
 12830 1e23 51       		.byte	0x51
 12831 1e24 9F       		.byte	0x9f
 12832 1e25 00000000 		.4byte	0
 12833 1e29 00000000 		.4byte	0
 12834              	.LLST108:
 12835 1e2d 16000000 		.4byte	.LVL243
 12836 1e31 3C000000 		.4byte	.LVL246
 12837 1e35 0100     		.2byte	0x1
 12838 1e37 54       		.byte	0x54
 12839 1e38 3C000000 		.4byte	.LVL246
 12840 1e3c 3F000000 		.4byte	.LVL247-1
 12841 1e40 0200     		.2byte	0x2
 12842 1e42 73       		.byte	0x73
 12843 1e43 14       		.sleb128 20
 12844 1e44 3F000000 		.4byte	.LVL247-1
 12845 1e48 40000000 		.4byte	.LVL247
 12846 1e4c 0400     		.2byte	0x4
 12847 1e4e F3       		.byte	0xf3
 12848 1e4f 01       		.uleb128 0x1
 12849 1e50 50       		.byte	0x50
 12850 1e51 9F       		.byte	0x9f
 12851 1e52 40000000 		.4byte	.LVL247
 12852 1e56 48000000 		.4byte	.LFE29
 12853 1e5a 0100     		.2byte	0x1
 12854 1e5c 54       		.byte	0x54
 12855 1e5d 00000000 		.4byte	0
 12856 1e61 00000000 		.4byte	0
 12857              	.LLST131:
 12858 1e65 00000000 		.4byte	.LVL291
 12859 1e69 0C000000 		.4byte	.LVL292
 12860 1e6d 0100     		.2byte	0x1
 12861 1e6f 50       		.byte	0x50
 12862 1e70 0C000000 		.4byte	.LVL292
 12863 1e74 3C000000 		.4byte	.LVL297
 12864 1e78 0100     		.2byte	0x1
 12865 1e7a 54       		.byte	0x54
 12866 1e7b 3C000000 		.4byte	.LVL297
 12867 1e7f 3F000000 		.4byte	.LVL298-1
 12868 1e83 0200     		.2byte	0x2
 12869 1e85 73       		.byte	0x73
 12870 1e86 14       		.sleb128 20
 12871 1e87 3F000000 		.4byte	.LVL298-1
 12872 1e8b 40000000 		.4byte	.LVL298
 12873 1e8f 0400     		.2byte	0x4
 12874 1e91 F3       		.byte	0xf3
 12875 1e92 01       		.uleb128 0x1
 12876 1e93 50       		.byte	0x50
 12877 1e94 9F       		.byte	0x9f
 12878 1e95 40000000 		.4byte	.LVL298
 12879 1e99 48000000 		.4byte	.LFE35
 12880 1e9d 0100     		.2byte	0x1
 12881 1e9f 54       		.byte	0x54
 12882 1ea0 00000000 		.4byte	0
ARM GAS  C:\Users\25521\AppData\Local\Temp\ccDmagyc.s 			page 227


 12883 1ea4 00000000 		.4byte	0
 12884              	.LLST132:
 12885 1ea8 00000000 		.4byte	.LVL291
 12886 1eac 18000000 		.4byte	.LVL295
 12887 1eb0 0100     		.2byte	0x1
 12888 1eb2 51       		.byte	0x51
 12889 1eb3 18000000 		.4byte	.LVL295
 12890 1eb7 25000000 		.4byte	.LVL296-1
 12891 1ebb 0200     		.2byte	0x2
 12892 1ebd 74       		.byte	0x74
 12893 1ebe 04       		.sleb128 4
 12894 1ebf 25000000 		.4byte	.LVL296-1
 12895 1ec3 48000000 		.4byte	.LFE35
 12896 1ec7 0400     		.2byte	0x4
 12897 1ec9 F3       		.byte	0xf3
 12898 1eca 01       		.uleb128 0x1
 12899 1ecb 51       		.byte	0x51
 12900 1ecc 9F       		.byte	0x9f
 12901 1ecd 00000000 		.4byte	0
 12902 1ed1 00000000 		.4byte	0
 12903              	.LLST133:
 12904 1ed5 00000000 		.4byte	.LVL291
 12905 1ed9 25000000 		.4byte	.LVL296-1
 12906 1edd 0100     		.2byte	0x1
 12907 1edf 52       		.byte	0x52
 12908 1ee0 25000000 		.4byte	.LVL296-1
 12909 1ee4 48000000 		.4byte	.LFE35
 12910 1ee8 0400     		.2byte	0x4
 12911 1eea F3       		.byte	0xf3
 12912 1eeb 01       		.uleb128 0x1
 12913 1eec 52       		.byte	0x52
 12914 1eed 9F       		.byte	0x9f
 12915 1eee 00000000 		.4byte	0
 12916 1ef2 00000000 		.4byte	0
 12917              	.LLST134:
 12918 1ef6 00000000 		.4byte	.LVL291
 12919 1efa 12000000 		.4byte	.LVL293
 12920 1efe 0100     		.2byte	0x1
 12921 1f00 53       		.byte	0x53
 12922 1f01 12000000 		.4byte	.LVL293
 12923 1f05 25000000 		.4byte	.LVL296-1
 12924 1f09 0200     		.2byte	0x2
 12925 1f0b 74       		.byte	0x74
 12926 1f0c 10       		.sleb128 16
 12927 1f0d 25000000 		.4byte	.LVL296-1
 12928 1f11 48000000 		.4byte	.LFE35
 12929 1f15 0400     		.2byte	0x4
 12930 1f17 F3       		.byte	0xf3
 12931 1f18 01       		.uleb128 0x1
 12932 1f19 53       		.byte	0x53
 12933 1f1a 9F       		.byte	0x9f
 12934 1f1b 00000000 		.4byte	0
 12935 1f1f 00000000 		.4byte	0
 12936              	.LLST135:
 12937 1f23 00000000 		.4byte	.LVL291
 12938 1f27 3C000000 		.4byte	.LVL297
 12939 1f2b 0200     		.2byte	0x2
ARM GAS  C:\Users\25521\AppData\Local\Temp\ccDmagyc.s 			page 228


 12940 1f2d 91       		.byte	0x91
 12941 1f2e 00       		.sleb128 0
 12942 1f2f 3C000000 		.4byte	.LVL297
 12943 1f33 40000000 		.4byte	.LVL298
 12944 1f37 0200     		.2byte	0x2
 12945 1f39 7D       		.byte	0x7d
 12946 1f3a 00       		.sleb128 0
 12947 1f3b 40000000 		.4byte	.LVL298
 12948 1f3f 48000000 		.4byte	.LFE35
 12949 1f43 0200     		.2byte	0x2
 12950 1f45 91       		.byte	0x91
 12951 1f46 00       		.sleb128 0
 12952 1f47 00000000 		.4byte	0
 12953 1f4b 00000000 		.4byte	0
 12954              	.LLST136:
 12955 1f4f 16000000 		.4byte	.LVL294
 12956 1f53 25000000 		.4byte	.LVL296-1
 12957 1f57 0100     		.2byte	0x1
 12958 1f59 52       		.byte	0x52
 12959 1f5a 25000000 		.4byte	.LVL296-1
 12960 1f5e 48000000 		.4byte	.LFE35
 12961 1f62 0400     		.2byte	0x4
 12962 1f64 F3       		.byte	0xf3
 12963 1f65 01       		.uleb128 0x1
 12964 1f66 52       		.byte	0x52
 12965 1f67 9F       		.byte	0x9f
 12966 1f68 00000000 		.4byte	0
 12967 1f6c 00000000 		.4byte	0
 12968              	.LLST137:
 12969 1f70 16000000 		.4byte	.LVL294
 12970 1f74 18000000 		.4byte	.LVL295
 12971 1f78 0100     		.2byte	0x1
 12972 1f7a 51       		.byte	0x51
 12973 1f7b 18000000 		.4byte	.LVL295
 12974 1f7f 25000000 		.4byte	.LVL296-1
 12975 1f83 0200     		.2byte	0x2
 12976 1f85 74       		.byte	0x74
 12977 1f86 04       		.sleb128 4
 12978 1f87 25000000 		.4byte	.LVL296-1
 12979 1f8b 48000000 		.4byte	.LFE35
 12980 1f8f 0400     		.2byte	0x4
 12981 1f91 F3       		.byte	0xf3
 12982 1f92 01       		.uleb128 0x1
 12983 1f93 51       		.byte	0x51
 12984 1f94 9F       		.byte	0x9f
 12985 1f95 00000000 		.4byte	0
 12986 1f99 00000000 		.4byte	0
 12987              	.LLST138:
 12988 1f9d 16000000 		.4byte	.LVL294
 12989 1fa1 3C000000 		.4byte	.LVL297
 12990 1fa5 0100     		.2byte	0x1
 12991 1fa7 54       		.byte	0x54
 12992 1fa8 3C000000 		.4byte	.LVL297
 12993 1fac 3F000000 		.4byte	.LVL298-1
 12994 1fb0 0200     		.2byte	0x2
 12995 1fb2 73       		.byte	0x73
 12996 1fb3 14       		.sleb128 20
ARM GAS  C:\Users\25521\AppData\Local\Temp\ccDmagyc.s 			page 229


 12997 1fb4 3F000000 		.4byte	.LVL298-1
 12998 1fb8 40000000 		.4byte	.LVL298
 12999 1fbc 0400     		.2byte	0x4
 13000 1fbe F3       		.byte	0xf3
 13001 1fbf 01       		.uleb128 0x1
 13002 1fc0 50       		.byte	0x50
 13003 1fc1 9F       		.byte	0x9f
 13004 1fc2 40000000 		.4byte	.LVL298
 13005 1fc6 48000000 		.4byte	.LFE35
 13006 1fca 0100     		.2byte	0x1
 13007 1fcc 54       		.byte	0x54
 13008 1fcd 00000000 		.4byte	0
 13009 1fd1 00000000 		.4byte	0
 13010              	.LLST163:
 13011 1fd5 00000000 		.4byte	.LVL342
 13012 1fd9 0C000000 		.4byte	.LVL343
 13013 1fdd 0100     		.2byte	0x1
 13014 1fdf 50       		.byte	0x50
 13015 1fe0 0C000000 		.4byte	.LVL343
 13016 1fe4 3C000000 		.4byte	.LVL348
 13017 1fe8 0100     		.2byte	0x1
 13018 1fea 54       		.byte	0x54
 13019 1feb 3C000000 		.4byte	.LVL348
 13020 1fef 3F000000 		.4byte	.LVL349-1
 13021 1ff3 0200     		.2byte	0x2
 13022 1ff5 73       		.byte	0x73
 13023 1ff6 14       		.sleb128 20
 13024 1ff7 3F000000 		.4byte	.LVL349-1
 13025 1ffb 40000000 		.4byte	.LVL349
 13026 1fff 0400     		.2byte	0x4
 13027 2001 F3       		.byte	0xf3
 13028 2002 01       		.uleb128 0x1
 13029 2003 50       		.byte	0x50
 13030 2004 9F       		.byte	0x9f
 13031 2005 40000000 		.4byte	.LVL349
 13032 2009 48000000 		.4byte	.LFE41
 13033 200d 0100     		.2byte	0x1
 13034 200f 54       		.byte	0x54
 13035 2010 00000000 		.4byte	0
 13036 2014 00000000 		.4byte	0
 13037              	.LLST164:
 13038 2018 00000000 		.4byte	.LVL342
 13039 201c 18000000 		.4byte	.LVL346
 13040 2020 0100     		.2byte	0x1
 13041 2022 51       		.byte	0x51
 13042 2023 18000000 		.4byte	.LVL346
 13043 2027 25000000 		.4byte	.LVL347-1
 13044 202b 0200     		.2byte	0x2
 13045 202d 74       		.byte	0x74
 13046 202e 04       		.sleb128 4
 13047 202f 25000000 		.4byte	.LVL347-1
 13048 2033 48000000 		.4byte	.LFE41
 13049 2037 0400     		.2byte	0x4
 13050 2039 F3       		.byte	0xf3
 13051 203a 01       		.uleb128 0x1
 13052 203b 51       		.byte	0x51
 13053 203c 9F       		.byte	0x9f
ARM GAS  C:\Users\25521\AppData\Local\Temp\ccDmagyc.s 			page 230


 13054 203d 00000000 		.4byte	0
 13055 2041 00000000 		.4byte	0
 13056              	.LLST165:
 13057 2045 00000000 		.4byte	.LVL342
 13058 2049 25000000 		.4byte	.LVL347-1
 13059 204d 0100     		.2byte	0x1
 13060 204f 52       		.byte	0x52
 13061 2050 25000000 		.4byte	.LVL347-1
 13062 2054 48000000 		.4byte	.LFE41
 13063 2058 0400     		.2byte	0x4
 13064 205a F3       		.byte	0xf3
 13065 205b 01       		.uleb128 0x1
 13066 205c 52       		.byte	0x52
 13067 205d 9F       		.byte	0x9f
 13068 205e 00000000 		.4byte	0
 13069 2062 00000000 		.4byte	0
 13070              	.LLST166:
 13071 2066 00000000 		.4byte	.LVL342
 13072 206a 12000000 		.4byte	.LVL344
 13073 206e 0100     		.2byte	0x1
 13074 2070 53       		.byte	0x53
 13075 2071 12000000 		.4byte	.LVL344
 13076 2075 25000000 		.4byte	.LVL347-1
 13077 2079 0200     		.2byte	0x2
 13078 207b 74       		.byte	0x74
 13079 207c 10       		.sleb128 16
 13080 207d 25000000 		.4byte	.LVL347-1
 13081 2081 48000000 		.4byte	.LFE41
 13082 2085 0400     		.2byte	0x4
 13083 2087 F3       		.byte	0xf3
 13084 2088 01       		.uleb128 0x1
 13085 2089 53       		.byte	0x53
 13086 208a 9F       		.byte	0x9f
 13087 208b 00000000 		.4byte	0
 13088 208f 00000000 		.4byte	0
 13089              	.LLST167:
 13090 2093 00000000 		.4byte	.LVL342
 13091 2097 3C000000 		.4byte	.LVL348
 13092 209b 0200     		.2byte	0x2
 13093 209d 91       		.byte	0x91
 13094 209e 00       		.sleb128 0
 13095 209f 3C000000 		.4byte	.LVL348
 13096 20a3 40000000 		.4byte	.LVL349
 13097 20a7 0200     		.2byte	0x2
 13098 20a9 7D       		.byte	0x7d
 13099 20aa 00       		.sleb128 0
 13100 20ab 40000000 		.4byte	.LVL349
 13101 20af 48000000 		.4byte	.LFE41
 13102 20b3 0200     		.2byte	0x2
 13103 20b5 91       		.byte	0x91
 13104 20b6 00       		.sleb128 0
 13105 20b7 00000000 		.4byte	0
 13106 20bb 00000000 		.4byte	0
 13107              	.LLST168:
 13108 20bf 16000000 		.4byte	.LVL345
 13109 20c3 25000000 		.4byte	.LVL347-1
 13110 20c7 0100     		.2byte	0x1
ARM GAS  C:\Users\25521\AppData\Local\Temp\ccDmagyc.s 			page 231


 13111 20c9 52       		.byte	0x52
 13112 20ca 25000000 		.4byte	.LVL347-1
 13113 20ce 48000000 		.4byte	.LFE41
 13114 20d2 0400     		.2byte	0x4
 13115 20d4 F3       		.byte	0xf3
 13116 20d5 01       		.uleb128 0x1
 13117 20d6 52       		.byte	0x52
 13118 20d7 9F       		.byte	0x9f
 13119 20d8 00000000 		.4byte	0
 13120 20dc 00000000 		.4byte	0
 13121              	.LLST169:
 13122 20e0 16000000 		.4byte	.LVL345
 13123 20e4 18000000 		.4byte	.LVL346
 13124 20e8 0100     		.2byte	0x1
 13125 20ea 51       		.byte	0x51
 13126 20eb 18000000 		.4byte	.LVL346
 13127 20ef 25000000 		.4byte	.LVL347-1
 13128 20f3 0200     		.2byte	0x2
 13129 20f5 74       		.byte	0x74
 13130 20f6 04       		.sleb128 4
 13131 20f7 25000000 		.4byte	.LVL347-1
 13132 20fb 48000000 		.4byte	.LFE41
 13133 20ff 0400     		.2byte	0x4
 13134 2101 F3       		.byte	0xf3
 13135 2102 01       		.uleb128 0x1
 13136 2103 51       		.byte	0x51
 13137 2104 9F       		.byte	0x9f
 13138 2105 00000000 		.4byte	0
 13139 2109 00000000 		.4byte	0
 13140              	.LLST170:
 13141 210d 16000000 		.4byte	.LVL345
 13142 2111 3C000000 		.4byte	.LVL348
 13143 2115 0100     		.2byte	0x1
 13144 2117 54       		.byte	0x54
 13145 2118 3C000000 		.4byte	.LVL348
 13146 211c 3F000000 		.4byte	.LVL349-1
 13147 2120 0200     		.2byte	0x2
 13148 2122 73       		.byte	0x73
 13149 2123 14       		.sleb128 20
 13150 2124 3F000000 		.4byte	.LVL349-1
 13151 2128 40000000 		.4byte	.LVL349
 13152 212c 0400     		.2byte	0x4
 13153 212e F3       		.byte	0xf3
 13154 212f 01       		.uleb128 0x1
 13155 2130 50       		.byte	0x50
 13156 2131 9F       		.byte	0x9f
 13157 2132 40000000 		.4byte	.LVL349
 13158 2136 48000000 		.4byte	.LFE41
 13159 213a 0100     		.2byte	0x1
 13160 213c 54       		.byte	0x54
 13161 213d 00000000 		.4byte	0
 13162 2141 00000000 		.4byte	0
 13163              		.section	.debug_aranges,"",%progbits
 13164 0000 84010000 		.4byte	0x184
 13165 0004 0200     		.2byte	0x2
 13166 0006 00000000 		.4byte	.Ldebug_info0
 13167 000a 04       		.byte	0x4
ARM GAS  C:\Users\25521\AppData\Local\Temp\ccDmagyc.s 			page 232


 13168 000b 00       		.byte	0
 13169 000c 0000     		.2byte	0
 13170 000e 0000     		.2byte	0
 13171 0010 00000000 		.4byte	.LFB48
 13172 0014 54000000 		.4byte	.LFE48-.LFB48
 13173 0018 00000000 		.4byte	.LFB3
 13174 001c 50000000 		.4byte	.LFE3-.LFB3
 13175 0020 00000000 		.4byte	.LFB4
 13176 0024 7C000000 		.4byte	.LFE4-.LFB4
 13177 0028 00000000 		.4byte	.LFB5
 13178 002c 34000000 		.4byte	.LFE5-.LFB5
 13179 0030 00000000 		.4byte	.LFB6
 13180 0034 CC000000 		.4byte	.LFE6-.LFB6
 13181 0038 00000000 		.4byte	.LFB7
 13182 003c 34000000 		.4byte	.LFE7-.LFB7
 13183 0040 00000000 		.4byte	.LFB8
 13184 0044 3C000000 		.4byte	.LFE8-.LFB8
 13185 0048 00000000 		.4byte	.LFB9
 13186 004c 30000000 		.4byte	.LFE9-.LFB9
 13187 0050 00000000 		.4byte	.LFB10
 13188 0054 2C000000 		.4byte	.LFE10-.LFB10
 13189 0058 00000000 		.4byte	.LFB11
 13190 005c 30000000 		.4byte	.LFE11-.LFB11
 13191 0060 00000000 		.4byte	.LFB12
 13192 0064 4C000000 		.4byte	.LFE12-.LFB12
 13193 0068 00000000 		.4byte	.LFB13
 13194 006c 48000000 		.4byte	.LFE13-.LFB13
 13195 0070 00000000 		.4byte	.LFB14
 13196 0074 40000000 		.4byte	.LFE14-.LFB14
 13197 0078 00000000 		.4byte	.LFB15
 13198 007c 4C000000 		.4byte	.LFE15-.LFB15
 13199 0080 00000000 		.4byte	.LFB17
 13200 0084 50000000 		.4byte	.LFE17-.LFB17
 13201 0088 00000000 		.4byte	.LFB16
 13202 008c 2C000000 		.4byte	.LFE16-.LFB16
 13203 0090 00000000 		.4byte	.LFB18
 13204 0094 50000000 		.4byte	.LFE18-.LFB18
 13205 0098 00000000 		.4byte	.LFB19
 13206 009c 40000000 		.4byte	.LFE19-.LFB19
 13207 00a0 00000000 		.4byte	.LFB20
 13208 00a4 48000000 		.4byte	.LFE20-.LFB20
 13209 00a8 00000000 		.4byte	.LFB22
 13210 00ac 44000000 		.4byte	.LFE22-.LFB22
 13211 00b0 00000000 		.4byte	.LFB21
 13212 00b4 2C000000 		.4byte	.LFE21-.LFB21
 13213 00b8 00000000 		.4byte	.LFB23
 13214 00bc 44000000 		.4byte	.LFE23-.LFB23
 13215 00c0 00000000 		.4byte	.LFB24
 13216 00c4 40000000 		.4byte	.LFE24-.LFB24
 13217 00c8 00000000 		.4byte	.LFB25
 13218 00cc 48000000 		.4byte	.LFE25-.LFB25
 13219 00d0 00000000 		.4byte	.LFB26
 13220 00d4 44000000 		.4byte	.LFE26-.LFB26
 13221 00d8 00000000 		.4byte	.LFB28
 13222 00dc 44000000 		.4byte	.LFE28-.LFB28
 13223 00e0 00000000 		.4byte	.LFB27
 13224 00e4 2C000000 		.4byte	.LFE27-.LFB27
ARM GAS  C:\Users\25521\AppData\Local\Temp\ccDmagyc.s 			page 233


 13225 00e8 00000000 		.4byte	.LFB29
 13226 00ec 48000000 		.4byte	.LFE29-.LFB29
 13227 00f0 00000000 		.4byte	.LFB30
 13228 00f4 50000000 		.4byte	.LFE30-.LFB30
 13229 00f8 00000000 		.4byte	.LFB31
 13230 00fc 34000000 		.4byte	.LFE31-.LFB31
 13231 0100 00000000 		.4byte	.LFB33
 13232 0104 60000000 		.4byte	.LFE33-.LFB33
 13233 0108 00000000 		.4byte	.LFB32
 13234 010c 30000000 		.4byte	.LFE32-.LFB32
 13235 0110 00000000 		.4byte	.LFB34
 13236 0114 60000000 		.4byte	.LFE34-.LFB34
 13237 0118 00000000 		.4byte	.LFB35
 13238 011c 48000000 		.4byte	.LFE35-.LFB35
 13239 0120 00000000 		.4byte	.LFB36
 13240 0124 60000000 		.4byte	.LFE36-.LFB36
 13241 0128 00000000 		.4byte	.LFB37
 13242 012c 34000000 		.4byte	.LFE37-.LFB37
 13243 0130 00000000 		.4byte	.LFB39
 13244 0134 60000000 		.4byte	.LFE39-.LFB39
 13245 0138 00000000 		.4byte	.LFB38
 13246 013c 30000000 		.4byte	.LFE38-.LFB38
 13247 0140 00000000 		.4byte	.LFB40
 13248 0144 7C000000 		.4byte	.LFE40-.LFB40
 13249 0148 00000000 		.4byte	.LFB41
 13250 014c 48000000 		.4byte	.LFE41-.LFB41
 13251 0150 00000000 		.4byte	.LFB42
 13252 0154 70000000 		.4byte	.LFE42-.LFB42
 13253 0158 00000000 		.4byte	.LFB43
 13254 015c 38000000 		.4byte	.LFE43-.LFB43
 13255 0160 00000000 		.4byte	.LFB45
 13256 0164 74000000 		.4byte	.LFE45-.LFB45
 13257 0168 00000000 		.4byte	.LFB44
 13258 016c 34000000 		.4byte	.LFE44-.LFB44
 13259 0170 00000000 		.4byte	.LFB47
 13260 0174 60000000 		.4byte	.LFE47-.LFB47
 13261 0178 00000000 		.4byte	.LFB46
 13262 017c 34000000 		.4byte	.LFE46-.LFB46
 13263 0180 00000000 		.4byte	0
 13264 0184 00000000 		.4byte	0
 13265              		.section	.debug_ranges,"",%progbits
 13266              	.Ldebug_ranges0:
 13267 0000 1A000000 		.4byte	.LBB42
 13268 0004 50000000 		.4byte	.LBE42
 13269 0008 68000000 		.4byte	.LBB51
 13270 000c 70000000 		.4byte	.LBE51
 13271 0010 00000000 		.4byte	0
 13272 0014 00000000 		.4byte	0
 13273 0018 1E000000 		.4byte	.LBB43
 13274 001c 20000000 		.4byte	.LBE43
 13275 0020 26000000 		.4byte	.LBB46
 13276 0024 4A000000 		.4byte	.LBE46
 13277 0028 00000000 		.4byte	0
 13278 002c 00000000 		.4byte	0
 13279 0030 4A000000 		.4byte	.LBB47
 13280 0034 4E000000 		.4byte	.LBE47
 13281 0038 68000000 		.4byte	.LBB50
ARM GAS  C:\Users\25521\AppData\Local\Temp\ccDmagyc.s 			page 234


 13282 003c 6C000000 		.4byte	.LBE50
 13283 0040 00000000 		.4byte	0
 13284 0044 00000000 		.4byte	0
 13285 0048 1A000000 		.4byte	.LBB59
 13286 004c 62000000 		.4byte	.LBE59
 13287 0050 7A000000 		.4byte	.LBB72
 13288 0054 C4000000 		.4byte	.LBE72
 13289 0058 00000000 		.4byte	0
 13290 005c 00000000 		.4byte	0
 13291 0060 1E000000 		.4byte	.LBB60
 13292 0064 22000000 		.4byte	.LBE60
 13293 0068 28000000 		.4byte	.LBB64
 13294 006c 50000000 		.4byte	.LBE64
 13295 0070 7A000000 		.4byte	.LBB68
 13296 0074 7C000000 		.4byte	.LBE68
 13297 0078 00000000 		.4byte	0
 13298 007c 00000000 		.4byte	0
 13299 0080 56000000 		.4byte	.LBB65
 13300 0084 5E000000 		.4byte	.LBE65
 13301 0088 80000000 		.4byte	.LBB69
 13302 008c 84000000 		.4byte	.LBE69
 13303 0090 00000000 		.4byte	0
 13304 0094 00000000 		.4byte	0
 13305 0098 04000000 		.4byte	.LBB81
 13306 009c 06000000 		.4byte	.LBE81
 13307 00a0 08000000 		.4byte	.LBB88
 13308 00a4 0A000000 		.4byte	.LBE88
 13309 00a8 10000000 		.4byte	.LBB89
 13310 00ac 12000000 		.4byte	.LBE89
 13311 00b0 14000000 		.4byte	.LBB90
 13312 00b4 18000000 		.4byte	.LBE90
 13313 00b8 1A000000 		.4byte	.LBB91
 13314 00bc 2E000000 		.4byte	.LBE91
 13315 00c0 34000000 		.4byte	.LBB92
 13316 00c4 40000000 		.4byte	.LBE92
 13317 00c8 00000000 		.4byte	0
 13318 00cc 00000000 		.4byte	0
 13319 00d0 0C000000 		.4byte	.LBB93
 13320 00d4 0E000000 		.4byte	.LBE93
 13321 00d8 10000000 		.4byte	.LBB98
 13322 00dc 12000000 		.4byte	.LBE98
 13323 00e0 16000000 		.4byte	.LBB99
 13324 00e4 1C000000 		.4byte	.LBE99
 13325 00e8 1E000000 		.4byte	.LBB100
 13326 00ec 2E000000 		.4byte	.LBE100
 13327 00f0 00000000 		.4byte	0
 13328 00f4 00000000 		.4byte	0
 13329 00f8 04000000 		.4byte	.LBB101
 13330 00fc 06000000 		.4byte	.LBE101
 13331 0100 08000000 		.4byte	.LBB108
 13332 0104 0A000000 		.4byte	.LBE108
 13333 0108 10000000 		.4byte	.LBB109
 13334 010c 12000000 		.4byte	.LBE109
 13335 0110 14000000 		.4byte	.LBB110
 13336 0114 18000000 		.4byte	.LBE110
 13337 0118 1A000000 		.4byte	.LBB111
 13338 011c 2E000000 		.4byte	.LBE111
ARM GAS  C:\Users\25521\AppData\Local\Temp\ccDmagyc.s 			page 235


 13339 0120 34000000 		.4byte	.LBB112
 13340 0124 40000000 		.4byte	.LBE112
 13341 0128 00000000 		.4byte	0
 13342 012c 00000000 		.4byte	0
 13343 0130 0A000000 		.4byte	.LBB113
 13344 0134 0C000000 		.4byte	.LBE113
 13345 0138 0E000000 		.4byte	.LBB118
 13346 013c 10000000 		.4byte	.LBE118
 13347 0140 14000000 		.4byte	.LBB119
 13348 0144 1A000000 		.4byte	.LBE119
 13349 0148 1C000000 		.4byte	.LBB120
 13350 014c 2C000000 		.4byte	.LBE120
 13351 0150 00000000 		.4byte	0
 13352 0154 00000000 		.4byte	0
 13353 0158 04000000 		.4byte	.LBB121
 13354 015c 06000000 		.4byte	.LBE121
 13355 0160 08000000 		.4byte	.LBB128
 13356 0164 0A000000 		.4byte	.LBE128
 13357 0168 10000000 		.4byte	.LBB129
 13358 016c 12000000 		.4byte	.LBE129
 13359 0170 14000000 		.4byte	.LBB130
 13360 0174 18000000 		.4byte	.LBE130
 13361 0178 1A000000 		.4byte	.LBB131
 13362 017c 2E000000 		.4byte	.LBE131
 13363 0180 34000000 		.4byte	.LBB132
 13364 0184 40000000 		.4byte	.LBE132
 13365 0188 00000000 		.4byte	0
 13366 018c 00000000 		.4byte	0
 13367 0190 0A000000 		.4byte	.LBB133
 13368 0194 0C000000 		.4byte	.LBE133
 13369 0198 0E000000 		.4byte	.LBB138
 13370 019c 10000000 		.4byte	.LBE138
 13371 01a0 14000000 		.4byte	.LBB139
 13372 01a4 1A000000 		.4byte	.LBE139
 13373 01a8 1C000000 		.4byte	.LBB140
 13374 01ac 2C000000 		.4byte	.LBE140
 13375 01b0 00000000 		.4byte	0
 13376 01b4 00000000 		.4byte	0
 13377 01b8 10000000 		.4byte	.LBB141
 13378 01bc 14000000 		.4byte	.LBE141
 13379 01c0 18000000 		.4byte	.LBB146
 13380 01c4 1E000000 		.4byte	.LBE146
 13381 01c8 22000000 		.4byte	.LBB147
 13382 01cc 36000000 		.4byte	.LBE147
 13383 01d0 3C000000 		.4byte	.LBB148
 13384 01d4 48000000 		.4byte	.LBE148
 13385 01d8 00000000 		.4byte	0
 13386 01dc 00000000 		.4byte	0
 13387 01e0 0C000000 		.4byte	.LBB149
 13388 01e4 16000000 		.4byte	.LBE149
 13389 01e8 18000000 		.4byte	.LBB159
 13390 01ec 20000000 		.4byte	.LBE159
 13391 01f0 22000000 		.4byte	.LBB160
 13392 01f4 32000000 		.4byte	.LBE160
 13393 01f8 00000000 		.4byte	0
 13394 01fc 00000000 		.4byte	0
 13395 0200 10000000 		.4byte	.LBB151
ARM GAS  C:\Users\25521\AppData\Local\Temp\ccDmagyc.s 			page 236


 13396 0204 14000000 		.4byte	.LBE151
 13397 0208 18000000 		.4byte	.LBB155
 13398 020c 1E000000 		.4byte	.LBE155
 13399 0210 22000000 		.4byte	.LBB156
 13400 0214 32000000 		.4byte	.LBE156
 13401 0218 00000000 		.4byte	0
 13402 021c 00000000 		.4byte	0
 13403 0220 10000000 		.4byte	.LBB161
 13404 0224 14000000 		.4byte	.LBE161
 13405 0228 18000000 		.4byte	.LBB166
 13406 022c 1E000000 		.4byte	.LBE166
 13407 0230 22000000 		.4byte	.LBB167
 13408 0234 36000000 		.4byte	.LBE167
 13409 0238 3C000000 		.4byte	.LBB168
 13410 023c 48000000 		.4byte	.LBE168
 13411 0240 00000000 		.4byte	0
 13412 0244 00000000 		.4byte	0
 13413 0248 08000000 		.4byte	.LBB169
 13414 024c 0A000000 		.4byte	.LBE169
 13415 0250 0E000000 		.4byte	.LBB182
 13416 0254 16000000 		.4byte	.LBE182
 13417 0258 18000000 		.4byte	.LBB183
 13418 025c 20000000 		.4byte	.LBE183
 13419 0260 26000000 		.4byte	.LBB184
 13420 0264 36000000 		.4byte	.LBE184
 13421 0268 00000000 		.4byte	0
 13422 026c 00000000 		.4byte	0
 13423 0270 0E000000 		.4byte	.LBB171
 13424 0274 10000000 		.4byte	.LBE171
 13425 0278 12000000 		.4byte	.LBB176
 13426 027c 14000000 		.4byte	.LBE176
 13427 0280 18000000 		.4byte	.LBB177
 13428 0284 1E000000 		.4byte	.LBE177
 13429 0288 26000000 		.4byte	.LBB178
 13430 028c 36000000 		.4byte	.LBE178
 13431 0290 00000000 		.4byte	0
 13432 0294 00000000 		.4byte	0
 13433 0298 10000000 		.4byte	.LBB185
 13434 029c 14000000 		.4byte	.LBE185
 13435 02a0 18000000 		.4byte	.LBB190
 13436 02a4 1E000000 		.4byte	.LBE190
 13437 02a8 22000000 		.4byte	.LBB191
 13438 02ac 36000000 		.4byte	.LBE191
 13439 02b0 3C000000 		.4byte	.LBB192
 13440 02b4 48000000 		.4byte	.LBE192
 13441 02b8 00000000 		.4byte	0
 13442 02bc 00000000 		.4byte	0
 13443 02c0 08000000 		.4byte	.LBB193
 13444 02c4 0A000000 		.4byte	.LBE193
 13445 02c8 0E000000 		.4byte	.LBB206
 13446 02cc 14000000 		.4byte	.LBE206
 13447 02d0 16000000 		.4byte	.LBB207
 13448 02d4 20000000 		.4byte	.LBE207
 13449 02d8 24000000 		.4byte	.LBB208
 13450 02dc 34000000 		.4byte	.LBE208
 13451 02e0 00000000 		.4byte	0
 13452 02e4 00000000 		.4byte	0
ARM GAS  C:\Users\25521\AppData\Local\Temp\ccDmagyc.s 			page 237


 13453 02e8 0E000000 		.4byte	.LBB195
 13454 02ec 10000000 		.4byte	.LBE195
 13455 02f0 12000000 		.4byte	.LBB200
 13456 02f4 14000000 		.4byte	.LBE200
 13457 02f8 18000000 		.4byte	.LBB201
 13458 02fc 1E000000 		.4byte	.LBE201
 13459 0300 24000000 		.4byte	.LBB202
 13460 0304 34000000 		.4byte	.LBE202
 13461 0308 00000000 		.4byte	0
 13462 030c 00000000 		.4byte	0
 13463 0310 00000000 		.4byte	.LFB48
 13464 0314 54000000 		.4byte	.LFE48
 13465 0318 00000000 		.4byte	.LFB3
 13466 031c 50000000 		.4byte	.LFE3
 13467 0320 00000000 		.4byte	.LFB4
 13468 0324 7C000000 		.4byte	.LFE4
 13469 0328 00000000 		.4byte	.LFB5
 13470 032c 34000000 		.4byte	.LFE5
 13471 0330 00000000 		.4byte	.LFB6
 13472 0334 CC000000 		.4byte	.LFE6
 13473 0338 00000000 		.4byte	.LFB7
 13474 033c 34000000 		.4byte	.LFE7
 13475 0340 00000000 		.4byte	.LFB8
 13476 0344 3C000000 		.4byte	.LFE8
 13477 0348 00000000 		.4byte	.LFB9
 13478 034c 30000000 		.4byte	.LFE9
 13479 0350 00000000 		.4byte	.LFB10
 13480 0354 2C000000 		.4byte	.LFE10
 13481 0358 00000000 		.4byte	.LFB11
 13482 035c 30000000 		.4byte	.LFE11
 13483 0360 00000000 		.4byte	.LFB12
 13484 0364 4C000000 		.4byte	.LFE12
 13485 0368 00000000 		.4byte	.LFB13
 13486 036c 48000000 		.4byte	.LFE13
 13487 0370 00000000 		.4byte	.LFB14
 13488 0374 40000000 		.4byte	.LFE14
 13489 0378 00000000 		.4byte	.LFB15
 13490 037c 4C000000 		.4byte	.LFE15
 13491 0380 00000000 		.4byte	.LFB17
 13492 0384 50000000 		.4byte	.LFE17
 13493 0388 00000000 		.4byte	.LFB16
 13494 038c 2C000000 		.4byte	.LFE16
 13495 0390 00000000 		.4byte	.LFB18
 13496 0394 50000000 		.4byte	.LFE18
 13497 0398 00000000 		.4byte	.LFB19
 13498 039c 40000000 		.4byte	.LFE19
 13499 03a0 00000000 		.4byte	.LFB20
 13500 03a4 48000000 		.4byte	.LFE20
 13501 03a8 00000000 		.4byte	.LFB22
 13502 03ac 44000000 		.4byte	.LFE22
 13503 03b0 00000000 		.4byte	.LFB21
 13504 03b4 2C000000 		.4byte	.LFE21
 13505 03b8 00000000 		.4byte	.LFB23
 13506 03bc 44000000 		.4byte	.LFE23
 13507 03c0 00000000 		.4byte	.LFB24
 13508 03c4 40000000 		.4byte	.LFE24
 13509 03c8 00000000 		.4byte	.LFB25
ARM GAS  C:\Users\25521\AppData\Local\Temp\ccDmagyc.s 			page 238


 13510 03cc 48000000 		.4byte	.LFE25
 13511 03d0 00000000 		.4byte	.LFB26
 13512 03d4 44000000 		.4byte	.LFE26
 13513 03d8 00000000 		.4byte	.LFB28
 13514 03dc 44000000 		.4byte	.LFE28
 13515 03e0 00000000 		.4byte	.LFB27
 13516 03e4 2C000000 		.4byte	.LFE27
 13517 03e8 00000000 		.4byte	.LFB29
 13518 03ec 48000000 		.4byte	.LFE29
 13519 03f0 00000000 		.4byte	.LFB30
 13520 03f4 50000000 		.4byte	.LFE30
 13521 03f8 00000000 		.4byte	.LFB31
 13522 03fc 34000000 		.4byte	.LFE31
 13523 0400 00000000 		.4byte	.LFB33
 13524 0404 60000000 		.4byte	.LFE33
 13525 0408 00000000 		.4byte	.LFB32
 13526 040c 30000000 		.4byte	.LFE32
 13527 0410 00000000 		.4byte	.LFB34
 13528 0414 60000000 		.4byte	.LFE34
 13529 0418 00000000 		.4byte	.LFB35
 13530 041c 48000000 		.4byte	.LFE35
 13531 0420 00000000 		.4byte	.LFB36
 13532 0424 60000000 		.4byte	.LFE36
 13533 0428 00000000 		.4byte	.LFB37
 13534 042c 34000000 		.4byte	.LFE37
 13535 0430 00000000 		.4byte	.LFB39
 13536 0434 60000000 		.4byte	.LFE39
 13537 0438 00000000 		.4byte	.LFB38
 13538 043c 30000000 		.4byte	.LFE38
 13539 0440 00000000 		.4byte	.LFB40
 13540 0444 7C000000 		.4byte	.LFE40
 13541 0448 00000000 		.4byte	.LFB41
 13542 044c 48000000 		.4byte	.LFE41
 13543 0450 00000000 		.4byte	.LFB42
 13544 0454 70000000 		.4byte	.LFE42
 13545 0458 00000000 		.4byte	.LFB43
 13546 045c 38000000 		.4byte	.LFE43
 13547 0460 00000000 		.4byte	.LFB45
 13548 0464 74000000 		.4byte	.LFE45
 13549 0468 00000000 		.4byte	.LFB44
 13550 046c 34000000 		.4byte	.LFE44
 13551 0470 00000000 		.4byte	.LFB47
 13552 0474 60000000 		.4byte	.LFE47
 13553 0478 00000000 		.4byte	.LFB46
 13554 047c 34000000 		.4byte	.LFE46
 13555 0480 00000000 		.4byte	0
 13556 0484 00000000 		.4byte	0
 13557              		.section	.debug_line,"",%progbits
 13558              	.Ldebug_line0:
 13559 0000 FD090000 		.section	.debug_str,"MS",%progbits,1
 13559      0200C802 
 13559      00000201 
 13559      FB0E0D00 
 13559      01010101 
 13560              	.LASF45:
 13561 0000 5F64736F 		.ascii	"_dso_handle\000"
 13561      5F68616E 
ARM GAS  C:\Users\25521\AppData\Local\Temp\ccDmagyc.s 			page 239


 13561      646C6500 
 13562              	.LASF144:
 13563 000c 76616C75 		.ascii	"value\000"
 13563      6500
 13564              	.LASF53:
 13565 0012 5F73697A 		.ascii	"_size\000"
 13565      6500
 13566              	.LASF172:
 13567 0018 70617261 		.ascii	"parameter_vector_dim\000"
 13567      6D657465 
 13567      725F7665 
 13567      63746F72 
 13567      5F64696D 
 13568              	.LASF191:
 13569 002d 5F706172 		.ascii	"_parameter_changed_clear\000"
 13569      616D6574 
 13569      65725F63 
 13569      68616E67 
 13569      65645F63 
 13570              	.LASF5:
 13571 0046 73697A65 		.ascii	"size_t\000"
 13571      5F7400
 13572              	.LASF166:
 13573 004d 696E6974 		.ascii	"init_size\000"
 13573      5F73697A 
 13573      6500
 13574              	.LASF97:
 13575 0057 5F72616E 		.ascii	"_rand48\000"
 13575      64343800 
 13576              	.LASF174:
 13577 005f 70617261 		.ascii	"parameter_vector_declare\000"
 13577      6D657465 
 13577      725F7665 
 13577      63746F72 
 13577      5F646563 
 13578              	.LASF77:
 13579 0078 5F656D65 		.ascii	"_emergency\000"
 13579      7267656E 
 13579      637900
 13580              	.LASF6:
 13581 0083 5F5F7569 		.ascii	"__uint8_t\000"
 13581      6E74385F 
 13581      7400
 13582              	.LASF113:
 13583 008d 5F676574 		.ascii	"_getdate_err\000"
 13583      64617465 
 13583      5F657272 
 13583      00
 13584              	.LASF67:
 13585 009a 5F646174 		.ascii	"_data\000"
 13585      6100
 13586              	.LASF143:
 13587 00a0 74797065 		.ascii	"type\000"
 13587      00
 13588              	.LASF216:
 13589 00a5 7374726E 		.ascii	"strncpy\000"
 13589      63707900 
ARM GAS  C:\Users\25521\AppData\Local\Temp\ccDmagyc.s 			page 240


 13590              	.LASF133:
 13591 00ad 70617261 		.ascii	"parameter_namespace_s\000"
 13591      6D657465 
 13591      725F6E61 
 13591      6D657370 
 13591      6163655F 
 13592              	.LASF132:
 13593 00c3 70617261 		.ascii	"parameter_namespace_t\000"
 13593      6D657465 
 13593      725F6E61 
 13593      6D657370 
 13593      6163655F 
 13594              	.LASF117:
 13595 00d9 5F776372 		.ascii	"_wcrtomb_state\000"
 13595      746F6D62 
 13595      5F737461 
 13595      746500
 13596              	.LASF140:
 13597 00e8 70617261 		.ascii	"parameter_s\000"
 13597      6D657465 
 13597      725F7300 
 13598              	.LASF118:
 13599 00f4 5F776373 		.ascii	"_wcsrtombs_state\000"
 13599      72746F6D 
 13599      62735F73 
 13599      74617465 
 13599      00
 13600              	.LASF15:
 13601 0105 6C6F6E67 		.ascii	"long long unsigned int\000"
 13601      206C6F6E 
 13601      6720756E 
 13601      7369676E 
 13601      65642069 
 13602              	.LASF181:
 13603 011c 70617261 		.ascii	"parameter_integer_set\000"
 13603      6D657465 
 13603      725F696E 
 13603      74656765 
 13603      725F7365 
 13604              	.LASF57:
 13605 0132 5F6C6266 		.ascii	"_lbfsize\000"
 13605      73697A65 
 13605      00
 13606              	.LASF212:
 13607 013b 70617261 		.ascii	"parameter_port_assert\000"
 13607      6D657465 
 13607      725F706F 
 13607      72745F61 
 13607      73736572 
 13608              	.LASF154:
 13609 0151 6F75745F 		.ascii	"out_size\000"
 13609      73697A65 
 13609      00
 13610              	.LASF124:
 13611 015a 5F5F6C6F 		.ascii	"__locale_t\000"
 13611      63616C65 
 13611      5F7400
ARM GAS  C:\Users\25521\AppData\Local\Temp\ccDmagyc.s 			page 241


 13612              	.LASF139:
 13613 0165 70617261 		.ascii	"parameter_t\000"
 13613      6D657465 
 13613      725F7400 
 13614              	.LASF168:
 13615 0171 70617261 		.ascii	"parameter_variable_vector_declare\000"
 13615      6D657465 
 13615      725F7661 
 13615      72696162 
 13615      6C655F76 
 13616              	.LASF203:
 13617 0193 5F706172 		.ascii	"_parameter_namespace_find_w_id_len\000"
 13617      616D6574 
 13617      65725F6E 
 13617      616D6573 
 13617      70616365 
 13618              	.LASF148:
 13619 01b6 6275665F 		.ascii	"buf_dim\000"
 13619      64696D00 
 13620              	.LASF115:
 13621 01be 5F6D6272 		.ascii	"_mbrtowc_state\000"
 13621      746F7763 
 13621      5F737461 
 13621      746500
 13622              	.LASF137:
 13623 01cd 6E657874 		.ascii	"next\000"
 13623      00
 13624              	.LASF196:
 13625 01d2 70617261 		.ascii	"parameter_namespace_contains_changed\000"
 13625      6D657465 
 13625      725F6E61 
 13625      6D657370 
 13625      6163655F 
 13626              	.LASF34:
 13627 01f7 5F5F746D 		.ascii	"__tm_sec\000"
 13627      5F736563 
 13627      00
 13628              	.LASF2:
 13629 0200 6C6F6E67 		.ascii	"long long int\000"
 13629      206C6F6E 
 13629      6720696E 
 13629      7400
 13630              	.LASF4:
 13631 020e 7369676E 		.ascii	"signed char\000"
 13631      65642063 
 13631      68617200 
 13632              	.LASF146:
 13633 021a 6275665F 		.ascii	"buf_len\000"
 13633      6C656E00 
 13634              	.LASF63:
 13635 0222 5F756275 		.ascii	"_ubuf\000"
 13635      6600
 13636              	.LASF141:
 13637 0228 6368616E 		.ascii	"changed\000"
 13637      67656400 
 13638              	.LASF52:
 13639 0230 5F626173 		.ascii	"_base\000"
ARM GAS  C:\Users\25521\AppData\Local\Temp\ccDmagyc.s 			page 242


 13639      6500
 13640              	.LASF153:
 13641 0236 70617261 		.ascii	"parameter_string_set\000"
 13641      6D657465 
 13641      725F7374 
 13641      72696E67 
 13641      5F736574 
 13642              	.LASF36:
 13643 024b 5F5F746D 		.ascii	"__tm_hour\000"
 13643      5F686F75 
 13643      7200
 13644              	.LASF92:
 13645 0255 5F5F7366 		.ascii	"__sf\000"
 13645      00
 13646              	.LASF43:
 13647 025a 5F6F6E5F 		.ascii	"_on_exit_args\000"
 13647      65786974 
 13647      5F617267 
 13647      7300
 13648              	.LASF190:
 13649 0268 70617261 		.ascii	"parameter_scalar_declare\000"
 13649      6D657465 
 13649      725F7363 
 13649      616C6172 
 13649      5F646563 
 13650              	.LASF145:
 13651 0281 5F706172 		.ascii	"_param_val_str_s\000"
 13651      616D5F76 
 13651      616C5F73 
 13651      74725F73 
 13651      00
 13652              	.LASF58:
 13653 0292 5F636F6F 		.ascii	"_cookie\000"
 13653      6B696500 
 13654              	.LASF135:
 13655 029a 70617265 		.ascii	"parent\000"
 13655      6E7400
 13656              	.LASF91:
 13657 02a1 5F5F7367 		.ascii	"__sglue\000"
 13657      6C756500 
 13658              	.LASF12:
 13659 02a9 6C6F6E67 		.ascii	"long int\000"
 13659      20696E74 
 13659      00
 13660              	.LASF159:
 13661 02b2 6275665F 		.ascii	"buf_size\000"
 13661      73697A65 
 13661      00
 13662              	.LASF55:
 13663 02bb 5F666C61 		.ascii	"_flags\000"
 13663      677300
 13664              	.LASF47:
 13665 02c2 5F69735F 		.ascii	"_is_cxa\000"
 13665      63786100 
 13666              	.LASF73:
 13667 02ca 5F737464 		.ascii	"_stdin\000"
 13667      696E00
ARM GAS  C:\Users\25521\AppData\Local\Temp\ccDmagyc.s 			page 243


 13668              	.LASF198:
 13669 02d1 70617261 		.ascii	"parameter_find\000"
 13669      6D657465 
 13669      725F6669 
 13669      6E6400
 13670              	.LASF157:
 13671 02e0 70617261 		.ascii	"parameter_string_max_len\000"
 13671      6D657465 
 13671      725F7374 
 13671      72696E67 
 13671      5F6D6178 
 13672              	.LASF65:
 13673 02f9 5F626C6B 		.ascii	"_blksize\000"
 13673      73697A65 
 13673      00
 13674              	.LASF128:
 13675 0302 75696E74 		.ascii	"uint16_t\000"
 13675      31365F74 
 13675      00
 13676              	.LASF142:
 13677 030b 64656669 		.ascii	"defined\000"
 13677      6E656400 
 13678              	.LASF209:
 13679 0313 6E735F69 		.ascii	"ns_id\000"
 13679      6400
 13680              	.LASF138:
 13681 0319 70617261 		.ascii	"parameter_list\000"
 13681      6D657465 
 13681      725F6C69 
 13681      737400
 13682              	.LASF87:
 13683 0328 5F637674 		.ascii	"_cvtbuf\000"
 13683      62756600 
 13684              	.LASF66:
 13685 0330 5F6F6666 		.ascii	"_offset\000"
 13685      73657400 
 13686              	.LASF116:
 13687 0338 5F6D6273 		.ascii	"_mbsrtowcs_state\000"
 13687      72746F77 
 13687      63735F73 
 13687      74617465 
 13687      00
 13688              	.LASF219:
 13689 0349 2E2F2F73 		.ascii	".//src/parameter/parameter.c\000"
 13689      72632F70 
 13689      6172616D 
 13689      65746572 
 13689      2F706172 
 13690              	.LASF114:
 13691 0366 5F6D6272 		.ascii	"_mbrlen_state\000"
 13691      6C656E5F 
 13691      73746174 
 13691      6500
 13692              	.LASF44:
 13693 0374 5F666E61 		.ascii	"_fnargs\000"
 13693      72677300 
 13694              	.LASF162:
ARM GAS  C:\Users\25521\AppData\Local\Temp\ccDmagyc.s 			page 244


 13695 037c 70617261 		.ascii	"parameter_variable_vector_read\000"
 13695      6D657465 
 13695      725F7661 
 13695      72696162 
 13695      6C655F76 
 13696              	.LASF204:
 13697 039b 6E726574 		.ascii	"nret\000"
 13697      00
 13698              	.LASF50:
 13699 03a0 5F666E73 		.ascii	"_fns\000"
 13699      00
 13700              	.LASF13:
 13701 03a5 5F5F7569 		.ascii	"__uint32_t\000"
 13701      6E743332 
 13701      5F7400
 13702              	.LASF165:
 13703 03b0 70617261 		.ascii	"parameter_variable_vector_declare_with_default\000"
 13703      6D657465 
 13703      725F7661 
 13703      72696162 
 13703      6C655F76 
 13704              	.LASF30:
 13705 03df 5F736967 		.ascii	"_sign\000"
 13705      6E00
 13706              	.LASF199:
 13707 03e5 5F706172 		.ascii	"_parameter_find_w_id_len\000"
 13707      616D6574 
 13707      65725F66 
 13707      696E645F 
 13707      775F6964 
 13708              	.LASF25:
 13709 03fe 5F666C6F 		.ascii	"_flock_t\000"
 13709      636B5F74 
 13709      00
 13710              	.LASF75:
 13711 0407 5F737464 		.ascii	"_stderr\000"
 13711      65727200 
 13712              	.LASF32:
 13713 040f 5F426967 		.ascii	"_Bigint\000"
 13713      696E7400 
 13714              	.LASF105:
 13715 0417 5F67616D 		.ascii	"_gamma_signgam\000"
 13715      6D615F73 
 13715      69676E67 
 13715      616D00
 13716              	.LASF28:
 13717 0426 5F6E6578 		.ascii	"_next\000"
 13717      7400
 13718              	.LASF149:
 13719 042c 5F706172 		.ascii	"_param_val_matrix_s\000"
 13719      616D5F76 
 13719      616C5F6D 
 13719      61747269 
 13719      785F7300 
 13720              	.LASF59:
 13721 0440 5F726561 		.ascii	"_read\000"
 13721      6400
ARM GAS  C:\Users\25521\AppData\Local\Temp\ccDmagyc.s 			page 245


 13722              	.LASF83:
 13723 0446 5F726573 		.ascii	"_result_k\000"
 13723      756C745F 
 13723      6B00
 13724              	.LASF33:
 13725 0450 5F5F746D 		.ascii	"__tm\000"
 13725      00
 13726              	.LASF187:
 13727 0455 70617261 		.ascii	"parameter_scalar_read\000"
 13727      6D657465 
 13727      725F7363 
 13727      616C6172 
 13727      5F726561 
 13728              	.LASF1:
 13729 046b 756E7369 		.ascii	"unsigned int\000"
 13729      676E6564 
 13729      20696E74 
 13729      00
 13730              	.LASF218:
 13731 0478 474E5520 		.ascii	"GNU C11 7.2.1 20170904 (release) [ARM/embedded-7-br"
 13731      43313120 
 13731      372E322E 
 13731      31203230 
 13731      31373039 
 13732 04ab 616E6368 		.ascii	"anch revision 255204] -mcpu=cortex-m4 -mfloat-abi=h"
 13732      20726576 
 13732      6973696F 
 13732      6E203235 
 13732      35323034 
 13733 04de 61726420 		.ascii	"ard -mfpu=fpv4-sp-d16 -mno-thumb-interwork -mthumb "
 13733      2D6D6670 
 13733      753D6670 
 13733      76342D73 
 13733      702D6431 
 13734 0511 2D676764 		.ascii	"-ggdb -O2 -fomit-frame-pointer -falign-functions=16"
 13734      62202D4F 
 13734      32202D66 
 13734      6F6D6974 
 13734      2D667261 
 13735 0544 202D666E 		.ascii	" -fno-strict-aliasing -fstack-protector-all -ffunct"
 13735      6F2D7374 
 13735      72696374 
 13735      2D616C69 
 13735      6173696E 
 13736 0577 696F6E2D 		.ascii	"ion-sections -fdata-sections -fno-common -fsingle-p"
 13736      73656374 
 13736      696F6E73 
 13736      202D6664 
 13736      6174612D 
 13737 05aa 72656369 		.ascii	"recision-constant\000"
 13737      73696F6E 
 13737      2D636F6E 
 13737      7374616E 
 13737      7400
 13738              	.LASF21:
 13739 05bc 5F5F7763 		.ascii	"__wchb\000"
 13739      686200
ARM GAS  C:\Users\25521\AppData\Local\Temp\ccDmagyc.s 			page 246


 13740              	.LASF74:
 13741 05c3 5F737464 		.ascii	"_stdout\000"
 13741      6F757400 
 13742              	.LASF86:
 13743 05cb 5F637674 		.ascii	"_cvtlen\000"
 13743      6C656E00 
 13744              	.LASF14:
 13745 05d3 6C6F6E67 		.ascii	"long unsigned int\000"
 13745      20756E73 
 13745      69676E65 
 13745      6420696E 
 13745      7400
 13746              	.LASF56:
 13747 05e5 5F66696C 		.ascii	"_file\000"
 13747      6500
 13748              	.LASF170:
 13749 05eb 70617261 		.ascii	"parameter_vector_read\000"
 13749      6D657465 
 13749      725F7665 
 13749      63746F72 
 13749      5F726561 
 13750              	.LASF213:
 13751 0601 70617261 		.ascii	"parameter_port_lock\000"
 13751      6D657465 
 13751      725F706F 
 13751      72745F6C 
 13751      6F636B00 
 13752              	.LASF95:
 13753 0615 5F6E696F 		.ascii	"_niobs\000"
 13753      627300
 13754              	.LASF10:
 13755 061c 73686F72 		.ascii	"short unsigned int\000"
 13755      7420756E 
 13755      7369676E 
 13755      65642069 
 13755      6E7400
 13756              	.LASF89:
 13757 062f 5F617465 		.ascii	"_atexit0\000"
 13757      78697430 
 13757      00
 13758              	.LASF182:
 13759 0638 70617261 		.ascii	"parameter_integer_read\000"
 13759      6D657465 
 13759      725F696E 
 13759      74656765 
 13759      725F7265 
 13760              	.LASF112:
 13761 064f 5F736967 		.ascii	"_signal_buf\000"
 13761      6E616C5F 
 13761      62756600 
 13762              	.LASF103:
 13763 065b 5F617363 		.ascii	"_asctime_buf\000"
 13763      74696D65 
 13763      5F627566 
 13763      00
 13764              	.LASF215:
 13765 0668 7374726C 		.ascii	"strlen\000"
ARM GAS  C:\Users\25521\AppData\Local\Temp\ccDmagyc.s 			page 247


 13765      656E00
 13766              	.LASF180:
 13767 066f 70617261 		.ascii	"parameter_boolean_declare\000"
 13767      6D657465 
 13767      725F626F 
 13767      6F6C6561 
 13767      6E5F6465 
 13768              	.LASF82:
 13769 0689 5F726573 		.ascii	"_result\000"
 13769      756C7400 
 13770              	.LASF20:
 13771 0691 5F5F7763 		.ascii	"__wch\000"
 13771      6800
 13772              	.LASF221:
 13773 0697 6D656D63 		.ascii	"memcpy\000"
 13773      707900
 13774              	.LASF16:
 13775 069e 5F4C4F43 		.ascii	"_LOCK_T\000"
 13775      4B5F5400 
 13776              	.LASF19:
 13777 06a6 77696E74 		.ascii	"wint_t\000"
 13777      5F7400
 13778              	.LASF222:
 13779 06ad 5F5F6275 		.ascii	"__builtin_memcpy\000"
 13779      696C7469 
 13779      6E5F6D65 
 13779      6D637079 
 13779      00
 13780              	.LASF68:
 13781 06be 5F6C6F63 		.ascii	"_lock\000"
 13781      6B00
 13782              	.LASF200:
 13783 06c4 69645F6C 		.ascii	"id_len\000"
 13783      656E00
 13784              	.LASF70:
 13785 06cb 5F666C61 		.ascii	"_flags2\000"
 13785      67733200 
 13786              	.LASF206:
 13787 06d3 70617261 		.ascii	"param_id_len\000"
 13787      6D5F6964 
 13787      5F6C656E 
 13787      00
 13788              	.LASF185:
 13789 06e0 70617261 		.ascii	"parameter_integer_declare\000"
 13789      6D657465 
 13789      725F696E 
 13789      74656765 
 13789      725F6465 
 13790              	.LASF60:
 13791 06fa 5F777269 		.ascii	"_write\000"
 13791      746500
 13792              	.LASF39:
 13793 0701 5F5F746D 		.ascii	"__tm_year\000"
 13793      5F796561 
 13793      7200
 13794              	.LASF217:
 13795 070b 7374726E 		.ascii	"strncmp\000"
ARM GAS  C:\Users\25521\AppData\Local\Temp\ccDmagyc.s 			page 248


 13795      636D7000 
 13796              	.LASF160:
 13797 0713 64656661 		.ascii	"default_str\000"
 13797      756C745F 
 13797      73747200 
 13798              	.LASF179:
 13799 071f 64656661 		.ascii	"default_val\000"
 13799      756C745F 
 13799      76616C00 
 13800              	.LASF3:
 13801 072b 6C6F6E67 		.ascii	"long double\000"
 13801      20646F75 
 13801      626C6500 
 13802              	.LASF207:
 13803 0737 6765745F 		.ascii	"get_parameter\000"
 13803      70617261 
 13803      6D657465 
 13803      7200
 13804              	.LASF120:
 13805 0745 5F6E6578 		.ascii	"_nextf\000"
 13805      746600
 13806              	.LASF197:
 13807 074c 5F706172 		.ascii	"_parameter_declare\000"
 13807      616D6574 
 13807      65725F64 
 13807      65636C61 
 13807      726500
 13808              	.LASF201:
 13809 075f 69645F65 		.ascii	"id_elem_len\000"
 13809      6C656D5F 
 13809      6C656E00 
 13810              	.LASF175:
 13811 076b 70617261 		.ascii	"parameter_boolean_read\000"
 13811      6D657465 
 13811      725F626F 
 13811      6F6C6561 
 13811      6E5F7265 
 13812              	.LASF38:
 13813 0782 5F5F746D 		.ascii	"__tm_mon\000"
 13813      5F6D6F6E 
 13813      00
 13814              	.LASF48:
 13815 078b 5F617465 		.ascii	"_atexit\000"
 13815      78697400 
 13816              	.LASF131:
 13817 0793 7375626F 		.ascii	"suboptarg\000"
 13817      70746172 
 13817      6700
 13818              	.LASF80:
 13819 079d 5F5F7364 		.ascii	"__sdidinit\000"
 13819      6964696E 
 13819      697400
 13820              	.LASF17:
 13821 07a8 5F6F6666 		.ascii	"_off_t\000"
 13821      5F7400
 13822              	.LASF127:
 13823 07af 75696E74 		.ascii	"uint8_t\000"
ARM GAS  C:\Users\25521\AppData\Local\Temp\ccDmagyc.s 			page 249


 13823      385F7400 
 13824              	.LASF0:
 13825 07b7 666C6F61 		.ascii	"float\000"
 13825      7400
 13826              	.LASF85:
 13827 07bd 5F667265 		.ascii	"_freelist\000"
 13827      656C6973 
 13827      7400
 13828              	.LASF178:
 13829 07c7 70617261 		.ascii	"parameter_boolean_declare_with_default\000"
 13829      6D657465 
 13829      725F626F 
 13829      6F6C6561 
 13829      6E5F6465 
 13830              	.LASF193:
 13831 07ee 5F706172 		.ascii	"_parameter_changed_set\000"
 13831      616D6574 
 13831      65725F63 
 13831      68616E67 
 13831      65645F73 
 13832              	.LASF110:
 13833 0805 5F776374 		.ascii	"_wctomb_state\000"
 13833      6F6D625F 
 13833      73746174 
 13833      6500
 13834              	.LASF184:
 13835 0813 70617261 		.ascii	"parameter_integer_declare_with_default\000"
 13835      6D657465 
 13835      725F696E 
 13835      74656765 
 13835      725F6465 
 13836              	.LASF210:
 13837 083a 6E735F69 		.ascii	"ns_id_len\000"
 13837      645F6C65 
 13837      6E00
 13838              	.LASF152:
 13839 0844 70617261 		.ascii	"parameter_string_set_w_len\000"
 13839      6D657465 
 13839      725F7374 
 13839      72696E67 
 13839      5F736574 
 13840              	.LASF151:
 13841 085f 5F426F6F 		.ascii	"_Bool\000"
 13841      6C00
 13842              	.LASF129:
 13843 0865 696E7433 		.ascii	"int32_t\000"
 13843      325F7400 
 13844              	.LASF7:
 13845 086d 756E7369 		.ascii	"unsigned char\000"
 13845      676E6564 
 13845      20636861 
 13845      7200
 13846              	.LASF88:
 13847 087b 5F6E6577 		.ascii	"_new\000"
 13847      00
 13848              	.LASF155:
 13849 0880 70617261 		.ascii	"parameter_string_read\000"
ARM GAS  C:\Users\25521\AppData\Local\Temp\ccDmagyc.s 			page 250


 13849      6D657465 
 13849      725F7374 
 13849      72696E67 
 13849      5F726561 
 13850              	.LASF211:
 13851 0896 69645F73 		.ascii	"id_split\000"
 13851      706C6974 
 13851      00
 13852              	.LASF119:
 13853 089f 5F685F65 		.ascii	"_h_errno\000"
 13853      72726E6F 
 13853      00
 13854              	.LASF8:
 13855 08a8 73686F72 		.ascii	"short int\000"
 13855      7420696E 
 13855      7400
 13856              	.LASF41:
 13857 08b2 5F5F746D 		.ascii	"__tm_yday\000"
 13857      5F796461 
 13857      7900
 13858              	.LASF51:
 13859 08bc 5F5F7362 		.ascii	"__sbuf\000"
 13859      756600
 13860              	.LASF147:
 13861 08c3 5F706172 		.ascii	"_param_val_vector_s\000"
 13861      616D5F76 
 13861      616C5F76 
 13861      6563746F 
 13861      725F7300 
 13862              	.LASF96:
 13863 08d7 5F696F62 		.ascii	"_iobs\000"
 13863      7300
 13864              	.LASF93:
 13865 08dd 5F5F4649 		.ascii	"__FILE\000"
 13865      4C4500
 13866              	.LASF24:
 13867 08e4 5F6D6273 		.ascii	"_mbstate_t\000"
 13867      74617465 
 13867      5F7400
 13868              	.LASF54:
 13869 08ef 5F5F7346 		.ascii	"__sFILE\000"
 13869      494C4500 
 13870              	.LASF69:
 13871 08f7 5F6D6273 		.ascii	"_mbstate\000"
 13871      74617465 
 13871      00
 13872              	.LASF106:
 13873 0900 5F72616E 		.ascii	"_rand_next\000"
 13873      645F6E65 
 13873      787400
 13874              	.LASF136:
 13875 090b 73756273 		.ascii	"subspaces\000"
 13875      70616365 
 13875      7300
 13876              	.LASF108:
 13877 0915 5F6D626C 		.ascii	"_mblen_state\000"
 13877      656E5F73 
ARM GAS  C:\Users\25521\AppData\Local\Temp\ccDmagyc.s 			page 251


 13877      74617465 
 13877      00
 13878              	.LASF76:
 13879 0922 5F696E63 		.ascii	"_inc\000"
 13879      00
 13880              	.LASF49:
 13881 0927 5F696E64 		.ascii	"_ind\000"
 13881      00
 13882              	.LASF79:
 13883 092c 5F6C6F63 		.ascii	"_locale\000"
 13883      616C6500 
 13884              	.LASF81:
 13885 0934 5F5F636C 		.ascii	"__cleanup\000"
 13885      65616E75 
 13885      7000
 13886              	.LASF78:
 13887 093e 5F756E73 		.ascii	"_unspecified_locale_info\000"
 13887      70656369 
 13887      66696564 
 13887      5F6C6F63 
 13887      616C655F 
 13888              	.LASF223:
 13889 0957 5F5F7374 		.ascii	"__stack_chk_fail\000"
 13889      61636B5F 
 13889      63686B5F 
 13889      6661696C 
 13889      00
 13890              	.LASF29:
 13891 0968 5F6D6178 		.ascii	"_maxwds\000"
 13891      77647300 
 13892              	.LASF71:
 13893 0970 5F726565 		.ascii	"_reent\000"
 13893      6E7400
 13894              	.LASF98:
 13895 0977 5F736565 		.ascii	"_seed\000"
 13895      6400
 13896              	.LASF22:
 13897 097d 5F5F636F 		.ascii	"__count\000"
 13897      756E7400 
 13898              	.LASF123:
 13899 0985 5F5F6C6F 		.ascii	"__lock\000"
 13899      636B00
 13900              	.LASF23:
 13901 098c 5F5F7661 		.ascii	"__value\000"
 13901      6C756500 
 13902              	.LASF61:
 13903 0994 5F736565 		.ascii	"_seek\000"
 13903      6B00
 13904              	.LASF163:
 13905 099a 70617261 		.ascii	"parameter_variable_vector_get\000"
 13905      6D657465 
 13905      725F7661 
 13905      72696162 
 13905      6C655F76 
 13906              	.LASF125:
 13907 09b8 5F696D70 		.ascii	"_impure_ptr\000"
 13907      7572655F 
ARM GAS  C:\Users\25521\AppData\Local\Temp\ccDmagyc.s 			page 252


 13907      70747200 
 13908              	.LASF195:
 13909 09c4 70617261 		.ascii	"parameter_changed\000"
 13909      6D657465 
 13909      725F6368 
 13909      616E6765 
 13909      6400
 13910              	.LASF18:
 13911 09d6 5F66706F 		.ascii	"_fpos_t\000"
 13911      735F7400 
 13912              	.LASF177:
 13913 09de 70617261 		.ascii	"parameter_boolean_set\000"
 13913      6D657465 
 13913      725F626F 
 13913      6F6C6561 
 13913      6E5F7365 
 13914              	.LASF186:
 13915 09f4 70617261 		.ascii	"parameter_scalar_set\000"
 13915      6D657465 
 13915      725F7363 
 13915      616C6172 
 13915      5F736574 
 13916              	.LASF72:
 13917 0a09 5F657272 		.ascii	"_errno\000"
 13917      6E6F00
 13918              	.LASF26:
 13919 0a10 63686172 		.ascii	"char\000"
 13919      00
 13920              	.LASF173:
 13921 0a15 70617261 		.ascii	"parameter_vector_declare_with_default\000"
 13921      6D657465 
 13921      725F7665 
 13921      63746F72 
 13921      5F646563 
 13922              	.LASF35:
 13923 0a3b 5F5F746D 		.ascii	"__tm_min\000"
 13923      5F6D696E 
 13923      00
 13924              	.LASF202:
 13925 0a44 70617261 		.ascii	"parameter_namespace_find\000"
 13925      6D657465 
 13925      725F6E61 
 13925      6D657370 
 13925      6163655F 
 13926              	.LASF9:
 13927 0a5d 5F5F7569 		.ascii	"__uint16_t\000"
 13927      6E743136 
 13927      5F7400
 13928              	.LASF208:
 13929 0a68 6765745F 		.ascii	"get_subnamespace\000"
 13929      7375626E 
 13929      616D6573 
 13929      70616365 
 13929      00
 13930              	.LASF150:
 13931 0a79 76656374 		.ascii	"vect\000"
 13931      00
ARM GAS  C:\Users\25521\AppData\Local\Temp\ccDmagyc.s 			page 253


 13932              	.LASF11:
 13933 0a7e 5F5F696E 		.ascii	"__int32_t\000"
 13933      7433325F 
 13933      7400
 13934              	.LASF169:
 13935 0a88 70617261 		.ascii	"parameter_vector_set\000"
 13935      6D657465 
 13935      725F7665 
 13935      63746F72 
 13935      5F736574 
 13936              	.LASF99:
 13937 0a9d 5F6D756C 		.ascii	"_mult\000"
 13937      7400
 13938              	.LASF220:
 13939 0aa3 473A5C30 		.ascii	"G:\\00Epuck\\00e-puck2_code\\e-puck2_main-processor"
 13939      30457075 
 13939      636B5C30 
 13939      30652D70 
 13939      75636B32 
 13940 0ad3 00       		.ascii	"\000"
 13941              	.LASF102:
 13942 0ad4 5F737472 		.ascii	"_strtok_last\000"
 13942      746F6B5F 
 13942      6C617374 
 13942      00
 13943              	.LASF205:
 13944 0ae1 70617261 		.ascii	"parameter_namespace_declare\000"
 13944      6D657465 
 13944      725F6E61 
 13944      6D657370 
 13944      6163655F 
 13945              	.LASF167:
 13946 0afd 70617261 		.ascii	"parameter_string_declare\000"
 13946      6D657465 
 13946      725F7374 
 13946      72696E67 
 13946      5F646563 
 13947              	.LASF46:
 13948 0b16 5F666E74 		.ascii	"_fntypes\000"
 13948      79706573 
 13948      00
 13949              	.LASF158:
 13950 0b1f 70617261 		.ascii	"parameter_string_declare_with_default\000"
 13950      6D657465 
 13950      725F7374 
 13950      72696E67 
 13950      5F646563 
 13951              	.LASF134:
 13952 0b45 6368616E 		.ascii	"changed_cnt\000"
 13952      6765645F 
 13952      636E7400 
 13953              	.LASF161:
 13954 0b51 70617261 		.ascii	"parameter_variable_vector_set\000"
 13954      6D657465 
 13954      725F7661 
 13954      72696162 
 13954      6C655F76 
ARM GAS  C:\Users\25521\AppData\Local\Temp\ccDmagyc.s 			page 254


 13955              	.LASF100:
 13956 0b6f 5F616464 		.ascii	"_add\000"
 13956      00
 13957              	.LASF27:
 13958 0b74 5F5F554C 		.ascii	"__ULong\000"
 13958      6F6E6700 
 13959              	.LASF183:
 13960 0b7c 70617261 		.ascii	"parameter_integer_get\000"
 13960      6D657465 
 13960      725F696E 
 13960      74656765 
 13960      725F6765 
 13961              	.LASF126:
 13962 0b92 5F676C6F 		.ascii	"_global_impure_ptr\000"
 13962      62616C5F 
 13962      696D7075 
 13962      72655F70 
 13962      747200
 13963              	.LASF130:
 13964 0ba5 75696E74 		.ascii	"uint32_t\000"
 13964      33325F74 
 13964      00
 13965              	.LASF101:
 13966 0bae 5F756E75 		.ascii	"_unused_rand\000"
 13966      7365645F 
 13966      72616E64 
 13966      00
 13967              	.LASF192:
 13968 0bbb 6368616E 		.ascii	"changed_was_set\000"
 13968      6765645F 
 13968      7761735F 
 13968      73657400 
 13969              	.LASF164:
 13970 0bcb 70617261 		.ascii	"parameter_variable_vector_max_dim\000"
 13970      6D657465 
 13970      725F7661 
 13970      72696162 
 13970      6C655F76 
 13971              	.LASF31:
 13972 0bed 5F776473 		.ascii	"_wds\000"
 13972      00
 13973              	.LASF40:
 13974 0bf2 5F5F746D 		.ascii	"__tm_wday\000"
 13974      5F776461 
 13974      7900
 13975              	.LASF94:
 13976 0bfc 5F676C75 		.ascii	"_glue\000"
 13976      6500
 13977              	.LASF194:
 13978 0c02 70617261 		.ascii	"parameter_defined\000"
 13978      6D657465 
 13978      725F6465 
 13978      66696E65 
 13978      6400
 13979              	.LASF121:
 13980 0c14 5F6E6D61 		.ascii	"_nmalloc\000"
 13980      6C6C6F63 
ARM GAS  C:\Users\25521\AppData\Local\Temp\ccDmagyc.s 			page 255


 13980      00
 13981              	.LASF111:
 13982 0c1d 5F6C3634 		.ascii	"_l64a_buf\000"
 13982      615F6275 
 13982      6600
 13983              	.LASF156:
 13984 0c27 70617261 		.ascii	"parameter_string_get\000"
 13984      6D657465 
 13984      725F7374 
 13984      72696E67 
 13984      5F676574 
 13985              	.LASF90:
 13986 0c3c 5F736967 		.ascii	"_sig_func\000"
 13986      5F66756E 
 13986      6300
 13987              	.LASF176:
 13988 0c46 70617261 		.ascii	"parameter_boolean_get\000"
 13988      6D657465 
 13988      725F626F 
 13988      6F6C6561 
 13988      6E5F6765 
 13989              	.LASF188:
 13990 0c5c 70617261 		.ascii	"parameter_scalar_get\000"
 13990      6D657465 
 13990      725F7363 
 13990      616C6172 
 13990      5F676574 
 13991              	.LASF64:
 13992 0c71 5F6E6275 		.ascii	"_nbuf\000"
 13992      6600
 13993              	.LASF122:
 13994 0c77 5F756E75 		.ascii	"_unused\000"
 13994      73656400 
 13995              	.LASF189:
 13996 0c7f 70617261 		.ascii	"parameter_scalar_declare_with_default\000"
 13996      6D657465 
 13996      725F7363 
 13996      616C6172 
 13996      5F646563 
 13997              	.LASF42:
 13998 0ca5 5F5F746D 		.ascii	"__tm_isdst\000"
 13998      5F697364 
 13998      737400
 13999              	.LASF104:
 14000 0cb0 5F6C6F63 		.ascii	"_localtime_buf\000"
 14000      616C7469 
 14000      6D655F62 
 14000      756600
 14001              	.LASF214:
 14002 0cbf 70617261 		.ascii	"parameter_port_unlock\000"
 14002      6D657465 
 14002      725F706F 
 14002      72745F75 
 14002      6E6C6F63 
 14003              	.LASF62:
 14004 0cd5 5F636C6F 		.ascii	"_close\000"
 14004      736500
ARM GAS  C:\Users\25521\AppData\Local\Temp\ccDmagyc.s 			page 256


 14005              	.LASF107:
 14006 0cdc 5F723438 		.ascii	"_r48\000"
 14006      00
 14007              	.LASF109:
 14008 0ce1 5F6D6274 		.ascii	"_mbtowc_state\000"
 14008      6F77635F 
 14008      73746174 
 14008      6500
 14009              	.LASF84:
 14010 0cef 5F703573 		.ascii	"_p5s\000"
 14010      00
 14011              	.LASF171:
 14012 0cf4 70617261 		.ascii	"parameter_vector_get\000"
 14012      6D657465 
 14012      725F7665 
 14012      63746F72 
 14012      5F676574 
 14013              	.LASF37:
 14014 0d09 5F5F746D 		.ascii	"__tm_mday\000"
 14014      5F6D6461 
 14014      7900
 14015              		.ident	"GCC: (GNU Tools for Arm Embedded Processors 7-2017-q4-major) 7.2.1 20170904 (release) [ARM
ARM GAS  C:\Users\25521\AppData\Local\Temp\ccDmagyc.s 			page 257


DEFINED SYMBOLS
                            *ABS*:00000000 parameter.c
C:\Users\25521\AppData\Local\Temp\ccDmagyc.s:18     .text.get_subnamespace.part.0:00000000 $t
C:\Users\25521\AppData\Local\Temp\ccDmagyc.s:25     .text.get_subnamespace.part.0:00000000 get_subnamespace.part.0
C:\Users\25521\AppData\Local\Temp\ccDmagyc.s:100    .text.get_subnamespace.part.0:00000050 $d
C:\Users\25521\AppData\Local\Temp\ccDmagyc.s:105    .text.parameter_namespace_declare:00000000 $t
C:\Users\25521\AppData\Local\Temp\ccDmagyc.s:113    .text.parameter_namespace_declare:00000000 parameter_namespace_declare
C:\Users\25521\AppData\Local\Temp\ccDmagyc.s:204    .text.parameter_namespace_declare:0000004c $d
C:\Users\25521\AppData\Local\Temp\ccDmagyc.s:209    .text._parameter_namespace_find_w_id_len:00000000 $t
C:\Users\25521\AppData\Local\Temp\ccDmagyc.s:217    .text._parameter_namespace_find_w_id_len:00000000 _parameter_namespace_find_w_id_len
C:\Users\25521\AppData\Local\Temp\ccDmagyc.s:355    .text._parameter_namespace_find_w_id_len:00000078 $d
C:\Users\25521\AppData\Local\Temp\ccDmagyc.s:360    .text.parameter_namespace_find:00000000 $t
C:\Users\25521\AppData\Local\Temp\ccDmagyc.s:368    .text.parameter_namespace_find:00000000 parameter_namespace_find
C:\Users\25521\AppData\Local\Temp\ccDmagyc.s:425    .text.parameter_namespace_find:00000030 $d
C:\Users\25521\AppData\Local\Temp\ccDmagyc.s:430    .text._parameter_find_w_id_len:00000000 $t
C:\Users\25521\AppData\Local\Temp\ccDmagyc.s:438    .text._parameter_find_w_id_len:00000000 _parameter_find_w_id_len
C:\Users\25521\AppData\Local\Temp\ccDmagyc.s:641    .text._parameter_find_w_id_len:000000c8 $d
C:\Users\25521\AppData\Local\Temp\ccDmagyc.s:646    .text.parameter_find:00000000 $t
C:\Users\25521\AppData\Local\Temp\ccDmagyc.s:654    .text.parameter_find:00000000 parameter_find
C:\Users\25521\AppData\Local\Temp\ccDmagyc.s:711    .text.parameter_find:00000030 $d
C:\Users\25521\AppData\Local\Temp\ccDmagyc.s:716    .text._parameter_declare:00000000 $t
C:\Users\25521\AppData\Local\Temp\ccDmagyc.s:724    .text._parameter_declare:00000000 _parameter_declare
C:\Users\25521\AppData\Local\Temp\ccDmagyc.s:795    .text._parameter_declare:00000038 $d
C:\Users\25521\AppData\Local\Temp\ccDmagyc.s:800    .text.parameter_namespace_contains_changed:00000000 $t
C:\Users\25521\AppData\Local\Temp\ccDmagyc.s:808    .text.parameter_namespace_contains_changed:00000000 parameter_namespace_contains_changed
C:\Users\25521\AppData\Local\Temp\ccDmagyc.s:857    .text.parameter_namespace_contains_changed:0000002c $d
C:\Users\25521\AppData\Local\Temp\ccDmagyc.s:862    .text.parameter_changed:00000000 $t
C:\Users\25521\AppData\Local\Temp\ccDmagyc.s:870    .text.parameter_changed:00000000 parameter_changed
C:\Users\25521\AppData\Local\Temp\ccDmagyc.s:917    .text.parameter_changed:00000028 $d
C:\Users\25521\AppData\Local\Temp\ccDmagyc.s:922    .text.parameter_defined:00000000 $t
C:\Users\25521\AppData\Local\Temp\ccDmagyc.s:930    .text.parameter_defined:00000000 parameter_defined
C:\Users\25521\AppData\Local\Temp\ccDmagyc.s:979    .text.parameter_defined:0000002c $d
C:\Users\25521\AppData\Local\Temp\ccDmagyc.s:984    .text._parameter_changed_set:00000000 $t
C:\Users\25521\AppData\Local\Temp\ccDmagyc.s:992    .text._parameter_changed_set:00000000 _parameter_changed_set
C:\Users\25521\AppData\Local\Temp\ccDmagyc.s:1077   .text._parameter_changed_set:00000048 $d
C:\Users\25521\AppData\Local\Temp\ccDmagyc.s:1082   .text._parameter_changed_clear:00000000 $t
C:\Users\25521\AppData\Local\Temp\ccDmagyc.s:1090   .text._parameter_changed_clear:00000000 _parameter_changed_clear
C:\Users\25521\AppData\Local\Temp\ccDmagyc.s:1171   .text._parameter_changed_clear:00000044 $d
C:\Users\25521\AppData\Local\Temp\ccDmagyc.s:1176   .text.parameter_scalar_declare:00000000 $t
C:\Users\25521\AppData\Local\Temp\ccDmagyc.s:1184   .text.parameter_scalar_declare:00000000 parameter_scalar_declare
C:\Users\25521\AppData\Local\Temp\ccDmagyc.s:1281   .text.parameter_scalar_declare:0000003c $d
C:\Users\25521\AppData\Local\Temp\ccDmagyc.s:1288   .text.parameter_scalar_declare_with_default:00000000 $t
C:\Users\25521\AppData\Local\Temp\ccDmagyc.s:1296   .text.parameter_scalar_declare_with_default:00000000 parameter_scalar_declare_with_default
C:\Users\25521\AppData\Local\Temp\ccDmagyc.s:1391   .text.parameter_scalar_declare_with_default:00000048 $d
C:\Users\25521\AppData\Local\Temp\ccDmagyc.s:1396   .text.parameter_scalar_read:00000000 $t
C:\Users\25521\AppData\Local\Temp\ccDmagyc.s:1404   .text.parameter_scalar_read:00000000 parameter_scalar_read
C:\Users\25521\AppData\Local\Temp\ccDmagyc.s:1477   .text.parameter_scalar_read:0000004c $d
C:\Users\25521\AppData\Local\Temp\ccDmagyc.s:1482   .text.parameter_scalar_get:00000000 $t
C:\Users\25521\AppData\Local\Temp\ccDmagyc.s:1490   .text.parameter_scalar_get:00000000 parameter_scalar_get
C:\Users\25521\AppData\Local\Temp\ccDmagyc.s:1539   .text.parameter_scalar_get:00000028 $d
C:\Users\25521\AppData\Local\Temp\ccDmagyc.s:1544   .text.parameter_scalar_set:00000000 $t
C:\Users\25521\AppData\Local\Temp\ccDmagyc.s:1552   .text.parameter_scalar_set:00000000 parameter_scalar_set
C:\Users\25521\AppData\Local\Temp\ccDmagyc.s:1629   .text.parameter_scalar_set:0000004c $d
C:\Users\25521\AppData\Local\Temp\ccDmagyc.s:1634   .text.parameter_integer_declare:00000000 $t
C:\Users\25521\AppData\Local\Temp\ccDmagyc.s:1642   .text.parameter_integer_declare:00000000 parameter_integer_declare
C:\Users\25521\AppData\Local\Temp\ccDmagyc.s:1739   .text.parameter_integer_declare:0000003c $d
C:\Users\25521\AppData\Local\Temp\ccDmagyc.s:1746   .text.parameter_integer_declare_with_default:00000000 $t
ARM GAS  C:\Users\25521\AppData\Local\Temp\ccDmagyc.s 			page 258


C:\Users\25521\AppData\Local\Temp\ccDmagyc.s:1754   .text.parameter_integer_declare_with_default:00000000 parameter_integer_declare_with_default
C:\Users\25521\AppData\Local\Temp\ccDmagyc.s:1850   .text.parameter_integer_declare_with_default:00000044 $d
C:\Users\25521\AppData\Local\Temp\ccDmagyc.s:1855   .text.parameter_integer_read:00000000 $t
C:\Users\25521\AppData\Local\Temp\ccDmagyc.s:1863   .text.parameter_integer_read:00000000 parameter_integer_read
C:\Users\25521\AppData\Local\Temp\ccDmagyc.s:1927   .text.parameter_integer_read:00000040 $d
C:\Users\25521\AppData\Local\Temp\ccDmagyc.s:1932   .text.parameter_integer_get:00000000 $t
C:\Users\25521\AppData\Local\Temp\ccDmagyc.s:1940   .text.parameter_integer_get:00000000 parameter_integer_get
C:\Users\25521\AppData\Local\Temp\ccDmagyc.s:1989   .text.parameter_integer_get:00000028 $d
C:\Users\25521\AppData\Local\Temp\ccDmagyc.s:1994   .text.parameter_integer_set:00000000 $t
C:\Users\25521\AppData\Local\Temp\ccDmagyc.s:2002   .text.parameter_integer_set:00000000 parameter_integer_set
C:\Users\25521\AppData\Local\Temp\ccDmagyc.s:2072   .text.parameter_integer_set:00000040 $d
C:\Users\25521\AppData\Local\Temp\ccDmagyc.s:2077   .text.parameter_boolean_declare:00000000 $t
C:\Users\25521\AppData\Local\Temp\ccDmagyc.s:2085   .text.parameter_boolean_declare:00000000 parameter_boolean_declare
C:\Users\25521\AppData\Local\Temp\ccDmagyc.s:2182   .text.parameter_boolean_declare:0000003c $d
C:\Users\25521\AppData\Local\Temp\ccDmagyc.s:2189   .text.parameter_boolean_declare_with_default:00000000 $t
C:\Users\25521\AppData\Local\Temp\ccDmagyc.s:2197   .text.parameter_boolean_declare_with_default:00000000 parameter_boolean_declare_with_default
C:\Users\25521\AppData\Local\Temp\ccDmagyc.s:2293   .text.parameter_boolean_declare_with_default:00000044 $d
C:\Users\25521\AppData\Local\Temp\ccDmagyc.s:2298   .text.parameter_boolean_set:00000000 $t
C:\Users\25521\AppData\Local\Temp\ccDmagyc.s:2306   .text.parameter_boolean_set:00000000 parameter_boolean_set
C:\Users\25521\AppData\Local\Temp\ccDmagyc.s:2376   .text.parameter_boolean_set:00000040 $d
C:\Users\25521\AppData\Local\Temp\ccDmagyc.s:2381   .text.parameter_boolean_read:00000000 $t
C:\Users\25521\AppData\Local\Temp\ccDmagyc.s:2389   .text.parameter_boolean_read:00000000 parameter_boolean_read
C:\Users\25521\AppData\Local\Temp\ccDmagyc.s:2453   .text.parameter_boolean_read:00000040 $d
C:\Users\25521\AppData\Local\Temp\ccDmagyc.s:2458   .text.parameter_boolean_get:00000000 $t
C:\Users\25521\AppData\Local\Temp\ccDmagyc.s:2466   .text.parameter_boolean_get:00000000 parameter_boolean_get
C:\Users\25521\AppData\Local\Temp\ccDmagyc.s:2515   .text.parameter_boolean_get:00000028 $d
C:\Users\25521\AppData\Local\Temp\ccDmagyc.s:2520   .text.parameter_vector_declare:00000000 $t
C:\Users\25521\AppData\Local\Temp\ccDmagyc.s:2528   .text.parameter_vector_declare:00000000 parameter_vector_declare
C:\Users\25521\AppData\Local\Temp\ccDmagyc.s:2626   .text.parameter_vector_declare:00000044 $d
C:\Users\25521\AppData\Local\Temp\ccDmagyc.s:2633   .text.parameter_vector_declare_with_default:00000000 $t
C:\Users\25521\AppData\Local\Temp\ccDmagyc.s:2641   .text.parameter_vector_declare_with_default:00000000 parameter_vector_declare_with_default
C:\Users\25521\AppData\Local\Temp\ccDmagyc.s:2750   .text.parameter_vector_declare_with_default:0000004c $d
C:\Users\25521\AppData\Local\Temp\ccDmagyc.s:2755   .text.parameter_vector_dim:00000000 $t
C:\Users\25521\AppData\Local\Temp\ccDmagyc.s:2763   .text.parameter_vector_dim:00000000 parameter_vector_dim
C:\Users\25521\AppData\Local\Temp\ccDmagyc.s:2814   .text.parameter_vector_dim:00000030 $d
C:\Users\25521\AppData\Local\Temp\ccDmagyc.s:2819   .text.parameter_vector_read:00000000 $t
C:\Users\25521\AppData\Local\Temp\ccDmagyc.s:2827   .text.parameter_vector_read:00000000 parameter_vector_read
C:\Users\25521\AppData\Local\Temp\ccDmagyc.s:2919   .text.parameter_vector_read:0000005c $d
C:\Users\25521\AppData\Local\Temp\ccDmagyc.s:2924   .text.parameter_vector_get:00000000 $t
C:\Users\25521\AppData\Local\Temp\ccDmagyc.s:2932   .text.parameter_vector_get:00000000 parameter_vector_get
C:\Users\25521\AppData\Local\Temp\ccDmagyc.s:2985   .text.parameter_vector_get:0000002c $d
C:\Users\25521\AppData\Local\Temp\ccDmagyc.s:2990   .text.parameter_vector_set:00000000 $t
C:\Users\25521\AppData\Local\Temp\ccDmagyc.s:2998   .text.parameter_vector_set:00000000 parameter_vector_set
C:\Users\25521\AppData\Local\Temp\ccDmagyc.s:3090   .text.parameter_vector_set:0000005c $d
C:\Users\25521\AppData\Local\Temp\ccDmagyc.s:3095   .text.parameter_variable_vector_declare:00000000 $t
C:\Users\25521\AppData\Local\Temp\ccDmagyc.s:3103   .text.parameter_variable_vector_declare:00000000 parameter_variable_vector_declare
C:\Users\25521\AppData\Local\Temp\ccDmagyc.s:3201   .text.parameter_variable_vector_declare:00000044 $d
C:\Users\25521\AppData\Local\Temp\ccDmagyc.s:3208   .text.parameter_variable_vector_declare_with_default:00000000 $t
C:\Users\25521\AppData\Local\Temp\ccDmagyc.s:3216   .text.parameter_variable_vector_declare_with_default:00000000 parameter_variable_vector_declare_with_default
C:\Users\25521\AppData\Local\Temp\ccDmagyc.s:3347   .text.parameter_variable_vector_declare_with_default:0000005c $d
C:\Users\25521\AppData\Local\Temp\ccDmagyc.s:3352   .text.parameter_variable_vector_max_dim:00000000 $t
C:\Users\25521\AppData\Local\Temp\ccDmagyc.s:3360   .text.parameter_variable_vector_max_dim:00000000 parameter_variable_vector_max_dim
C:\Users\25521\AppData\Local\Temp\ccDmagyc.s:3411   .text.parameter_variable_vector_max_dim:00000030 $d
C:\Users\25521\AppData\Local\Temp\ccDmagyc.s:3416   .text.parameter_variable_vector_read:00000000 $t
C:\Users\25521\AppData\Local\Temp\ccDmagyc.s:3424   .text.parameter_variable_vector_read:00000000 parameter_variable_vector_read
C:\Users\25521\AppData\Local\Temp\ccDmagyc.s:3512   .text.parameter_variable_vector_read:0000005c $d
C:\Users\25521\AppData\Local\Temp\ccDmagyc.s:3517   .text.parameter_variable_vector_get:00000000 $t
ARM GAS  C:\Users\25521\AppData\Local\Temp\ccDmagyc.s 			page 259


C:\Users\25521\AppData\Local\Temp\ccDmagyc.s:3525   .text.parameter_variable_vector_get:00000000 parameter_variable_vector_get
C:\Users\25521\AppData\Local\Temp\ccDmagyc.s:3578   .text.parameter_variable_vector_get:0000002c $d
C:\Users\25521\AppData\Local\Temp\ccDmagyc.s:3583   .text.parameter_variable_vector_set:00000000 $t
C:\Users\25521\AppData\Local\Temp\ccDmagyc.s:3591   .text.parameter_variable_vector_set:00000000 parameter_variable_vector_set
C:\Users\25521\AppData\Local\Temp\ccDmagyc.s:3697   .text.parameter_variable_vector_set:00000078 $d
C:\Users\25521\AppData\Local\Temp\ccDmagyc.s:3702   .text.parameter_string_declare:00000000 $t
C:\Users\25521\AppData\Local\Temp\ccDmagyc.s:3710   .text.parameter_string_declare:00000000 parameter_string_declare
C:\Users\25521\AppData\Local\Temp\ccDmagyc.s:3808   .text.parameter_string_declare:00000044 $d
C:\Users\25521\AppData\Local\Temp\ccDmagyc.s:3815   .text.parameter_string_declare_with_default:00000000 $t
C:\Users\25521\AppData\Local\Temp\ccDmagyc.s:3823   .text.parameter_string_declare_with_default:00000000 parameter_string_declare_with_default
C:\Users\25521\AppData\Local\Temp\ccDmagyc.s:3965   .text.parameter_string_declare_with_default:0000006c $d
C:\Users\25521\AppData\Local\Temp\ccDmagyc.s:3970   .text.parameter_string_max_len:00000000 $t
C:\Users\25521\AppData\Local\Temp\ccDmagyc.s:3978   .text.parameter_string_max_len:00000000 parameter_string_max_len
C:\Users\25521\AppData\Local\Temp\ccDmagyc.s:4033   .text.parameter_string_max_len:00000034 $d
C:\Users\25521\AppData\Local\Temp\ccDmagyc.s:4038   .text.parameter_string_read:00000000 $t
C:\Users\25521\AppData\Local\Temp\ccDmagyc.s:4046   .text.parameter_string_read:00000000 parameter_string_read
C:\Users\25521\AppData\Local\Temp\ccDmagyc.s:4147   .text.parameter_string_read:00000070 $d
C:\Users\25521\AppData\Local\Temp\ccDmagyc.s:4152   .text.parameter_string_get:00000000 $t
C:\Users\25521\AppData\Local\Temp\ccDmagyc.s:4160   .text.parameter_string_get:00000000 parameter_string_get
C:\Users\25521\AppData\Local\Temp\ccDmagyc.s:4217   .text.parameter_string_get:00000030 $d
C:\Users\25521\AppData\Local\Temp\ccDmagyc.s:4222   .text.parameter_string_set_w_len:00000000 $t
C:\Users\25521\AppData\Local\Temp\ccDmagyc.s:4230   .text.parameter_string_set_w_len:00000000 parameter_string_set_w_len
C:\Users\25521\AppData\Local\Temp\ccDmagyc.s:4319   .text.parameter_string_set_w_len:0000005c $d
C:\Users\25521\AppData\Local\Temp\ccDmagyc.s:4324   .text.parameter_string_set:00000000 $t
C:\Users\25521\AppData\Local\Temp\ccDmagyc.s:4332   .text.parameter_string_set:00000000 parameter_string_set
C:\Users\25521\AppData\Local\Temp\ccDmagyc.s:4389   .text.parameter_string_set:00000030 $d

UNDEFINED SYMBOLS
parameter_port_lock
parameter_port_unlock
strncmp
__stack_chk_fail
__stack_chk_guard
strlen
parameter_port_assert
strncpy
memcpy
