ARM GAS  C:\Users\25521\AppData\Local\Temp\ccDmagyc.s 			page 1


   1              		.cpu cortex-m4
   2              		.eabi_attribute 27, 1
   3              		.eabi_attribute 28, 1
   4              		.eabi_attribute 20, 1
   5              		.eabi_attribute 21, 1
   6              		.eabi_attribute 23, 3
   7              		.eabi_attribute 24, 1
   8              		.eabi_attribute 25, 1
   9              		.eabi_attribute 26, 1
  10              		.eabi_attribute 30, 2
  11              		.eabi_attribute 34, 1
  12              		.eabi_attribute 18, 4
  13              		.file	"parameter.c"
  14              		.text
  15              	.Ltext0:
  16              		.cfi_sections	.debug_frame
  17              		.section	.text.get_subnamespace.part.0,"ax",%progbits
  18              		.align	1
  19              		.p2align 4,,15
  20              		.syntax unified
  21              		.thumb
  22              		.thumb_func
  23              		.fpu fpv4-sp-d16
  24              		.type	get_subnamespace.part.0, %function
  25              	get_subnamespace.part.0:
  26              	.LFB48:
  27              		.file 1 ".//src/parameter/parameter.c"
  28              		.loc 1 46 0
  29              		.cfi_startproc
  30              		@ args = 0, pretend = 0, frame = 8
  31              		@ frame_needed = 0, uses_anonymous_args = 0
  32              	.LVL0:
  33 0000 2DE9F041 		push	{r4, r5, r6, r7, r8, lr}
  34              		.cfi_def_cfa_offset 24
  35              		.cfi_offset 4, -24
  36              		.cfi_offset 5, -20
  37              		.cfi_offset 6, -16
  38              		.cfi_offset 7, -12
  39              		.cfi_offset 8, -8
  40              		.cfi_offset 14, -4
  41 0004 DFF84880 		ldr	r8, .L16
  42 0008 82B0     		sub	sp, sp, #8
  43              		.cfi_def_cfa_offset 32
  44              		.loc 1 46 0
  45 000a 0446     		mov	r4, r0
  46 000c D8F80030 		ldr	r3, [r8]
  47 0010 0193     		str	r3, [sp, #4]
  48 0012 0F46     		mov	r7, r1
  49 0014 1646     		mov	r6, r2
  50              		.loc 1 53 0
  51 0016 FFF7FEFF 		bl	parameter_port_lock
  52              	.LVL1:
  53              		.loc 1 54 0
  54 001a E468     		ldr	r4, [r4, #12]
  55              	.LVL2:
  56              		.loc 1 55 0
  57 001c FFF7FEFF 		bl	parameter_port_unlock
ARM GAS  C:\Users\25521\AppData\Local\Temp\ccDmagyc.s 			page 2


  58              	.LVL3:
  59              		.loc 1 56 0
  60 0020 5CB1     		cbz	r4, .L1
  61              	.L4:
  62              		.loc 1 57 0
  63 0022 2568     		ldr	r5, [r4]
  64 0024 3246     		mov	r2, r6
  65 0026 2946     		mov	r1, r5
  66 0028 3846     		mov	r0, r7
  67 002a FFF7FEFF 		bl	strncmp
  68              	.LVL4:
  69 002e 08B9     		cbnz	r0, .L3
  70 0030 AB5D     		ldrb	r3, [r5, r6]	@ zero_extendqisi2
  71 0032 13B1     		cbz	r3, .L1
  72              	.L3:
  73              		.loc 1 62 0
  74 0034 2469     		ldr	r4, [r4, #16]
  75              	.LVL5:
  76              		.loc 1 56 0
  77 0036 002C     		cmp	r4, #0
  78 0038 F3D1     		bne	.L4
  79              	.L1:
  80              		.loc 1 65 0
  81 003a 019A     		ldr	r2, [sp, #4]
  82 003c D8F80030 		ldr	r3, [r8]
  83 0040 9A42     		cmp	r2, r3
  84 0042 2046     		mov	r0, r4
  85 0044 02D1     		bne	.L15
  86              	.LVL6:
  87 0046 02B0     		add	sp, sp, #8
  88              		.cfi_remember_state
  89              		.cfi_def_cfa_offset 24
  90              		@ sp needed
  91 0048 BDE8F081 		pop	{r4, r5, r6, r7, r8, pc}
  92              	.LVL7:
  93              	.L15:
  94              		.cfi_restore_state
  95 004c FFF7FEFF 		bl	__stack_chk_fail
  96              	.LVL8:
  97              	.L17:
  98              		.align	2
  99              	.L16:
 100 0050 00000000 		.word	__stack_chk_guard
 101              		.cfi_endproc
 102              	.LFE48:
 103              		.size	get_subnamespace.part.0, .-get_subnamespace.part.0
 104              		.section	.text.parameter_namespace_declare,"ax",%progbits
 105              		.align	1
 106              		.p2align 4,,15
 107              		.global	parameter_namespace_declare
 108              		.syntax unified
 109              		.thumb
 110              		.thumb_func
 111              		.fpu fpv4-sp-d16
 112              		.type	parameter_namespace_declare, %function
 113              	parameter_namespace_declare:
 114              	.LFB3:
ARM GAS  C:\Users\25521\AppData\Local\Temp\ccDmagyc.s 			page 3


 115              		.loc 1 93 0
 116              		.cfi_startproc
 117              		@ args = 0, pretend = 0, frame = 8
 118              		@ frame_needed = 0, uses_anonymous_args = 0
 119              	.LVL9:
 120 0000 30B5     		push	{r4, r5, lr}
 121              		.cfi_def_cfa_offset 12
 122              		.cfi_offset 4, -12
 123              		.cfi_offset 5, -8
 124              		.cfi_offset 14, -4
 125 0002 124D     		ldr	r5, .L25
 126 0004 0446     		mov	r4, r0
 127 0006 83B0     		sub	sp, sp, #12
 128              		.cfi_def_cfa_offset 24
 129              		.loc 1 95 0
 130 0008 0023     		movs	r3, #0
 131              		.loc 1 93 0
 132 000a 2868     		ldr	r0, [r5]
 133              	.LVL10:
 134              		.loc 1 96 0
 135 000c A160     		str	r1, [r4, #8]
 136              		.loc 1 94 0
 137 000e 2260     		str	r2, [r4]
 138              		.loc 1 93 0
 139 0010 0190     		str	r0, [sp, #4]
 140              		.loc 1 95 0
 141 0012 6360     		str	r3, [r4, #4]
 142              		.loc 1 97 0
 143 0014 E360     		str	r3, [r4, #12]
 144              		.loc 1 98 0
 145 0016 6361     		str	r3, [r4, #20]
 146              		.loc 1 99 0
 147 0018 31B9     		cbnz	r1, .L24
 148              		.loc 1 108 0
 149 001a 019A     		ldr	r2, [sp, #4]
 150              	.LVL11:
 151 001c 2B68     		ldr	r3, [r5]
 152              		.loc 1 106 0
 153 001e 2161     		str	r1, [r4, #16]
 154              		.loc 1 108 0
 155 0020 9A42     		cmp	r2, r3
 156 0022 10D1     		bne	.L23
 157 0024 03B0     		add	sp, sp, #12
 158              		.cfi_remember_state
 159              		.cfi_def_cfa_offset 12
 160              		@ sp needed
 161 0026 30BD     		pop	{r4, r5, pc}
 162              	.LVL12:
 163              	.L24:
 164              		.cfi_restore_state
 165              		.loc 1 100 0
 166 0028 FFF7FEFF 		bl	parameter_port_lock
 167              	.LVL13:
 168              		.loc 1 102 0
 169 002c A368     		ldr	r3, [r4, #8]
 170              		.loc 1 104 0
 171 002e 0199     		ldr	r1, [sp, #4]
ARM GAS  C:\Users\25521\AppData\Local\Temp\ccDmagyc.s 			page 4


 172 0030 2A68     		ldr	r2, [r5]
 173              		.loc 1 102 0
 174 0032 D868     		ldr	r0, [r3, #12]
 175 0034 2061     		str	r0, [r4, #16]
 176              		.loc 1 104 0
 177 0036 9142     		cmp	r1, r2
 178              		.loc 1 103 0
 179 0038 DC60     		str	r4, [r3, #12]
 180              		.loc 1 104 0
 181 003a 04D1     		bne	.L23
 182              		.loc 1 108 0
 183 003c 03B0     		add	sp, sp, #12
 184              		.cfi_remember_state
 185              		.cfi_def_cfa_offset 12
 186              		@ sp needed
 187 003e BDE83040 		pop	{r4, r5, lr}
 188              		.cfi_restore 14
 189              		.cfi_restore 5
 190              		.cfi_restore 4
 191              		.cfi_def_cfa_offset 0
 192              	.LVL14:
 193              		.loc 1 104 0
 194 0042 FFF7FEBF 		b	parameter_port_unlock
 195              	.LVL15:
 196              	.L23:
 197              		.cfi_restore_state
 198              		.loc 1 108 0
 199 0046 FFF7FEFF 		bl	__stack_chk_fail
 200              	.LVL16:
 201              	.L26:
 202 004a 00BF     		.align	2
 203              	.L25:
 204 004c 00000000 		.word	__stack_chk_guard
 205              		.cfi_endproc
 206              	.LFE3:
 207              		.size	parameter_namespace_declare, .-parameter_namespace_declare
 208              		.section	.text._parameter_namespace_find_w_id_len,"ax",%progbits
 209              		.align	1
 210              		.p2align 4,,15
 211              		.global	_parameter_namespace_find_w_id_len
 212              		.syntax unified
 213              		.thumb
 214              		.thumb_func
 215              		.fpu fpv4-sp-d16
 216              		.type	_parameter_namespace_find_w_id_len, %function
 217              	_parameter_namespace_find_w_id_len:
 218              	.LFB4:
 219              		.loc 1 113 0
 220              		.cfi_startproc
 221              		@ args = 0, pretend = 0, frame = 8
 222              		@ frame_needed = 0, uses_anonymous_args = 0
 223              	.LVL17:
 224 0000 2DE9F047 		push	{r4, r5, r6, r7, r8, r9, r10, lr}
 225              		.cfi_def_cfa_offset 32
 226              		.cfi_offset 4, -32
 227              		.cfi_offset 5, -28
 228              		.cfi_offset 6, -24
ARM GAS  C:\Users\25521\AppData\Local\Temp\ccDmagyc.s 			page 5


 229              		.cfi_offset 7, -20
 230              		.cfi_offset 8, -16
 231              		.cfi_offset 9, -12
 232              		.cfi_offset 10, -8
 233              		.cfi_offset 14, -4
 234 0004 DFF87090 		ldr	r9, .L55
 235 0008 82B0     		sub	sp, sp, #8
 236              		.cfi_def_cfa_offset 40
 237              		.loc 1 113 0
 238 000a D9F80030 		ldr	r3, [r9]
 239 000e 0193     		str	r3, [sp, #4]
 240              	.LVL18:
 241              		.loc 1 116 0
 242 0010 70B3     		cbz	r0, .L28
 243 0012 9046     		mov	r8, r2
 244 0014 FAB1     		cbz	r2, .L27
 245 0016 8A46     		mov	r10, r1
 246              		.loc 1 115 0
 247 0018 0027     		movs	r7, #0
 248              	.LVL19:
 249              	.L35:
 250              	.LBB42:
 251              		.loc 1 117 0
 252 001a A8EB0705 		sub	r5, r8, r7
 253              	.LBB43:
 254              	.LBB44:
 255              		.loc 1 34 0
 256 001e 002D     		cmp	r5, #0
 257              	.LBE44:
 258              	.LBE43:
 259              		.loc 1 117 0
 260 0020 2A46     		mov	r2, r5
 261 0022 0AEB0701 		add	r1, r10, r7
 262              	.LVL20:
 263              	.LBB46:
 264              	.LBB45:
 265              		.loc 1 34 0
 266 0026 0FDD     		ble	.L30
 267              		.loc 1 35 0
 268 0028 1AF80730 		ldrb	r3, [r10, r7]	@ zero_extendqisi2
 269 002c 2F2B     		cmp	r3, #47
 270 002e 1DD0     		beq	.L31
 271 0030 0C46     		mov	r4, r1
 272              		.loc 1 34 0
 273 0032 0023     		movs	r3, #0
 274 0034 04E0     		b	.L32
 275              	.LVL21:
 276              	.L34:
 277              		.loc 1 35 0
 278 0036 14F8016F 		ldrb	r6, [r4, #1]!	@ zero_extendqisi2
 279 003a 2F2E     		cmp	r6, #47
 280 003c 1A46     		mov	r2, r3
 281 003e 12D0     		beq	.L33
 282              	.LVL22:
 283              	.L32:
 284              		.loc 1 34 0
 285 0040 0133     		adds	r3, r3, #1
ARM GAS  C:\Users\25521\AppData\Local\Temp\ccDmagyc.s 			page 6


 286              	.LVL23:
 287 0042 9D42     		cmp	r5, r3
 288 0044 F7D1     		bne	.L34
 289 0046 2A46     		mov	r2, r5
 290              	.LVL24:
 291              	.L30:
 292 0048 0135     		adds	r5, r5, #1
 293              	.L36:
 294              	.LBE45:
 295              	.LBE46:
 296              	.LBB47:
 297              	.LBB48:
 298 004a FFF7FEFF 		bl	get_subnamespace.part.0
 299              	.LVL25:
 300              	.LBE48:
 301              	.LBE47:
 302              		.loc 1 119 0
 303 004e 2F44     		add	r7, r7, r5
 304              	.LVL26:
 305              	.LBE42:
 306              		.loc 1 116 0
 307 0050 70B1     		cbz	r0, .L28
 308              	.L37:
 309              		.loc 1 116 0 is_stmt 0 discriminator 1
 310 0052 B845     		cmp	r8, r7
 311 0054 E1D8     		bhi	.L35
 312              	.LVL27:
 313              	.L27:
 314              		.loc 1 122 0 is_stmt 1
 315 0056 019A     		ldr	r2, [sp, #4]
 316 0058 D9F80030 		ldr	r3, [r9]
 317 005c 9A42     		cmp	r2, r3
 318 005e 09D1     		bne	.L54
 319 0060 02B0     		add	sp, sp, #8
 320              		.cfi_remember_state
 321              		.cfi_def_cfa_offset 32
 322              		@ sp needed
 323 0062 BDE8F087 		pop	{r4, r5, r6, r7, r8, r9, r10, pc}
 324              	.LVL28:
 325              	.L33:
 326              		.cfi_restore_state
 327 0066 5D1C     		adds	r5, r3, #1
 328              	.LBB51:
 329              	.LBB50:
 330              	.LBB49:
 331              		.loc 1 50 0
 332 0068 002B     		cmp	r3, #0
 333 006a EED1     		bne	.L36
 334              	.LVL29:
 335              	.L31:
 336              	.LBE49:
 337              	.LBE50:
 338              		.loc 1 119 0
 339 006c 0137     		adds	r7, r7, #1
 340              	.LVL30:
 341 006e F0E7     		b	.L37
 342              	.LVL31:
ARM GAS  C:\Users\25521\AppData\Local\Temp\ccDmagyc.s 			page 7


 343              	.L28:
 344              	.LBE51:
 345 0070 0020     		movs	r0, #0
 346              	.LVL32:
 347 0072 F0E7     		b	.L27
 348              	.L54:
 349              		.loc 1 122 0
 350 0074 FFF7FEFF 		bl	__stack_chk_fail
 351              	.LVL33:
 352              	.L56:
 353              		.align	2
 354              	.L55:
 355 0078 00000000 		.word	__stack_chk_guard
 356              		.cfi_endproc
 357              	.LFE4:
 358              		.size	_parameter_namespace_find_w_id_len, .-_parameter_namespace_find_w_id_len
 359              		.section	.text.parameter_namespace_find,"ax",%progbits
 360              		.align	1
 361              		.p2align 4,,15
 362              		.global	parameter_namespace_find
 363              		.syntax unified
 364              		.thumb
 365              		.thumb_func
 366              		.fpu fpv4-sp-d16
 367              		.type	parameter_namespace_find, %function
 368              	parameter_namespace_find:
 369              	.LFB5:
 370              		.loc 1 126 0
 371              		.cfi_startproc
 372              		@ args = 0, pretend = 0, frame = 8
 373              		@ frame_needed = 0, uses_anonymous_args = 0
 374              	.LVL34:
 375 0000 70B5     		push	{r4, r5, r6, lr}
 376              		.cfi_def_cfa_offset 16
 377              		.cfi_offset 4, -16
 378              		.cfi_offset 5, -12
 379              		.cfi_offset 6, -8
 380              		.cfi_offset 14, -4
 381 0002 0B4C     		ldr	r4, .L62
 382 0004 82B0     		sub	sp, sp, #8
 383              		.cfi_def_cfa_offset 24
 384              		.loc 1 126 0
 385 0006 2368     		ldr	r3, [r4]
 386 0008 0193     		str	r3, [sp, #4]
 387 000a 0646     		mov	r6, r0
 388              		.loc 1 127 0
 389 000c 0846     		mov	r0, r1
 390              	.LVL35:
 391              		.loc 1 126 0
 392 000e 0D46     		mov	r5, r1
 393              		.loc 1 127 0
 394 0010 FFF7FEFF 		bl	strlen
 395              	.LVL36:
 396 0014 0199     		ldr	r1, [sp, #4]
 397 0016 2368     		ldr	r3, [r4]
 398 0018 9942     		cmp	r1, r3
 399 001a 07D1     		bne	.L61
ARM GAS  C:\Users\25521\AppData\Local\Temp\ccDmagyc.s 			page 8


 400 001c 0246     		mov	r2, r0
 401 001e 2946     		mov	r1, r5
 402 0020 3046     		mov	r0, r6
 403              		.loc 1 128 0
 404 0022 02B0     		add	sp, sp, #8
 405              		.cfi_remember_state
 406              		.cfi_def_cfa_offset 16
 407              		@ sp needed
 408 0024 BDE87040 		pop	{r4, r5, r6, lr}
 409              		.cfi_restore 14
 410              		.cfi_restore 6
 411              		.cfi_restore 5
 412              		.cfi_restore 4
 413              		.cfi_def_cfa_offset 0
 414              	.LVL37:
 415              		.loc 1 127 0
 416 0028 FFF7FEBF 		b	_parameter_namespace_find_w_id_len
 417              	.LVL38:
 418              	.L61:
 419              		.cfi_restore_state
 420 002c FFF7FEFF 		bl	__stack_chk_fail
 421              	.LVL39:
 422              	.L63:
 423              		.align	2
 424              	.L62:
 425 0030 00000000 		.word	__stack_chk_guard
 426              		.cfi_endproc
 427              	.LFE5:
 428              		.size	parameter_namespace_find, .-parameter_namespace_find
 429              		.section	.text._parameter_find_w_id_len,"ax",%progbits
 430              		.align	1
 431              		.p2align 4,,15
 432              		.global	_parameter_find_w_id_len
 433              		.syntax unified
 434              		.thumb
 435              		.thumb_func
 436              		.fpu fpv4-sp-d16
 437              		.type	_parameter_find_w_id_len, %function
 438              	_parameter_find_w_id_len:
 439              	.LFB6:
 440              		.loc 1 132 0
 441              		.cfi_startproc
 442              		@ args = 0, pretend = 0, frame = 16
 443              		@ frame_needed = 0, uses_anonymous_args = 0
 444              	.LVL40:
 445 0000 2DE9F043 		push	{r4, r5, r6, r7, r8, r9, lr}
 446              		.cfi_def_cfa_offset 28
 447              		.cfi_offset 4, -28
 448              		.cfi_offset 5, -24
 449              		.cfi_offset 6, -20
 450              		.cfi_offset 7, -16
 451              		.cfi_offset 8, -12
 452              		.cfi_offset 9, -8
 453              		.cfi_offset 14, -4
 454 0004 DFF8C080 		ldr	r8, .L99
 455 0008 85B0     		sub	sp, sp, #20
 456              		.cfi_def_cfa_offset 48
ARM GAS  C:\Users\25521\AppData\Local\Temp\ccDmagyc.s 			page 9


 457              		.loc 1 132 0
 458 000a D8F80030 		ldr	r3, [r8]
 459 000e 0393     		str	r3, [sp, #12]
 460              	.LVL41:
 461              		.loc 1 135 0
 462 0010 48B3     		cbz	r0, .L66
 463 0012 8946     		mov	r9, r1
 464 0014 1746     		mov	r7, r2
 465              		.loc 1 134 0
 466 0016 4FF0000C 		mov	ip, #0
 467              	.LVL42:
 468              	.L65:
 469              	.LBB59:
 470              		.loc 1 136 0
 471 001a A7EB0C0E 		sub	lr, r7, ip
 472              	.LBB60:
 473              	.LBB61:
 474              		.loc 1 34 0
 475 001e BEF1000F 		cmp	lr, #0
 476              	.LBE61:
 477              	.LBE60:
 478              		.loc 1 136 0
 479 0022 7446     		mov	r4, lr
 480 0024 09EB0C06 		add	r6, r9, ip
 481              	.LVL43:
 482              	.LBB64:
 483              	.LBB62:
 484              		.loc 1 34 0
 485 0028 27DD     		ble	.L80
 486              		.loc 1 35 0
 487 002a 19F80C30 		ldrb	r3, [r9, ip]	@ zero_extendqisi2
 488 002e 2F2B     		cmp	r3, #47
 489 0030 44D0     		beq	.L68
 490 0032 3246     		mov	r2, r6
 491              		.loc 1 34 0
 492 0034 0023     		movs	r3, #0
 493 0036 06E0     		b	.L69
 494              	.LVL44:
 495              	.L70:
 496              		.loc 1 35 0
 497 0038 12F8011F 		ldrb	r1, [r2, #1]!	@ zero_extendqisi2
 498 003c 2F29     		cmp	r1, #47
 499 003e 1C46     		mov	r4, r3
 500 0040 0CEB0305 		add	r5, ip, r3
 501 0044 1AD0     		beq	.L67
 502              	.LVL45:
 503              	.L69:
 504              		.loc 1 34 0
 505 0046 0133     		adds	r3, r3, #1
 506              	.LVL46:
 507 0048 9E45     		cmp	lr, r3
 508 004a F5D1     		bne	.L70
 509 004c 0CEB0E05 		add	r5, ip, lr
 510              	.LVL47:
 511              	.LBE62:
 512              	.LBE64:
 513              		.loc 1 137 0
ARM GAS  C:\Users\25521\AppData\Local\Temp\ccDmagyc.s 			page 10


 514 0050 AF42     		cmp	r7, r5
 515 0052 7446     		mov	r4, lr
 516 0054 19D9     		bls	.L72
 517              	.L71:
 518              	.LVL48:
 519              	.LBB65:
 520              	.LBB66:
 521 0056 2246     		mov	r2, r4
 522 0058 3146     		mov	r1, r6
 523 005a FFF7FEFF 		bl	get_subnamespace.part.0
 524              	.LVL49:
 525              	.LBE66:
 526              	.LBE65:
 527              		.loc 1 142 0
 528 005e 05F1010C 		add	ip, r5, #1
 529              	.LVL50:
 530              	.LBE59:
 531              		.loc 1 135 0
 532 0062 0028     		cmp	r0, #0
 533 0064 D9D1     		bne	.L65
 534              	.LVL51:
 535              	.L66:
 536              		.loc 1 144 0
 537 0066 0025     		movs	r5, #0
 538              	.L64:
 539              		.loc 1 145 0
 540 0068 039A     		ldr	r2, [sp, #12]
 541 006a D8F80030 		ldr	r3, [r8]
 542 006e 9A42     		cmp	r2, r3
 543 0070 2846     		mov	r0, r5
 544 0072 27D1     		bne	.L98
 545 0074 05B0     		add	sp, sp, #20
 546              		.cfi_remember_state
 547              		.cfi_def_cfa_offset 28
 548              		@ sp needed
 549 0076 BDE8F083 		pop	{r4, r5, r6, r7, r8, r9, pc}
 550              	.LVL52:
 551              	.L80:
 552              		.cfi_restore_state
 553              	.LBB72:
 554              	.LBB68:
 555              	.LBB63:
 556              		.loc 1 34 0
 557 007a 3D46     		mov	r5, r7
 558              	.LVL53:
 559              	.L67:
 560              	.LBE63:
 561              	.LBE68:
 562              		.loc 1 137 0
 563 007c AF42     		cmp	r7, r5
 564 007e 04D9     		bls	.L72
 565              	.LVL54:
 566              	.LBB69:
 567              	.LBB67:
 568              		.loc 1 50 0
 569 0080 002C     		cmp	r4, #0
 570 0082 E8D1     		bne	.L71
ARM GAS  C:\Users\25521\AppData\Local\Temp\ccDmagyc.s 			page 11


 571              	.LVL55:
 572              	.L73:
 573              	.LBE67:
 574              	.LBE69:
 575              		.loc 1 142 0
 576 0084 05F1010C 		add	ip, r5, #1
 577              	.LVL56:
 578 0088 C7E7     		b	.L65
 579              	.L72:
 580              	.LVL57:
 581 008a 0190     		str	r0, [sp, #4]
 582              	.LVL58:
 583              	.LBB70:
 584              	.LBB71:
 585              		.loc 1 73 0
 586 008c 002C     		cmp	r4, #0
 587 008e EAD0     		beq	.L66
 588              	.LVL59:
 589              		.loc 1 76 0
 590 0090 FFF7FEFF 		bl	parameter_port_lock
 591              	.LVL60:
 592              		.loc 1 77 0
 593 0094 0198     		ldr	r0, [sp, #4]
 594 0096 4569     		ldr	r5, [r0, #20]
 595              	.LVL61:
 596              		.loc 1 78 0
 597 0098 FFF7FEFF 		bl	parameter_port_unlock
 598              	.LVL62:
 599              		.loc 1 79 0
 600 009c 002D     		cmp	r5, #0
 601 009e E2D0     		beq	.L66
 602              	.LVL63:
 603              	.L77:
 604              		.loc 1 80 0
 605 00a0 2F68     		ldr	r7, [r5]
 606 00a2 2246     		mov	r2, r4
 607 00a4 3946     		mov	r1, r7
 608 00a6 3046     		mov	r0, r6
 609 00a8 FFF7FEFF 		bl	strncmp
 610              	.LVL64:
 611 00ac 10B9     		cbnz	r0, .L75
 612 00ae 3B5D     		ldrb	r3, [r7, r4]	@ zero_extendqisi2
 613 00b0 002B     		cmp	r3, #0
 614 00b2 D9D0     		beq	.L64
 615              	.L75:
 616              		.loc 1 85 0
 617 00b4 AD68     		ldr	r5, [r5, #8]
 618              	.LVL65:
 619              		.loc 1 79 0
 620 00b6 002D     		cmp	r5, #0
 621 00b8 F2D1     		bne	.L77
 622 00ba D4E7     		b	.L66
 623              	.LVL66:
 624              	.L68:
 625              	.LBE71:
 626              	.LBE70:
 627              		.loc 1 137 0
ARM GAS  C:\Users\25521\AppData\Local\Temp\ccDmagyc.s 			page 12


 628 00bc 6745     		cmp	r7, ip
 629 00be D2D9     		bls	.L66
 630 00c0 6546     		mov	r5, ip
 631 00c2 DFE7     		b	.L73
 632              	.LVL67:
 633              	.L98:
 634              	.LBE72:
 635              		.loc 1 145 0
 636 00c4 FFF7FEFF 		bl	__stack_chk_fail
 637              	.LVL68:
 638              	.L100:
 639              		.align	2
 640              	.L99:
 641 00c8 00000000 		.word	__stack_chk_guard
 642              		.cfi_endproc
 643              	.LFE6:
 644              		.size	_parameter_find_w_id_len, .-_parameter_find_w_id_len
 645              		.section	.text.parameter_find,"ax",%progbits
 646              		.align	1
 647              		.p2align 4,,15
 648              		.global	parameter_find
 649              		.syntax unified
 650              		.thumb
 651              		.thumb_func
 652              		.fpu fpv4-sp-d16
 653              		.type	parameter_find, %function
 654              	parameter_find:
 655              	.LFB7:
 656              		.loc 1 148 0
 657              		.cfi_startproc
 658              		@ args = 0, pretend = 0, frame = 8
 659              		@ frame_needed = 0, uses_anonymous_args = 0
 660              	.LVL69:
 661 0000 70B5     		push	{r4, r5, r6, lr}
 662              		.cfi_def_cfa_offset 16
 663              		.cfi_offset 4, -16
 664              		.cfi_offset 5, -12
 665              		.cfi_offset 6, -8
 666              		.cfi_offset 14, -4
 667 0002 0B4C     		ldr	r4, .L106
 668 0004 82B0     		sub	sp, sp, #8
 669              		.cfi_def_cfa_offset 24
 670              		.loc 1 148 0
 671 0006 2368     		ldr	r3, [r4]
 672 0008 0193     		str	r3, [sp, #4]
 673 000a 0646     		mov	r6, r0
 674              		.loc 1 149 0
 675 000c 0846     		mov	r0, r1
 676              	.LVL70:
 677              		.loc 1 148 0
 678 000e 0D46     		mov	r5, r1
 679              		.loc 1 149 0
 680 0010 FFF7FEFF 		bl	strlen
 681              	.LVL71:
 682 0014 0199     		ldr	r1, [sp, #4]
 683 0016 2368     		ldr	r3, [r4]
 684 0018 9942     		cmp	r1, r3
ARM GAS  C:\Users\25521\AppData\Local\Temp\ccDmagyc.s 			page 13


 685 001a 07D1     		bne	.L105
 686 001c 0246     		mov	r2, r0
 687 001e 2946     		mov	r1, r5
 688 0020 3046     		mov	r0, r6
 689              		.loc 1 150 0
 690 0022 02B0     		add	sp, sp, #8
 691              		.cfi_remember_state
 692              		.cfi_def_cfa_offset 16
 693              		@ sp needed
 694 0024 BDE87040 		pop	{r4, r5, r6, lr}
 695              		.cfi_restore 14
 696              		.cfi_restore 6
 697              		.cfi_restore 5
 698              		.cfi_restore 4
 699              		.cfi_def_cfa_offset 0
 700              	.LVL72:
 701              		.loc 1 149 0
 702 0028 FFF7FEBF 		b	_parameter_find_w_id_len
 703              	.LVL73:
 704              	.L105:
 705              		.cfi_restore_state
 706 002c FFF7FEFF 		bl	__stack_chk_fail
 707              	.LVL74:
 708              	.L107:
 709              		.align	2
 710              	.L106:
 711 0030 00000000 		.word	__stack_chk_guard
 712              		.cfi_endproc
 713              	.LFE7:
 714              		.size	parameter_find, .-parameter_find
 715              		.section	.text._parameter_declare,"ax",%progbits
 716              		.align	1
 717              		.p2align 4,,15
 718              		.global	_parameter_declare
 719              		.syntax unified
 720              		.thumb
 721              		.thumb_func
 722              		.fpu fpv4-sp-d16
 723              		.type	_parameter_declare, %function
 724              	_parameter_declare:
 725              	.LFB8:
 726              		.loc 1 154 0
 727              		.cfi_startproc
 728              		@ args = 0, pretend = 0, frame = 8
 729              		@ frame_needed = 0, uses_anonymous_args = 0
 730              	.LVL75:
 731 0000 30B5     		push	{r4, r5, lr}
 732              		.cfi_def_cfa_offset 12
 733              		.cfi_offset 4, -12
 734              		.cfi_offset 5, -8
 735              		.cfi_offset 14, -4
 736 0002 0D4D     		ldr	r5, .L113
 737              		.loc 1 156 0
 738 0004 4160     		str	r1, [r0, #4]
 739              		.loc 1 154 0
 740 0006 0446     		mov	r4, r0
 741              		.loc 1 157 0
ARM GAS  C:\Users\25521\AppData\Local\Temp\ccDmagyc.s 			page 14


 742 0008 0023     		movs	r3, #0
 743              		.loc 1 154 0
 744 000a 83B0     		sub	sp, sp, #12
 745              		.cfi_def_cfa_offset 24
 746              		.loc 1 154 0
 747 000c 2968     		ldr	r1, [r5]
 748              	.LVL76:
 749              		.loc 1 157 0
 750 000e 0373     		strb	r3, [r0, #12]
 751              		.loc 1 155 0
 752 0010 0260     		str	r2, [r0]
 753              		.loc 1 158 0
 754 0012 4373     		strb	r3, [r0, #13]
 755              		.loc 1 154 0
 756 0014 0191     		str	r1, [sp, #4]
 757              		.loc 1 159 0
 758 0016 FFF7FEFF 		bl	parameter_port_lock
 759              	.LVL77:
 760              		.loc 1 161 0
 761 001a 6368     		ldr	r3, [r4, #4]
 762              		.loc 1 163 0
 763 001c 0199     		ldr	r1, [sp, #4]
 764 001e 2A68     		ldr	r2, [r5]
 765              		.loc 1 161 0
 766 0020 5869     		ldr	r0, [r3, #20]
 767 0022 A060     		str	r0, [r4, #8]
 768              		.loc 1 163 0
 769 0024 9142     		cmp	r1, r2
 770              		.loc 1 162 0
 771 0026 5C61     		str	r4, [r3, #20]
 772              		.loc 1 163 0
 773 0028 04D1     		bne	.L112
 774              		.loc 1 164 0
 775 002a 03B0     		add	sp, sp, #12
 776              		.cfi_remember_state
 777              		.cfi_def_cfa_offset 12
 778              		@ sp needed
 779 002c BDE83040 		pop	{r4, r5, lr}
 780              		.cfi_restore 14
 781              		.cfi_restore 5
 782              		.cfi_restore 4
 783              		.cfi_def_cfa_offset 0
 784              	.LVL78:
 785              		.loc 1 163 0
 786 0030 FFF7FEBF 		b	parameter_port_unlock
 787              	.LVL79:
 788              	.L112:
 789              		.cfi_restore_state
 790 0034 FFF7FEFF 		bl	__stack_chk_fail
 791              	.LVL80:
 792              	.L114:
 793              		.align	2
 794              	.L113:
 795 0038 00000000 		.word	__stack_chk_guard
 796              		.cfi_endproc
 797              	.LFE8:
 798              		.size	_parameter_declare, .-_parameter_declare
ARM GAS  C:\Users\25521\AppData\Local\Temp\ccDmagyc.s 			page 15


 799              		.section	.text.parameter_namespace_contains_changed,"ax",%progbits
 800              		.align	1
 801              		.p2align 4,,15
 802              		.global	parameter_namespace_contains_changed
 803              		.syntax unified
 804              		.thumb
 805              		.thumb_func
 806              		.fpu fpv4-sp-d16
 807              		.type	parameter_namespace_contains_changed, %function
 808              	parameter_namespace_contains_changed:
 809              	.LFB9:
 810              		.loc 1 167 0
 811              		.cfi_startproc
 812              		@ args = 0, pretend = 0, frame = 8
 813              		@ frame_needed = 0, uses_anonymous_args = 0
 814              	.LVL81:
 815 0000 30B5     		push	{r4, r5, lr}
 816              		.cfi_def_cfa_offset 12
 817              		.cfi_offset 4, -12
 818              		.cfi_offset 5, -8
 819              		.cfi_offset 14, -4
 820 0002 0A4C     		ldr	r4, .L119
 821 0004 83B0     		sub	sp, sp, #12
 822              		.cfi_def_cfa_offset 24
 823              		.loc 1 167 0
 824 0006 0546     		mov	r5, r0
 825 0008 2368     		ldr	r3, [r4]
 826 000a 0193     		str	r3, [sp, #4]
 827              		.loc 1 168 0
 828 000c FFF7FEFF 		bl	parameter_port_lock
 829              	.LVL82:
 830              		.loc 1 169 0
 831 0010 6D68     		ldr	r5, [r5, #4]
 832              	.LVL83:
 833              		.loc 1 170 0
 834 0012 FFF7FEFF 		bl	parameter_port_unlock
 835              	.LVL84:
 836              		.loc 1 172 0
 837 0016 019A     		ldr	r2, [sp, #4]
 838 0018 2368     		ldr	r3, [r4]
 839 001a 281C     		adds	r0, r5, #0
 840 001c 18BF     		it	ne
 841 001e 0120     		movne	r0, #1
 842 0020 9A42     		cmp	r2, r3
 843 0022 01D1     		bne	.L118
 844 0024 03B0     		add	sp, sp, #12
 845              		.cfi_remember_state
 846              		.cfi_def_cfa_offset 12
 847              		@ sp needed
 848 0026 30BD     		pop	{r4, r5, pc}
 849              	.LVL85:
 850              	.L118:
 851              		.cfi_restore_state
 852 0028 FFF7FEFF 		bl	__stack_chk_fail
 853              	.LVL86:
 854              	.L120:
 855              		.align	2
ARM GAS  C:\Users\25521\AppData\Local\Temp\ccDmagyc.s 			page 16


 856              	.L119:
 857 002c 00000000 		.word	__stack_chk_guard
 858              		.cfi_endproc
 859              	.LFE9:
 860              		.size	parameter_namespace_contains_changed, .-parameter_namespace_contains_changed
 861              		.section	.text.parameter_changed,"ax",%progbits
 862              		.align	1
 863              		.p2align 4,,15
 864              		.global	parameter_changed
 865              		.syntax unified
 866              		.thumb
 867              		.thumb_func
 868              		.fpu fpv4-sp-d16
 869              		.type	parameter_changed, %function
 870              	parameter_changed:
 871              	.LFB10:
 872              		.loc 1 175 0
 873              		.cfi_startproc
 874              		@ args = 0, pretend = 0, frame = 8
 875              		@ frame_needed = 0, uses_anonymous_args = 0
 876              	.LVL87:
 877 0000 30B5     		push	{r4, r5, lr}
 878              		.cfi_def_cfa_offset 12
 879              		.cfi_offset 4, -12
 880              		.cfi_offset 5, -8
 881              		.cfi_offset 14, -4
 882 0002 094C     		ldr	r4, .L125
 883 0004 83B0     		sub	sp, sp, #12
 884              		.cfi_def_cfa_offset 24
 885              		.loc 1 175 0
 886 0006 0546     		mov	r5, r0
 887 0008 2368     		ldr	r3, [r4]
 888 000a 0193     		str	r3, [sp, #4]
 889              		.loc 1 176 0
 890 000c FFF7FEFF 		bl	parameter_port_lock
 891              	.LVL88:
 892              		.loc 1 177 0
 893 0010 2D7B     		ldrb	r5, [r5, #12]	@ zero_extendqisi2
 894              	.LVL89:
 895              		.loc 1 178 0
 896 0012 FFF7FEFF 		bl	parameter_port_unlock
 897              	.LVL90:
 898              		.loc 1 180 0
 899 0016 019A     		ldr	r2, [sp, #4]
 900 0018 2368     		ldr	r3, [r4]
 901 001a 9A42     		cmp	r2, r3
 902 001c 02D1     		bne	.L124
 903 001e 2846     		mov	r0, r5
 904 0020 03B0     		add	sp, sp, #12
 905              		.cfi_remember_state
 906              		.cfi_def_cfa_offset 12
 907              		@ sp needed
 908 0022 30BD     		pop	{r4, r5, pc}
 909              	.LVL91:
 910              	.L124:
 911              		.cfi_restore_state
 912 0024 FFF7FEFF 		bl	__stack_chk_fail
ARM GAS  C:\Users\25521\AppData\Local\Temp\ccDmagyc.s 			page 17


 913              	.LVL92:
 914              	.L126:
 915              		.align	2
 916              	.L125:
 917 0028 00000000 		.word	__stack_chk_guard
 918              		.cfi_endproc
 919              	.LFE10:
 920              		.size	parameter_changed, .-parameter_changed
 921              		.section	.text.parameter_defined,"ax",%progbits
 922              		.align	1
 923              		.p2align 4,,15
 924              		.global	parameter_defined
 925              		.syntax unified
 926              		.thumb
 927              		.thumb_func
 928              		.fpu fpv4-sp-d16
 929              		.type	parameter_defined, %function
 930              	parameter_defined:
 931              	.LFB11:
 932              		.loc 1 183 0
 933              		.cfi_startproc
 934              		@ args = 0, pretend = 0, frame = 8
 935              		@ frame_needed = 0, uses_anonymous_args = 0
 936              	.LVL93:
 937 0000 30B5     		push	{r4, r5, lr}
 938              		.cfi_def_cfa_offset 12
 939              		.cfi_offset 4, -12
 940              		.cfi_offset 5, -8
 941              		.cfi_offset 14, -4
 942 0002 0A4D     		ldr	r5, .L133
 943 0004 83B0     		sub	sp, sp, #12
 944              		.cfi_def_cfa_offset 24
 945              		.loc 1 183 0
 946 0006 2B68     		ldr	r3, [r5]
 947 0008 0193     		str	r3, [sp, #4]
 948              		.loc 1 184 0
 949 000a 0446     		mov	r4, r0
 950 000c 20B1     		cbz	r0, .L128
 951              		.loc 1 187 0
 952 000e FFF7FEFF 		bl	parameter_port_lock
 953              	.LVL94:
 954              		.loc 1 188 0
 955 0012 647B     		ldrb	r4, [r4, #13]	@ zero_extendqisi2
 956              	.LVL95:
 957              		.loc 1 189 0
 958 0014 FFF7FEFF 		bl	parameter_port_unlock
 959              	.LVL96:
 960              	.L128:
 961              		.loc 1 191 0
 962 0018 019A     		ldr	r2, [sp, #4]
 963 001a 2B68     		ldr	r3, [r5]
 964 001c 9A42     		cmp	r2, r3
 965 001e 2046     		mov	r0, r4
 966 0020 01D1     		bne	.L132
 967 0022 03B0     		add	sp, sp, #12
 968              		.cfi_remember_state
 969              		.cfi_def_cfa_offset 12
ARM GAS  C:\Users\25521\AppData\Local\Temp\ccDmagyc.s 			page 18


 970              		@ sp needed
 971 0024 30BD     		pop	{r4, r5, pc}
 972              	.L132:
 973              		.cfi_restore_state
 974 0026 FFF7FEFF 		bl	__stack_chk_fail
 975              	.LVL97:
 976              	.L134:
 977 002a 00BF     		.align	2
 978              	.L133:
 979 002c 00000000 		.word	__stack_chk_guard
 980              		.cfi_endproc
 981              	.LFE11:
 982              		.size	parameter_defined, .-parameter_defined
 983              		.section	.text._parameter_changed_set,"ax",%progbits
 984              		.align	1
 985              		.p2align 4,,15
 986              		.global	_parameter_changed_set
 987              		.syntax unified
 988              		.thumb
 989              		.thumb_func
 990              		.fpu fpv4-sp-d16
 991              		.type	_parameter_changed_set, %function
 992              	_parameter_changed_set:
 993              	.LFB12:
 994              		.loc 1 194 0
 995              		.cfi_startproc
 996              		@ args = 0, pretend = 0, frame = 8
 997              		@ frame_needed = 0, uses_anonymous_args = 0
 998              	.LVL98:
 999 0000 70B5     		push	{r4, r5, r6, lr}
 1000              		.cfi_def_cfa_offset 16
 1001              		.cfi_offset 4, -16
 1002              		.cfi_offset 5, -12
 1003              		.cfi_offset 6, -8
 1004              		.cfi_offset 14, -4
 1005 0002 114E     		ldr	r6, .L146
 1006 0004 82B0     		sub	sp, sp, #8
 1007              		.cfi_def_cfa_offset 24
 1008              		.loc 1 194 0
 1009 0006 0546     		mov	r5, r0
 1010 0008 3368     		ldr	r3, [r6]
 1011 000a 0193     		str	r3, [sp, #4]
 1012              		.loc 1 195 0
 1013 000c FFF7FEFF 		bl	parameter_port_lock
 1014              	.LVL99:
 1015              		.loc 1 196 0
 1016 0010 2C7B     		ldrb	r4, [r5, #12]	@ zero_extendqisi2
 1017              	.LVL100:
 1018              		.loc 1 197 0
 1019 0012 0123     		movs	r3, #1
 1020 0014 2B73     		strb	r3, [r5, #12]
 1021              		.loc 1 198 0
 1022 0016 FFF7FEFF 		bl	parameter_port_unlock
 1023              	.LVL101:
 1024              		.loc 1 199 0
 1025 001a 6CB9     		cbnz	r4, .L135
 1026              	.LVL102:
ARM GAS  C:\Users\25521\AppData\Local\Temp\ccDmagyc.s 			page 19


 1027              	.LBB75:
 1028              	.LBB76:
 1029              		.loc 1 204 0
 1030 001c 6C68     		ldr	r4, [r5, #4]
 1031              	.LVL103:
 1032              		.loc 1 205 0
 1033 001e 4CB1     		cbz	r4, .L137
 1034              	.L138:
 1035              		.loc 1 206 0
 1036 0020 FFF7FEFF 		bl	parameter_port_lock
 1037              	.LVL104:
 1038              		.loc 1 207 0
 1039 0024 6368     		ldr	r3, [r4, #4]
 1040 0026 0133     		adds	r3, r3, #1
 1041 0028 6360     		str	r3, [r4, #4]
 1042              		.loc 1 208 0
 1043 002a FFF7FEFF 		bl	parameter_port_unlock
 1044              	.LVL105:
 1045              		.loc 1 209 0
 1046 002e A468     		ldr	r4, [r4, #8]
 1047              	.LVL106:
 1048              		.loc 1 205 0
 1049 0030 002C     		cmp	r4, #0
 1050 0032 F5D1     		bne	.L138
 1051              	.L137:
 1052              		.loc 1 211 0
 1053 0034 0123     		movs	r3, #1
 1054 0036 6B73     		strb	r3, [r5, #13]
 1055              	.LVL107:
 1056              	.L135:
 1057              	.LBE76:
 1058              	.LBE75:
 1059              		.loc 1 212 0
 1060 0038 019A     		ldr	r2, [sp, #4]
 1061 003a 3368     		ldr	r3, [r6]
 1062 003c 9A42     		cmp	r2, r3
 1063 003e 01D1     		bne	.L145
 1064 0040 02B0     		add	sp, sp, #8
 1065              		.cfi_remember_state
 1066              		.cfi_def_cfa_offset 16
 1067              		@ sp needed
 1068 0042 70BD     		pop	{r4, r5, r6, pc}
 1069              	.LVL108:
 1070              	.L145:
 1071              		.cfi_restore_state
 1072 0044 FFF7FEFF 		bl	__stack_chk_fail
 1073              	.LVL109:
 1074              	.L147:
 1075              		.align	2
 1076              	.L146:
 1077 0048 00000000 		.word	__stack_chk_guard
 1078              		.cfi_endproc
 1079              	.LFE12:
 1080              		.size	_parameter_changed_set, .-_parameter_changed_set
 1081              		.section	.text._parameter_changed_clear,"ax",%progbits
 1082              		.align	1
 1083              		.p2align 4,,15
ARM GAS  C:\Users\25521\AppData\Local\Temp\ccDmagyc.s 			page 20


 1084              		.global	_parameter_changed_clear
 1085              		.syntax unified
 1086              		.thumb
 1087              		.thumb_func
 1088              		.fpu fpv4-sp-d16
 1089              		.type	_parameter_changed_clear, %function
 1090              	_parameter_changed_clear:
 1091              	.LFB13:
 1092              		.loc 1 215 0
 1093              		.cfi_startproc
 1094              		@ args = 0, pretend = 0, frame = 8
 1095              		@ frame_needed = 0, uses_anonymous_args = 0
 1096              	.LVL110:
 1097 0000 70B5     		push	{r4, r5, r6, lr}
 1098              		.cfi_def_cfa_offset 16
 1099              		.cfi_offset 4, -16
 1100              		.cfi_offset 5, -12
 1101              		.cfi_offset 6, -8
 1102              		.cfi_offset 14, -4
 1103 0002 104D     		ldr	r5, .L161
 1104 0004 82B0     		sub	sp, sp, #8
 1105              		.cfi_def_cfa_offset 24
 1106              		.loc 1 215 0
 1107 0006 0446     		mov	r4, r0
 1108 0008 2B68     		ldr	r3, [r5]
 1109 000a 0193     		str	r3, [sp, #4]
 1110              		.loc 1 216 0
 1111 000c FFF7FEFF 		bl	parameter_port_lock
 1112              	.LVL111:
 1113              		.loc 1 217 0
 1114 0010 267B     		ldrb	r6, [r4, #12]	@ zero_extendqisi2
 1115              	.LVL112:
 1116              		.loc 1 218 0
 1117 0012 0023     		movs	r3, #0
 1118 0014 2373     		strb	r3, [r4, #12]
 1119              		.loc 1 219 0
 1120 0016 FFF7FEFF 		bl	parameter_port_unlock
 1121              	.LVL113:
 1122              		.loc 1 220 0
 1123 001a 5EB1     		cbz	r6, .L148
 1124              	.LVL114:
 1125              	.LBB79:
 1126              	.LBB80:
 1127              		.loc 1 225 0
 1128 001c 6468     		ldr	r4, [r4, #4]
 1129              	.LVL115:
 1130              		.loc 1 226 0
 1131 001e 4CB1     		cbz	r4, .L148
 1132              	.L150:
 1133              		.loc 1 227 0
 1134 0020 FFF7FEFF 		bl	parameter_port_lock
 1135              	.LVL116:
 1136              		.loc 1 228 0
 1137 0024 6368     		ldr	r3, [r4, #4]
 1138 0026 013B     		subs	r3, r3, #1
 1139 0028 6360     		str	r3, [r4, #4]
 1140              		.loc 1 229 0
ARM GAS  C:\Users\25521\AppData\Local\Temp\ccDmagyc.s 			page 21


 1141 002a FFF7FEFF 		bl	parameter_port_unlock
 1142              	.LVL117:
 1143              		.loc 1 230 0
 1144 002e A468     		ldr	r4, [r4, #8]
 1145              	.LVL118:
 1146              		.loc 1 226 0
 1147 0030 002C     		cmp	r4, #0
 1148 0032 F5D1     		bne	.L150
 1149              	.LVL119:
 1150              	.L148:
 1151              	.LBE80:
 1152              	.LBE79:
 1153              		.loc 1 232 0
 1154 0034 019A     		ldr	r2, [sp, #4]
 1155 0036 2B68     		ldr	r3, [r5]
 1156 0038 9A42     		cmp	r2, r3
 1157 003a 01D1     		bne	.L160
 1158 003c 02B0     		add	sp, sp, #8
 1159              		.cfi_remember_state
 1160              		.cfi_def_cfa_offset 16
 1161              		@ sp needed
 1162 003e 70BD     		pop	{r4, r5, r6, pc}
 1163              	.LVL120:
 1164              	.L160:
 1165              		.cfi_restore_state
 1166 0040 FFF7FEFF 		bl	__stack_chk_fail
 1167              	.LVL121:
 1168              	.L162:
 1169              		.align	2
 1170              	.L161:
 1171 0044 00000000 		.word	__stack_chk_guard
 1172              		.cfi_endproc
 1173              	.LFE13:
 1174              		.size	_parameter_changed_clear, .-_parameter_changed_clear
 1175              		.section	.text.parameter_scalar_declare,"ax",%progbits
 1176              		.align	1
 1177              		.p2align 4,,15
 1178              		.global	parameter_scalar_declare
 1179              		.syntax unified
 1180              		.thumb
 1181              		.thumb_func
 1182              		.fpu fpv4-sp-d16
 1183              		.type	parameter_scalar_declare, %function
 1184              	parameter_scalar_declare:
 1185              	.LFB14:
 1186              		.loc 1 240 0
 1187              		.cfi_startproc
 1188              		@ args = 0, pretend = 0, frame = 8
 1189              		@ frame_needed = 0, uses_anonymous_args = 0
 1190              	.LVL122:
 1191 0000 30B5     		push	{r4, r5, lr}
 1192              		.cfi_def_cfa_offset 12
 1193              		.cfi_offset 4, -12
 1194              		.cfi_offset 5, -8
 1195              		.cfi_offset 14, -4
 1196 0002 0E4D     		ldr	r5, .L168
 1197              	.LBB81:
ARM GAS  C:\Users\25521\AppData\Local\Temp\ccDmagyc.s 			page 22


 1198              	.LBB82:
 1199              		.loc 1 156 0
 1200 0004 4160     		str	r1, [r0, #4]
 1201              	.LBE82:
 1202              	.LBE81:
 1203              		.loc 1 240 0
 1204 0006 0446     		mov	r4, r0
 1205              	.LBB88:
 1206              	.LBB83:
 1207              		.loc 1 157 0
 1208 0008 0023     		movs	r3, #0
 1209              	.LBE83:
 1210              	.LBE88:
 1211              		.loc 1 240 0
 1212 000a 83B0     		sub	sp, sp, #12
 1213              		.cfi_def_cfa_offset 24
 1214              		.loc 1 241 0
 1215 000c 0121     		movs	r1, #1
 1216              	.LVL123:
 1217 000e 8173     		strb	r1, [r0, #14]
 1218              	.LVL124:
 1219              	.LBB89:
 1220              	.LBB84:
 1221              		.loc 1 157 0
 1222 0010 0373     		strb	r3, [r0, #12]
 1223              	.LBE84:
 1224              	.LBE89:
 1225              		.loc 1 240 0
 1226 0012 2968     		ldr	r1, [r5]
 1227              	.LBB90:
 1228              	.LBB85:
 1229              		.loc 1 158 0
 1230 0014 4373     		strb	r3, [r0, #13]
 1231              		.loc 1 155 0
 1232 0016 0260     		str	r2, [r0]
 1233              	.LBE85:
 1234              	.LBE90:
 1235              		.loc 1 240 0
 1236 0018 0191     		str	r1, [sp, #4]
 1237              	.LBB91:
 1238              	.LBB86:
 1239              		.loc 1 159 0
 1240 001a FFF7FEFF 		bl	parameter_port_lock
 1241              	.LVL125:
 1242              		.loc 1 161 0
 1243 001e 6368     		ldr	r3, [r4, #4]
 1244              		.loc 1 163 0
 1245 0020 0199     		ldr	r1, [sp, #4]
 1246 0022 2A68     		ldr	r2, [r5]
 1247              		.loc 1 161 0
 1248 0024 5869     		ldr	r0, [r3, #20]
 1249 0026 A060     		str	r0, [r4, #8]
 1250              		.loc 1 163 0
 1251 0028 9142     		cmp	r1, r2
 1252              		.loc 1 162 0
 1253 002a 5C61     		str	r4, [r3, #20]
 1254              		.loc 1 163 0
ARM GAS  C:\Users\25521\AppData\Local\Temp\ccDmagyc.s 			page 23


 1255 002c 04D1     		bne	.L167
 1256              	.LBE86:
 1257              	.LBE91:
 1258              		.loc 1 243 0
 1259 002e 03B0     		add	sp, sp, #12
 1260              		.cfi_remember_state
 1261              		.cfi_def_cfa_offset 12
 1262              		@ sp needed
 1263 0030 BDE83040 		pop	{r4, r5, lr}
 1264              		.cfi_restore 14
 1265              		.cfi_restore 5
 1266              		.cfi_restore 4
 1267              		.cfi_def_cfa_offset 0
 1268              	.LVL126:
 1269              	.LBB92:
 1270              	.LBB87:
 1271              		.loc 1 163 0
 1272 0034 FFF7FEBF 		b	parameter_port_unlock
 1273              	.LVL127:
 1274              	.L167:
 1275              		.cfi_restore_state
 1276 0038 FFF7FEFF 		bl	__stack_chk_fail
 1277              	.LVL128:
 1278              	.L169:
 1279              		.align	2
 1280              	.L168:
 1281 003c 00000000 		.word	__stack_chk_guard
 1282              	.LBE87:
 1283              	.LBE92:
 1284              		.cfi_endproc
 1285              	.LFE14:
 1286              		.size	parameter_scalar_declare, .-parameter_scalar_declare
 1287              		.section	.text.parameter_scalar_declare_with_default,"ax",%progbits
 1288              		.align	1
 1289              		.p2align 4,,15
 1290              		.global	parameter_scalar_declare_with_default
 1291              		.syntax unified
 1292              		.thumb
 1293              		.thumb_func
 1294              		.fpu fpv4-sp-d16
 1295              		.type	parameter_scalar_declare_with_default, %function
 1296              	parameter_scalar_declare_with_default:
 1297              	.LFB15:
 1298              		.loc 1 249 0
 1299              		.cfi_startproc
 1300              		@ args = 0, pretend = 0, frame = 8
 1301              		@ frame_needed = 0, uses_anonymous_args = 0
 1302              	.LVL129:
 1303 0000 30B5     		push	{r4, r5, lr}
 1304              		.cfi_def_cfa_offset 12
 1305              		.cfi_offset 4, -12
 1306              		.cfi_offset 5, -8
 1307              		.cfi_offset 14, -4
 1308 0002 0446     		mov	r4, r0
 1309 0004 104D     		ldr	r5, .L175
 1310              		.loc 1 250 0
 1311 0006 80ED040A 		vstr.32	s0, [r0, #16]
ARM GAS  C:\Users\25521\AppData\Local\Temp\ccDmagyc.s 			page 24


 1312              		.loc 1 249 0
 1313 000a 83B0     		sub	sp, sp, #12
 1314              		.cfi_def_cfa_offset 24
 1315              	.LBB93:
 1316              	.LBB94:
 1317              		.loc 1 157 0
 1318 000c 0023     		movs	r3, #0
 1319              	.LBE94:
 1320              	.LBE93:
 1321              		.loc 1 251 0
 1322 000e 0120     		movs	r0, #1
 1323              	.LVL130:
 1324              	.LBB98:
 1325              	.LBB95:
 1326              		.loc 1 156 0
 1327 0010 6160     		str	r1, [r4, #4]
 1328              	.LBE95:
 1329              	.LBE98:
 1330              		.loc 1 251 0
 1331 0012 A073     		strb	r0, [r4, #14]
 1332              	.LVL131:
 1333              		.loc 1 249 0
 1334 0014 2968     		ldr	r1, [r5]
 1335              	.LVL132:
 1336              	.LBB99:
 1337              	.LBB96:
 1338              		.loc 1 157 0
 1339 0016 2373     		strb	r3, [r4, #12]
 1340              		.loc 1 155 0
 1341 0018 2260     		str	r2, [r4]
 1342              		.loc 1 158 0
 1343 001a 6373     		strb	r3, [r4, #13]
 1344              	.LBE96:
 1345              	.LBE99:
 1346              		.loc 1 249 0
 1347 001c 0191     		str	r1, [sp, #4]
 1348              	.LBB100:
 1349              	.LBB97:
 1350              		.loc 1 159 0
 1351 001e FFF7FEFF 		bl	parameter_port_lock
 1352              	.LVL133:
 1353              		.loc 1 161 0
 1354 0022 6368     		ldr	r3, [r4, #4]
 1355 0024 5A69     		ldr	r2, [r3, #20]
 1356 0026 A260     		str	r2, [r4, #8]
 1357              		.loc 1 162 0
 1358 0028 5C61     		str	r4, [r3, #20]
 1359              		.loc 1 163 0
 1360 002a FFF7FEFF 		bl	parameter_port_unlock
 1361              	.LVL134:
 1362              	.LBE97:
 1363              	.LBE100:
 1364              		.loc 1 253 0
 1365 002e 019A     		ldr	r2, [sp, #4]
 1366 0030 2B68     		ldr	r3, [r5]
 1367 0032 9A42     		cmp	r2, r3
 1368 0034 05D1     		bne	.L174
ARM GAS  C:\Users\25521\AppData\Local\Temp\ccDmagyc.s 			page 25


 1369 0036 2046     		mov	r0, r4
 1370              		.loc 1 254 0
 1371 0038 03B0     		add	sp, sp, #12
 1372              		.cfi_remember_state
 1373              		.cfi_def_cfa_offset 12
 1374              		@ sp needed
 1375 003a BDE83040 		pop	{r4, r5, lr}
 1376              		.cfi_restore 14
 1377              		.cfi_restore 5
 1378              		.cfi_restore 4
 1379              		.cfi_def_cfa_offset 0
 1380              	.LVL135:
 1381              		.loc 1 253 0
 1382 003e FFF7FEBF 		b	_parameter_changed_set
 1383              	.LVL136:
 1384              	.L174:
 1385              		.cfi_restore_state
 1386 0042 FFF7FEFF 		bl	__stack_chk_fail
 1387              	.LVL137:
 1388              	.L176:
 1389 0046 00BF     		.align	2
 1390              	.L175:
 1391 0048 00000000 		.word	__stack_chk_guard
 1392              		.cfi_endproc
 1393              	.LFE15:
 1394              		.size	parameter_scalar_declare_with_default, .-parameter_scalar_declare_with_default
 1395              		.section	.text.parameter_scalar_read,"ax",%progbits
 1396              		.align	1
 1397              		.p2align 4,,15
 1398              		.global	parameter_scalar_read
 1399              		.syntax unified
 1400              		.thumb
 1401              		.thumb_func
 1402              		.fpu fpv4-sp-d16
 1403              		.type	parameter_scalar_read, %function
 1404              	parameter_scalar_read:
 1405              	.LFB17:
 1406              		.loc 1 263 0
 1407              		.cfi_startproc
 1408              		@ args = 0, pretend = 0, frame = 8
 1409              		@ frame_needed = 0, uses_anonymous_args = 0
 1410              	.LVL138:
 1411 0000 30B5     		push	{r4, r5, lr}
 1412              		.cfi_def_cfa_offset 12
 1413              		.cfi_offset 4, -12
 1414              		.cfi_offset 5, -8
 1415              		.cfi_offset 14, -4
 1416 0002 2DED028B 		vpush.64	{d8}
 1417              		.cfi_def_cfa_offset 20
 1418              		.cfi_offset 80, -20
 1419              		.cfi_offset 81, -16
 1420 0006 0446     		mov	r4, r0
 1421              		.loc 1 264 0
 1422 0008 807B     		ldrb	r0, [r0, #14]	@ zero_extendqisi2
 1423              	.LVL139:
 1424              		.loc 1 263 0
 1425 000a 104D     		ldr	r5, .L181
ARM GAS  C:\Users\25521\AppData\Local\Temp\ccDmagyc.s 			page 26


 1426              		.loc 1 264 0
 1427 000c A0F10100 		sub	r0, #1
 1428              		.loc 1 263 0
 1429 0010 83B0     		sub	sp, sp, #12
 1430              		.cfi_def_cfa_offset 32
 1431              		.loc 1 264 0
 1432 0012 B0FA80F0 		clz	r0, r0
 1433              		.loc 1 263 0
 1434 0016 2B68     		ldr	r3, [r5]
 1435 0018 0193     		str	r3, [sp, #4]
 1436              		.loc 1 264 0
 1437 001a 4009     		lsrs	r0, r0, #5
 1438 001c FFF7FEFF 		bl	parameter_port_assert
 1439              	.LVL140:
 1440              		.loc 1 265 0
 1441 0020 FFF7FEFF 		bl	parameter_port_lock
 1442              	.LVL141:
 1443              		.loc 1 266 0
 1444 0024 607B     		ldrb	r0, [r4, #13]	@ zero_extendqisi2
 1445 0026 FFF7FEFF 		bl	parameter_port_assert
 1446              	.LVL142:
 1447              		.loc 1 267 0
 1448 002a 94ED048A 		vldr.32	s16, [r4, #16]
 1449              	.LVL143:
 1450              		.loc 1 268 0
 1451 002e FFF7FEFF 		bl	parameter_port_unlock
 1452              	.LVL144:
 1453              		.loc 1 270 0
 1454 0032 019A     		ldr	r2, [sp, #4]
 1455 0034 2B68     		ldr	r3, [r5]
 1456 0036 9A42     		cmp	r2, r3
 1457 0038 05D1     		bne	.L180
 1458 003a B0EE480A 		vmov.f32	s0, s16
 1459 003e 03B0     		add	sp, sp, #12
 1460              		.cfi_remember_state
 1461              		.cfi_def_cfa_offset 20
 1462              		@ sp needed
 1463 0040 BDEC028B 		vldm	sp!, {d8}
 1464              		.cfi_restore 80
 1465              		.cfi_restore 81
 1466              		.cfi_def_cfa_offset 12
 1467              	.LVL145:
 1468 0044 30BD     		pop	{r4, r5, pc}
 1469              	.LVL146:
 1470              	.L180:
 1471              		.cfi_restore_state
 1472 0046 FFF7FEFF 		bl	__stack_chk_fail
 1473              	.LVL147:
 1474              	.L182:
 1475 004a 00BF     		.align	2
 1476              	.L181:
 1477 004c 00000000 		.word	__stack_chk_guard
 1478              		.cfi_endproc
 1479              	.LFE17:
 1480              		.size	parameter_scalar_read, .-parameter_scalar_read
 1481              		.section	.text.parameter_scalar_get,"ax",%progbits
 1482              		.align	1
ARM GAS  C:\Users\25521\AppData\Local\Temp\ccDmagyc.s 			page 27


 1483              		.p2align 4,,15
 1484              		.global	parameter_scalar_get
 1485              		.syntax unified
 1486              		.thumb
 1487              		.thumb_func
 1488              		.fpu fpv4-sp-d16
 1489              		.type	parameter_scalar_get, %function
 1490              	parameter_scalar_get:
 1491              	.LFB16:
 1492              		.loc 1 257 0
 1493              		.cfi_startproc
 1494              		@ args = 0, pretend = 0, frame = 8
 1495              		@ frame_needed = 0, uses_anonymous_args = 0
 1496              	.LVL148:
 1497 0000 30B5     		push	{r4, r5, lr}
 1498              		.cfi_def_cfa_offset 12
 1499              		.cfi_offset 4, -12
 1500              		.cfi_offset 5, -8
 1501              		.cfi_offset 14, -4
 1502 0002 094C     		ldr	r4, .L188
 1503 0004 83B0     		sub	sp, sp, #12
 1504              		.cfi_def_cfa_offset 24
 1505              		.loc 1 257 0
 1506 0006 2368     		ldr	r3, [r4]
 1507 0008 0193     		str	r3, [sp, #4]
 1508 000a 0546     		mov	r5, r0
 1509              		.loc 1 258 0
 1510 000c FFF7FEFF 		bl	_parameter_changed_clear
 1511              	.LVL149:
 1512              		.loc 1 259 0
 1513 0010 019A     		ldr	r2, [sp, #4]
 1514 0012 2368     		ldr	r3, [r4]
 1515 0014 9A42     		cmp	r2, r3
 1516 0016 05D1     		bne	.L187
 1517 0018 2846     		mov	r0, r5
 1518              		.loc 1 260 0
 1519 001a 03B0     		add	sp, sp, #12
 1520              		.cfi_remember_state
 1521              		.cfi_def_cfa_offset 12
 1522              		@ sp needed
 1523 001c BDE83040 		pop	{r4, r5, lr}
 1524              		.cfi_restore 14
 1525              		.cfi_restore 5
 1526              		.cfi_restore 4
 1527              		.cfi_def_cfa_offset 0
 1528              	.LVL150:
 1529              		.loc 1 259 0
 1530 0020 FFF7FEBF 		b	parameter_scalar_read
 1531              	.LVL151:
 1532              	.L187:
 1533              		.cfi_restore_state
 1534 0024 FFF7FEFF 		bl	__stack_chk_fail
 1535              	.LVL152:
 1536              	.L189:
 1537              		.align	2
 1538              	.L188:
 1539 0028 00000000 		.word	__stack_chk_guard
ARM GAS  C:\Users\25521\AppData\Local\Temp\ccDmagyc.s 			page 28


 1540              		.cfi_endproc
 1541              	.LFE16:
 1542              		.size	parameter_scalar_get, .-parameter_scalar_get
 1543              		.section	.text.parameter_scalar_set,"ax",%progbits
 1544              		.align	1
 1545              		.p2align 4,,15
 1546              		.global	parameter_scalar_set
 1547              		.syntax unified
 1548              		.thumb
 1549              		.thumb_func
 1550              		.fpu fpv4-sp-d16
 1551              		.type	parameter_scalar_set, %function
 1552              	parameter_scalar_set:
 1553              	.LFB18:
 1554              		.loc 1 273 0
 1555              		.cfi_startproc
 1556              		@ args = 0, pretend = 0, frame = 8
 1557              		@ frame_needed = 0, uses_anonymous_args = 0
 1558              	.LVL153:
 1559 0000 30B5     		push	{r4, r5, lr}
 1560              		.cfi_def_cfa_offset 12
 1561              		.cfi_offset 4, -12
 1562              		.cfi_offset 5, -8
 1563              		.cfi_offset 14, -4
 1564 0002 2DED028B 		vpush.64	{d8}
 1565              		.cfi_def_cfa_offset 20
 1566              		.cfi_offset 80, -20
 1567              		.cfi_offset 81, -16
 1568 0006 0446     		mov	r4, r0
 1569              		.loc 1 274 0
 1570 0008 807B     		ldrb	r0, [r0, #14]	@ zero_extendqisi2
 1571              	.LVL154:
 1572              		.loc 1 273 0
 1573 000a 104D     		ldr	r5, .L195
 1574              		.loc 1 274 0
 1575 000c A0F10100 		sub	r0, #1
 1576              		.loc 1 273 0
 1577 0010 83B0     		sub	sp, sp, #12
 1578              		.cfi_def_cfa_offset 32
 1579              		.loc 1 274 0
 1580 0012 B0FA80F0 		clz	r0, r0
 1581              		.loc 1 273 0
 1582 0016 2B68     		ldr	r3, [r5]
 1583 0018 0193     		str	r3, [sp, #4]
 1584 001a B0EE408A 		vmov.f32	s16, s0
 1585              		.loc 1 274 0
 1586 001e 4009     		lsrs	r0, r0, #5
 1587 0020 FFF7FEFF 		bl	parameter_port_assert
 1588              	.LVL155:
 1589              		.loc 1 275 0
 1590 0024 FFF7FEFF 		bl	parameter_port_lock
 1591              	.LVL156:
 1592              		.loc 1 276 0
 1593 0028 84ED048A 		vstr.32	s16, [r4, #16]
 1594              		.loc 1 277 0
 1595 002c FFF7FEFF 		bl	parameter_port_unlock
 1596              	.LVL157:
ARM GAS  C:\Users\25521\AppData\Local\Temp\ccDmagyc.s 			page 29


 1597              		.loc 1 278 0
 1598 0030 019A     		ldr	r2, [sp, #4]
 1599 0032 2B68     		ldr	r3, [r5]
 1600 0034 9A42     		cmp	r2, r3
 1601 0036 07D1     		bne	.L194
 1602 0038 2046     		mov	r0, r4
 1603              		.loc 1 279 0
 1604 003a 03B0     		add	sp, sp, #12
 1605              		.cfi_remember_state
 1606              		.cfi_def_cfa_offset 20
 1607              		@ sp needed
 1608 003c BDEC028B 		vldm	sp!, {d8}
 1609              		.cfi_restore 80
 1610              		.cfi_restore 81
 1611              		.cfi_def_cfa_offset 12
 1612              	.LVL158:
 1613 0040 BDE83040 		pop	{r4, r5, lr}
 1614              		.cfi_restore 14
 1615              		.cfi_restore 5
 1616              		.cfi_restore 4
 1617              		.cfi_def_cfa_offset 0
 1618              	.LVL159:
 1619              		.loc 1 278 0
 1620 0044 FFF7FEBF 		b	_parameter_changed_set
 1621              	.LVL160:
 1622              	.L194:
 1623              		.cfi_restore_state
 1624 0048 FFF7FEFF 		bl	__stack_chk_fail
 1625              	.LVL161:
 1626              	.L196:
 1627              		.align	2
 1628              	.L195:
 1629 004c 00000000 		.word	__stack_chk_guard
 1630              		.cfi_endproc
 1631              	.LFE18:
 1632              		.size	parameter_scalar_set, .-parameter_scalar_set
 1633              		.section	.text.parameter_integer_declare,"ax",%progbits
 1634              		.align	1
 1635              		.p2align 4,,15
 1636              		.global	parameter_integer_declare
 1637              		.syntax unified
 1638              		.thumb
 1639              		.thumb_func
 1640              		.fpu fpv4-sp-d16
 1641              		.type	parameter_integer_declare, %function
 1642              	parameter_integer_declare:
 1643              	.LFB19:
 1644              		.loc 1 288 0
 1645              		.cfi_startproc
 1646              		@ args = 0, pretend = 0, frame = 8
 1647              		@ frame_needed = 0, uses_anonymous_args = 0
 1648              	.LVL162:
 1649 0000 30B5     		push	{r4, r5, lr}
 1650              		.cfi_def_cfa_offset 12
 1651              		.cfi_offset 4, -12
 1652              		.cfi_offset 5, -8
 1653              		.cfi_offset 14, -4
ARM GAS  C:\Users\25521\AppData\Local\Temp\ccDmagyc.s 			page 30


 1654 0002 0E4D     		ldr	r5, .L202
 1655              	.LBB101:
 1656              	.LBB102:
 1657              		.loc 1 156 0
 1658 0004 4160     		str	r1, [r0, #4]
 1659              	.LBE102:
 1660              	.LBE101:
 1661              		.loc 1 288 0
 1662 0006 0446     		mov	r4, r0
 1663              	.LBB108:
 1664              	.LBB103:
 1665              		.loc 1 157 0
 1666 0008 0023     		movs	r3, #0
 1667              	.LBE103:
 1668              	.LBE108:
 1669              		.loc 1 288 0
 1670 000a 83B0     		sub	sp, sp, #12
 1671              		.cfi_def_cfa_offset 24
 1672              		.loc 1 289 0
 1673 000c 0321     		movs	r1, #3
 1674              	.LVL163:
 1675 000e 8173     		strb	r1, [r0, #14]
 1676              	.LVL164:
 1677              	.LBB109:
 1678              	.LBB104:
 1679              		.loc 1 157 0
 1680 0010 0373     		strb	r3, [r0, #12]
 1681              	.LBE104:
 1682              	.LBE109:
 1683              		.loc 1 288 0
 1684 0012 2968     		ldr	r1, [r5]
 1685              	.LBB110:
 1686              	.LBB105:
 1687              		.loc 1 158 0
 1688 0014 4373     		strb	r3, [r0, #13]
 1689              		.loc 1 155 0
 1690 0016 0260     		str	r2, [r0]
 1691              	.LBE105:
 1692              	.LBE110:
 1693              		.loc 1 288 0
 1694 0018 0191     		str	r1, [sp, #4]
 1695              	.LBB111:
 1696              	.LBB106:
 1697              		.loc 1 159 0
 1698 001a FFF7FEFF 		bl	parameter_port_lock
 1699              	.LVL165:
 1700              		.loc 1 161 0
 1701 001e 6368     		ldr	r3, [r4, #4]
 1702              		.loc 1 163 0
 1703 0020 0199     		ldr	r1, [sp, #4]
 1704 0022 2A68     		ldr	r2, [r5]
 1705              		.loc 1 161 0
 1706 0024 5869     		ldr	r0, [r3, #20]
 1707 0026 A060     		str	r0, [r4, #8]
 1708              		.loc 1 163 0
 1709 0028 9142     		cmp	r1, r2
 1710              		.loc 1 162 0
ARM GAS  C:\Users\25521\AppData\Local\Temp\ccDmagyc.s 			page 31


 1711 002a 5C61     		str	r4, [r3, #20]
 1712              		.loc 1 163 0
 1713 002c 04D1     		bne	.L201
 1714              	.LBE106:
 1715              	.LBE111:
 1716              		.loc 1 291 0
 1717 002e 03B0     		add	sp, sp, #12
 1718              		.cfi_remember_state
 1719              		.cfi_def_cfa_offset 12
 1720              		@ sp needed
 1721 0030 BDE83040 		pop	{r4, r5, lr}
 1722              		.cfi_restore 14
 1723              		.cfi_restore 5
 1724              		.cfi_restore 4
 1725              		.cfi_def_cfa_offset 0
 1726              	.LVL166:
 1727              	.LBB112:
 1728              	.LBB107:
 1729              		.loc 1 163 0
 1730 0034 FFF7FEBF 		b	parameter_port_unlock
 1731              	.LVL167:
 1732              	.L201:
 1733              		.cfi_restore_state
 1734 0038 FFF7FEFF 		bl	__stack_chk_fail
 1735              	.LVL168:
 1736              	.L203:
 1737              		.align	2
 1738              	.L202:
 1739 003c 00000000 		.word	__stack_chk_guard
 1740              	.LBE107:
 1741              	.LBE112:
 1742              		.cfi_endproc
 1743              	.LFE19:
 1744              		.size	parameter_integer_declare, .-parameter_integer_declare
 1745              		.section	.text.parameter_integer_declare_with_default,"ax",%progbits
 1746              		.align	1
 1747              		.p2align 4,,15
 1748              		.global	parameter_integer_declare_with_default
 1749              		.syntax unified
 1750              		.thumb
 1751              		.thumb_func
 1752              		.fpu fpv4-sp-d16
 1753              		.type	parameter_integer_declare_with_default, %function
 1754              	parameter_integer_declare_with_default:
 1755              	.LFB20:
 1756              		.loc 1 297 0
 1757              		.cfi_startproc
 1758              		@ args = 0, pretend = 0, frame = 8
 1759              		@ frame_needed = 0, uses_anonymous_args = 0
 1760              	.LVL169:
 1761 0000 30B5     		push	{r4, r5, lr}
 1762              		.cfi_def_cfa_offset 12
 1763              		.cfi_offset 4, -12
 1764              		.cfi_offset 5, -8
 1765              		.cfi_offset 14, -4
 1766 0002 0446     		mov	r4, r0
 1767 0004 0F4D     		ldr	r5, .L209
ARM GAS  C:\Users\25521\AppData\Local\Temp\ccDmagyc.s 			page 32


 1768              		.loc 1 298 0
 1769 0006 0361     		str	r3, [r0, #16]
 1770              		.loc 1 297 0
 1771 0008 83B0     		sub	sp, sp, #12
 1772              		.cfi_def_cfa_offset 24
 1773              	.LBB113:
 1774              	.LBB114:
 1775              		.loc 1 157 0
 1776 000a 0023     		movs	r3, #0
 1777              	.LVL170:
 1778              	.LBE114:
 1779              	.LBE113:
 1780              		.loc 1 299 0
 1781 000c 0320     		movs	r0, #3
 1782              	.LVL171:
 1783              	.LBB118:
 1784              	.LBB115:
 1785              		.loc 1 156 0
 1786 000e 6160     		str	r1, [r4, #4]
 1787              	.LBE115:
 1788              	.LBE118:
 1789              		.loc 1 299 0
 1790 0010 A073     		strb	r0, [r4, #14]
 1791              	.LVL172:
 1792              		.loc 1 297 0
 1793 0012 2968     		ldr	r1, [r5]
 1794              	.LVL173:
 1795              	.LBB119:
 1796              	.LBB116:
 1797              		.loc 1 157 0
 1798 0014 2373     		strb	r3, [r4, #12]
 1799              		.loc 1 155 0
 1800 0016 2260     		str	r2, [r4]
 1801              		.loc 1 158 0
 1802 0018 6373     		strb	r3, [r4, #13]
 1803              	.LBE116:
 1804              	.LBE119:
 1805              		.loc 1 297 0
 1806 001a 0191     		str	r1, [sp, #4]
 1807              	.LBB120:
 1808              	.LBB117:
 1809              		.loc 1 159 0
 1810 001c FFF7FEFF 		bl	parameter_port_lock
 1811              	.LVL174:
 1812              		.loc 1 161 0
 1813 0020 6368     		ldr	r3, [r4, #4]
 1814 0022 5A69     		ldr	r2, [r3, #20]
 1815 0024 A260     		str	r2, [r4, #8]
 1816              		.loc 1 162 0
 1817 0026 5C61     		str	r4, [r3, #20]
 1818              		.loc 1 163 0
 1819 0028 FFF7FEFF 		bl	parameter_port_unlock
 1820              	.LVL175:
 1821              	.LBE117:
 1822              	.LBE120:
 1823              		.loc 1 301 0
 1824 002c 019A     		ldr	r2, [sp, #4]
ARM GAS  C:\Users\25521\AppData\Local\Temp\ccDmagyc.s 			page 33


 1825 002e 2B68     		ldr	r3, [r5]
 1826 0030 9A42     		cmp	r2, r3
 1827 0032 05D1     		bne	.L208
 1828 0034 2046     		mov	r0, r4
 1829              		.loc 1 302 0
 1830 0036 03B0     		add	sp, sp, #12
 1831              		.cfi_remember_state
 1832              		.cfi_def_cfa_offset 12
 1833              		@ sp needed
 1834 0038 BDE83040 		pop	{r4, r5, lr}
 1835              		.cfi_restore 14
 1836              		.cfi_restore 5
 1837              		.cfi_restore 4
 1838              		.cfi_def_cfa_offset 0
 1839              	.LVL176:
 1840              		.loc 1 301 0
 1841 003c FFF7FEBF 		b	_parameter_changed_set
 1842              	.LVL177:
 1843              	.L208:
 1844              		.cfi_restore_state
 1845 0040 FFF7FEFF 		bl	__stack_chk_fail
 1846              	.LVL178:
 1847              	.L210:
 1848              		.align	2
 1849              	.L209:
 1850 0044 00000000 		.word	__stack_chk_guard
 1851              		.cfi_endproc
 1852              	.LFE20:
 1853              		.size	parameter_integer_declare_with_default, .-parameter_integer_declare_with_default
 1854              		.section	.text.parameter_integer_read,"ax",%progbits
 1855              		.align	1
 1856              		.p2align 4,,15
 1857              		.global	parameter_integer_read
 1858              		.syntax unified
 1859              		.thumb
 1860              		.thumb_func
 1861              		.fpu fpv4-sp-d16
 1862              		.type	parameter_integer_read, %function
 1863              	parameter_integer_read:
 1864              	.LFB22:
 1865              		.loc 1 311 0
 1866              		.cfi_startproc
 1867              		@ args = 0, pretend = 0, frame = 8
 1868              		@ frame_needed = 0, uses_anonymous_args = 0
 1869              	.LVL179:
 1870 0000 30B5     		push	{r4, r5, lr}
 1871              		.cfi_def_cfa_offset 12
 1872              		.cfi_offset 4, -12
 1873              		.cfi_offset 5, -8
 1874              		.cfi_offset 14, -4
 1875 0002 0446     		mov	r4, r0
 1876              		.loc 1 312 0
 1877 0004 807B     		ldrb	r0, [r0, #14]	@ zero_extendqisi2
 1878              	.LVL180:
 1879              		.loc 1 311 0
 1880 0006 0E4D     		ldr	r5, .L215
 1881              		.loc 1 312 0
ARM GAS  C:\Users\25521\AppData\Local\Temp\ccDmagyc.s 			page 34


 1882 0008 A0F10300 		sub	r0, #3
 1883              		.loc 1 311 0
 1884 000c 83B0     		sub	sp, sp, #12
 1885              		.cfi_def_cfa_offset 24
 1886              		.loc 1 312 0
 1887 000e B0FA80F0 		clz	r0, r0
 1888              		.loc 1 311 0
 1889 0012 2B68     		ldr	r3, [r5]
 1890 0014 0193     		str	r3, [sp, #4]
 1891              		.loc 1 312 0
 1892 0016 4009     		lsrs	r0, r0, #5
 1893 0018 FFF7FEFF 		bl	parameter_port_assert
 1894              	.LVL181:
 1895              		.loc 1 313 0
 1896 001c FFF7FEFF 		bl	parameter_port_lock
 1897              	.LVL182:
 1898              		.loc 1 314 0
 1899 0020 607B     		ldrb	r0, [r4, #13]	@ zero_extendqisi2
 1900 0022 FFF7FEFF 		bl	parameter_port_assert
 1901              	.LVL183:
 1902              		.loc 1 315 0
 1903 0026 2469     		ldr	r4, [r4, #16]
 1904              	.LVL184:
 1905              		.loc 1 316 0
 1906 0028 FFF7FEFF 		bl	parameter_port_unlock
 1907              	.LVL185:
 1908              		.loc 1 318 0
 1909 002c 019A     		ldr	r2, [sp, #4]
 1910 002e 2B68     		ldr	r3, [r5]
 1911 0030 9A42     		cmp	r2, r3
 1912 0032 02D1     		bne	.L214
 1913 0034 2046     		mov	r0, r4
 1914 0036 03B0     		add	sp, sp, #12
 1915              		.cfi_remember_state
 1916              		.cfi_def_cfa_offset 12
 1917              		@ sp needed
 1918 0038 30BD     		pop	{r4, r5, pc}
 1919              	.LVL186:
 1920              	.L214:
 1921              		.cfi_restore_state
 1922 003a FFF7FEFF 		bl	__stack_chk_fail
 1923              	.LVL187:
 1924              	.L216:
 1925 003e 00BF     		.align	2
 1926              	.L215:
 1927 0040 00000000 		.word	__stack_chk_guard
 1928              		.cfi_endproc
 1929              	.LFE22:
 1930              		.size	parameter_integer_read, .-parameter_integer_read
 1931              		.section	.text.parameter_integer_get,"ax",%progbits
 1932              		.align	1
 1933              		.p2align 4,,15
 1934              		.global	parameter_integer_get
 1935              		.syntax unified
 1936              		.thumb
 1937              		.thumb_func
 1938              		.fpu fpv4-sp-d16
ARM GAS  C:\Users\25521\AppData\Local\Temp\ccDmagyc.s 			page 35


 1939              		.type	parameter_integer_get, %function
 1940              	parameter_integer_get:
 1941              	.LFB21:
 1942              		.loc 1 305 0
 1943              		.cfi_startproc
 1944              		@ args = 0, pretend = 0, frame = 8
 1945              		@ frame_needed = 0, uses_anonymous_args = 0
 1946              	.LVL188:
 1947 0000 30B5     		push	{r4, r5, lr}
 1948              		.cfi_def_cfa_offset 12
 1949              		.cfi_offset 4, -12
 1950              		.cfi_offset 5, -8
 1951              		.cfi_offset 14, -4
 1952 0002 094C     		ldr	r4, .L222
 1953 0004 83B0     		sub	sp, sp, #12
 1954              		.cfi_def_cfa_offset 24
 1955              		.loc 1 305 0
 1956 0006 2368     		ldr	r3, [r4]
 1957 0008 0193     		str	r3, [sp, #4]
 1958 000a 0546     		mov	r5, r0
 1959              		.loc 1 306 0
 1960 000c FFF7FEFF 		bl	_parameter_changed_clear
 1961              	.LVL189:
 1962              		.loc 1 307 0
 1963 0010 019A     		ldr	r2, [sp, #4]
 1964 0012 2368     		ldr	r3, [r4]
 1965 0014 9A42     		cmp	r2, r3
 1966 0016 05D1     		bne	.L221
 1967 0018 2846     		mov	r0, r5
 1968              		.loc 1 308 0
 1969 001a 03B0     		add	sp, sp, #12
 1970              		.cfi_remember_state
 1971              		.cfi_def_cfa_offset 12
 1972              		@ sp needed
 1973 001c BDE83040 		pop	{r4, r5, lr}
 1974              		.cfi_restore 14
 1975              		.cfi_restore 5
 1976              		.cfi_restore 4
 1977              		.cfi_def_cfa_offset 0
 1978              	.LVL190:
 1979              		.loc 1 307 0
 1980 0020 FFF7FEBF 		b	parameter_integer_read
 1981              	.LVL191:
 1982              	.L221:
 1983              		.cfi_restore_state
 1984 0024 FFF7FEFF 		bl	__stack_chk_fail
 1985              	.LVL192:
 1986              	.L223:
 1987              		.align	2
 1988              	.L222:
 1989 0028 00000000 		.word	__stack_chk_guard
 1990              		.cfi_endproc
 1991              	.LFE21:
 1992              		.size	parameter_integer_get, .-parameter_integer_get
 1993              		.section	.text.parameter_integer_set,"ax",%progbits
 1994              		.align	1
 1995              		.p2align 4,,15
ARM GAS  C:\Users\25521\AppData\Local\Temp\ccDmagyc.s 			page 36


 1996              		.global	parameter_integer_set
 1997              		.syntax unified
 1998              		.thumb
 1999              		.thumb_func
 2000              		.fpu fpv4-sp-d16
 2001              		.type	parameter_integer_set, %function
 2002              	parameter_integer_set:
 2003              	.LFB23:
 2004              		.loc 1 321 0
 2005              		.cfi_startproc
 2006              		@ args = 0, pretend = 0, frame = 8
 2007              		@ frame_needed = 0, uses_anonymous_args = 0
 2008              	.LVL193:
 2009 0000 70B5     		push	{r4, r5, r6, lr}
 2010              		.cfi_def_cfa_offset 16
 2011              		.cfi_offset 4, -16
 2012              		.cfi_offset 5, -12
 2013              		.cfi_offset 6, -8
 2014              		.cfi_offset 14, -4
 2015 0002 0446     		mov	r4, r0
 2016              		.loc 1 322 0
 2017 0004 807B     		ldrb	r0, [r0, #14]	@ zero_extendqisi2
 2018              	.LVL194:
 2019              		.loc 1 321 0
 2020 0006 0E4D     		ldr	r5, .L229
 2021              		.loc 1 322 0
 2022 0008 A0F10300 		sub	r0, #3
 2023              		.loc 1 321 0
 2024 000c 82B0     		sub	sp, sp, #8
 2025              		.cfi_def_cfa_offset 24
 2026              		.loc 1 322 0
 2027 000e B0FA80F0 		clz	r0, r0
 2028              		.loc 1 321 0
 2029 0012 2B68     		ldr	r3, [r5]
 2030 0014 0193     		str	r3, [sp, #4]
 2031 0016 0E46     		mov	r6, r1
 2032              		.loc 1 322 0
 2033 0018 4009     		lsrs	r0, r0, #5
 2034 001a FFF7FEFF 		bl	parameter_port_assert
 2035              	.LVL195:
 2036              		.loc 1 323 0
 2037 001e FFF7FEFF 		bl	parameter_port_lock
 2038              	.LVL196:
 2039              		.loc 1 324 0
 2040 0022 2661     		str	r6, [r4, #16]
 2041              		.loc 1 325 0
 2042 0024 FFF7FEFF 		bl	parameter_port_unlock
 2043              	.LVL197:
 2044              		.loc 1 326 0
 2045 0028 019A     		ldr	r2, [sp, #4]
 2046 002a 2B68     		ldr	r3, [r5]
 2047 002c 9A42     		cmp	r2, r3
 2048 002e 05D1     		bne	.L228
 2049 0030 2046     		mov	r0, r4
 2050              		.loc 1 327 0
 2051 0032 02B0     		add	sp, sp, #8
 2052              		.cfi_remember_state
ARM GAS  C:\Users\25521\AppData\Local\Temp\ccDmagyc.s 			page 37


 2053              		.cfi_def_cfa_offset 16
 2054              		@ sp needed
 2055 0034 BDE87040 		pop	{r4, r5, r6, lr}
 2056              		.cfi_restore 14
 2057              		.cfi_restore 6
 2058              		.cfi_restore 5
 2059              		.cfi_restore 4
 2060              		.cfi_def_cfa_offset 0
 2061              	.LVL198:
 2062              		.loc 1 326 0
 2063 0038 FFF7FEBF 		b	_parameter_changed_set
 2064              	.LVL199:
 2065              	.L228:
 2066              		.cfi_restore_state
 2067 003c FFF7FEFF 		bl	__stack_chk_fail
 2068              	.LVL200:
 2069              	.L230:
 2070              		.align	2
 2071              	.L229:
 2072 0040 00000000 		.word	__stack_chk_guard
 2073              		.cfi_endproc
 2074              	.LFE23:
 2075              		.size	parameter_integer_set, .-parameter_integer_set
 2076              		.section	.text.parameter_boolean_declare,"ax",%progbits
 2077              		.align	1
 2078              		.p2align 4,,15
 2079              		.global	parameter_boolean_declare
 2080              		.syntax unified
 2081              		.thumb
 2082              		.thumb_func
 2083              		.fpu fpv4-sp-d16
 2084              		.type	parameter_boolean_declare, %function
 2085              	parameter_boolean_declare:
 2086              	.LFB24:
 2087              		.loc 1 332 0
 2088              		.cfi_startproc
 2089              		@ args = 0, pretend = 0, frame = 8
 2090              		@ frame_needed = 0, uses_anonymous_args = 0
 2091              	.LVL201:
 2092 0000 30B5     		push	{r4, r5, lr}
 2093              		.cfi_def_cfa_offset 12
 2094              		.cfi_offset 4, -12
 2095              		.cfi_offset 5, -8
 2096              		.cfi_offset 14, -4
 2097 0002 0E4D     		ldr	r5, .L236
 2098              	.LBB121:
 2099              	.LBB122:
 2100              		.loc 1 156 0
 2101 0004 4160     		str	r1, [r0, #4]
 2102              	.LBE122:
 2103              	.LBE121:
 2104              		.loc 1 332 0
 2105 0006 0446     		mov	r4, r0
 2106              	.LBB128:
 2107              	.LBB123:
 2108              		.loc 1 157 0
 2109 0008 0023     		movs	r3, #0
ARM GAS  C:\Users\25521\AppData\Local\Temp\ccDmagyc.s 			page 38


 2110              	.LBE123:
 2111              	.LBE128:
 2112              		.loc 1 332 0
 2113 000a 83B0     		sub	sp, sp, #12
 2114              		.cfi_def_cfa_offset 24
 2115              		.loc 1 333 0
 2116 000c 0221     		movs	r1, #2
 2117              	.LVL202:
 2118 000e 8173     		strb	r1, [r0, #14]
 2119              	.LVL203:
 2120              	.LBB129:
 2121              	.LBB124:
 2122              		.loc 1 157 0
 2123 0010 0373     		strb	r3, [r0, #12]
 2124              	.LBE124:
 2125              	.LBE129:
 2126              		.loc 1 332 0
 2127 0012 2968     		ldr	r1, [r5]
 2128              	.LBB130:
 2129              	.LBB125:
 2130              		.loc 1 158 0
 2131 0014 4373     		strb	r3, [r0, #13]
 2132              		.loc 1 155 0
 2133 0016 0260     		str	r2, [r0]
 2134              	.LBE125:
 2135              	.LBE130:
 2136              		.loc 1 332 0
 2137 0018 0191     		str	r1, [sp, #4]
 2138              	.LBB131:
 2139              	.LBB126:
 2140              		.loc 1 159 0
 2141 001a FFF7FEFF 		bl	parameter_port_lock
 2142              	.LVL204:
 2143              		.loc 1 161 0
 2144 001e 6368     		ldr	r3, [r4, #4]
 2145              		.loc 1 163 0
 2146 0020 0199     		ldr	r1, [sp, #4]
 2147 0022 2A68     		ldr	r2, [r5]
 2148              		.loc 1 161 0
 2149 0024 5869     		ldr	r0, [r3, #20]
 2150 0026 A060     		str	r0, [r4, #8]
 2151              		.loc 1 163 0
 2152 0028 9142     		cmp	r1, r2
 2153              		.loc 1 162 0
 2154 002a 5C61     		str	r4, [r3, #20]
 2155              		.loc 1 163 0
 2156 002c 04D1     		bne	.L235
 2157              	.LBE126:
 2158              	.LBE131:
 2159              		.loc 1 335 0
 2160 002e 03B0     		add	sp, sp, #12
 2161              		.cfi_remember_state
 2162              		.cfi_def_cfa_offset 12
 2163              		@ sp needed
 2164 0030 BDE83040 		pop	{r4, r5, lr}
 2165              		.cfi_restore 14
 2166              		.cfi_restore 5
ARM GAS  C:\Users\25521\AppData\Local\Temp\ccDmagyc.s 			page 39


 2167              		.cfi_restore 4
 2168              		.cfi_def_cfa_offset 0
 2169              	.LVL205:
 2170              	.LBB132:
 2171              	.LBB127:
 2172              		.loc 1 163 0
 2173 0034 FFF7FEBF 		b	parameter_port_unlock
 2174              	.LVL206:
 2175              	.L235:
 2176              		.cfi_restore_state
 2177 0038 FFF7FEFF 		bl	__stack_chk_fail
 2178              	.LVL207:
 2179              	.L237:
 2180              		.align	2
 2181              	.L236:
 2182 003c 00000000 		.word	__stack_chk_guard
 2183              	.LBE127:
 2184              	.LBE132:
 2185              		.cfi_endproc
 2186              	.LFE24:
 2187              		.size	parameter_boolean_declare, .-parameter_boolean_declare
 2188              		.section	.text.parameter_boolean_declare_with_default,"ax",%progbits
 2189              		.align	1
 2190              		.p2align 4,,15
 2191              		.global	parameter_boolean_declare_with_default
 2192              		.syntax unified
 2193              		.thumb
 2194              		.thumb_func
 2195              		.fpu fpv4-sp-d16
 2196              		.type	parameter_boolean_declare_with_default, %function
 2197              	parameter_boolean_declare_with_default:
 2198              	.LFB25:
 2199              		.loc 1 341 0
 2200              		.cfi_startproc
 2201              		@ args = 0, pretend = 0, frame = 8
 2202              		@ frame_needed = 0, uses_anonymous_args = 0
 2203              	.LVL208:
 2204 0000 30B5     		push	{r4, r5, lr}
 2205              		.cfi_def_cfa_offset 12
 2206              		.cfi_offset 4, -12
 2207              		.cfi_offset 5, -8
 2208              		.cfi_offset 14, -4
 2209 0002 0446     		mov	r4, r0
 2210 0004 0F4D     		ldr	r5, .L243
 2211              		.loc 1 342 0
 2212 0006 0374     		strb	r3, [r0, #16]
 2213              		.loc 1 341 0
 2214 0008 83B0     		sub	sp, sp, #12
 2215              		.cfi_def_cfa_offset 24
 2216              	.LBB133:
 2217              	.LBB134:
 2218              		.loc 1 157 0
 2219 000a 0023     		movs	r3, #0
 2220              	.LVL209:
 2221              	.LBE134:
 2222              	.LBE133:
 2223              		.loc 1 343 0
ARM GAS  C:\Users\25521\AppData\Local\Temp\ccDmagyc.s 			page 40


 2224 000c 0220     		movs	r0, #2
 2225              	.LVL210:
 2226              	.LBB138:
 2227              	.LBB135:
 2228              		.loc 1 156 0
 2229 000e 6160     		str	r1, [r4, #4]
 2230              	.LBE135:
 2231              	.LBE138:
 2232              		.loc 1 343 0
 2233 0010 A073     		strb	r0, [r4, #14]
 2234              	.LVL211:
 2235              		.loc 1 341 0
 2236 0012 2968     		ldr	r1, [r5]
 2237              	.LVL212:
 2238              	.LBB139:
 2239              	.LBB136:
 2240              		.loc 1 157 0
 2241 0014 2373     		strb	r3, [r4, #12]
 2242              		.loc 1 155 0
 2243 0016 2260     		str	r2, [r4]
 2244              		.loc 1 158 0
 2245 0018 6373     		strb	r3, [r4, #13]
 2246              	.LBE136:
 2247              	.LBE139:
 2248              		.loc 1 341 0
 2249 001a 0191     		str	r1, [sp, #4]
 2250              	.LBB140:
 2251              	.LBB137:
 2252              		.loc 1 159 0
 2253 001c FFF7FEFF 		bl	parameter_port_lock
 2254              	.LVL213:
 2255              		.loc 1 161 0
 2256 0020 6368     		ldr	r3, [r4, #4]
 2257 0022 5A69     		ldr	r2, [r3, #20]
 2258 0024 A260     		str	r2, [r4, #8]
 2259              		.loc 1 162 0
 2260 0026 5C61     		str	r4, [r3, #20]
 2261              		.loc 1 163 0
 2262 0028 FFF7FEFF 		bl	parameter_port_unlock
 2263              	.LVL214:
 2264              	.LBE137:
 2265              	.LBE140:
 2266              		.loc 1 345 0
 2267 002c 019A     		ldr	r2, [sp, #4]
 2268 002e 2B68     		ldr	r3, [r5]
 2269 0030 9A42     		cmp	r2, r3
 2270 0032 05D1     		bne	.L242
 2271 0034 2046     		mov	r0, r4
 2272              		.loc 1 346 0
 2273 0036 03B0     		add	sp, sp, #12
 2274              		.cfi_remember_state
 2275              		.cfi_def_cfa_offset 12
 2276              		@ sp needed
 2277 0038 BDE83040 		pop	{r4, r5, lr}
 2278              		.cfi_restore 14
 2279              		.cfi_restore 5
 2280              		.cfi_restore 4
ARM GAS  C:\Users\25521\AppData\Local\Temp\ccDmagyc.s 			page 41


 2281              		.cfi_def_cfa_offset 0
 2282              	.LVL215:
 2283              		.loc 1 345 0
 2284 003c FFF7FEBF 		b	_parameter_changed_set
 2285              	.LVL216:
 2286              	.L242:
 2287              		.cfi_restore_state
 2288 0040 FFF7FEFF 		bl	__stack_chk_fail
 2289              	.LVL217:
 2290              	.L244:
 2291              		.align	2
 2292              	.L243:
 2293 0044 00000000 		.word	__stack_chk_guard
 2294              		.cfi_endproc
 2295              	.LFE25:
 2296              		.size	parameter_boolean_declare_with_default, .-parameter_boolean_declare_with_default
 2297              		.section	.text.parameter_boolean_set,"ax",%progbits
 2298              		.align	1
 2299              		.p2align 4,,15
 2300              		.global	parameter_boolean_set
 2301              		.syntax unified
 2302              		.thumb
 2303              		.thumb_func
 2304              		.fpu fpv4-sp-d16
 2305              		.type	parameter_boolean_set, %function
 2306              	parameter_boolean_set:
 2307              	.LFB26:
 2308              		.loc 1 349 0
 2309              		.cfi_startproc
 2310              		@ args = 0, pretend = 0, frame = 8
 2311              		@ frame_needed = 0, uses_anonymous_args = 0
 2312              	.LVL218:
 2313 0000 70B5     		push	{r4, r5, r6, lr}
 2314              		.cfi_def_cfa_offset 16
 2315              		.cfi_offset 4, -16
 2316              		.cfi_offset 5, -12
 2317              		.cfi_offset 6, -8
 2318              		.cfi_offset 14, -4
 2319 0002 0446     		mov	r4, r0
 2320              		.loc 1 350 0
 2321 0004 807B     		ldrb	r0, [r0, #14]	@ zero_extendqisi2
 2322              	.LVL219:
 2323              		.loc 1 349 0
 2324 0006 0E4D     		ldr	r5, .L250
 2325              		.loc 1 350 0
 2326 0008 A0F10200 		sub	r0, #2
 2327              		.loc 1 349 0
 2328 000c 82B0     		sub	sp, sp, #8
 2329              		.cfi_def_cfa_offset 24
 2330              		.loc 1 350 0
 2331 000e B0FA80F0 		clz	r0, r0
 2332              		.loc 1 349 0
 2333 0012 2B68     		ldr	r3, [r5]
 2334 0014 0193     		str	r3, [sp, #4]
 2335 0016 0E46     		mov	r6, r1
 2336              		.loc 1 350 0
 2337 0018 4009     		lsrs	r0, r0, #5
ARM GAS  C:\Users\25521\AppData\Local\Temp\ccDmagyc.s 			page 42


 2338 001a FFF7FEFF 		bl	parameter_port_assert
 2339              	.LVL220:
 2340              		.loc 1 352 0
 2341 001e FFF7FEFF 		bl	parameter_port_lock
 2342              	.LVL221:
 2343              		.loc 1 353 0
 2344 0022 2674     		strb	r6, [r4, #16]
 2345              		.loc 1 354 0
 2346 0024 FFF7FEFF 		bl	parameter_port_unlock
 2347              	.LVL222:
 2348              		.loc 1 355 0
 2349 0028 019A     		ldr	r2, [sp, #4]
 2350 002a 2B68     		ldr	r3, [r5]
 2351 002c 9A42     		cmp	r2, r3
 2352 002e 05D1     		bne	.L249
 2353 0030 2046     		mov	r0, r4
 2354              		.loc 1 356 0
 2355 0032 02B0     		add	sp, sp, #8
 2356              		.cfi_remember_state
 2357              		.cfi_def_cfa_offset 16
 2358              		@ sp needed
 2359 0034 BDE87040 		pop	{r4, r5, r6, lr}
 2360              		.cfi_restore 14
 2361              		.cfi_restore 6
 2362              		.cfi_restore 5
 2363              		.cfi_restore 4
 2364              		.cfi_def_cfa_offset 0
 2365              	.LVL223:
 2366              		.loc 1 355 0
 2367 0038 FFF7FEBF 		b	_parameter_changed_set
 2368              	.LVL224:
 2369              	.L249:
 2370              		.cfi_restore_state
 2371 003c FFF7FEFF 		bl	__stack_chk_fail
 2372              	.LVL225:
 2373              	.L251:
 2374              		.align	2
 2375              	.L250:
 2376 0040 00000000 		.word	__stack_chk_guard
 2377              		.cfi_endproc
 2378              	.LFE26:
 2379              		.size	parameter_boolean_set, .-parameter_boolean_set
 2380              		.section	.text.parameter_boolean_read,"ax",%progbits
 2381              		.align	1
 2382              		.p2align 4,,15
 2383              		.global	parameter_boolean_read
 2384              		.syntax unified
 2385              		.thumb
 2386              		.thumb_func
 2387              		.fpu fpv4-sp-d16
 2388              		.type	parameter_boolean_read, %function
 2389              	parameter_boolean_read:
 2390              	.LFB28:
 2391              		.loc 1 365 0
 2392              		.cfi_startproc
 2393              		@ args = 0, pretend = 0, frame = 8
 2394              		@ frame_needed = 0, uses_anonymous_args = 0
ARM GAS  C:\Users\25521\AppData\Local\Temp\ccDmagyc.s 			page 43


 2395              	.LVL226:
 2396 0000 30B5     		push	{r4, r5, lr}
 2397              		.cfi_def_cfa_offset 12
 2398              		.cfi_offset 4, -12
 2399              		.cfi_offset 5, -8
 2400              		.cfi_offset 14, -4
 2401 0002 0446     		mov	r4, r0
 2402              		.loc 1 366 0
 2403 0004 807B     		ldrb	r0, [r0, #14]	@ zero_extendqisi2
 2404              	.LVL227:
 2405              		.loc 1 365 0
 2406 0006 0E4D     		ldr	r5, .L256
 2407              		.loc 1 366 0
 2408 0008 A0F10200 		sub	r0, #2
 2409              		.loc 1 365 0
 2410 000c 83B0     		sub	sp, sp, #12
 2411              		.cfi_def_cfa_offset 24
 2412              		.loc 1 366 0
 2413 000e B0FA80F0 		clz	r0, r0
 2414              		.loc 1 365 0
 2415 0012 2B68     		ldr	r3, [r5]
 2416 0014 0193     		str	r3, [sp, #4]
 2417              		.loc 1 366 0
 2418 0016 4009     		lsrs	r0, r0, #5
 2419 0018 FFF7FEFF 		bl	parameter_port_assert
 2420              	.LVL228:
 2421              		.loc 1 367 0
 2422 001c FFF7FEFF 		bl	parameter_port_lock
 2423              	.LVL229:
 2424              		.loc 1 368 0
 2425 0020 607B     		ldrb	r0, [r4, #13]	@ zero_extendqisi2
 2426 0022 FFF7FEFF 		bl	parameter_port_assert
 2427              	.LVL230:
 2428              		.loc 1 369 0
 2429 0026 247C     		ldrb	r4, [r4, #16]	@ zero_extendqisi2
 2430              	.LVL231:
 2431              		.loc 1 370 0
 2432 0028 FFF7FEFF 		bl	parameter_port_unlock
 2433              	.LVL232:
 2434              		.loc 1 372 0
 2435 002c 019A     		ldr	r2, [sp, #4]
 2436 002e 2B68     		ldr	r3, [r5]
 2437 0030 9A42     		cmp	r2, r3
 2438 0032 02D1     		bne	.L255
 2439 0034 2046     		mov	r0, r4
 2440 0036 03B0     		add	sp, sp, #12
 2441              		.cfi_remember_state
 2442              		.cfi_def_cfa_offset 12
 2443              		@ sp needed
 2444 0038 30BD     		pop	{r4, r5, pc}
 2445              	.LVL233:
 2446              	.L255:
 2447              		.cfi_restore_state
 2448 003a FFF7FEFF 		bl	__stack_chk_fail
 2449              	.LVL234:
 2450              	.L257:
 2451 003e 00BF     		.align	2
ARM GAS  C:\Users\25521\AppData\Local\Temp\ccDmagyc.s 			page 44


 2452              	.L256:
 2453 0040 00000000 		.word	__stack_chk_guard
 2454              		.cfi_endproc
 2455              	.LFE28:
 2456              		.size	parameter_boolean_read, .-parameter_boolean_read
 2457              		.section	.text.parameter_boolean_get,"ax",%progbits
 2458              		.align	1
 2459              		.p2align 4,,15
 2460              		.global	parameter_boolean_get
 2461              		.syntax unified
 2462              		.thumb
 2463              		.thumb_func
 2464              		.fpu fpv4-sp-d16
 2465              		.type	parameter_boolean_get, %function
 2466              	parameter_boolean_get:
 2467              	.LFB27:
 2468              		.loc 1 359 0
 2469              		.cfi_startproc
 2470              		@ args = 0, pretend = 0, frame = 8
 2471              		@ frame_needed = 0, uses_anonymous_args = 0
 2472              	.LVL235:
 2473 0000 30B5     		push	{r4, r5, lr}
 2474              		.cfi_def_cfa_offset 12
 2475              		.cfi_offset 4, -12
 2476              		.cfi_offset 5, -8
 2477              		.cfi_offset 14, -4
 2478 0002 094C     		ldr	r4, .L263
 2479 0004 83B0     		sub	sp, sp, #12
 2480              		.cfi_def_cfa_offset 24
 2481              		.loc 1 359 0
 2482 0006 2368     		ldr	r3, [r4]
 2483 0008 0193     		str	r3, [sp, #4]
 2484 000a 0546     		mov	r5, r0
 2485              		.loc 1 360 0
 2486 000c FFF7FEFF 		bl	_parameter_changed_clear
 2487              	.LVL236:
 2488              		.loc 1 361 0
 2489 0010 019A     		ldr	r2, [sp, #4]
 2490 0012 2368     		ldr	r3, [r4]
 2491 0014 9A42     		cmp	r2, r3
 2492 0016 05D1     		bne	.L262
 2493 0018 2846     		mov	r0, r5
 2494              		.loc 1 362 0
 2495 001a 03B0     		add	sp, sp, #12
 2496              		.cfi_remember_state
 2497              		.cfi_def_cfa_offset 12
 2498              		@ sp needed
 2499 001c BDE83040 		pop	{r4, r5, lr}
 2500              		.cfi_restore 14
 2501              		.cfi_restore 5
 2502              		.cfi_restore 4
 2503              		.cfi_def_cfa_offset 0
 2504              	.LVL237:
 2505              		.loc 1 361 0
 2506 0020 FFF7FEBF 		b	parameter_boolean_read
 2507              	.LVL238:
 2508              	.L262:
ARM GAS  C:\Users\25521\AppData\Local\Temp\ccDmagyc.s 			page 45


 2509              		.cfi_restore_state
 2510 0024 FFF7FEFF 		bl	__stack_chk_fail
 2511              	.LVL239:
 2512              	.L264:
 2513              		.align	2
 2514              	.L263:
 2515 0028 00000000 		.word	__stack_chk_guard
 2516              		.cfi_endproc
 2517              	.LFE27:
 2518              		.size	parameter_boolean_get, .-parameter_boolean_get
 2519              		.section	.text.parameter_vector_declare,"ax",%progbits
 2520              		.align	1
 2521              		.p2align 4,,15
 2522              		.global	parameter_vector_declare
 2523              		.syntax unified
 2524              		.thumb
 2525              		.thumb_func
 2526              		.fpu fpv4-sp-d16
 2527              		.type	parameter_vector_declare, %function
 2528              	parameter_vector_declare:
 2529              	.LFB29:
 2530              		.loc 1 381 0
 2531              		.cfi_startproc
 2532              		@ args = 4, pretend = 0, frame = 8
 2533              		@ frame_needed = 0, uses_anonymous_args = 0
 2534              	.LVL240:
 2535 0000 70B5     		push	{r4, r5, r6, lr}
 2536              		.cfi_def_cfa_offset 16
 2537              		.cfi_offset 4, -16
 2538              		.cfi_offset 5, -12
 2539              		.cfi_offset 6, -8
 2540              		.cfi_offset 14, -4
 2541 0002 0446     		mov	r4, r0
 2542 0004 82B0     		sub	sp, sp, #8
 2543              		.cfi_def_cfa_offset 24
 2544              		.loc 1 381 0
 2545 0006 0F4D     		ldr	r5, .L270
 2546 0008 BDF81800 		ldrh	r0, [sp, #24]
 2547              	.LVL241:
 2548              		.loc 1 383 0
 2549 000c 2361     		str	r3, [r4, #16]
 2550              		.loc 1 382 0
 2551 000e 0526     		movs	r6, #5
 2552              	.LBB141:
 2553              	.LBB142:
 2554              		.loc 1 157 0
 2555 0010 0023     		movs	r3, #0
 2556              	.LVL242:
 2557              		.loc 1 156 0
 2558 0012 6160     		str	r1, [r4, #4]
 2559              	.LBE142:
 2560              	.LBE141:
 2561              		.loc 1 384 0
 2562 0014 E082     		strh	r0, [r4, #22]	@ movhi
 2563              	.LVL243:
 2564              		.loc 1 381 0
 2565 0016 2968     		ldr	r1, [r5]
ARM GAS  C:\Users\25521\AppData\Local\Temp\ccDmagyc.s 			page 46


 2566              	.LVL244:
 2567              	.LBB146:
 2568              	.LBB143:
 2569              		.loc 1 157 0
 2570 0018 2373     		strb	r3, [r4, #12]
 2571              		.loc 1 155 0
 2572 001a 2260     		str	r2, [r4]
 2573              		.loc 1 158 0
 2574 001c 6373     		strb	r3, [r4, #13]
 2575              	.LBE143:
 2576              	.LBE146:
 2577              		.loc 1 382 0
 2578 001e A673     		strb	r6, [r4, #14]
 2579              		.loc 1 381 0
 2580 0020 0191     		str	r1, [sp, #4]
 2581              	.LBB147:
 2582              	.LBB144:
 2583              		.loc 1 159 0
 2584 0022 FFF7FEFF 		bl	parameter_port_lock
 2585              	.LVL245:
 2586              		.loc 1 161 0
 2587 0026 6368     		ldr	r3, [r4, #4]
 2588              		.loc 1 163 0
 2589 0028 0199     		ldr	r1, [sp, #4]
 2590 002a 2A68     		ldr	r2, [r5]
 2591              		.loc 1 161 0
 2592 002c 5869     		ldr	r0, [r3, #20]
 2593 002e A060     		str	r0, [r4, #8]
 2594              		.loc 1 163 0
 2595 0030 9142     		cmp	r1, r2
 2596              		.loc 1 162 0
 2597 0032 5C61     		str	r4, [r3, #20]
 2598              		.loc 1 163 0
 2599 0034 04D1     		bne	.L269
 2600              	.LBE144:
 2601              	.LBE147:
 2602              		.loc 1 386 0
 2603 0036 02B0     		add	sp, sp, #8
 2604              		.cfi_remember_state
 2605              		.cfi_def_cfa_offset 16
 2606              		@ sp needed
 2607 0038 BDE87040 		pop	{r4, r5, r6, lr}
 2608              		.cfi_restore 14
 2609              		.cfi_restore 6
 2610              		.cfi_restore 5
 2611              		.cfi_restore 4
 2612              		.cfi_def_cfa_offset 0
 2613              	.LVL246:
 2614              	.LBB148:
 2615              	.LBB145:
 2616              		.loc 1 163 0
 2617 003c FFF7FEBF 		b	parameter_port_unlock
 2618              	.LVL247:
 2619              	.L269:
 2620              		.cfi_restore_state
 2621 0040 FFF7FEFF 		bl	__stack_chk_fail
 2622              	.LVL248:
ARM GAS  C:\Users\25521\AppData\Local\Temp\ccDmagyc.s 			page 47


 2623              	.L271:
 2624              		.align	2
 2625              	.L270:
 2626 0044 00000000 		.word	__stack_chk_guard
 2627              	.LBE145:
 2628              	.LBE148:
 2629              		.cfi_endproc
 2630              	.LFE29:
 2631              		.size	parameter_vector_declare, .-parameter_vector_declare
 2632              		.section	.text.parameter_vector_declare_with_default,"ax",%progbits
 2633              		.align	1
 2634              		.p2align 4,,15
 2635              		.global	parameter_vector_declare_with_default
 2636              		.syntax unified
 2637              		.thumb
 2638              		.thumb_func
 2639              		.fpu fpv4-sp-d16
 2640              		.type	parameter_vector_declare_with_default, %function
 2641              	parameter_vector_declare_with_default:
 2642              	.LFB30:
 2643              		.loc 1 393 0
 2644              		.cfi_startproc
 2645              		@ args = 4, pretend = 0, frame = 8
 2646              		@ frame_needed = 0, uses_anonymous_args = 0
 2647              	.LVL249:
 2648 0000 70B5     		push	{r4, r5, r6, lr}
 2649              		.cfi_def_cfa_offset 16
 2650              		.cfi_offset 4, -16
 2651              		.cfi_offset 5, -12
 2652              		.cfi_offset 6, -8
 2653              		.cfi_offset 14, -4
 2654 0002 0446     		mov	r4, r0
 2655 0004 82B0     		sub	sp, sp, #8
 2656              		.cfi_def_cfa_offset 24
 2657              		.loc 1 393 0
 2658 0006 114D     		ldr	r5, .L277
 2659 0008 BDF81800 		ldrh	r0, [sp, #24]
 2660              	.LVL250:
 2661              	.LBB149:
 2662              	.LBB150:
 2663              		.loc 1 383 0
 2664 000c 2361     		str	r3, [r4, #16]
 2665              		.loc 1 382 0
 2666 000e 0526     		movs	r6, #5
 2667              	.LBB151:
 2668              	.LBB152:
 2669              		.loc 1 157 0
 2670 0010 0023     		movs	r3, #0
 2671              	.LVL251:
 2672              		.loc 1 156 0
 2673 0012 6160     		str	r1, [r4, #4]
 2674              	.LBE152:
 2675              	.LBE151:
 2676              		.loc 1 384 0
 2677 0014 E082     		strh	r0, [r4, #22]	@ movhi
 2678              	.LBE150:
 2679              	.LBE149:
ARM GAS  C:\Users\25521\AppData\Local\Temp\ccDmagyc.s 			page 48


 2680              		.loc 1 393 0
 2681 0016 2968     		ldr	r1, [r5]
 2682              	.LVL252:
 2683              	.LBB159:
 2684              	.LBB157:
 2685              	.LBB155:
 2686              	.LBB153:
 2687              		.loc 1 157 0
 2688 0018 2373     		strb	r3, [r4, #12]
 2689              		.loc 1 155 0
 2690 001a 2260     		str	r2, [r4]
 2691              		.loc 1 158 0
 2692 001c 6373     		strb	r3, [r4, #13]
 2693              	.LBE153:
 2694              	.LBE155:
 2695              		.loc 1 382 0
 2696 001e A673     		strb	r6, [r4, #14]
 2697              	.LBE157:
 2698              	.LBE159:
 2699              		.loc 1 393 0
 2700 0020 0191     		str	r1, [sp, #4]
 2701              	.LVL253:
 2702              	.LBB160:
 2703              	.LBB158:
 2704              	.LBB156:
 2705              	.LBB154:
 2706              		.loc 1 159 0
 2707 0022 FFF7FEFF 		bl	parameter_port_lock
 2708              	.LVL254:
 2709              		.loc 1 161 0
 2710 0026 6368     		ldr	r3, [r4, #4]
 2711 0028 5A69     		ldr	r2, [r3, #20]
 2712 002a A260     		str	r2, [r4, #8]
 2713              		.loc 1 162 0
 2714 002c 5C61     		str	r4, [r3, #20]
 2715              		.loc 1 163 0
 2716 002e FFF7FEFF 		bl	parameter_port_unlock
 2717              	.LVL255:
 2718              	.LBE154:
 2719              	.LBE156:
 2720              	.LBE158:
 2721              	.LBE160:
 2722              		.loc 1 395 0
 2723 0032 019A     		ldr	r2, [sp, #4]
 2724 0034 2B68     		ldr	r3, [r5]
 2725 0036 9A42     		cmp	r2, r3
 2726 0038 05D1     		bne	.L276
 2727 003a 2046     		mov	r0, r4
 2728              		.loc 1 396 0
 2729 003c 02B0     		add	sp, sp, #8
 2730              		.cfi_remember_state
 2731              		.cfi_def_cfa_offset 16
 2732              		@ sp needed
 2733 003e BDE87040 		pop	{r4, r5, r6, lr}
 2734              		.cfi_restore 14
 2735              		.cfi_restore 6
 2736              		.cfi_restore 5
ARM GAS  C:\Users\25521\AppData\Local\Temp\ccDmagyc.s 			page 49


 2737              		.cfi_restore 4
 2738              		.cfi_def_cfa_offset 0
 2739              	.LVL256:
 2740              		.loc 1 395 0
 2741 0042 FFF7FEBF 		b	_parameter_changed_set
 2742              	.LVL257:
 2743              	.L276:
 2744              		.cfi_restore_state
 2745 0046 FFF7FEFF 		bl	__stack_chk_fail
 2746              	.LVL258:
 2747              	.L278:
 2748 004a 00BF     		.align	2
 2749              	.L277:
 2750 004c 00000000 		.word	__stack_chk_guard
 2751              		.cfi_endproc
 2752              	.LFE30:
 2753              		.size	parameter_vector_declare_with_default, .-parameter_vector_declare_with_default
 2754              		.section	.text.parameter_vector_dim,"ax",%progbits
 2755              		.align	1
 2756              		.p2align 4,,15
 2757              		.global	parameter_vector_dim
 2758              		.syntax unified
 2759              		.thumb
 2760              		.thumb_func
 2761              		.fpu fpv4-sp-d16
 2762              		.type	parameter_vector_dim, %function
 2763              	parameter_vector_dim:
 2764              	.LFB31:
 2765              		.loc 1 399 0
 2766              		.cfi_startproc
 2767              		@ args = 0, pretend = 0, frame = 8
 2768              		@ frame_needed = 0, uses_anonymous_args = 0
 2769              	.LVL259:
 2770 0000 30B5     		push	{r4, r5, lr}
 2771              		.cfi_def_cfa_offset 12
 2772              		.cfi_offset 4, -12
 2773              		.cfi_offset 5, -8
 2774              		.cfi_offset 14, -4
 2775 0002 0446     		mov	r4, r0
 2776              		.loc 1 400 0
 2777 0004 807B     		ldrb	r0, [r0, #14]	@ zero_extendqisi2
 2778              	.LVL260:
 2779              		.loc 1 399 0
 2780 0006 0A4D     		ldr	r5, .L283
 2781              		.loc 1 400 0
 2782 0008 A0F10500 		sub	r0, #5
 2783              		.loc 1 399 0
 2784 000c 83B0     		sub	sp, sp, #12
 2785              		.cfi_def_cfa_offset 24
 2786              		.loc 1 400 0
 2787 000e B0FA80F0 		clz	r0, r0
 2788              		.loc 1 399 0
 2789 0012 2B68     		ldr	r3, [r5]
 2790 0014 0193     		str	r3, [sp, #4]
 2791              		.loc 1 400 0
 2792 0016 4009     		lsrs	r0, r0, #5
 2793 0018 FFF7FEFF 		bl	parameter_port_assert
ARM GAS  C:\Users\25521\AppData\Local\Temp\ccDmagyc.s 			page 50


 2794              	.LVL261:
 2795              		.loc 1 402 0
 2796 001c 019A     		ldr	r2, [sp, #4]
 2797 001e 2B68     		ldr	r3, [r5]
 2798 0020 E08A     		ldrh	r0, [r4, #22]
 2799 0022 9A42     		cmp	r2, r3
 2800 0024 01D1     		bne	.L282
 2801 0026 03B0     		add	sp, sp, #12
 2802              		.cfi_remember_state
 2803              		.cfi_def_cfa_offset 12
 2804              		@ sp needed
 2805 0028 30BD     		pop	{r4, r5, pc}
 2806              	.LVL262:
 2807              	.L282:
 2808              		.cfi_restore_state
 2809 002a FFF7FEFF 		bl	__stack_chk_fail
 2810              	.LVL263:
 2811              	.L284:
 2812 002e 00BF     		.align	2
 2813              	.L283:
 2814 0030 00000000 		.word	__stack_chk_guard
 2815              		.cfi_endproc
 2816              	.LFE31:
 2817              		.size	parameter_vector_dim, .-parameter_vector_dim
 2818              		.section	.text.parameter_vector_read,"ax",%progbits
 2819              		.align	1
 2820              		.p2align 4,,15
 2821              		.global	parameter_vector_read
 2822              		.syntax unified
 2823              		.thumb
 2824              		.thumb_func
 2825              		.fpu fpv4-sp-d16
 2826              		.type	parameter_vector_read, %function
 2827              	parameter_vector_read:
 2828              	.LFB33:
 2829              		.loc 1 411 0
 2830              		.cfi_startproc
 2831              		@ args = 0, pretend = 0, frame = 8
 2832              		@ frame_needed = 0, uses_anonymous_args = 0
 2833              	.LVL264:
 2834 0000 70B5     		push	{r4, r5, r6, lr}
 2835              		.cfi_def_cfa_offset 16
 2836              		.cfi_offset 4, -16
 2837              		.cfi_offset 5, -12
 2838              		.cfi_offset 6, -8
 2839              		.cfi_offset 14, -4
 2840 0002 0446     		mov	r4, r0
 2841              		.loc 1 412 0
 2842 0004 807B     		ldrb	r0, [r0, #14]	@ zero_extendqisi2
 2843              	.LVL265:
 2844              		.loc 1 411 0
 2845 0006 154E     		ldr	r6, .L296
 2846              		.loc 1 412 0
 2847 0008 A0F10500 		sub	r0, #5
 2848              		.loc 1 411 0
 2849 000c 82B0     		sub	sp, sp, #8
 2850              		.cfi_def_cfa_offset 24
ARM GAS  C:\Users\25521\AppData\Local\Temp\ccDmagyc.s 			page 51


 2851              		.loc 1 412 0
 2852 000e B0FA80F0 		clz	r0, r0
 2853              		.loc 1 411 0
 2854 0012 3368     		ldr	r3, [r6]
 2855 0014 0193     		str	r3, [sp, #4]
 2856              		.loc 1 412 0
 2857 0016 4009     		lsrs	r0, r0, #5
 2858              		.loc 1 411 0
 2859 0018 0D46     		mov	r5, r1
 2860              		.loc 1 412 0
 2861 001a FFF7FEFF 		bl	parameter_port_assert
 2862              	.LVL266:
 2863              		.loc 1 413 0
 2864 001e FFF7FEFF 		bl	parameter_port_lock
 2865              	.LVL267:
 2866              		.loc 1 414 0
 2867 0022 607B     		ldrb	r0, [r4, #13]	@ zero_extendqisi2
 2868 0024 FFF7FEFF 		bl	parameter_port_assert
 2869              	.LVL268:
 2870              		.loc 1 416 0
 2871 0028 E38A     		ldrh	r3, [r4, #22]
 2872 002a 5BB1     		cbz	r3, .L286
 2873 002c 2946     		mov	r1, r5
 2874 002e 0023     		movs	r3, #0
 2875              	.LVL269:
 2876              	.L287:
 2877              		.loc 1 417 0 discriminator 3
 2878 0030 2269     		ldr	r2, [r4, #16]
 2879 0032 02EB8302 		add	r2, r2, r3, lsl #2
 2880              		.loc 1 416 0 discriminator 3
 2881 0036 0133     		adds	r3, r3, #1
 2882              	.LVL270:
 2883              		.loc 1 417 0 discriminator 3
 2884 0038 1268     		ldr	r2, [r2]	@ float
 2885 003a 41F8042B 		str	r2, [r1], #4	@ float
 2886              		.loc 1 416 0 discriminator 3
 2887 003e E28A     		ldrh	r2, [r4, #22]
 2888 0040 9A42     		cmp	r2, r3
 2889 0042 F5DC     		bgt	.L287
 2890              	.LVL271:
 2891              	.L286:
 2892              		.loc 1 419 0
 2893 0044 019A     		ldr	r2, [sp, #4]
 2894 0046 3368     		ldr	r3, [r6]
 2895 0048 9A42     		cmp	r2, r3
 2896 004a 04D1     		bne	.L295
 2897              		.loc 1 420 0
 2898 004c 02B0     		add	sp, sp, #8
 2899              		.cfi_remember_state
 2900              		.cfi_def_cfa_offset 16
 2901              		@ sp needed
 2902 004e BDE87040 		pop	{r4, r5, r6, lr}
 2903              		.cfi_restore 14
 2904              		.cfi_restore 6
 2905              		.cfi_restore 5
 2906              		.cfi_restore 4
 2907              		.cfi_def_cfa_offset 0
ARM GAS  C:\Users\25521\AppData\Local\Temp\ccDmagyc.s 			page 52


 2908              	.LVL272:
 2909              		.loc 1 419 0
 2910 0052 FFF7FEBF 		b	parameter_port_unlock
 2911              	.LVL273:
 2912              	.L295:
 2913              		.cfi_restore_state
 2914 0056 FFF7FEFF 		bl	__stack_chk_fail
 2915              	.LVL274:
 2916              	.L297:
 2917 005a 00BF     		.align	2
 2918              	.L296:
 2919 005c 00000000 		.word	__stack_chk_guard
 2920              		.cfi_endproc
 2921              	.LFE33:
 2922              		.size	parameter_vector_read, .-parameter_vector_read
 2923              		.section	.text.parameter_vector_get,"ax",%progbits
 2924              		.align	1
 2925              		.p2align 4,,15
 2926              		.global	parameter_vector_get
 2927              		.syntax unified
 2928              		.thumb
 2929              		.thumb_func
 2930              		.fpu fpv4-sp-d16
 2931              		.type	parameter_vector_get, %function
 2932              	parameter_vector_get:
 2933              	.LFB32:
 2934              		.loc 1 405 0
 2935              		.cfi_startproc
 2936              		@ args = 0, pretend = 0, frame = 8
 2937              		@ frame_needed = 0, uses_anonymous_args = 0
 2938              	.LVL275:
 2939 0000 70B5     		push	{r4, r5, r6, lr}
 2940              		.cfi_def_cfa_offset 16
 2941              		.cfi_offset 4, -16
 2942              		.cfi_offset 5, -12
 2943              		.cfi_offset 6, -8
 2944              		.cfi_offset 14, -4
 2945 0002 0A4C     		ldr	r4, .L303
 2946 0004 82B0     		sub	sp, sp, #8
 2947              		.cfi_def_cfa_offset 24
 2948              		.loc 1 405 0
 2949 0006 2368     		ldr	r3, [r4]
 2950 0008 0193     		str	r3, [sp, #4]
 2951 000a 0E46     		mov	r6, r1
 2952 000c 0546     		mov	r5, r0
 2953              		.loc 1 406 0
 2954 000e FFF7FEFF 		bl	_parameter_changed_clear
 2955              	.LVL276:
 2956              		.loc 1 407 0
 2957 0012 019A     		ldr	r2, [sp, #4]
 2958 0014 2368     		ldr	r3, [r4]
 2959 0016 9A42     		cmp	r2, r3
 2960 0018 06D1     		bne	.L302
 2961 001a 3146     		mov	r1, r6
 2962 001c 2846     		mov	r0, r5
 2963              		.loc 1 408 0
 2964 001e 02B0     		add	sp, sp, #8
ARM GAS  C:\Users\25521\AppData\Local\Temp\ccDmagyc.s 			page 53


 2965              		.cfi_remember_state
 2966              		.cfi_def_cfa_offset 16
 2967              		@ sp needed
 2968 0020 BDE87040 		pop	{r4, r5, r6, lr}
 2969              		.cfi_restore 14
 2970              		.cfi_restore 6
 2971              		.cfi_restore 5
 2972              		.cfi_restore 4
 2973              		.cfi_def_cfa_offset 0
 2974              	.LVL277:
 2975              		.loc 1 407 0
 2976 0024 FFF7FEBF 		b	parameter_vector_read
 2977              	.LVL278:
 2978              	.L302:
 2979              		.cfi_restore_state
 2980 0028 FFF7FEFF 		bl	__stack_chk_fail
 2981              	.LVL279:
 2982              	.L304:
 2983              		.align	2
 2984              	.L303:
 2985 002c 00000000 		.word	__stack_chk_guard
 2986              		.cfi_endproc
 2987              	.LFE32:
 2988              		.size	parameter_vector_get, .-parameter_vector_get
 2989              		.section	.text.parameter_vector_set,"ax",%progbits
 2990              		.align	1
 2991              		.p2align 4,,15
 2992              		.global	parameter_vector_set
 2993              		.syntax unified
 2994              		.thumb
 2995              		.thumb_func
 2996              		.fpu fpv4-sp-d16
 2997              		.type	parameter_vector_set, %function
 2998              	parameter_vector_set:
 2999              	.LFB34:
 3000              		.loc 1 423 0
 3001              		.cfi_startproc
 3002              		@ args = 0, pretend = 0, frame = 8
 3003              		@ frame_needed = 0, uses_anonymous_args = 0
 3004              	.LVL280:
 3005 0000 70B5     		push	{r4, r5, r6, lr}
 3006              		.cfi_def_cfa_offset 16
 3007              		.cfi_offset 4, -16
 3008              		.cfi_offset 5, -12
 3009              		.cfi_offset 6, -8
 3010              		.cfi_offset 14, -4
 3011 0002 0446     		mov	r4, r0
 3012              		.loc 1 424 0
 3013 0004 807B     		ldrb	r0, [r0, #14]	@ zero_extendqisi2
 3014              	.LVL281:
 3015              		.loc 1 423 0
 3016 0006 154E     		ldr	r6, .L316
 3017              		.loc 1 424 0
 3018 0008 A0F10500 		sub	r0, #5
 3019              		.loc 1 423 0
 3020 000c 82B0     		sub	sp, sp, #8
 3021              		.cfi_def_cfa_offset 24
ARM GAS  C:\Users\25521\AppData\Local\Temp\ccDmagyc.s 			page 54


 3022              		.loc 1 424 0
 3023 000e B0FA80F0 		clz	r0, r0
 3024              		.loc 1 423 0
 3025 0012 3368     		ldr	r3, [r6]
 3026 0014 0193     		str	r3, [sp, #4]
 3027              		.loc 1 424 0
 3028 0016 4009     		lsrs	r0, r0, #5
 3029              		.loc 1 423 0
 3030 0018 0D46     		mov	r5, r1
 3031              		.loc 1 424 0
 3032 001a FFF7FEFF 		bl	parameter_port_assert
 3033              	.LVL282:
 3034              		.loc 1 425 0
 3035 001e FFF7FEFF 		bl	parameter_port_lock
 3036              	.LVL283:
 3037              		.loc 1 427 0
 3038 0022 E38A     		ldrh	r3, [r4, #22]
 3039 0024 5BB1     		cbz	r3, .L306
 3040 0026 2946     		mov	r1, r5
 3041 0028 0023     		movs	r3, #0
 3042              	.LVL284:
 3043              	.L307:
 3044              		.loc 1 428 0 discriminator 3
 3045 002a 2269     		ldr	r2, [r4, #16]
 3046 002c 51F8040B 		ldr	r0, [r1], #4	@ float
 3047 0030 02EB8302 		add	r2, r2, r3, lsl #2
 3048              		.loc 1 427 0 discriminator 3
 3049 0034 0133     		adds	r3, r3, #1
 3050              	.LVL285:
 3051              		.loc 1 428 0 discriminator 3
 3052 0036 1060     		str	r0, [r2]	@ float
 3053              		.loc 1 427 0 discriminator 3
 3054 0038 E28A     		ldrh	r2, [r4, #22]
 3055 003a 9A42     		cmp	r2, r3
 3056 003c F5DC     		bgt	.L307
 3057              	.LVL286:
 3058              	.L306:
 3059              		.loc 1 430 0
 3060 003e FFF7FEFF 		bl	parameter_port_unlock
 3061              	.LVL287:
 3062              		.loc 1 431 0
 3063 0042 019A     		ldr	r2, [sp, #4]
 3064 0044 3368     		ldr	r3, [r6]
 3065 0046 9A42     		cmp	r2, r3
 3066 0048 05D1     		bne	.L315
 3067 004a 2046     		mov	r0, r4
 3068              		.loc 1 432 0
 3069 004c 02B0     		add	sp, sp, #8
 3070              		.cfi_remember_state
 3071              		.cfi_def_cfa_offset 16
 3072              		@ sp needed
 3073 004e BDE87040 		pop	{r4, r5, r6, lr}
 3074              		.cfi_restore 14
 3075              		.cfi_restore 6
 3076              		.cfi_restore 5
 3077              		.cfi_restore 4
 3078              		.cfi_def_cfa_offset 0
ARM GAS  C:\Users\25521\AppData\Local\Temp\ccDmagyc.s 			page 55


 3079              	.LVL288:
 3080              		.loc 1 431 0
 3081 0052 FFF7FEBF 		b	_parameter_changed_set
 3082              	.LVL289:
 3083              	.L315:
 3084              		.cfi_restore_state
 3085 0056 FFF7FEFF 		bl	__stack_chk_fail
 3086              	.LVL290:
 3087              	.L317:
 3088 005a 00BF     		.align	2
 3089              	.L316:
 3090 005c 00000000 		.word	__stack_chk_guard
 3091              		.cfi_endproc
 3092              	.LFE34:
 3093              		.size	parameter_vector_set, .-parameter_vector_set
 3094              		.section	.text.parameter_variable_vector_declare,"ax",%progbits
 3095              		.align	1
 3096              		.p2align 4,,15
 3097              		.global	parameter_variable_vector_declare
 3098              		.syntax unified
 3099              		.thumb
 3100              		.thumb_func
 3101              		.fpu fpv4-sp-d16
 3102              		.type	parameter_variable_vector_declare, %function
 3103              	parameter_variable_vector_declare:
 3104              	.LFB35:
 3105              		.loc 1 444 0
 3106              		.cfi_startproc
 3107              		@ args = 4, pretend = 0, frame = 8
 3108              		@ frame_needed = 0, uses_anonymous_args = 0
 3109              	.LVL291:
 3110 0000 70B5     		push	{r4, r5, r6, lr}
 3111              		.cfi_def_cfa_offset 16
 3112              		.cfi_offset 4, -16
 3113              		.cfi_offset 5, -12
 3114              		.cfi_offset 6, -8
 3115              		.cfi_offset 14, -4
 3116 0002 0446     		mov	r4, r0
 3117 0004 82B0     		sub	sp, sp, #8
 3118              		.cfi_def_cfa_offset 24
 3119              		.loc 1 444 0
 3120 0006 0F4D     		ldr	r5, .L323
 3121 0008 BDF81800 		ldrh	r0, [sp, #24]
 3122              	.LVL292:
 3123              		.loc 1 446 0
 3124 000c 2361     		str	r3, [r4, #16]
 3125              		.loc 1 445 0
 3126 000e 0626     		movs	r6, #6
 3127              	.LBB161:
 3128              	.LBB162:
 3129              		.loc 1 157 0
 3130 0010 0023     		movs	r3, #0
 3131              	.LVL293:
 3132              		.loc 1 156 0
 3133 0012 6160     		str	r1, [r4, #4]
 3134              	.LBE162:
 3135              	.LBE161:
ARM GAS  C:\Users\25521\AppData\Local\Temp\ccDmagyc.s 			page 56


 3136              		.loc 1 447 0
 3137 0014 A082     		strh	r0, [r4, #20]	@ movhi
 3138              	.LVL294:
 3139              		.loc 1 444 0
 3140 0016 2968     		ldr	r1, [r5]
 3141              	.LVL295:
 3142              	.LBB166:
 3143              	.LBB163:
 3144              		.loc 1 157 0
 3145 0018 2373     		strb	r3, [r4, #12]
 3146              		.loc 1 155 0
 3147 001a 2260     		str	r2, [r4]
 3148              		.loc 1 158 0
 3149 001c 6373     		strb	r3, [r4, #13]
 3150              	.LBE163:
 3151              	.LBE166:
 3152              		.loc 1 445 0
 3153 001e A673     		strb	r6, [r4, #14]
 3154              		.loc 1 444 0
 3155 0020 0191     		str	r1, [sp, #4]
 3156              	.LBB167:
 3157              	.LBB164:
 3158              		.loc 1 159 0
 3159 0022 FFF7FEFF 		bl	parameter_port_lock
 3160              	.LVL296:
 3161              		.loc 1 161 0
 3162 0026 6368     		ldr	r3, [r4, #4]
 3163              		.loc 1 163 0
 3164 0028 0199     		ldr	r1, [sp, #4]
 3165 002a 2A68     		ldr	r2, [r5]
 3166              		.loc 1 161 0
 3167 002c 5869     		ldr	r0, [r3, #20]
 3168 002e A060     		str	r0, [r4, #8]
 3169              		.loc 1 163 0
 3170 0030 9142     		cmp	r1, r2
 3171              		.loc 1 162 0
 3172 0032 5C61     		str	r4, [r3, #20]
 3173              		.loc 1 163 0
 3174 0034 04D1     		bne	.L322
 3175              	.LBE164:
 3176              	.LBE167:
 3177              		.loc 1 449 0
 3178 0036 02B0     		add	sp, sp, #8
 3179              		.cfi_remember_state
 3180              		.cfi_def_cfa_offset 16
 3181              		@ sp needed
 3182 0038 BDE87040 		pop	{r4, r5, r6, lr}
 3183              		.cfi_restore 14
 3184              		.cfi_restore 6
 3185              		.cfi_restore 5
 3186              		.cfi_restore 4
 3187              		.cfi_def_cfa_offset 0
 3188              	.LVL297:
 3189              	.LBB168:
 3190              	.LBB165:
 3191              		.loc 1 163 0
 3192 003c FFF7FEBF 		b	parameter_port_unlock
ARM GAS  C:\Users\25521\AppData\Local\Temp\ccDmagyc.s 			page 57


 3193              	.LVL298:
 3194              	.L322:
 3195              		.cfi_restore_state
 3196 0040 FFF7FEFF 		bl	__stack_chk_fail
 3197              	.LVL299:
 3198              	.L324:
 3199              		.align	2
 3200              	.L323:
 3201 0044 00000000 		.word	__stack_chk_guard
 3202              	.LBE165:
 3203              	.LBE168:
 3204              		.cfi_endproc
 3205              	.LFE35:
 3206              		.size	parameter_variable_vector_declare, .-parameter_variable_vector_declare
 3207              		.section	.text.parameter_variable_vector_declare_with_default,"ax",%progbits
 3208              		.align	1
 3209              		.p2align 4,,15
 3210              		.global	parameter_variable_vector_declare_with_default
 3211              		.syntax unified
 3212              		.thumb
 3213              		.thumb_func
 3214              		.fpu fpv4-sp-d16
 3215              		.type	parameter_variable_vector_declare_with_default, %function
 3216              	parameter_variable_vector_declare_with_default:
 3217              	.LFB36:
 3218              		.loc 1 457 0
 3219              		.cfi_startproc
 3220              		@ args = 8, pretend = 0, frame = 8
 3221              		@ frame_needed = 0, uses_anonymous_args = 0
 3222              	.LVL300:
 3223 0000 F0B5     		push	{r4, r5, r6, r7, lr}
 3224              		.cfi_def_cfa_offset 20
 3225              		.cfi_offset 4, -20
 3226              		.cfi_offset 5, -16
 3227              		.cfi_offset 6, -12
 3228              		.cfi_offset 7, -8
 3229              		.cfi_offset 14, -4
 3230 0002 83B0     		sub	sp, sp, #12
 3231              		.cfi_def_cfa_offset 32
 3232              		.loc 1 457 0
 3233 0004 0446     		mov	r4, r0
 3234 0006 154E     		ldr	r6, .L330
 3235              	.LBB169:
 3236              	.LBB170:
 3237              		.loc 1 446 0
 3238 0008 0361     		str	r3, [r0, #16]
 3239              	.LBE170:
 3240              	.LBE169:
 3241              		.loc 1 457 0
 3242 000a BDF82070 		ldrh	r7, [sp, #32]
 3243              	.LBB182:
 3244              	.LBB179:
 3245              	.LBB171:
 3246              	.LBB172:
 3247              		.loc 1 156 0
 3248 000e 6160     		str	r1, [r4, #4]
 3249              	.LBE172:
ARM GAS  C:\Users\25521\AppData\Local\Temp\ccDmagyc.s 			page 58


 3250              	.LBE171:
 3251              		.loc 1 445 0
 3252 0010 0620     		movs	r0, #6
 3253              	.LVL301:
 3254              	.LBB176:
 3255              	.LBB173:
 3256              		.loc 1 157 0
 3257 0012 0023     		movs	r3, #0
 3258              	.LVL302:
 3259              	.LBE173:
 3260              	.LBE176:
 3261              		.loc 1 445 0
 3262 0014 A073     		strb	r0, [r4, #14]
 3263              	.LBE179:
 3264              	.LBE182:
 3265              		.loc 1 457 0
 3266 0016 3168     		ldr	r1, [r6]
 3267              	.LVL303:
 3268              	.LBB183:
 3269              	.LBB180:
 3270              	.LBB177:
 3271              	.LBB174:
 3272              		.loc 1 157 0
 3273 0018 2373     		strb	r3, [r4, #12]
 3274              		.loc 1 155 0
 3275 001a 2260     		str	r2, [r4]
 3276              		.loc 1 158 0
 3277 001c 6373     		strb	r3, [r4, #13]
 3278              	.LBE174:
 3279              	.LBE177:
 3280              		.loc 1 447 0
 3281 001e A782     		strh	r7, [r4, #20]	@ movhi
 3282              	.LBE180:
 3283              	.LBE183:
 3284              		.loc 1 457 0
 3285 0020 0191     		str	r1, [sp, #4]
 3286              	.LVL304:
 3287 0022 BDF82450 		ldrh	r5, [sp, #36]
 3288              	.LBB184:
 3289              	.LBB181:
 3290              	.LBB178:
 3291              	.LBB175:
 3292              		.loc 1 159 0
 3293 0026 FFF7FEFF 		bl	parameter_port_lock
 3294              	.LVL305:
 3295              		.loc 1 161 0
 3296 002a 6368     		ldr	r3, [r4, #4]
 3297 002c 5A69     		ldr	r2, [r3, #20]
 3298 002e A260     		str	r2, [r4, #8]
 3299              		.loc 1 162 0
 3300 0030 5C61     		str	r4, [r3, #20]
 3301              		.loc 1 163 0
 3302 0032 FFF7FEFF 		bl	parameter_port_unlock
 3303              	.LVL306:
 3304              	.LBE175:
 3305              	.LBE178:
 3306              	.LBE181:
ARM GAS  C:\Users\25521\AppData\Local\Temp\ccDmagyc.s 			page 59


 3307              	.LBE184:
 3308              		.loc 1 459 0
 3309 0036 AF42     		cmp	r7, r5
 3310 0038 34BF     		ite	cc
 3311 003a 0020     		movcc	r0, #0
 3312 003c 0120     		movcs	r0, #1
 3313 003e FFF7FEFF 		bl	parameter_port_assert
 3314              	.LVL307:
 3315              		.loc 1 461 0
 3316 0042 019A     		ldr	r2, [sp, #4]
 3317 0044 3368     		ldr	r3, [r6]
 3318              		.loc 1 460 0
 3319 0046 E582     		strh	r5, [r4, #22]	@ movhi
 3320              		.loc 1 461 0
 3321 0048 9A42     		cmp	r2, r3
 3322 004a 05D1     		bne	.L329
 3323 004c 2046     		mov	r0, r4
 3324              		.loc 1 462 0
 3325 004e 03B0     		add	sp, sp, #12
 3326              		.cfi_remember_state
 3327              		.cfi_def_cfa_offset 20
 3328              		@ sp needed
 3329 0050 BDE8F040 		pop	{r4, r5, r6, r7, lr}
 3330              		.cfi_restore 14
 3331              		.cfi_restore 7
 3332              		.cfi_restore 6
 3333              		.cfi_restore 5
 3334              		.cfi_restore 4
 3335              		.cfi_def_cfa_offset 0
 3336              	.LVL308:
 3337              		.loc 1 461 0
 3338 0054 FFF7FEBF 		b	_parameter_changed_set
 3339              	.LVL309:
 3340              	.L329:
 3341              		.cfi_restore_state
 3342 0058 FFF7FEFF 		bl	__stack_chk_fail
 3343              	.LVL310:
 3344              	.L331:
 3345              		.align	2
 3346              	.L330:
 3347 005c 00000000 		.word	__stack_chk_guard
 3348              		.cfi_endproc
 3349              	.LFE36:
 3350              		.size	parameter_variable_vector_declare_with_default, .-parameter_variable_vector_declare_with_def
 3351              		.section	.text.parameter_variable_vector_max_dim,"ax",%progbits
 3352              		.align	1
 3353              		.p2align 4,,15
 3354              		.global	parameter_variable_vector_max_dim
 3355              		.syntax unified
 3356              		.thumb
 3357              		.thumb_func
 3358              		.fpu fpv4-sp-d16
 3359              		.type	parameter_variable_vector_max_dim, %function
 3360              	parameter_variable_vector_max_dim:
 3361              	.LFB37:
 3362              		.loc 1 465 0
 3363              		.cfi_startproc
ARM GAS  C:\Users\25521\AppData\Local\Temp\ccDmagyc.s 			page 60


 3364              		@ args = 0, pretend = 0, frame = 8
 3365              		@ frame_needed = 0, uses_anonymous_args = 0
 3366              	.LVL311:
 3367 0000 30B5     		push	{r4, r5, lr}
 3368              		.cfi_def_cfa_offset 12
 3369              		.cfi_offset 4, -12
 3370              		.cfi_offset 5, -8
 3371              		.cfi_offset 14, -4
 3372 0002 0446     		mov	r4, r0
 3373              		.loc 1 466 0
 3374 0004 807B     		ldrb	r0, [r0, #14]	@ zero_extendqisi2
 3375              	.LVL312:
 3376              		.loc 1 465 0
 3377 0006 0A4D     		ldr	r5, .L336
 3378              		.loc 1 466 0
 3379 0008 A0F10600 		sub	r0, #6
 3380              		.loc 1 465 0
 3381 000c 83B0     		sub	sp, sp, #12
 3382              		.cfi_def_cfa_offset 24
 3383              		.loc 1 466 0
 3384 000e B0FA80F0 		clz	r0, r0
 3385              		.loc 1 465 0
 3386 0012 2B68     		ldr	r3, [r5]
 3387 0014 0193     		str	r3, [sp, #4]
 3388              		.loc 1 466 0
 3389 0016 4009     		lsrs	r0, r0, #5
 3390 0018 FFF7FEFF 		bl	parameter_port_assert
 3391              	.LVL313:
 3392              		.loc 1 468 0
 3393 001c 019A     		ldr	r2, [sp, #4]
 3394 001e 2B68     		ldr	r3, [r5]
 3395 0020 A08A     		ldrh	r0, [r4, #20]
 3396 0022 9A42     		cmp	r2, r3
 3397 0024 01D1     		bne	.L335
 3398 0026 03B0     		add	sp, sp, #12
 3399              		.cfi_remember_state
 3400              		.cfi_def_cfa_offset 12
 3401              		@ sp needed
 3402 0028 30BD     		pop	{r4, r5, pc}
 3403              	.LVL314:
 3404              	.L335:
 3405              		.cfi_restore_state
 3406 002a FFF7FEFF 		bl	__stack_chk_fail
 3407              	.LVL315:
 3408              	.L337:
 3409 002e 00BF     		.align	2
 3410              	.L336:
 3411 0030 00000000 		.word	__stack_chk_guard
 3412              		.cfi_endproc
 3413              	.LFE37:
 3414              		.size	parameter_variable_vector_max_dim, .-parameter_variable_vector_max_dim
 3415              		.section	.text.parameter_variable_vector_read,"ax",%progbits
 3416              		.align	1
 3417              		.p2align 4,,15
 3418              		.global	parameter_variable_vector_read
 3419              		.syntax unified
 3420              		.thumb
ARM GAS  C:\Users\25521\AppData\Local\Temp\ccDmagyc.s 			page 61


 3421              		.thumb_func
 3422              		.fpu fpv4-sp-d16
 3423              		.type	parameter_variable_vector_read, %function
 3424              	parameter_variable_vector_read:
 3425              	.LFB39:
 3426              		.loc 1 477 0
 3427              		.cfi_startproc
 3428              		@ args = 0, pretend = 0, frame = 8
 3429              		@ frame_needed = 0, uses_anonymous_args = 0
 3430              	.LVL316:
 3431 0000 F0B5     		push	{r4, r5, r6, r7, lr}
 3432              		.cfi_def_cfa_offset 20
 3433              		.cfi_offset 4, -20
 3434              		.cfi_offset 5, -16
 3435              		.cfi_offset 6, -12
 3436              		.cfi_offset 7, -8
 3437              		.cfi_offset 14, -4
 3438 0002 0446     		mov	r4, r0
 3439              		.loc 1 478 0
 3440 0004 807B     		ldrb	r0, [r0, #14]	@ zero_extendqisi2
 3441              	.LVL317:
 3442              		.loc 1 477 0
 3443 0006 154F     		ldr	r7, .L348
 3444              		.loc 1 478 0
 3445 0008 A0F10600 		sub	r0, #6
 3446              		.loc 1 477 0
 3447 000c 83B0     		sub	sp, sp, #12
 3448              		.cfi_def_cfa_offset 32
 3449              		.loc 1 478 0
 3450 000e B0FA80F0 		clz	r0, r0
 3451              		.loc 1 477 0
 3452 0012 3B68     		ldr	r3, [r7]
 3453 0014 0193     		str	r3, [sp, #4]
 3454              		.loc 1 478 0
 3455 0016 4009     		lsrs	r0, r0, #5
 3456              		.loc 1 477 0
 3457 0018 0E46     		mov	r6, r1
 3458              		.loc 1 478 0
 3459 001a FFF7FEFF 		bl	parameter_port_assert
 3460              	.LVL318:
 3461              		.loc 1 479 0
 3462 001e FFF7FEFF 		bl	parameter_port_lock
 3463              	.LVL319:
 3464              		.loc 1 480 0
 3465 0022 607B     		ldrb	r0, [r4, #13]	@ zero_extendqisi2
 3466 0024 FFF7FEFF 		bl	parameter_port_assert
 3467              	.LVL320:
 3468              		.loc 1 482 0
 3469 0028 E58A     		ldrh	r5, [r4, #22]
 3470 002a 5DB1     		cbz	r5, .L339
 3471 002c 3146     		mov	r1, r6
 3472 002e 0023     		movs	r3, #0
 3473              	.LVL321:
 3474              	.L340:
 3475              		.loc 1 483 0 discriminator 3
 3476 0030 2269     		ldr	r2, [r4, #16]
 3477 0032 02EB8302 		add	r2, r2, r3, lsl #2
ARM GAS  C:\Users\25521\AppData\Local\Temp\ccDmagyc.s 			page 62


 3478              		.loc 1 482 0 discriminator 3
 3479 0036 0133     		adds	r3, r3, #1
 3480              	.LVL322:
 3481              		.loc 1 483 0 discriminator 3
 3482 0038 1268     		ldr	r2, [r2]	@ float
 3483 003a 41F8042B 		str	r2, [r1], #4	@ float
 3484              		.loc 1 482 0 discriminator 3
 3485 003e E58A     		ldrh	r5, [r4, #22]
 3486 0040 9D42     		cmp	r5, r3
 3487 0042 F5DC     		bgt	.L340
 3488              	.LVL323:
 3489              	.L339:
 3490              		.loc 1 486 0
 3491 0044 FFF7FEFF 		bl	parameter_port_unlock
 3492              	.LVL324:
 3493              		.loc 1 488 0
 3494 0048 019A     		ldr	r2, [sp, #4]
 3495 004a 3B68     		ldr	r3, [r7]
 3496 004c 9A42     		cmp	r2, r3
 3497 004e 2846     		mov	r0, r5
 3498 0050 01D1     		bne	.L347
 3499 0052 03B0     		add	sp, sp, #12
 3500              		.cfi_remember_state
 3501              		.cfi_def_cfa_offset 20
 3502              		@ sp needed
 3503 0054 F0BD     		pop	{r4, r5, r6, r7, pc}
 3504              	.LVL325:
 3505              	.L347:
 3506              		.cfi_restore_state
 3507 0056 FFF7FEFF 		bl	__stack_chk_fail
 3508              	.LVL326:
 3509              	.L349:
 3510 005a 00BF     		.align	2
 3511              	.L348:
 3512 005c 00000000 		.word	__stack_chk_guard
 3513              		.cfi_endproc
 3514              	.LFE39:
 3515              		.size	parameter_variable_vector_read, .-parameter_variable_vector_read
 3516              		.section	.text.parameter_variable_vector_get,"ax",%progbits
 3517              		.align	1
 3518              		.p2align 4,,15
 3519              		.global	parameter_variable_vector_get
 3520              		.syntax unified
 3521              		.thumb
 3522              		.thumb_func
 3523              		.fpu fpv4-sp-d16
 3524              		.type	parameter_variable_vector_get, %function
 3525              	parameter_variable_vector_get:
 3526              	.LFB38:
 3527              		.loc 1 471 0
 3528              		.cfi_startproc
 3529              		@ args = 0, pretend = 0, frame = 8
 3530              		@ frame_needed = 0, uses_anonymous_args = 0
 3531              	.LVL327:
 3532 0000 70B5     		push	{r4, r5, r6, lr}
 3533              		.cfi_def_cfa_offset 16
 3534              		.cfi_offset 4, -16
ARM GAS  C:\Users\25521\AppData\Local\Temp\ccDmagyc.s 			page 63


 3535              		.cfi_offset 5, -12
 3536              		.cfi_offset 6, -8
 3537              		.cfi_offset 14, -4
 3538 0002 0A4C     		ldr	r4, .L355
 3539 0004 82B0     		sub	sp, sp, #8
 3540              		.cfi_def_cfa_offset 24
 3541              		.loc 1 471 0
 3542 0006 2368     		ldr	r3, [r4]
 3543 0008 0193     		str	r3, [sp, #4]
 3544 000a 0E46     		mov	r6, r1
 3545 000c 0546     		mov	r5, r0
 3546              		.loc 1 472 0
 3547 000e FFF7FEFF 		bl	_parameter_changed_clear
 3548              	.LVL328:
 3549              		.loc 1 473 0
 3550 0012 019A     		ldr	r2, [sp, #4]
 3551 0014 2368     		ldr	r3, [r4]
 3552 0016 9A42     		cmp	r2, r3
 3553 0018 06D1     		bne	.L354
 3554 001a 3146     		mov	r1, r6
 3555 001c 2846     		mov	r0, r5
 3556              		.loc 1 474 0
 3557 001e 02B0     		add	sp, sp, #8
 3558              		.cfi_remember_state
 3559              		.cfi_def_cfa_offset 16
 3560              		@ sp needed
 3561 0020 BDE87040 		pop	{r4, r5, r6, lr}
 3562              		.cfi_restore 14
 3563              		.cfi_restore 6
 3564              		.cfi_restore 5
 3565              		.cfi_restore 4
 3566              		.cfi_def_cfa_offset 0
 3567              	.LVL329:
 3568              		.loc 1 473 0
 3569 0024 FFF7FEBF 		b	parameter_variable_vector_read
 3570              	.LVL330:
 3571              	.L354:
 3572              		.cfi_restore_state
 3573 0028 FFF7FEFF 		bl	__stack_chk_fail
 3574              	.LVL331:
 3575              	.L356:
 3576              		.align	2
 3577              	.L355:
 3578 002c 00000000 		.word	__stack_chk_guard
 3579              		.cfi_endproc
 3580              	.LFE38:
 3581              		.size	parameter_variable_vector_get, .-parameter_variable_vector_get
 3582              		.section	.text.parameter_variable_vector_set,"ax",%progbits
 3583              		.align	1
 3584              		.p2align 4,,15
 3585              		.global	parameter_variable_vector_set
 3586              		.syntax unified
 3587              		.thumb
 3588              		.thumb_func
 3589              		.fpu fpv4-sp-d16
 3590              		.type	parameter_variable_vector_set, %function
 3591              	parameter_variable_vector_set:
ARM GAS  C:\Users\25521\AppData\Local\Temp\ccDmagyc.s 			page 64


 3592              	.LFB40:
 3593              		.loc 1 491 0
 3594              		.cfi_startproc
 3595              		@ args = 0, pretend = 0, frame = 8
 3596              		@ frame_needed = 0, uses_anonymous_args = 0
 3597              	.LVL332:
 3598 0000 2DE9F043 		push	{r4, r5, r6, r7, r8, r9, lr}
 3599              		.cfi_def_cfa_offset 28
 3600              		.cfi_offset 4, -28
 3601              		.cfi_offset 5, -24
 3602              		.cfi_offset 6, -20
 3603              		.cfi_offset 7, -16
 3604              		.cfi_offset 8, -12
 3605              		.cfi_offset 9, -8
 3606              		.cfi_offset 14, -4
 3607 0004 0646     		mov	r6, r0
 3608              		.loc 1 492 0
 3609 0006 807B     		ldrb	r0, [r0, #14]	@ zero_extendqisi2
 3610              	.LVL333:
 3611              		.loc 1 491 0
 3612 0008 DFF86C80 		ldr	r8, .L368
 3613              		.loc 1 492 0
 3614 000c A0F10600 		sub	r0, #6
 3615              		.loc 1 491 0
 3616 0010 83B0     		sub	sp, sp, #12
 3617              		.cfi_def_cfa_offset 40
 3618              		.loc 1 492 0
 3619 0012 B0FA80F0 		clz	r0, r0
 3620              		.loc 1 491 0
 3621 0016 D8F80030 		ldr	r3, [r8]
 3622 001a 0193     		str	r3, [sp, #4]
 3623              		.loc 1 492 0
 3624 001c 4009     		lsrs	r0, r0, #5
 3625              		.loc 1 491 0
 3626 001e 9146     		mov	r9, r2
 3627 0020 0F46     		mov	r7, r1
 3628              		.loc 1 492 0
 3629 0022 FFF7FEFF 		bl	parameter_port_assert
 3630              	.LVL334:
 3631              		.loc 1 493 0
 3632 0026 FFF7FEFF 		bl	parameter_port_lock
 3633              	.LVL335:
 3634              		.loc 1 494 0
 3635 002a B08A     		ldrh	r0, [r6, #20]
 3636 002c 4845     		cmp	r0, r9
 3637 002e 34BF     		ite	cc
 3638 0030 0020     		movcc	r0, #0
 3639 0032 0120     		movcs	r0, #1
 3640 0034 FFF7FEFF 		bl	parameter_port_assert
 3641              	.LVL336:
 3642              		.loc 1 496 0
 3643 0038 B9F1000F 		cmp	r9, #0
 3644 003c 0AD0     		beq	.L358
 3645 003e 07EB8901 		add	r1, r7, r9, lsl #2
 3646 0042 3B46     		mov	r3, r7
 3647              	.LVL337:
 3648              	.L359:
ARM GAS  C:\Users\25521\AppData\Local\Temp\ccDmagyc.s 			page 65


 3649              		.loc 1 497 0 discriminator 3
 3650 0044 3069     		ldr	r0, [r6, #16]
 3651 0046 DD1B     		subs	r5, r3, r7
 3652 0048 53F8044B 		ldr	r4, [r3], #4	@ float
 3653 004c 2844     		add	r0, r0, r5
 3654              		.loc 1 496 0 discriminator 3
 3655 004e 8B42     		cmp	r3, r1
 3656              		.loc 1 497 0 discriminator 3
 3657 0050 0460     		str	r4, [r0]	@ float
 3658              		.loc 1 496 0 discriminator 3
 3659 0052 F7D1     		bne	.L359
 3660              	.L358:
 3661              		.loc 1 499 0
 3662 0054 A6F81690 		strh	r9, [r6, #22]	@ movhi
 3663              		.loc 1 500 0
 3664 0058 FFF7FEFF 		bl	parameter_port_unlock
 3665              	.LVL338:
 3666              		.loc 1 501 0
 3667 005c 019A     		ldr	r2, [sp, #4]
 3668 005e D8F80030 		ldr	r3, [r8]
 3669 0062 9A42     		cmp	r2, r3
 3670 0064 05D1     		bne	.L367
 3671 0066 3046     		mov	r0, r6
 3672              		.loc 1 502 0
 3673 0068 03B0     		add	sp, sp, #12
 3674              		.cfi_remember_state
 3675              		.cfi_def_cfa_offset 28
 3676              		@ sp needed
 3677 006a BDE8F043 		pop	{r4, r5, r6, r7, r8, r9, lr}
 3678              		.cfi_restore 14
 3679              		.cfi_restore 9
 3680              		.cfi_restore 8
 3681              		.cfi_restore 7
 3682              		.cfi_restore 6
 3683              		.cfi_restore 5
 3684              		.cfi_restore 4
 3685              		.cfi_def_cfa_offset 0
 3686              	.LVL339:
 3687              		.loc 1 501 0
 3688 006e FFF7FEBF 		b	_parameter_changed_set
 3689              	.LVL340:
 3690              	.L367:
 3691              		.cfi_restore_state
 3692 0072 FFF7FEFF 		bl	__stack_chk_fail
 3693              	.LVL341:
 3694              	.L369:
 3695 0076 00BF     		.align	2
 3696              	.L368:
 3697 0078 00000000 		.word	__stack_chk_guard
 3698              		.cfi_endproc
 3699              	.LFE40:
 3700              		.size	parameter_variable_vector_set, .-parameter_variable_vector_set
 3701              		.section	.text.parameter_string_declare,"ax",%progbits
 3702              		.align	1
 3703              		.p2align 4,,15
 3704              		.global	parameter_string_declare
 3705              		.syntax unified
ARM GAS  C:\Users\25521\AppData\Local\Temp\ccDmagyc.s 			page 66


 3706              		.thumb
 3707              		.thumb_func
 3708              		.fpu fpv4-sp-d16
 3709              		.type	parameter_string_declare, %function
 3710              	parameter_string_declare:
 3711              	.LFB41:
 3712              		.loc 1 514 0
 3713              		.cfi_startproc
 3714              		@ args = 4, pretend = 0, frame = 8
 3715              		@ frame_needed = 0, uses_anonymous_args = 0
 3716              	.LVL342:
 3717 0000 70B5     		push	{r4, r5, r6, lr}
 3718              		.cfi_def_cfa_offset 16
 3719              		.cfi_offset 4, -16
 3720              		.cfi_offset 5, -12
 3721              		.cfi_offset 6, -8
 3722              		.cfi_offset 14, -4
 3723 0002 0446     		mov	r4, r0
 3724 0004 82B0     		sub	sp, sp, #8
 3725              		.cfi_def_cfa_offset 24
 3726              		.loc 1 514 0
 3727 0006 0F4D     		ldr	r5, .L375
 3728 0008 BDF81800 		ldrh	r0, [sp, #24]
 3729              	.LVL343:
 3730              		.loc 1 516 0
 3731 000c 2361     		str	r3, [r4, #16]
 3732              		.loc 1 515 0
 3733 000e 0426     		movs	r6, #4
 3734              	.LBB185:
 3735              	.LBB186:
 3736              		.loc 1 157 0
 3737 0010 0023     		movs	r3, #0
 3738              	.LVL344:
 3739              		.loc 1 156 0
 3740 0012 6160     		str	r1, [r4, #4]
 3741              	.LBE186:
 3742              	.LBE185:
 3743              		.loc 1 517 0
 3744 0014 A082     		strh	r0, [r4, #20]	@ movhi
 3745              	.LVL345:
 3746              		.loc 1 514 0
 3747 0016 2968     		ldr	r1, [r5]
 3748              	.LVL346:
 3749              	.LBB190:
 3750              	.LBB187:
 3751              		.loc 1 157 0
 3752 0018 2373     		strb	r3, [r4, #12]
 3753              		.loc 1 155 0
 3754 001a 2260     		str	r2, [r4]
 3755              		.loc 1 158 0
 3756 001c 6373     		strb	r3, [r4, #13]
 3757              	.LBE187:
 3758              	.LBE190:
 3759              		.loc 1 515 0
 3760 001e A673     		strb	r6, [r4, #14]
 3761              		.loc 1 514 0
 3762 0020 0191     		str	r1, [sp, #4]
ARM GAS  C:\Users\25521\AppData\Local\Temp\ccDmagyc.s 			page 67


 3763              	.LBB191:
 3764              	.LBB188:
 3765              		.loc 1 159 0
 3766 0022 FFF7FEFF 		bl	parameter_port_lock
 3767              	.LVL347:
 3768              		.loc 1 161 0
 3769 0026 6368     		ldr	r3, [r4, #4]
 3770              		.loc 1 163 0
 3771 0028 0199     		ldr	r1, [sp, #4]
 3772 002a 2A68     		ldr	r2, [r5]
 3773              		.loc 1 161 0
 3774 002c 5869     		ldr	r0, [r3, #20]
 3775 002e A060     		str	r0, [r4, #8]
 3776              		.loc 1 163 0
 3777 0030 9142     		cmp	r1, r2
 3778              		.loc 1 162 0
 3779 0032 5C61     		str	r4, [r3, #20]
 3780              		.loc 1 163 0
 3781 0034 04D1     		bne	.L374
 3782              	.LBE188:
 3783              	.LBE191:
 3784              		.loc 1 519 0
 3785 0036 02B0     		add	sp, sp, #8
 3786              		.cfi_remember_state
 3787              		.cfi_def_cfa_offset 16
 3788              		@ sp needed
 3789 0038 BDE87040 		pop	{r4, r5, r6, lr}
 3790              		.cfi_restore 14
 3791              		.cfi_restore 6
 3792              		.cfi_restore 5
 3793              		.cfi_restore 4
 3794              		.cfi_def_cfa_offset 0
 3795              	.LVL348:
 3796              	.LBB192:
 3797              	.LBB189:
 3798              		.loc 1 163 0
 3799 003c FFF7FEBF 		b	parameter_port_unlock
 3800              	.LVL349:
 3801              	.L374:
 3802              		.cfi_restore_state
 3803 0040 FFF7FEFF 		bl	__stack_chk_fail
 3804              	.LVL350:
 3805              	.L376:
 3806              		.align	2
 3807              	.L375:
 3808 0044 00000000 		.word	__stack_chk_guard
 3809              	.LBE189:
 3810              	.LBE192:
 3811              		.cfi_endproc
 3812              	.LFE41:
 3813              		.size	parameter_string_declare, .-parameter_string_declare
 3814              		.section	.text.parameter_string_declare_with_default,"ax",%progbits
 3815              		.align	1
 3816              		.p2align 4,,15
 3817              		.global	parameter_string_declare_with_default
 3818              		.syntax unified
 3819              		.thumb
ARM GAS  C:\Users\25521\AppData\Local\Temp\ccDmagyc.s 			page 68


 3820              		.thumb_func
 3821              		.fpu fpv4-sp-d16
 3822              		.type	parameter_string_declare_with_default, %function
 3823              	parameter_string_declare_with_default:
 3824              	.LFB42:
 3825              		.loc 1 527 0
 3826              		.cfi_startproc
 3827              		@ args = 8, pretend = 0, frame = 8
 3828              		@ frame_needed = 0, uses_anonymous_args = 0
 3829              	.LVL351:
 3830 0000 F0B5     		push	{r4, r5, r6, r7, lr}
 3831              		.cfi_def_cfa_offset 20
 3832              		.cfi_offset 4, -20
 3833              		.cfi_offset 5, -16
 3834              		.cfi_offset 6, -12
 3835              		.cfi_offset 7, -8
 3836              		.cfi_offset 14, -4
 3837 0002 83B0     		sub	sp, sp, #12
 3838              		.cfi_def_cfa_offset 32
 3839              		.loc 1 527 0
 3840 0004 0446     		mov	r4, r0
 3841 0006 194E     		ldr	r6, .L382
 3842              	.LBB193:
 3843              	.LBB194:
 3844              		.loc 1 516 0
 3845 0008 0361     		str	r3, [r0, #16]
 3846              	.LBE194:
 3847              	.LBE193:
 3848              		.loc 1 527 0
 3849 000a BDF82050 		ldrh	r5, [sp, #32]
 3850              	.LBB206:
 3851              	.LBB203:
 3852              	.LBB195:
 3853              	.LBB196:
 3854              		.loc 1 156 0
 3855 000e 6160     		str	r1, [r4, #4]
 3856              	.LBE196:
 3857              	.LBE195:
 3858              		.loc 1 515 0
 3859 0010 0420     		movs	r0, #4
 3860              	.LVL352:
 3861              	.LBB200:
 3862              	.LBB197:
 3863              		.loc 1 157 0
 3864 0012 0023     		movs	r3, #0
 3865              	.LVL353:
 3866              	.LBE197:
 3867              	.LBE200:
 3868              	.LBE203:
 3869              	.LBE206:
 3870              		.loc 1 527 0
 3871 0014 3168     		ldr	r1, [r6]
 3872              	.LVL354:
 3873              	.LBB207:
 3874              	.LBB204:
 3875              		.loc 1 515 0
 3876 0016 A073     		strb	r0, [r4, #14]
ARM GAS  C:\Users\25521\AppData\Local\Temp\ccDmagyc.s 			page 69


 3877              	.LBB201:
 3878              	.LBB198:
 3879              		.loc 1 155 0
 3880 0018 2260     		str	r2, [r4]
 3881              		.loc 1 157 0
 3882 001a 2373     		strb	r3, [r4, #12]
 3883              		.loc 1 158 0
 3884 001c 6373     		strb	r3, [r4, #13]
 3885              	.LBE198:
 3886              	.LBE201:
 3887              		.loc 1 517 0
 3888 001e A582     		strh	r5, [r4, #20]	@ movhi
 3889              	.LBE204:
 3890              	.LBE207:
 3891              		.loc 1 527 0
 3892 0020 0191     		str	r1, [sp, #4]
 3893              	.LVL355:
 3894 0022 099F     		ldr	r7, [sp, #36]
 3895              	.LBB208:
 3896              	.LBB205:
 3897              	.LBB202:
 3898              	.LBB199:
 3899              		.loc 1 159 0
 3900 0024 FFF7FEFF 		bl	parameter_port_lock
 3901              	.LVL356:
 3902              		.loc 1 161 0
 3903 0028 6368     		ldr	r3, [r4, #4]
 3904 002a 5A69     		ldr	r2, [r3, #20]
 3905 002c A260     		str	r2, [r4, #8]
 3906              		.loc 1 162 0
 3907 002e 5C61     		str	r4, [r3, #20]
 3908              		.loc 1 163 0
 3909 0030 FFF7FEFF 		bl	parameter_port_unlock
 3910              	.LVL357:
 3911              	.LBE199:
 3912              	.LBE202:
 3913              	.LBE205:
 3914              	.LBE208:
 3915              		.loc 1 529 0
 3916 0034 3846     		mov	r0, r7
 3917 0036 FFF7FEFF 		bl	strlen
 3918              	.LVL358:
 3919 003a 80B2     		uxth	r0, r0
 3920              		.loc 1 530 0
 3921 003c A842     		cmp	r0, r5
 3922              		.loc 1 529 0
 3923 003e E082     		strh	r0, [r4, #22]	@ movhi
 3924              		.loc 1 530 0
 3925 0040 8CBF     		ite	hi
 3926 0042 0020     		movhi	r0, #0
 3927 0044 0120     		movls	r0, #1
 3928 0046 FFF7FEFF 		bl	parameter_port_assert
 3929              	.LVL359:
 3930              		.loc 1 531 0
 3931 004a 2A46     		mov	r2, r5
 3932 004c 3946     		mov	r1, r7
 3933 004e 2069     		ldr	r0, [r4, #16]
ARM GAS  C:\Users\25521\AppData\Local\Temp\ccDmagyc.s 			page 70


 3934 0050 FFF7FEFF 		bl	strncpy
 3935              	.LVL360:
 3936              		.loc 1 532 0
 3937 0054 019A     		ldr	r2, [sp, #4]
 3938 0056 3368     		ldr	r3, [r6]
 3939 0058 9A42     		cmp	r2, r3
 3940 005a 05D1     		bne	.L381
 3941 005c 2046     		mov	r0, r4
 3942              		.loc 1 533 0
 3943 005e 03B0     		add	sp, sp, #12
 3944              		.cfi_remember_state
 3945              		.cfi_def_cfa_offset 20
 3946              		@ sp needed
 3947 0060 BDE8F040 		pop	{r4, r5, r6, r7, lr}
 3948              		.cfi_restore 14
 3949              		.cfi_restore 7
 3950              		.cfi_restore 6
 3951              		.cfi_restore 5
 3952              		.cfi_restore 4
 3953              		.cfi_def_cfa_offset 0
 3954              	.LVL361:
 3955              		.loc 1 532 0
 3956 0064 FFF7FEBF 		b	_parameter_changed_set
 3957              	.LVL362:
 3958              	.L381:
 3959              		.cfi_restore_state
 3960 0068 FFF7FEFF 		bl	__stack_chk_fail
 3961              	.LVL363:
 3962              	.L383:
 3963              		.align	2
 3964              	.L382:
 3965 006c 00000000 		.word	__stack_chk_guard
 3966              		.cfi_endproc
 3967              	.LFE42:
 3968              		.size	parameter_string_declare_with_default, .-parameter_string_declare_with_default
 3969              		.section	.text.parameter_string_max_len,"ax",%progbits
 3970              		.align	1
 3971              		.p2align 4,,15
 3972              		.global	parameter_string_max_len
 3973              		.syntax unified
 3974              		.thumb
 3975              		.thumb_func
 3976              		.fpu fpv4-sp-d16
 3977              		.type	parameter_string_max_len, %function
 3978              	parameter_string_max_len:
 3979              	.LFB43:
 3980              		.loc 1 536 0
 3981              		.cfi_startproc
 3982              		@ args = 0, pretend = 0, frame = 8
 3983              		@ frame_needed = 0, uses_anonymous_args = 0
 3984              	.LVL364:
 3985 0000 30B5     		push	{r4, r5, lr}
 3986              		.cfi_def_cfa_offset 12
 3987              		.cfi_offset 4, -12
 3988              		.cfi_offset 5, -8
 3989              		.cfi_offset 14, -4
 3990 0002 0546     		mov	r5, r0
ARM GAS  C:\Users\25521\AppData\Local\Temp\ccDmagyc.s 			page 71


 3991              		.loc 1 537 0
 3992 0004 807B     		ldrb	r0, [r0, #14]	@ zero_extendqisi2
 3993              	.LVL365:
 3994              		.loc 1 536 0
 3995 0006 0B4C     		ldr	r4, .L388
 3996              		.loc 1 537 0
 3997 0008 A0F10400 		sub	r0, #4
 3998              		.loc 1 536 0
 3999 000c 83B0     		sub	sp, sp, #12
 4000              		.cfi_def_cfa_offset 24
 4001              		.loc 1 537 0
 4002 000e B0FA80F0 		clz	r0, r0
 4003              		.loc 1 536 0
 4004 0012 2368     		ldr	r3, [r4]
 4005 0014 0193     		str	r3, [sp, #4]
 4006              		.loc 1 537 0
 4007 0016 4009     		lsrs	r0, r0, #5
 4008 0018 FFF7FEFF 		bl	parameter_port_assert
 4009              	.LVL366:
 4010              		.loc 1 539 0
 4011 001c 019A     		ldr	r2, [sp, #4]
 4012 001e 2368     		ldr	r3, [r4]
 4013              		.loc 1 538 0
 4014 0020 A88A     		ldrh	r0, [r5, #20]
 4015              		.loc 1 539 0
 4016 0022 9A42     		cmp	r2, r3
 4017 0024 03D1     		bne	.L387
 4018 0026 0130     		adds	r0, r0, #1
 4019 0028 80B2     		uxth	r0, r0
 4020 002a 03B0     		add	sp, sp, #12
 4021              		.cfi_remember_state
 4022              		.cfi_def_cfa_offset 12
 4023              		@ sp needed
 4024 002c 30BD     		pop	{r4, r5, pc}
 4025              	.LVL367:
 4026              	.L387:
 4027              		.cfi_restore_state
 4028 002e FFF7FEFF 		bl	__stack_chk_fail
 4029              	.LVL368:
 4030              	.L389:
 4031 0032 00BF     		.align	2
 4032              	.L388:
 4033 0034 00000000 		.word	__stack_chk_guard
 4034              		.cfi_endproc
 4035              	.LFE43:
 4036              		.size	parameter_string_max_len, .-parameter_string_max_len
 4037              		.section	.text.parameter_string_read,"ax",%progbits
 4038              		.align	1
 4039              		.p2align 4,,15
 4040              		.global	parameter_string_read
 4041              		.syntax unified
 4042              		.thumb
 4043              		.thumb_func
 4044              		.fpu fpv4-sp-d16
 4045              		.type	parameter_string_read, %function
 4046              	parameter_string_read:
 4047              	.LFB45:
ARM GAS  C:\Users\25521\AppData\Local\Temp\ccDmagyc.s 			page 72


 4048              		.loc 1 548 0
 4049              		.cfi_startproc
 4050              		@ args = 0, pretend = 0, frame = 8
 4051              		@ frame_needed = 0, uses_anonymous_args = 0
 4052              	.LVL369:
 4053 0000 2DE9F041 		push	{r4, r5, r6, r7, r8, lr}
 4054              		.cfi_def_cfa_offset 24
 4055              		.cfi_offset 4, -24
 4056              		.cfi_offset 5, -20
 4057              		.cfi_offset 6, -16
 4058              		.cfi_offset 7, -12
 4059              		.cfi_offset 8, -8
 4060              		.cfi_offset 14, -4
 4061 0004 0446     		mov	r4, r0
 4062              		.loc 1 549 0
 4063 0006 807B     		ldrb	r0, [r0, #14]	@ zero_extendqisi2
 4064              	.LVL370:
 4065              		.loc 1 548 0
 4066 0008 DFF86480 		ldr	r8, .L397
 4067              		.loc 1 549 0
 4068 000c A0F10400 		sub	r0, #4
 4069              		.loc 1 548 0
 4070 0010 82B0     		sub	sp, sp, #8
 4071              		.cfi_def_cfa_offset 32
 4072              		.loc 1 549 0
 4073 0012 B0FA80F0 		clz	r0, r0
 4074              		.loc 1 548 0
 4075 0016 D8F80030 		ldr	r3, [r8]
 4076 001a 0193     		str	r3, [sp, #4]
 4077              		.loc 1 549 0
 4078 001c 4009     		lsrs	r0, r0, #5
 4079              		.loc 1 548 0
 4080 001e 0D46     		mov	r5, r1
 4081 0020 1746     		mov	r7, r2
 4082              		.loc 1 549 0
 4083 0022 FFF7FEFF 		bl	parameter_port_assert
 4084              	.LVL371:
 4085              		.loc 1 550 0
 4086 0026 FFF7FEFF 		bl	parameter_port_lock
 4087              	.LVL372:
 4088              		.loc 1 551 0
 4089 002a 607B     		ldrb	r0, [r4, #13]	@ zero_extendqisi2
 4090 002c FFF7FEFF 		bl	parameter_port_assert
 4091              	.LVL373:
 4092              		.loc 1 552 0
 4093 0030 E68A     		ldrh	r6, [r4, #22]
 4094              	.LVL374:
 4095              		.loc 1 554 0
 4096 0032 2169     		ldr	r1, [r4, #16]
 4097              		.loc 1 553 0
 4098 0034 BE42     		cmp	r6, r7
 4099 0036 12D3     		bcc	.L395
 4100              		.loc 1 557 0
 4101 0038 2846     		mov	r0, r5
 4102 003a 7A1E     		subs	r2, r7, #1
 4103              		.loc 1 558 0
 4104 003c 3D44     		add	r5, r5, r7
ARM GAS  C:\Users\25521\AppData\Local\Temp\ccDmagyc.s 			page 73


 4105              	.LVL375:
 4106              		.loc 1 557 0
 4107 003e FFF7FEFF 		bl	memcpy
 4108              	.LVL376:
 4109              		.loc 1 558 0
 4110 0042 0023     		movs	r3, #0
 4111 0044 05F8013C 		strb	r3, [r5, #-1]
 4112              	.L392:
 4113              		.loc 1 560 0
 4114 0048 FFF7FEFF 		bl	parameter_port_unlock
 4115              	.LVL377:
 4116              		.loc 1 562 0
 4117 004c 019A     		ldr	r2, [sp, #4]
 4118 004e D8F80030 		ldr	r3, [r8]
 4119 0052 9A42     		cmp	r2, r3
 4120 0054 3046     		mov	r0, r6
 4121 0056 09D1     		bne	.L396
 4122 0058 02B0     		add	sp, sp, #8
 4123              		.cfi_remember_state
 4124              		.cfi_def_cfa_offset 24
 4125              		@ sp needed
 4126 005a BDE8F081 		pop	{r4, r5, r6, r7, r8, pc}
 4127              	.LVL378:
 4128              	.L395:
 4129              		.cfi_restore_state
 4130              		.loc 1 554 0
 4131 005e 3246     		mov	r2, r6
 4132 0060 2846     		mov	r0, r5
 4133 0062 FFF7FEFF 		bl	memcpy
 4134              	.LVL379:
 4135              		.loc 1 555 0
 4136 0066 0023     		movs	r3, #0
 4137 0068 AB55     		strb	r3, [r5, r6]
 4138 006a EDE7     		b	.L392
 4139              	.LVL380:
 4140              	.L396:
 4141              		.loc 1 562 0
 4142 006c FFF7FEFF 		bl	__stack_chk_fail
 4143              	.LVL381:
 4144              	.L398:
 4145              		.align	2
 4146              	.L397:
 4147 0070 00000000 		.word	__stack_chk_guard
 4148              		.cfi_endproc
 4149              	.LFE45:
 4150              		.size	parameter_string_read, .-parameter_string_read
 4151              		.section	.text.parameter_string_get,"ax",%progbits
 4152              		.align	1
 4153              		.p2align 4,,15
 4154              		.global	parameter_string_get
 4155              		.syntax unified
 4156              		.thumb
 4157              		.thumb_func
 4158              		.fpu fpv4-sp-d16
 4159              		.type	parameter_string_get, %function
 4160              	parameter_string_get:
 4161              	.LFB44:
ARM GAS  C:\Users\25521\AppData\Local\Temp\ccDmagyc.s 			page 74


 4162              		.loc 1 542 0
 4163              		.cfi_startproc
 4164              		@ args = 0, pretend = 0, frame = 8
 4165              		@ frame_needed = 0, uses_anonymous_args = 0
 4166              	.LVL382:
 4167 0000 F0B5     		push	{r4, r5, r6, r7, lr}
 4168              		.cfi_def_cfa_offset 20
 4169              		.cfi_offset 4, -20
 4170              		.cfi_offset 5, -16
 4171              		.cfi_offset 6, -12
 4172              		.cfi_offset 7, -8
 4173              		.cfi_offset 14, -4
 4174 0002 0B4C     		ldr	r4, .L404
 4175 0004 83B0     		sub	sp, sp, #12
 4176              		.cfi_def_cfa_offset 32
 4177              		.loc 1 542 0
 4178 0006 2368     		ldr	r3, [r4]
 4179 0008 0193     		str	r3, [sp, #4]
 4180 000a 0546     		mov	r5, r0
 4181 000c 0E46     		mov	r6, r1
 4182 000e 1746     		mov	r7, r2
 4183              		.loc 1 543 0
 4184 0010 FFF7FEFF 		bl	_parameter_changed_clear
 4185              	.LVL383:
 4186              		.loc 1 544 0
 4187 0014 0198     		ldr	r0, [sp, #4]
 4188 0016 2368     		ldr	r3, [r4]
 4189 0018 9842     		cmp	r0, r3
 4190 001a 07D1     		bne	.L403
 4191 001c 3A46     		mov	r2, r7
 4192 001e 3146     		mov	r1, r6
 4193 0020 2846     		mov	r0, r5
 4194              		.loc 1 545 0
 4195 0022 03B0     		add	sp, sp, #12
 4196              		.cfi_remember_state
 4197              		.cfi_def_cfa_offset 20
 4198              		@ sp needed
 4199 0024 BDE8F040 		pop	{r4, r5, r6, r7, lr}
 4200              		.cfi_restore 14
 4201              		.cfi_restore 7
 4202              		.cfi_restore 6
 4203              		.cfi_restore 5
 4204              		.cfi_restore 4
 4205              		.cfi_def_cfa_offset 0
 4206              	.LVL384:
 4207              		.loc 1 544 0
 4208 0028 FFF7FEBF 		b	parameter_string_read
 4209              	.LVL385:
 4210              	.L403:
 4211              		.cfi_restore_state
 4212 002c FFF7FEFF 		bl	__stack_chk_fail
 4213              	.LVL386:
 4214              	.L405:
 4215              		.align	2
 4216              	.L404:
 4217 0030 00000000 		.word	__stack_chk_guard
 4218              		.cfi_endproc
ARM GAS  C:\Users\25521\AppData\Local\Temp\ccDmagyc.s 			page 75


 4219              	.LFE44:
 4220              		.size	parameter_string_get, .-parameter_string_get
 4221              		.section	.text.parameter_string_set_w_len,"ax",%progbits
 4222              		.align	1
 4223              		.p2align 4,,15
 4224              		.global	parameter_string_set_w_len
 4225              		.syntax unified
 4226              		.thumb
 4227              		.thumb_func
 4228              		.fpu fpv4-sp-d16
 4229              		.type	parameter_string_set_w_len, %function
 4230              	parameter_string_set_w_len:
 4231              	.LFB47:
 4232              		.loc 1 570 0
 4233              		.cfi_startproc
 4234              		@ args = 0, pretend = 0, frame = 8
 4235              		@ frame_needed = 0, uses_anonymous_args = 0
 4236              	.LVL387:
 4237 0000 F0B5     		push	{r4, r5, r6, r7, lr}
 4238              		.cfi_def_cfa_offset 20
 4239              		.cfi_offset 4, -20
 4240              		.cfi_offset 5, -16
 4241              		.cfi_offset 6, -12
 4242              		.cfi_offset 7, -8
 4243              		.cfi_offset 14, -4
 4244 0002 0446     		mov	r4, r0
 4245              		.loc 1 571 0
 4246 0004 807B     		ldrb	r0, [r0, #14]	@ zero_extendqisi2
 4247              	.LVL388:
 4248              		.loc 1 570 0
 4249 0006 154E     		ldr	r6, .L411
 4250              		.loc 1 571 0
 4251 0008 A0F10400 		sub	r0, #4
 4252              		.loc 1 570 0
 4253 000c 83B0     		sub	sp, sp, #12
 4254              		.cfi_def_cfa_offset 32
 4255              		.loc 1 571 0
 4256 000e B0FA80F0 		clz	r0, r0
 4257              		.loc 1 570 0
 4258 0012 3368     		ldr	r3, [r6]
 4259 0014 0193     		str	r3, [sp, #4]
 4260              		.loc 1 571 0
 4261 0016 4009     		lsrs	r0, r0, #5
 4262              		.loc 1 570 0
 4263 0018 1546     		mov	r5, r2
 4264 001a 0F46     		mov	r7, r1
 4265              		.loc 1 571 0
 4266 001c FFF7FEFF 		bl	parameter_port_assert
 4267              	.LVL389:
 4268              		.loc 1 572 0
 4269 0020 FFF7FEFF 		bl	parameter_port_lock
 4270              	.LVL390:
 4271              		.loc 1 573 0
 4272 0024 A08A     		ldrh	r0, [r4, #20]
 4273 0026 A842     		cmp	r0, r5
 4274 0028 34BF     		ite	cc
 4275 002a 0020     		movcc	r0, #0
ARM GAS  C:\Users\25521\AppData\Local\Temp\ccDmagyc.s 			page 76


 4276 002c 0120     		movcs	r0, #1
 4277 002e FFF7FEFF 		bl	parameter_port_assert
 4278              	.LVL391:
 4279              		.loc 1 574 0
 4280 0032 2A46     		mov	r2, r5
 4281 0034 3946     		mov	r1, r7
 4282 0036 2069     		ldr	r0, [r4, #16]
 4283 0038 FFF7FEFF 		bl	memcpy
 4284              	.LVL392:
 4285              		.loc 1 575 0
 4286 003c E582     		strh	r5, [r4, #22]	@ movhi
 4287              		.loc 1 576 0
 4288 003e FFF7FEFF 		bl	parameter_port_unlock
 4289              	.LVL393:
 4290              		.loc 1 577 0
 4291 0042 019A     		ldr	r2, [sp, #4]
 4292 0044 3368     		ldr	r3, [r6]
 4293 0046 9A42     		cmp	r2, r3
 4294 0048 05D1     		bne	.L410
 4295 004a 2046     		mov	r0, r4
 4296              		.loc 1 578 0
 4297 004c 03B0     		add	sp, sp, #12
 4298              		.cfi_remember_state
 4299              		.cfi_def_cfa_offset 20
 4300              		@ sp needed
 4301 004e BDE8F040 		pop	{r4, r5, r6, r7, lr}
 4302              		.cfi_restore 14
 4303              		.cfi_restore 7
 4304              		.cfi_restore 6
 4305              		.cfi_restore 5
 4306              		.cfi_restore 4
 4307              		.cfi_def_cfa_offset 0
 4308              	.LVL394:
 4309              		.loc 1 577 0
 4310 0052 FFF7FEBF 		b	_parameter_changed_set
 4311              	.LVL395:
 4312              	.L410:
 4313              		.cfi_restore_state
 4314 0056 FFF7FEFF 		bl	__stack_chk_fail
 4315              	.LVL396:
 4316              	.L412:
 4317 005a 00BF     		.align	2
 4318              	.L411:
 4319 005c 00000000 		.word	__stack_chk_guard
 4320              		.cfi_endproc
 4321              	.LFE47:
 4322              		.size	parameter_string_set_w_len, .-parameter_string_set_w_len
 4323              		.section	.text.parameter_string_set,"ax",%progbits
 4324              		.align	1
 4325              		.p2align 4,,15
 4326              		.global	parameter_string_set
 4327              		.syntax unified
 4328              		.thumb
 4329              		.thumb_func
 4330              		.fpu fpv4-sp-d16
 4331              		.type	parameter_string_set, %function
 4332              	parameter_string_set:
ARM GAS  C:\Users\25521\AppData\Local\Temp\ccDmagyc.s 			page 77


 4333              	.LFB46:
 4334              		.loc 1 565 0
 4335              		.cfi_startproc
 4336              		@ args = 0, pretend = 0, frame = 8
 4337              		@ frame_needed = 0, uses_anonymous_args = 0
 4338              	.LVL397:
 4339 0000 70B5     		push	{r4, r5, r6, lr}
 4340              		.cfi_def_cfa_offset 16
 4341              		.cfi_offset 4, -16
 4342              		.cfi_offset 5, -12
 4343              		.cfi_offset 6, -8
 4344              		.cfi_offset 14, -4
 4345 0002 0B4C     		ldr	r4, .L418
 4346 0004 82B0     		sub	sp, sp, #8
 4347              		.cfi_def_cfa_offset 24
 4348              		.loc 1 565 0
 4349 0006 2368     		ldr	r3, [r4]
 4350 0008 0193     		str	r3, [sp, #4]
 4351 000a 0646     		mov	r6, r0
 4352              		.loc 1 566 0
 4353 000c 0846     		mov	r0, r1
 4354              	.LVL398:
 4355              		.loc 1 565 0
 4356 000e 0D46     		mov	r5, r1
 4357              		.loc 1 566 0
 4358 0010 FFF7FEFF 		bl	strlen
 4359              	.LVL399:
 4360 0014 0199     		ldr	r1, [sp, #4]
 4361 0016 2368     		ldr	r3, [r4]
 4362 0018 9942     		cmp	r1, r3
 4363 001a 07D1     		bne	.L417
 4364 001c 82B2     		uxth	r2, r0
 4365 001e 2946     		mov	r1, r5
 4366 0020 3046     		mov	r0, r6
 4367              		.loc 1 567 0
 4368 0022 02B0     		add	sp, sp, #8
 4369              		.cfi_remember_state
 4370              		.cfi_def_cfa_offset 16
 4371              		@ sp needed
 4372 0024 BDE87040 		pop	{r4, r5, r6, lr}
 4373              		.cfi_restore 14
 4374              		.cfi_restore 6
 4375              		.cfi_restore 5
 4376              		.cfi_restore 4
 4377              		.cfi_def_cfa_offset 0
 4378              	.LVL400:
 4379              		.loc 1 566 0
 4380 0028 FFF7FEBF 		b	parameter_string_set_w_len
 4381              	.LVL401:
 4382              	.L417:
 4383              		.cfi_restore_state
 4384 002c FFF7FEFF 		bl	__stack_chk_fail
 4385              	.LVL402:
 4386              	.L419:
 4387              		.align	2
 4388              	.L418:
 4389 0030 00000000 		.word	__stack_chk_guard
ARM GAS  C:\Users\25521\AppData\Local\Temp\ccDmagyc.s 			page 78


 4390              		.cfi_endproc
 4391              	.LFE46:
 4392              		.size	parameter_string_set, .-parameter_string_set
 4393              		.text
 4394              	.Letext0:
 4395              		.file 2 "d:\\eclipse_e-puck2_win32_11_apr_2018\\eclipse_e-puck2\\tools\\gcc-arm-none-eabi-7-2017-q
 4396              		.file 3 "d:\\eclipse_e-puck2_win32_11_apr_2018\\eclipse_e-puck2\\tools\\gcc-arm-none-eabi-7-2017-q
 4397              		.file 4 "d:\\eclipse_e-puck2_win32_11_apr_2018\\eclipse_e-puck2\\tools\\gcc-arm-none-eabi-7-2017-q
 4398              		.file 5 "d:\\eclipse_e-puck2_win32_11_apr_2018\\eclipse_e-puck2\\tools\\gcc-arm-none-eabi-7-2017-q
 4399              		.file 6 "d:\\eclipse_e-puck2_win32_11_apr_2018\\eclipse_e-puck2\\tools\\gcc-arm-none-eabi-7-2017-q
 4400              		.file 7 "d:\\eclipse_e-puck2_win32_11_apr_2018\\eclipse_e-puck2\\tools\\gcc-arm-none-eabi-7-2017-q
 4401              		.file 8 "d:\\eclipse_e-puck2_win32_11_apr_2018\\eclipse_e-puck2\\tools\\gcc-arm-none-eabi-7-2017-q
 4402              		.file 9 ".//src/parameter/parameter.h"
 4403              		.file 10 ".//src/parameter/parameter_port.h"
 4404              		.file 11 "d:\\eclipse_e-puck2_win32_11_apr_2018\\eclipse_e-puck2\\tools\\gcc-arm-none-eabi-7-2017-
 4405              		.file 12 "<built-in>"