ARM GAS  C:\Users\25521\AppData\Local\Temp\ccsTucTG.s 			page 1


   1              		.cpu cortex-m4
   2              		.eabi_attribute 27, 1
   3              		.eabi_attribute 28, 1
   4              		.eabi_attribute 20, 1
   5              		.eabi_attribute 21, 1
   6              		.eabi_attribute 23, 3
   7              		.eabi_attribute 24, 1
   8              		.eabi_attribute 25, 1
   9              		.eabi_attribute 26, 1
  10              		.eabi_attribute 30, 2
  11              		.eabi_attribute 34, 1
  12              		.eabi_attribute 18, 4
  13              		.file	"proximity.c"
  14              		.text
  15              	.Ltext0:
  16              		.cfi_sections	.debug_frame
  17              		.section	.text.pwm_reset_cb,"ax",%progbits
  18              		.align	1
  19              		.p2align 4,,15
  20              		.syntax unified
  21              		.thumb
  22              		.thumb_func
  23              		.fpu fpv4-sp-d16
  24              		.type	pwm_reset_cb, %function
  25              	pwm_reset_cb:
  26              	.LFB272:
  27              		.file 1 ".//src/sensors/proximity.c"
  28              		.loc 1 237 0
  29              		.cfi_startproc
  30              		@ args = 0, pretend = 0, frame = 8
  31              		@ frame_needed = 0, uses_anonymous_args = 0
  32              	.LVL0:
  33 0000 10B5     		push	{r4, lr}
  34              		.cfi_def_cfa_offset 8
  35              		.cfi_offset 4, -8
  36              		.cfi_offset 14, -4
  37              		.loc 1 239 0
  38 0002 1E49     		ldr	r1, .L16
  39              		.loc 1 237 0
  40 0004 1E4A     		ldr	r2, .L16+4
  41              		.loc 1 239 0
  42 0006 0B78     		ldrb	r3, [r1]	@ zero_extendqisi2
  43              		.loc 1 237 0
  44 0008 1068     		ldr	r0, [r2]
  45              	.LVL1:
  46 000a 82B0     		sub	sp, sp, #8
  47              		.cfi_def_cfa_offset 16
  48              		.loc 1 239 0
  49 000c 013B     		subs	r3, r3, #1
  50              		.loc 1 237 0
  51 000e 0190     		str	r0, [sp, #4]
  52              		.loc 1 239 0
  53 0010 072B     		cmp	r3, #7
  54 0012 0AD8     		bhi	.L1
  55 0014 DFE803F0 		tbb	[pc, r3]
  56              	.L4:
  57 0018 12       		.byte	(.L3-.L4)/2
ARM GAS  C:\Users\25521\AppData\Local\Temp\ccsTucTG.s 			page 2


  58 0019 15       		.byte	(.L5-.L4)/2
  59 001a 1C       		.byte	(.L6-.L4)/2
  60 001b 1F       		.byte	(.L7-.L4)/2
  61 001c 26       		.byte	(.L8-.L4)/2
  62 001d 29       		.byte	(.L9-.L4)/2
  63 001e 0F       		.byte	(.L10-.L4)/2
  64 001f 04       		.byte	(.L11-.L4)/2
  65              		.p2align 1
  66              	.L11:
  67              		.loc 1 267 0
  68 0020 1848     		ldr	r0, .L16+8
  69 0022 0824     		movs	r4, #8
  70              		.loc 1 268 0
  71 0024 0123     		movs	r3, #1
  72              		.loc 1 267 0
  73 0026 0483     		strh	r4, [r0, #24]	@ movhi
  74              		.loc 1 268 0
  75 0028 0B70     		strb	r3, [r1]
  76              	.L1:
  77              		.loc 1 271 0
  78 002a 0199     		ldr	r1, [sp, #4]
  79 002c 1368     		ldr	r3, [r2]
  80 002e 9942     		cmp	r1, r3
  81 0030 21D1     		bne	.L15
  82 0032 02B0     		add	sp, sp, #8
  83              		.cfi_remember_state
  84              		.cfi_def_cfa_offset 8
  85              		@ sp needed
  86 0034 10BD     		pop	{r4, pc}
  87              	.L10:
  88              		.cfi_restore_state
  89              		.loc 1 264 0
  90 0036 0823     		movs	r3, #8
  91 0038 0B70     		strb	r3, [r1]
  92              		.loc 1 265 0
  93 003a F6E7     		b	.L1
  94              	.L3:
  95              		.loc 1 243 0
  96 003c 0223     		movs	r3, #2
  97 003e 0B70     		strb	r3, [r1]
  98              		.loc 1 244 0
  99 0040 F3E7     		b	.L1
 100              	.L5:
 101              		.loc 1 246 0
 102 0042 1148     		ldr	r0, .L16+12
 103 0044 4FF48054 		mov	r4, #4096
 104              		.loc 1 247 0
 105 0048 0323     		movs	r3, #3
 106              		.loc 1 246 0
 107 004a 0483     		strh	r4, [r0, #24]	@ movhi
 108              		.loc 1 247 0
 109 004c 0B70     		strb	r3, [r1]
 110              		.loc 1 248 0
 111 004e ECE7     		b	.L1
 112              	.L6:
 113              		.loc 1 250 0
 114 0050 0423     		movs	r3, #4
ARM GAS  C:\Users\25521\AppData\Local\Temp\ccsTucTG.s 			page 3


 115 0052 0B70     		strb	r3, [r1]
 116              		.loc 1 251 0
 117 0054 E9E7     		b	.L1
 118              	.L7:
 119              		.loc 1 253 0
 120 0056 0C48     		ldr	r0, .L16+12
 121 0058 4FF48044 		mov	r4, #16384
 122              		.loc 1 254 0
 123 005c 0523     		movs	r3, #5
 124              		.loc 1 253 0
 125 005e 0483     		strh	r4, [r0, #24]	@ movhi
 126              		.loc 1 254 0
 127 0060 0B70     		strb	r3, [r1]
 128              		.loc 1 255 0
 129 0062 E2E7     		b	.L1
 130              	.L8:
 131              		.loc 1 257 0
 132 0064 0623     		movs	r3, #6
 133 0066 0B70     		strb	r3, [r1]
 134              		.loc 1 258 0
 135 0068 DFE7     		b	.L1
 136              	.L9:
 137              		.loc 1 260 0
 138 006a 0648     		ldr	r0, .L16+8
 139 006c 0424     		movs	r4, #4
 140              		.loc 1 261 0
 141 006e 0723     		movs	r3, #7
 142              		.loc 1 260 0
 143 0070 0483     		strh	r4, [r0, #24]	@ movhi
 144              		.loc 1 261 0
 145 0072 0B70     		strb	r3, [r1]
 146              		.loc 1 262 0
 147 0074 D9E7     		b	.L1
 148              	.L15:
 149              		.loc 1 271 0
 150 0076 FFF7FEFF 		bl	__stack_chk_fail
 151              	.LVL2:
 152              	.L17:
 153 007a 00BF     		.align	2
 154              	.L16:
 155 007c 00000000 		.word	.LANCHOR0
 156 0080 00000000 		.word	__stack_chk_guard
 157 0084 00100240 		.word	1073876992
 158 0088 00040240 		.word	1073873920
 159              		.cfi_endproc
 160              	.LFE272:
 161              		.size	pwm_reset_cb, .-pwm_reset_cb
 162              		.section	.text.pwm_ch1_cb,"ax",%progbits
 163              		.align	1
 164              		.p2align 4,,15
 165              		.syntax unified
 166              		.thumb
 167              		.thumb_func
 168              		.fpu fpv4-sp-d16
 169              		.type	pwm_ch1_cb, %function
 170              	pwm_ch1_cb:
 171              	.LFB273:
ARM GAS  C:\Users\25521\AppData\Local\Temp\ccsTucTG.s 			page 4


 172              		.loc 1 280 0
 173              		.cfi_startproc
 174              		@ args = 0, pretend = 0, frame = 8
 175              		@ frame_needed = 0, uses_anonymous_args = 0
 176              	.LVL3:
 177 0000 30B5     		push	{r4, r5, lr}
 178              		.cfi_def_cfa_offset 12
 179              		.cfi_offset 4, -12
 180              		.cfi_offset 5, -8
 181              		.cfi_offset 14, -4
 182 0002 0C4B     		ldr	r3, .L22
 183              		.loc 1 283 0
 184 0004 0C49     		ldr	r1, .L22+4
 185              		.loc 1 280 0
 186 0006 1868     		ldr	r0, [r3]
 187              	.LVL4:
 188              		.loc 1 285 0
 189 0008 0C4A     		ldr	r2, .L22+8
 190              		.loc 1 280 0
 191 000a 83B0     		sub	sp, sp, #12
 192              		.cfi_def_cfa_offset 24
 193              		.loc 1 284 0
 194 000c 4FF48045 		mov	r5, #16384
 195              		.loc 1 280 0
 196 0010 0190     		str	r0, [sp, #4]
 197              		.loc 1 283 0
 198 0012 4FF48050 		mov	r0, #4096
 199 0016 4883     		strh	r0, [r1, #26]	@ movhi
 200              		.loc 1 285 0
 201 0018 0424     		movs	r4, #4
 202              		.loc 1 286 0
 203 001a 0820     		movs	r0, #8
 204              		.loc 1 284 0
 205 001c 4D83     		strh	r5, [r1, #26]	@ movhi
 206              		.loc 1 285 0
 207 001e 5483     		strh	r4, [r2, #26]	@ movhi
 208              		.loc 1 286 0
 209 0020 5083     		strh	r0, [r2, #26]	@ movhi
 210              		.loc 1 287 0
 211 0022 019A     		ldr	r2, [sp, #4]
 212 0024 1B68     		ldr	r3, [r3]
 213 0026 9A42     		cmp	r2, r3
 214 0028 01D1     		bne	.L21
 215 002a 03B0     		add	sp, sp, #12
 216              		.cfi_remember_state
 217              		.cfi_def_cfa_offset 12
 218              		@ sp needed
 219 002c 30BD     		pop	{r4, r5, pc}
 220              	.L21:
 221              		.cfi_restore_state
 222 002e FFF7FEFF 		bl	__stack_chk_fail
 223              	.LVL5:
 224              	.L23:
 225 0032 00BF     		.align	2
 226              	.L22:
 227 0034 00000000 		.word	__stack_chk_guard
 228 0038 00040240 		.word	1073873920
ARM GAS  C:\Users\25521\AppData\Local\Temp\ccsTucTG.s 			page 5


 229 003c 00100240 		.word	1073876992
 230              		.cfi_endproc
 231              	.LFE273:
 232              		.size	pwm_ch1_cb, .-pwm_ch1_cb
 233              		.section	.text.proximity_thd,"ax",%progbits
 234              		.align	1
 235              		.p2align 4,,15
 236              		.syntax unified
 237              		.thumb
 238              		.thumb_func
 239              		.fpu fpv4-sp-d16
 240              		.type	proximity_thd, %function
 241              	proximity_thd:
 242              	.LFB271:
 243              		.loc 1 161 0
 244              		.cfi_startproc
 245              		@ args = 0, pretend = 0, frame = 128
 246              		@ frame_needed = 0, uses_anonymous_args = 0
 247              	.LVL6:
 248 0000 2DE9F04F 		push	{r4, r5, r6, r7, r8, r9, r10, fp, lr}
 249              		.cfi_def_cfa_offset 36
 250              		.cfi_offset 4, -36
 251              		.cfi_offset 5, -32
 252              		.cfi_offset 6, -28
 253              		.cfi_offset 7, -24
 254              		.cfi_offset 8, -20
 255              		.cfi_offset 9, -16
 256              		.cfi_offset 10, -12
 257              		.cfi_offset 11, -8
 258              		.cfi_offset 14, -4
 259              	.LBB54:
 260              	.LBB55:
 261              		.file 2 ".//ChibiOS//os/rt/include/chregistry.h"
 262              		.loc 2 135 0
 263 0004 594D     		ldr	r5, .L44
 264 0006 5A4A     		ldr	r2, .L44+4
 265 0008 AB69     		ldr	r3, [r5, #24]
 266              	.LBE55:
 267              	.LBE54:
 268              		.loc 1 161 0
 269 000a 5A4E     		ldr	r6, .L44+8
 270              	.LBB57:
 271              	.LBB56:
 272              		.loc 2 135 0
 273 000c 9A61     		str	r2, [r3, #24]
 274              	.LBE56:
 275              	.LBE57:
 276              		.loc 1 161 0
 277 000e A3B0     		sub	sp, sp, #140
 278              		.cfi_def_cfa_offset 176
 279              		.loc 1 167 0
 280 0010 02AB     		add	r3, sp, #8
 281              		.loc 1 168 0
 282 0012 8022     		movs	r2, #128
 283              		.loc 1 166 0
 284 0014 04AC     		add	r4, sp, #16
 285              		.loc 1 161 0
ARM GAS  C:\Users\25521\AppData\Local\Temp\ccsTucTG.s 			page 6


 286 0016 3068     		ldr	r0, [r6]
 287              	.LVL7:
 288              		.loc 1 168 0
 289 0018 0092     		str	r2, [sp]
 290              		.loc 1 167 0
 291 001a CDE90233 		strd	r3, r3, [sp, #8]
 292              		.loc 1 168 0
 293 001e 1A46     		mov	r2, r3
 294 0020 554B     		ldr	r3, .L44+12
 295              		.loc 1 161 0
 296 0022 2190     		str	r0, [sp, #132]
 297              		.loc 1 168 0
 298 0024 2146     		mov	r1, r4
 299 0026 09A8     		add	r0, sp, #36
 300              		.loc 1 166 0
 301 0028 CDE90444 		strd	r4, r4, [sp, #16]
 302 002c 0024     		movs	r4, #0
 303 002e CDE90644 		strd	r4, r4, [sp, #24]
 304 0032 0894     		str	r4, [sp, #32]
 305              		.loc 1 175 0
 306 0034 1C46     		mov	r4, r3
 307              		.loc 1 168 0
 308 0036 FFF7FEFF 		bl	messagebus_topic_init
 309              	.LVL8:
 310              		.loc 1 169 0
 311 003a 09A9     		add	r1, sp, #36
 312 003c 4F4A     		ldr	r2, .L44+16
 313 003e 5048     		ldr	r0, .L44+20
 314              	.LBB58:
 315              		.loc 1 219 0
 316 0040 DFF860B1 		ldr	fp, .L44+56
 317              	.LBE58:
 318              		.loc 1 169 0
 319 0044 FFF7FEFF 		bl	messagebus_advertise_topic
 320              	.LVL9:
 321 0048 04F11C08 		add	r8, r4, #28
 322              	.L25:
 323              	.LBB59:
 324              	.LBB60:
 325              		.file 3 ".//ChibiOS//os/rt/include/chthreads.h"
 326              		.loc 3 233 0
 327 004c AB69     		ldr	r3, [r5, #24]
 328              	.LBE60:
 329              	.LBE59:
 330              		.loc 1 171 0
 331 004e 93F82190 		ldrb	r9, [r3, #33]	@ zero_extendqisi2
 332 0052 19F00409 		ands	r9, r9, #4
 333 0056 6FD1     		bne	.L42
 334              	.L36:
 335              	.LVL10:
 336              	.LBB62:
 337              	.LBB63:
 338              		.file 4 ".//ChibiOS//os/rt/include/chbsem.h"
 339              		.loc 4 143 0
 340 0058 4A48     		ldr	r0, .L44+24
 341 005a FFF7FEFF 		bl	chSemWait
 342              	.LVL11:
ARM GAS  C:\Users\25521\AppData\Local\Temp\ccsTucTG.s 			page 7


 343              	.LBE63:
 344              	.LBE62:
 345              		.loc 1 175 0
 346 005e 4A4B     		ldr	r3, .L44+28
 347 0060 4A48     		ldr	r0, .L44+32
 348              		.loc 1 176 0
 349 0062 1969     		ldr	r1, [r3, #16]
 350              		.loc 1 175 0
 351 0064 1F68     		ldr	r7, [r3]
 352              		.loc 1 177 0
 353 0066 1A6A     		ldr	r2, [r3, #32]
 354 0068 A260     		str	r2, [r4, #8]
 355              		.loc 1 176 0
 356 006a C4E90071 		strd	r7, r1, [r4]
 357              		.loc 1 178 0
 358 006e 1F6B     		ldr	r7, [r3, #48]
 359              		.loc 1 180 0
 360 0070 5969     		ldr	r1, [r3, #20]
 361              		.loc 1 178 0
 362 0072 E760     		str	r7, [r4, #12]
 363              		.loc 1 179 0
 364 0074 5F68     		ldr	r7, [r3, #4]
 365              		.loc 1 181 0
 366 0076 5A6A     		ldr	r2, [r3, #36]
 367 0078 A261     		str	r2, [r4, #24]
 368              		.loc 1 180 0
 369 007a C4E90471 		strd	r7, r1, [r4, #16]
 370              		.loc 1 182 0
 371 007e 5F6B     		ldr	r7, [r3, #52]
 372 0080 E761     		str	r7, [r4, #28]
 373              		.loc 1 187 0
 374 0082 9F6B     		ldr	r7, [r3, #56]
 375              		.loc 1 185 0
 376 0084 9969     		ldr	r1, [r3, #24]
 377              		.loc 1 186 0
 378 0086 9A6A     		ldr	r2, [r3, #40]
 379              		.loc 1 187 0
 380 0088 E762     		str	r7, [r4, #44]
 381              		.loc 1 184 0
 382 008a 9F68     		ldr	r7, [r3, #8]
 383 008c 2762     		str	r7, [r4, #32]
 384              		.loc 1 185 0
 385 008e 6162     		str	r1, [r4, #36]
 386              		.loc 1 188 0
 387 0090 DF68     		ldr	r7, [r3, #12]
 388              		.loc 1 189 0
 389 0092 D969     		ldr	r1, [r3, #28]
 390              		.loc 1 186 0
 391 0094 A262     		str	r2, [r4, #40]
 392              		.loc 1 190 0
 393 0096 DA6A     		ldr	r2, [r3, #44]
 394              		.loc 1 191 0
 395 0098 DB6B     		ldr	r3, [r3, #60]
 396              		.loc 1 189 0
 397 009a 6163     		str	r1, [r4, #52]
 398              		.loc 1 188 0
 399 009c 2763     		str	r7, [r4, #48]
ARM GAS  C:\Users\25521\AppData\Local\Temp\ccsTucTG.s 			page 8


 400              		.loc 1 191 0
 401 009e E363     		str	r3, [r4, #60]
 402              	.LBB64:
 403              		.loc 1 195 0
 404 00a0 4946     		mov	r1, r9
 405              	.LBE64:
 406              		.loc 1 190 0
 407 00a2 A263     		str	r2, [r4, #56]
 408              	.LVL12:
 409              	.L28:
 410              	.LBB65:
 411              		.loc 1 194 0
 412 00a4 426A     		ldr	r2, [r0, #36]
 413 00a6 50F8043F 		ldr	r3, [r0, #4]!
 414 00aa 9A42     		cmp	r2, r3
 415              		.loc 1 197 0
 416 00ac 96BF     		itet	ls
 417 00ae 9B1A     		subls	r3, r3, r2
 418              		.loc 1 195 0
 419 00b0 0164     		strhi	r1, [r0, #64]
 420              		.loc 1 197 0
 421 00b2 0364     		strls	r3, [r0, #64]
 422              		.loc 1 193 0
 423 00b4 4045     		cmp	r0, r8
 424 00b6 F5D1     		bne	.L28
 425              	.LBE65:
 426              		.loc 1 201 0
 427 00b8 8022     		movs	r2, #128
 428 00ba 2146     		mov	r1, r4
 429 00bc 09A8     		add	r0, sp, #36
 430 00be FFF7FEFF 		bl	messagebus_topic_publish
 431              	.LVL13:
 432              		.loc 1 203 0
 433 00c2 DFF8E4C0 		ldr	ip, .L44+60
 434 00c6 9CF80030 		ldrb	r3, [ip]	@ zero_extendqisi2
 435 00ca 002B     		cmp	r3, #0
 436 00cc BED0     		beq	.L25
 437              		.loc 1 204 0
 438 00ce DFF8DCA0 		ldr	r10, .L44+64
 439 00d2 9AF80090 		ldrb	r9, [r10]	@ zero_extendqisi2
 440 00d6 B9F1000F 		cmp	r9, #0
 441 00da 34D0     		beq	.L31
 442 00dc B9F1010F 		cmp	r9, #1
 443 00e0 B4D1     		bne	.L25
 444 00e2 2B4A     		ldr	r2, .L44+36
 445 00e4 DFF8C8E0 		ldr	lr, .L44+68
 446 00e8 02F12009 		add	r9, r2, #32
 447 00ec 7146     		mov	r1, lr
 448              	.L33:
 449              	.LBB66:
 450              	.LBB67:
 451              	.LBB68:
 452              		.loc 1 359 0 discriminator 3
 453 00ee 52F8040B 		ldr	r0, [r2], #4
 454              	.LBE68:
 455              	.LBE67:
 456              		.loc 1 214 0 discriminator 3
ARM GAS  C:\Users\25521\AppData\Local\Temp\ccsTucTG.s 			page 9


 457 00f2 51F8043F 		ldr	r3, [r1, #4]!
 458              		.loc 1 213 0 discriminator 3
 459 00f6 4A45     		cmp	r2, r9
 460              		.loc 1 214 0 discriminator 3
 461 00f8 0344     		add	r3, r3, r0
 462 00fa 0B60     		str	r3, [r1]
 463              	.LVL14:
 464              		.loc 1 213 0 discriminator 3
 465 00fc F7D1     		bne	.L33
 466              	.LBE66:
 467              		.loc 1 216 0
 468 00fe 254A     		ldr	r2, .L44+40
 469 0100 1378     		ldrb	r3, [r2]	@ zero_extendqisi2
 470 0102 0133     		adds	r3, r3, #1
 471 0104 DBB2     		uxtb	r3, r3
 472              		.loc 1 217 0
 473 0106 642B     		cmp	r3, #100
 474              		.loc 1 216 0
 475 0108 1370     		strb	r3, [r2]
 476              		.loc 1 217 0
 477 010a 9FD1     		bne	.L25
 478 010c 224A     		ldr	r2, .L44+44
 479 010e 2348     		ldr	r0, .L44+48
 480              	.L35:
 481              	.LBB69:
 482              		.loc 1 219 0 discriminator 3
 483 0110 5EF8043F 		ldr	r3, [lr, #4]!
 484 0114 8BFB0371 		smull	r7, r1, fp, r3
 485 0118 DB17     		asrs	r3, r3, #31
 486 011a C3EB6113 		rsb	r3, r3, r1, asr #5
 487              		.loc 1 218 0 discriminator 3
 488 011e 7045     		cmp	r0, lr
 489              		.loc 1 219 0 discriminator 3
 490 0120 42F8043B 		str	r3, [r2], #4
 491              	.LVL15:
 492              		.loc 1 218 0 discriminator 3
 493 0124 F4D1     		bne	.L35
 494              	.LBE69:
 495              		.loc 1 221 0
 496 0126 0023     		movs	r3, #0
 497 0128 8CF80030 		strb	r3, [ip]
 498              	.LBB70:
 499              	.LBB61:
 500              		.loc 3 233 0
 501 012c AB69     		ldr	r3, [r5, #24]
 502              	.LBE61:
 503              	.LBE70:
 504              		.loc 1 171 0
 505 012e 93F82190 		ldrb	r9, [r3, #33]	@ zero_extendqisi2
 506 0132 19F00409 		ands	r9, r9, #4
 507 0136 8FD0     		beq	.L36
 508              	.L42:
 509              		.loc 1 228 0
 510 0138 219A     		ldr	r2, [sp, #132]
 511 013a 3368     		ldr	r3, [r6]
 512 013c 9A42     		cmp	r2, r3
 513 013e 13D1     		bne	.L43
ARM GAS  C:\Users\25521\AppData\Local\Temp\ccsTucTG.s 			page 10


 514 0140 23B0     		add	sp, sp, #140
 515              		.cfi_remember_state
 516              		.cfi_def_cfa_offset 36
 517              		@ sp needed
 518 0142 BDE8F08F 		pop	{r4, r5, r6, r7, r8, r9, r10, fp, pc}
 519              	.L31:
 520              		.cfi_restore_state
 521              		.loc 1 206 0
 522 0146 2022     		movs	r2, #32
 523 0148 4946     		mov	r1, r9
 524 014a 1348     		ldr	r0, .L44+44
 525 014c FFF7FEFF 		bl	memset
 526              	.LVL16:
 527              		.loc 1 207 0
 528 0150 2022     		movs	r2, #32
 529 0152 4946     		mov	r1, r9
 530 0154 1248     		ldr	r0, .L44+52
 531 0156 FFF7FEFF 		bl	memset
 532              	.LVL17:
 533              		.loc 1 208 0
 534 015a 0E4A     		ldr	r2, .L44+40
 535              		.loc 1 209 0
 536 015c 0123     		movs	r3, #1
 537              		.loc 1 208 0
 538 015e 82F80090 		strb	r9, [r2]
 539              		.loc 1 209 0
 540 0162 8AF80030 		strb	r3, [r10]
 541              		.loc 1 210 0
 542 0166 71E7     		b	.L25
 543              	.L43:
 544              		.loc 1 228 0
 545 0168 FFF7FEFF 		bl	__stack_chk_fail
 546              	.LVL18:
 547              	.L45:
 548              		.align	2
 549              	.L44:
 550 016c 00000000 		.word	ch
 551 0170 00000000 		.word	.LANCHOR1
 552 0174 00000000 		.word	__stack_chk_guard
 553 0178 00000000 		.word	.LANCHOR2
 554 017c 00000000 		.word	.LC0
 555 0180 00000000 		.word	bus
 556 0184 00000000 		.word	.LANCHOR3
 557 0188 00000000 		.word	.LANCHOR4
 558 018c FCFFFFFF 		.word	.LANCHOR2-4
 559 0190 40000000 		.word	.LANCHOR2+64
 560 0194 00000000 		.word	.LANCHOR8
 561 0198 60000000 		.word	.LANCHOR2+96
 562 019c 1C000000 		.word	.LANCHOR7+28
 563 01a0 00000000 		.word	.LANCHOR7
 564 01a4 1F85EB51 		.word	1374389535
 565 01a8 00000000 		.word	.LANCHOR5
 566 01ac 00000000 		.word	.LANCHOR6
 567 01b0 FCFFFFFF 		.word	.LANCHOR7-4
 568              		.cfi_endproc
 569              	.LFE271:
 570              		.size	proximity_thd, .-proximity_thd
ARM GAS  C:\Users\25521\AppData\Local\Temp\ccsTucTG.s 			page 11


 571              		.section	.text.adc_cb,"ax",%progbits
 572              		.align	1
 573              		.p2align 4,,15
 574              		.syntax unified
 575              		.thumb
 576              		.thumb_func
 577              		.fpu fpv4-sp-d16
 578              		.type	adc_cb, %function
 579              	adc_cb:
 580              	.LFB270:
 581              		.loc 1 67 0
 582              		.cfi_startproc
 583              		@ args = 0, pretend = 0, frame = 8
 584              		@ frame_needed = 0, uses_anonymous_args = 0
 585              	.LVL19:
 586 0000 70B5     		push	{r4, r5, r6, lr}
 587              		.cfi_def_cfa_offset 16
 588              		.cfi_offset 4, -16
 589              		.cfi_offset 5, -12
 590              		.cfi_offset 6, -8
 591              		.cfi_offset 14, -4
 592              		.loc 1 74 0
 593 0002 0269     		ldr	r2, [r0, #16]
 594              	.LVL20:
 595              		.loc 1 67 0
 596 0004 1E4D     		ldr	r5, .L58
 597              		.loc 1 74 0
 598 0006 5288     		ldrh	r2, [r2, #2]
 599              		.loc 1 67 0
 600 0008 2B68     		ldr	r3, [r5]
 601 000a 82B0     		sub	sp, sp, #8
 602              		.cfi_def_cfa_offset 24
 603              		.loc 1 67 0
 604 000c 0646     		mov	r6, r0
 605 000e 0C46     		mov	r4, r1
 606              		.loc 1 74 0
 607 0010 1C48     		ldr	r0, .L58+4
 608              	.LVL21:
 609              		.loc 1 67 0
 610 0012 0193     		str	r3, [sp, #4]
 611              	.LVL22:
 612              		.loc 1 74 0
 613 0014 9200     		lsls	r2, r2, #2
 614 0016 0021     		movs	r1, #0
 615              	.LVL23:
 616 0018 FFF7FEFF 		bl	memset
 617              	.LVL24:
 618              	.LBB71:
 619              		.loc 1 77 0
 620 001c 3369     		ldr	r3, [r6, #16]
 621 001e 5B88     		ldrh	r3, [r3, #2]
 622 0020 5BB1     		cbz	r3, .L47
 623 0022 184A     		ldr	r2, .L58+4
 624 0024 A11E     		subs	r1, r4, #2
 625 0026 0023     		movs	r3, #0
 626              	.LVL25:
 627              	.L48:
ARM GAS  C:\Users\25521\AppData\Local\Temp\ccsTucTG.s 			page 12


 628              		.loc 1 78 0 discriminator 3
 629 0028 31F8020F 		ldrh	r0, [r1, #2]!
 630 002c 42F8040B 		str	r0, [r2], #4
 631              		.loc 1 77 0 discriminator 3
 632 0030 3069     		ldr	r0, [r6, #16]
 633 0032 4088     		ldrh	r0, [r0, #2]
 634 0034 0133     		adds	r3, r3, #1
 635              	.LVL26:
 636 0036 9842     		cmp	r0, r3
 637 0038 F6D8     		bhi	.L48
 638              	.LVL27:
 639              	.L47:
 640              	.LBE71:
 641              	.LBB72:
 642              	.LBB73:
 643              	.LBB74:
 644              	.LBB75:
 645              	.LBB76:
 646              	.LBB77:
 647              		.file 5 ".//ChibiOS//os/ext/CMSIS/include/core_cmFunc.h"
 648              		.loc 5 548 0
 649 003a 2023     		movs	r3, #32
 650              		.syntax unified
 651              	@ 548 ".//ChibiOS//os/ext/CMSIS/include/core_cmFunc.h" 1
 652 003c 83F31188 		MSR basepri, r3
 653              	@ 0 "" 2
 654              	.LVL28:
 655              		.thumb
 656              		.syntax unified
 657              	.LBE77:
 658              	.LBE76:
 659              	.LBE75:
 660              	.LBE74:
 661              		.file 6 ".//ChibiOS//os/rt/include/chsys.h"
 662              		.loc 6 389 0
 663 0040 FFF7FEFF 		bl	_stats_start_measure_crit_isr
 664              	.LVL29:
 665              		.loc 6 390 0
 666 0044 FFF7FEFF 		bl	_dbg_check_lock_from_isr
 667              	.LVL30:
 668              	.LBE73:
 669              	.LBE72:
 670              	.LBB78:
 671              	.LBB79:
 672              		.loc 4 268 0
 673 0048 FFF7FEFF 		bl	chDbgCheckClassI
 674              	.LVL31:
 675              		.loc 4 270 0
 676 004c 0E48     		ldr	r0, .L58+8
 677 004e 8368     		ldr	r3, [r0, #8]
 678 0050 002B     		cmp	r3, #0
 679 0052 0FDD     		ble	.L56
 680              	.L49:
 681              	.LVL32:
 682              	.LBE79:
 683              	.LBE78:
 684              	.LBB81:
ARM GAS  C:\Users\25521\AppData\Local\Temp\ccsTucTG.s 			page 13


 685              	.LBB82:
 686              		.loc 6 408 0
 687 0054 FFF7FEFF 		bl	_dbg_check_unlock_from_isr
 688              	.LVL33:
 689              		.loc 6 409 0
 690 0058 FFF7FEFF 		bl	_stats_stop_measure_crit_isr
 691              	.LVL34:
 692              	.LBB83:
 693              	.LBB84:
 694              	.LBB85:
 695              	.LBB86:
 696              		.loc 5 548 0
 697 005c 0023     		movs	r3, #0
 698              		.syntax unified
 699              	@ 548 ".//ChibiOS//os/ext/CMSIS/include/core_cmFunc.h" 1
 700 005e 83F31188 		MSR basepri, r3
 701              	@ 0 "" 2
 702              	.LVL35:
 703              		.thumb
 704              		.syntax unified
 705              	.LBE86:
 706              	.LBE85:
 707              	.LBE84:
 708              	.LBE83:
 709              	.LBE82:
 710              	.LBE81:
 711              		.loc 1 87 0
 712 0062 019A     		ldr	r2, [sp, #4]
 713 0064 2B68     		ldr	r3, [r5]
 714              		.loc 1 86 0
 715 0066 0949     		ldr	r1, .L58+12
 716 0068 0120     		movs	r0, #1
 717              		.loc 1 87 0
 718 006a 9A42     		cmp	r2, r3
 719              		.loc 1 86 0
 720 006c 0870     		strb	r0, [r1]
 721              		.loc 1 87 0
 722 006e 04D1     		bne	.L57
 723 0070 02B0     		add	sp, sp, #8
 724              		.cfi_remember_state
 725              		.cfi_def_cfa_offset 16
 726              		@ sp needed
 727 0072 70BD     		pop	{r4, r5, r6, pc}
 728              	.LVL36:
 729              	.L56:
 730              		.cfi_restore_state
 731              	.LBB87:
 732              	.LBB80:
 733              		.loc 4 271 0
 734 0074 FFF7FEFF 		bl	chSemSignalI
 735              	.LVL37:
 736 0078 ECE7     		b	.L49
 737              	.LVL38:
 738              	.L57:
 739              	.LBE80:
 740              	.LBE87:
 741              		.loc 1 87 0
ARM GAS  C:\Users\25521\AppData\Local\Temp\ccsTucTG.s 			page 14


 742 007a FFF7FEFF 		bl	__stack_chk_fail
 743              	.LVL39:
 744              	.L59:
 745 007e 00BF     		.align	2
 746              	.L58:
 747 0080 00000000 		.word	__stack_chk_guard
 748 0084 00000000 		.word	.LANCHOR4
 749 0088 00000000 		.word	.LANCHOR3
 750 008c 00000000 		.word	.LANCHOR0
 751              		.cfi_endproc
 752              	.LFE270:
 753              		.size	adc_cb, .-adc_cb
 754              		.section	.text.proximity_start,"ax",%progbits
 755              		.align	1
 756              		.p2align 4,,15
 757              		.global	proximity_start
 758              		.syntax unified
 759              		.thumb
 760              		.thumb_func
 761              		.fpu fpv4-sp-d16
 762              		.type	proximity_start, %function
 763              	proximity_start:
 764              	.LFB274:
 765              		.loc 1 295 0
 766              		.cfi_startproc
 767              		@ args = 0, pretend = 0, frame = 8
 768              		@ frame_needed = 0, uses_anonymous_args = 0
 769 0000 70B5     		push	{r4, r5, r6, lr}
 770              		.cfi_def_cfa_offset 16
 771              		.cfi_offset 4, -16
 772              		.cfi_offset 5, -12
 773              		.cfi_offset 6, -8
 774              		.cfi_offset 14, -4
 775              		.loc 1 296 0
 776 0002 1E4E     		ldr	r6, .L66
 777              		.loc 1 295 0
 778 0004 1E4C     		ldr	r4, .L66+4
 779              		.loc 1 296 0
 780 0006 3578     		ldrb	r5, [r6]	@ zero_extendqisi2
 781              		.loc 1 295 0
 782 0008 2368     		ldr	r3, [r4]
 783 000a 84B0     		sub	sp, sp, #16
 784              		.cfi_def_cfa_offset 32
 785              		.loc 1 296 0
 786 000c 012D     		cmp	r5, #1
 787              		.loc 1 295 0
 788 000e 0393     		str	r3, [sp, #12]
 789              		.loc 1 296 0
 790 0010 05D0     		beq	.L64
 791              	.L60:
 792              		.loc 1 332 0
 793 0012 039A     		ldr	r2, [sp, #12]
 794 0014 2368     		ldr	r3, [r4]
 795 0016 9A42     		cmp	r2, r3
 796 0018 2ED1     		bne	.L65
 797 001a 04B0     		add	sp, sp, #16
 798              		.cfi_remember_state
ARM GAS  C:\Users\25521\AppData\Local\Temp\ccsTucTG.s 			page 15


 799              		.cfi_def_cfa_offset 16
 800              		@ sp needed
 801 001c 70BD     		pop	{r4, r5, r6, pc}
 802              	.L64:
 803              		.cfi_restore_state
 804              		.loc 1 318 0
 805 001e 0021     		movs	r1, #0
 806 0020 3046     		mov	r0, r6
 807 0022 FFF7FEFF 		bl	adcStart
 808              	.LVL40:
 809              		.loc 1 321 0
 810 0026 2B46     		mov	r3, r5
 811 0028 164A     		ldr	r2, .L66+8
 812 002a 1749     		ldr	r1, .L66+12
 813 002c 3046     		mov	r0, r6
 814 002e FFF7FEFF 		bl	adcStartConversion
 815              	.LVL41:
 816              		.loc 1 324 0
 817 0032 1649     		ldr	r1, .L66+16
 818 0034 1648     		ldr	r0, .L66+20
 819 0036 FFF7FEFF 		bl	pwmStart
 820              	.LVL42:
 821              		.loc 1 326 0
 822 003a 4FF49672 		mov	r2, #300
 823 003e 0021     		movs	r1, #0
 824 0040 1348     		ldr	r0, .L66+20
 825 0042 FFF7FEFF 		bl	pwmEnableChannel
 826              	.LVL43:
 827              		.loc 1 327 0
 828 0046 0021     		movs	r1, #0
 829 0048 1148     		ldr	r0, .L66+20
 830 004a FFF7FEFF 		bl	pwmEnableChannelNotification
 831              	.LVL44:
 832              		.loc 1 328 0
 833 004e 1048     		ldr	r0, .L66+20
 834 0050 FFF7FEFF 		bl	pwmEnablePeriodicNotification
 835              	.LVL45:
 836              		.loc 1 329 0
 837 0054 2946     		mov	r1, r5
 838 0056 4FF48272 		mov	r2, #260
 839 005a 0D48     		ldr	r0, .L66+20
 840 005c FFF7FEFF 		bl	pwmEnableChannel
 841              	.LVL46:
 842              		.loc 1 331 0
 843 0060 0023     		movs	r3, #0
 844 0062 0093     		str	r3, [sp]
 845 0064 0B48     		ldr	r0, .L66+24
 846 0066 0C4B     		ldr	r3, .L66+28
 847 0068 4022     		movs	r2, #64
 848 006a 4FF41E71 		mov	r1, #632
 849 006e FFF7FEFF 		bl	chThdCreateStatic
 850              	.LVL47:
 851 0072 0A4B     		ldr	r3, .L66+32
 852 0074 1860     		str	r0, [r3]
 853 0076 CCE7     		b	.L60
 854              	.L65:
 855              		.loc 1 332 0
ARM GAS  C:\Users\25521\AppData\Local\Temp\ccsTucTG.s 			page 16


 856 0078 FFF7FEFF 		bl	__stack_chk_fail
 857              	.LVL48:
 858              	.L67:
 859              		.align	2
 860              	.L66:
 861 007c 00000000 		.word	ADCD1
 862 0080 00000000 		.word	__stack_chk_guard
 863 0084 00000000 		.word	.LANCHOR9
 864 0088 00000000 		.word	.LANCHOR10
 865 008c 00000000 		.word	.LANCHOR11
 866 0090 00000000 		.word	PWMD2
 867 0094 00000000 		.word	.LANCHOR12
 868 0098 00000000 		.word	proximity_thd
 869 009c 00000000 		.word	.LANCHOR13
 870              		.cfi_endproc
 871              	.LFE274:
 872              		.size	proximity_start, .-proximity_start
 873              		.section	.text.proximity_stop,"ax",%progbits
 874              		.align	1
 875              		.p2align 4,,15
 876              		.global	proximity_stop
 877              		.syntax unified
 878              		.thumb
 879              		.thumb_func
 880              		.fpu fpv4-sp-d16
 881              		.type	proximity_stop, %function
 882              	proximity_stop:
 883              	.LFB275:
 884              		.loc 1 334 0
 885              		.cfi_startproc
 886              		@ args = 0, pretend = 0, frame = 8
 887              		@ frame_needed = 0, uses_anonymous_args = 0
 888 0000 70B5     		push	{r4, r5, r6, lr}
 889              		.cfi_def_cfa_offset 16
 890              		.cfi_offset 4, -16
 891              		.cfi_offset 5, -12
 892              		.cfi_offset 6, -8
 893              		.cfi_offset 14, -4
 894              		.loc 1 335 0
 895 0002 144C     		ldr	r4, .L74
 896              		.loc 1 334 0
 897 0004 144D     		ldr	r5, .L74+4
 898              		.loc 1 335 0
 899 0006 2378     		ldrb	r3, [r4]	@ zero_extendqisi2
 900              		.loc 1 334 0
 901 0008 2A68     		ldr	r2, [r5]
 902 000a 82B0     		sub	sp, sp, #8
 903              		.cfi_def_cfa_offset 24
 904              		.loc 1 335 0
 905 000c 012B     		cmp	r3, #1
 906              		.loc 1 334 0
 907 000e 0192     		str	r2, [sp, #4]
 908              		.loc 1 335 0
 909 0010 18D0     		beq	.L68
 910              		.loc 1 338 0
 911 0012 124E     		ldr	r6, .L74+8
 912 0014 3068     		ldr	r0, [r6]
ARM GAS  C:\Users\25521\AppData\Local\Temp\ccsTucTG.s 			page 17


 913 0016 FFF7FEFF 		bl	chThdTerminate
 914              	.LVL49:
 915              		.loc 1 339 0
 916 001a 3068     		ldr	r0, [r6]
 917 001c FFF7FEFF 		bl	chThdWait
 918              	.LVL50:
 919              		.loc 1 340 0
 920 0020 0023     		movs	r3, #0
 921              		.loc 1 341 0
 922 0022 0F48     		ldr	r0, .L74+12
 923              		.loc 1 340 0
 924 0024 3360     		str	r3, [r6]
 925              		.loc 1 341 0
 926 0026 FFF7FEFF 		bl	pwmStop
 927              	.LVL51:
 928              		.loc 1 342 0
 929 002a 2046     		mov	r0, r4
 930 002c FFF7FEFF 		bl	adcStopConversion
 931              	.LVL52:
 932              		.loc 1 343 0
 933 0030 019A     		ldr	r2, [sp, #4]
 934 0032 2B68     		ldr	r3, [r5]
 935 0034 9A42     		cmp	r2, r3
 936 0036 0BD1     		bne	.L73
 937 0038 2046     		mov	r0, r4
 938              		.loc 1 345 0
 939 003a 02B0     		add	sp, sp, #8
 940              		.cfi_remember_state
 941              		.cfi_def_cfa_offset 16
 942              		@ sp needed
 943 003c BDE87040 		pop	{r4, r5, r6, lr}
 944              		.cfi_restore 14
 945              		.cfi_restore 6
 946              		.cfi_restore 5
 947              		.cfi_restore 4
 948              		.cfi_def_cfa_offset 0
 949              		.loc 1 343 0
 950 0040 FFF7FEBF 		b	adcStop
 951              	.LVL53:
 952              	.L68:
 953              		.cfi_restore_state
 954              		.loc 1 345 0
 955 0044 019A     		ldr	r2, [sp, #4]
 956 0046 2B68     		ldr	r3, [r5]
 957 0048 9A42     		cmp	r2, r3
 958 004a 01D1     		bne	.L73
 959 004c 02B0     		add	sp, sp, #8
 960              		.cfi_remember_state
 961              		.cfi_def_cfa_offset 16
 962              		@ sp needed
 963 004e 70BD     		pop	{r4, r5, r6, pc}
 964              	.L73:
 965              		.cfi_restore_state
 966 0050 FFF7FEFF 		bl	__stack_chk_fail
 967              	.LVL54:
 968              	.L75:
 969              		.align	2
ARM GAS  C:\Users\25521\AppData\Local\Temp\ccsTucTG.s 			page 18


 970              	.L74:
 971 0054 00000000 		.word	ADCD1
 972 0058 00000000 		.word	__stack_chk_guard
 973 005c 00000000 		.word	.LANCHOR13
 974 0060 00000000 		.word	PWMD2
 975              		.cfi_endproc
 976              	.LFE275:
 977              		.size	proximity_stop, .-proximity_stop
 978              		.section	.text.calibrate_ir,"ax",%progbits
 979              		.align	1
 980              		.p2align 4,,15
 981              		.global	calibrate_ir
 982              		.syntax unified
 983              		.thumb
 984              		.thumb_func
 985              		.fpu fpv4-sp-d16
 986              		.type	calibrate_ir, %function
 987              	calibrate_ir:
 988              	.LFB276:
 989              		.loc 1 347 0
 990              		.cfi_startproc
 991              		@ args = 0, pretend = 0, frame = 8
 992              		@ frame_needed = 0, uses_anonymous_args = 0
 993 0000 30B5     		push	{r4, r5, lr}
 994              		.cfi_def_cfa_offset 12
 995              		.cfi_offset 4, -12
 996              		.cfi_offset 5, -8
 997              		.cfi_offset 14, -4
 998 0002 0C4D     		ldr	r5, .L82
 999              		.loc 1 348 0
 1000 0004 0C4A     		ldr	r2, .L82+4
 1001              		.loc 1 347 0
 1002 0006 2B68     		ldr	r3, [r5]
 1003              		.loc 1 349 0
 1004 0008 0C4C     		ldr	r4, .L82+8
 1005              		.loc 1 347 0
 1006 000a 83B0     		sub	sp, sp, #12
 1007              		.cfi_def_cfa_offset 24
 1008              		.loc 1 348 0
 1009 000c 0021     		movs	r1, #0
 1010              		.loc 1 347 0
 1011 000e 0193     		str	r3, [sp, #4]
 1012              		.loc 1 349 0
 1013 0010 0123     		movs	r3, #1
 1014              		.loc 1 348 0
 1015 0012 1170     		strb	r1, [r2]
 1016              		.loc 1 349 0
 1017 0014 2370     		strb	r3, [r4]
 1018              	.L77:
 1019              		.loc 1 351 0
 1020 0016 1420     		movs	r0, #20
 1021 0018 FFF7FEFF 		bl	chThdSleep
 1022              	.LVL55:
 1023              		.loc 1 350 0
 1024 001c 2378     		ldrb	r3, [r4]	@ zero_extendqisi2
 1025 001e 002B     		cmp	r3, #0
 1026 0020 F9D1     		bne	.L77
ARM GAS  C:\Users\25521\AppData\Local\Temp\ccsTucTG.s 			page 19


 1027              		.loc 1 353 0
 1028 0022 019A     		ldr	r2, [sp, #4]
 1029 0024 2B68     		ldr	r3, [r5]
 1030 0026 9A42     		cmp	r2, r3
 1031 0028 01D1     		bne	.L81
 1032 002a 03B0     		add	sp, sp, #12
 1033              		.cfi_remember_state
 1034              		.cfi_def_cfa_offset 12
 1035              		@ sp needed
 1036 002c 30BD     		pop	{r4, r5, pc}
 1037              	.L81:
 1038              		.cfi_restore_state
 1039 002e FFF7FEFF 		bl	__stack_chk_fail
 1040              	.LVL56:
 1041              	.L83:
 1042 0032 00BF     		.align	2
 1043              	.L82:
 1044 0034 00000000 		.word	__stack_chk_guard
 1045 0038 00000000 		.word	.LANCHOR6
 1046 003c 00000000 		.word	.LANCHOR5
 1047              		.cfi_endproc
 1048              	.LFE276:
 1049              		.size	calibrate_ir, .-calibrate_ir
 1050              		.section	.text.get_prox,"ax",%progbits
 1051              		.align	1
 1052              		.p2align 4,,15
 1053              		.global	get_prox
 1054              		.syntax unified
 1055              		.thumb
 1056              		.thumb_func
 1057              		.fpu fpv4-sp-d16
 1058              		.type	get_prox, %function
 1059              	get_prox:
 1060              	.LFB277:
 1061              		.loc 1 355 0
 1062              		.cfi_startproc
 1063              		@ args = 0, pretend = 0, frame = 8
 1064              		@ frame_needed = 0, uses_anonymous_args = 0
 1065              	.LVL57:
 1066 0000 00B5     		push	{lr}
 1067              		.cfi_def_cfa_offset 4
 1068              		.cfi_offset 14, -4
 1069 0002 0A4B     		ldr	r3, .L90
 1070 0004 83B0     		sub	sp, sp, #12
 1071              		.cfi_def_cfa_offset 16
 1072              		.loc 1 355 0
 1073 0006 1A68     		ldr	r2, [r3]
 1074 0008 0192     		str	r2, [sp, #4]
 1075              		.loc 1 356 0
 1076 000a 0728     		cmp	r0, #7
 1077              		.loc 1 359 0
 1078 000c 9BBF     		ittet	ls
 1079 000e 084A     		ldrls	r2, .L90+4
 1080 0010 1030     		addls	r0, r0, #16
 1081              	.LVL58:
 1082              		.loc 1 357 0
 1083 0012 0020     		movhi	r0, #0
ARM GAS  C:\Users\25521\AppData\Local\Temp\ccsTucTG.s 			page 20


 1084              		.loc 1 359 0
 1085 0014 52F82000 		ldrls	r0, [r2, r0, lsl #2]
 1086              		.loc 1 361 0
 1087 0018 019A     		ldr	r2, [sp, #4]
 1088 001a 1B68     		ldr	r3, [r3]
 1089 001c 9A42     		cmp	r2, r3
 1090 001e 02D1     		bne	.L89
 1091 0020 03B0     		add	sp, sp, #12
 1092              		.cfi_remember_state
 1093              		.cfi_def_cfa_offset 4
 1094              		@ sp needed
 1095 0022 5DF804FB 		ldr	pc, [sp], #4
 1096              	.L89:
 1097              		.cfi_restore_state
 1098 0026 FFF7FEFF 		bl	__stack_chk_fail
 1099              	.LVL59:
 1100              	.L91:
 1101 002a 00BF     		.align	2
 1102              	.L90:
 1103 002c 00000000 		.word	__stack_chk_guard
 1104 0030 00000000 		.word	.LANCHOR2
 1105              		.cfi_endproc
 1106              	.LFE277:
 1107              		.size	get_prox, .-get_prox
 1108              		.section	.text.get_calibrated_prox,"ax",%progbits
 1109              		.align	1
 1110              		.p2align 4,,15
 1111              		.global	get_calibrated_prox
 1112              		.syntax unified
 1113              		.thumb
 1114              		.thumb_func
 1115              		.fpu fpv4-sp-d16
 1116              		.type	get_calibrated_prox, %function
 1117              	get_calibrated_prox:
 1118              	.LFB278:
 1119              		.loc 1 363 0
 1120              		.cfi_startproc
 1121              		@ args = 0, pretend = 0, frame = 8
 1122              		@ frame_needed = 0, uses_anonymous_args = 0
 1123              	.LVL60:
 1124 0000 10B5     		push	{r4, lr}
 1125              		.cfi_def_cfa_offset 8
 1126              		.cfi_offset 4, -8
 1127              		.cfi_offset 14, -4
 1128 0002 0E4A     		ldr	r2, .L98
 1129 0004 82B0     		sub	sp, sp, #8
 1130              		.cfi_def_cfa_offset 16
 1131              		.loc 1 363 0
 1132 0006 1368     		ldr	r3, [r2]
 1133 0008 0193     		str	r3, [sp, #4]
 1134              		.loc 1 365 0
 1135 000a 0728     		cmp	r0, #7
 1136 000c 11D8     		bhi	.L95
 1137              	.LVL61:
 1138              		.loc 1 368 0
 1139 000e 0C49     		ldr	r1, .L98+4
 1140 0010 00F11803 		add	r3, r0, #24
ARM GAS  C:\Users\25521\AppData\Local\Temp\ccsTucTG.s 			page 21


 1141              	.LVL62:
 1142 0014 00F11004 		add	r4, r0, #16
 1143              	.LVL63:
 1144 0018 51F82330 		ldr	r3, [r1, r3, lsl #2]
 1145              	.LVL64:
 1146 001c 51F82400 		ldr	r0, [r1, r4, lsl #2]
 1147              	.LVL65:
 1148 0020 C01A     		subs	r0, r0, r3
 1149 0022 20EAE070 		bic	r0, r0, r0, asr #31
 1150              	.LVL66:
 1151              	.L92:
 1152              		.loc 1 375 0
 1153 0026 0199     		ldr	r1, [sp, #4]
 1154 0028 1368     		ldr	r3, [r2]
 1155 002a 9942     		cmp	r1, r3
 1156 002c 03D1     		bne	.L97
 1157 002e 02B0     		add	sp, sp, #8
 1158              		.cfi_remember_state
 1159              		.cfi_def_cfa_offset 8
 1160              		@ sp needed
 1161 0030 10BD     		pop	{r4, pc}
 1162              	.LVL67:
 1163              	.L95:
 1164              		.cfi_restore_state
 1165              		.loc 1 366 0
 1166 0032 0020     		movs	r0, #0
 1167              	.LVL68:
 1168 0034 F7E7     		b	.L92
 1169              	.L97:
 1170              		.loc 1 375 0
 1171 0036 FFF7FEFF 		bl	__stack_chk_fail
 1172              	.LVL69:
 1173              	.L99:
 1174 003a 00BF     		.align	2
 1175              	.L98:
 1176 003c 00000000 		.word	__stack_chk_guard
 1177 0040 00000000 		.word	.LANCHOR2
 1178              		.cfi_endproc
 1179              	.LFE278:
 1180              		.size	get_calibrated_prox, .-get_calibrated_prox
 1181              		.section	.text.get_ambient_light,"ax",%progbits
 1182              		.align	1
 1183              		.p2align 4,,15
 1184              		.global	get_ambient_light
 1185              		.syntax unified
 1186              		.thumb
 1187              		.thumb_func
 1188              		.fpu fpv4-sp-d16
 1189              		.type	get_ambient_light, %function
 1190              	get_ambient_light:
 1191              	.LFB279:
 1192              		.loc 1 377 0
 1193              		.cfi_startproc
 1194              		@ args = 0, pretend = 0, frame = 8
 1195              		@ frame_needed = 0, uses_anonymous_args = 0
 1196              	.LVL70:
 1197 0000 00B5     		push	{lr}
ARM GAS  C:\Users\25521\AppData\Local\Temp\ccsTucTG.s 			page 22


 1198              		.cfi_def_cfa_offset 4
 1199              		.cfi_offset 14, -4
 1200 0002 0A4B     		ldr	r3, .L106
 1201 0004 83B0     		sub	sp, sp, #12
 1202              		.cfi_def_cfa_offset 16
 1203              		.loc 1 377 0
 1204 0006 1A68     		ldr	r2, [r3]
 1205 0008 0192     		str	r2, [sp, #4]
 1206              		.loc 1 378 0
 1207 000a 0728     		cmp	r0, #7
 1208              		.loc 1 381 0
 1209 000c 9CBF     		itt	ls
 1210 000e 084A     		ldrls	r2, .L106+4
 1211 0010 52F82000 		ldrls	r0, [r2, r0, lsl #2]
 1212              	.LVL71:
 1213              		.loc 1 383 0
 1214 0014 019A     		ldr	r2, [sp, #4]
 1215 0016 1B68     		ldr	r3, [r3]
 1216              		.loc 1 379 0
 1217 0018 88BF     		it	hi
 1218 001a 0020     		movhi	r0, #0
 1219              		.loc 1 383 0
 1220 001c 9A42     		cmp	r2, r3
 1221 001e 02D1     		bne	.L105
 1222 0020 03B0     		add	sp, sp, #12
 1223              		.cfi_remember_state
 1224              		.cfi_def_cfa_offset 4
 1225              		@ sp needed
 1226 0022 5DF804FB 		ldr	pc, [sp], #4
 1227              	.L105:
 1228              		.cfi_restore_state
 1229 0026 FFF7FEFF 		bl	__stack_chk_fail
 1230              	.LVL72:
 1231              	.L107:
 1232 002a 00BF     		.align	2
 1233              	.L106:
 1234 002c 00000000 		.word	__stack_chk_guard
 1235 0030 00000000 		.word	.LANCHOR2
 1236              		.cfi_endproc
 1237              	.LFE279:
 1238              		.size	get_ambient_light, .-get_ambient_light
 1239              		.section	.bss.adc2_proximity_samples,"aw",%nobits
 1240              		.align	2
 1241              		.set	.LANCHOR9,. + 0
 1242              		.type	adc2_proximity_samples, %object
 1243              		.size	adc2_proximity_samples, 32
 1244              	adc2_proximity_samples:
 1245 0000 00000000 		.space	32
 1245      00000000 
 1245      00000000 
 1245      00000000 
 1245      00000000 
 1246              		.section	.bss.adc2_values,"aw",%nobits
 1247              		.align	2
 1248              		.set	.LANCHOR4,. + 0
 1249              		.type	adc2_values, %object
 1250              		.size	adc2_values, 64
ARM GAS  C:\Users\25521\AppData\Local\Temp\ccsTucTG.s 			page 23


 1251              	adc2_values:
 1252 0000 00000000 		.space	64
 1252      00000000 
 1252      00000000 
 1252      00000000 
 1252      00000000 
 1253              		.section	.bss.calibrationInProgress,"aw",%nobits
 1254              		.set	.LANCHOR5,. + 0
 1255              		.type	calibrationInProgress, %object
 1256              		.size	calibrationInProgress, 1
 1257              	calibrationInProgress:
 1258 0000 00       		.space	1
 1259              		.section	.bss.calibrationNumSamples,"aw",%nobits
 1260              		.set	.LANCHOR8,. + 0
 1261              		.type	calibrationNumSamples, %object
 1262              		.size	calibrationNumSamples, 1
 1263              	calibrationNumSamples:
 1264 0000 00       		.space	1
 1265              		.section	.bss.calibrationState,"aw",%nobits
 1266              		.set	.LANCHOR6,. + 0
 1267              		.type	calibrationState, %object
 1268              		.size	calibrationState, 1
 1269              	calibrationState:
 1270 0000 00       		.space	1
 1271              		.section	.bss.calibrationSum,"aw",%nobits
 1272              		.align	2
 1273              		.set	.LANCHOR7,. + 0
 1274              		.type	calibrationSum, %object
 1275              		.size	calibrationSum, 32
 1276              	calibrationSum:
 1277 0000 00000000 		.space	32
 1277      00000000 
 1277      00000000 
 1277      00000000 
 1277      00000000 
 1278              		.section	.bss.prox_thd_handle,"aw",%nobits
 1279              		.align	2
 1280              		.set	.LANCHOR13,. + 0
 1281              		.type	prox_thd_handle, %object
 1282              		.size	prox_thd_handle, 4
 1283              	prox_thd_handle:
 1284 0000 00000000 		.space	4
 1285              		.section	.bss.prox_values,"aw",%nobits
 1286              		.align	2
 1287              		.set	.LANCHOR2,. + 0
 1288              		.type	prox_values, %object
 1289              		.size	prox_values, 128
 1290              	prox_values:
 1291 0000 00000000 		.space	128
 1291      00000000 
 1291      00000000 
 1291      00000000 
 1291      00000000 
 1292              		.section	.bss.proximity_thd_wa,"aw",%nobits
 1293              		.align	3
 1294              		.set	.LANCHOR12,. + 0
 1295              		.type	proximity_thd_wa, %object
ARM GAS  C:\Users\25521\AppData\Local\Temp\ccsTucTG.s 			page 24


 1296              		.size	proximity_thd_wa, 632
 1297              	proximity_thd_wa:
 1298 0000 00000000 		.space	632
 1298      00000000 
 1298      00000000 
 1298      00000000 
 1298      00000000 
 1299              		.section	.bss.pulseSeqState,"aw",%nobits
 1300              		.set	.LANCHOR0,. + 0
 1301              		.type	pulseSeqState, %object
 1302              		.size	pulseSeqState, 1
 1303              	pulseSeqState:
 1304 0000 00       		.space	1
 1305              		.section	.data.adc2_ready,"aw",%progbits
 1306              		.align	2
 1307              		.set	.LANCHOR3,. + 0
 1308              		.type	adc2_ready, %object
 1309              		.size	adc2_ready, 12
 1310              	adc2_ready:
 1311 0000 00000000 		.word	adc2_ready
 1312 0004 00000000 		.word	adc2_ready
 1313 0008 00000000 		.word	0
 1314              		.section	.rodata.__FUNCTION__.12346,"a",%progbits
 1315              		.align	2
 1316              		.set	.LANCHOR1,. + 0
 1317              		.type	__FUNCTION__.12346, %object
 1318              		.size	__FUNCTION__.12346, 14
 1319              	__FUNCTION__.12346:
 1320 0000 70726F78 		.ascii	"proximity_thd\000"
 1320      696D6974 
 1320      795F7468 
 1320      6400
 1321              		.section	.rodata.adcgrpcfg2,"a",%progbits
 1322              		.align	2
 1323              		.set	.LANCHOR10,. + 0
 1324              		.type	adcgrpcfg2, %object
 1325              		.size	adcgrpcfg2, 40
 1326              	adcgrpcfg2:
 1327 0000 01       		.byte	1
 1328 0001 00       		.space	1
 1329 0002 1000     		.short	16
 1330 0004 00000000 		.word	adc_cb
 1331 0008 00000000 		.word	0
 1332 000c 00280000 		.word	10240
 1333 0010 00000023 		.word	587202560
 1334 0014 6DDB0200 		.word	187245
 1335 0018 6DDBB62D 		.word	766958445
 1336 001c 6FBDF500 		.word	16104815
 1337 0020 0D39E514 		.word	350566669
 1338 0024 2CB1D410 		.word	282374444
 1339              		.section	.rodata.proximity_thd.str1.4,"aMS",%progbits,1
 1340              		.align	2
 1341              	.LC0:
 1342 0000 2F70726F 		.ascii	"/proximity\000"
 1342      78696D69 
 1342      747900
 1343              		.section	.rodata.pwmcfg_proximity.12387,"a",%progbits
ARM GAS  C:\Users\25521\AppData\Local\Temp\ccsTucTG.s 			page 25


 1344              		.align	2
 1345              		.set	.LANCHOR11,. + 0
 1346              		.type	pwmcfg_proximity.12387, %object
 1347              		.size	pwmcfg_proximity.12387, 52
 1348              	pwmcfg_proximity.12387:
 1349 0000 40420F00 		.word	1000000
 1350 0004 E2040000 		.word	1250
 1351 0008 00000000 		.word	pwm_reset_cb
 1352 000c 01000000 		.word	1
 1353 0010 00000000 		.word	pwm_ch1_cb
 1354 0014 01000000 		.word	1
 1355 0018 00000000 		.word	0
 1356 001c 00000000 		.word	0
 1357 0020 00000000 		.word	0
 1358 0024 00000000 		.word	0
 1359 0028 00000000 		.word	0
 1360 002c 00000000 		.word	0
 1361 0030 00000000 		.space	4
 1362              		.text
 1363              	.Letext0:
 1364              		.file 7 "d:\\eclipse_e-puck2_win32_11_apr_2018\\eclipse_e-puck2\\tools\\gcc-arm-none-eabi-7-2017-q
 1365              		.file 8 "d:\\eclipse_e-puck2_win32_11_apr_2018\\eclipse_e-puck2\\tools\\gcc-arm-none-eabi-7-2017-q
 1366              		.file 9 "d:\\eclipse_e-puck2_win32_11_apr_2018\\eclipse_e-puck2\\tools\\gcc-arm-none-eabi-7-2017-q
 1367              		.file 10 "d:\\eclipse_e-puck2_win32_11_apr_2018\\eclipse_e-puck2\\tools\\gcc-arm-none-eabi-7-2017-
 1368              		.file 11 "d:\\eclipse_e-puck2_win32_11_apr_2018\\eclipse_e-puck2\\tools\\gcc-arm-none-eabi-7-2017-
 1369              		.file 12 "d:\\eclipse_e-puck2_win32_11_apr_2018\\eclipse_e-puck2\\tools\\gcc-arm-none-eabi-7-2017-
 1370              		.file 13 ".//ChibiOS//os/rt/ports/ARMCMx/compilers/GCC/chtypes.h"
 1371              		.file 14 ".//ChibiOS//os/rt/include/chsystypes.h"
 1372              		.file 15 ".//ChibiOS//os/rt/include/chschd.h"
 1373              		.file 16 ".//ChibiOS//os/ext/CMSIS/include/core_cm4.h"
 1374              		.file 17 ".//ChibiOS//os/ext/CMSIS/ST/system_stm32f4xx.h"
 1375              		.file 18 ".//ChibiOS//os/ext/CMSIS/ST/stm32f407xx.h"
 1376              		.file 19 ".//ChibiOS//os/rt/ports/ARMCMx/chcore.h"
 1377              		.file 20 ".//ChibiOS//os/rt/ports/ARMCMx/chcore_v7m.h"
 1378              		.file 21 ".//ChibiOS//os/rt/include/chdebug.h"
 1379              		.file 22 ".//ChibiOS//os/rt/include/chtm.h"
 1380              		.file 23 ".//ChibiOS//os/rt/include/chstats.h"
 1381              		.file 24 ".//ChibiOS//os/rt/include/chsem.h"
 1382              		.file 25 ".//ChibiOS//os/rt/include/chmtx.h"
 1383              		.file 26 ".//ChibiOS//os/rt/include/chcond.h"
 1384              		.file 27 ".//ChibiOS//os/rt/include/chevents.h"
 1385              		.file 28 ".//ChibiOS//os/rt/include/chqueues.h"
 1386              		.file 29 ".//ChibiOS//os/hal/ports/STM32/LLD/DMAv2/stm32_dma.h"
 1387              		.file 30 ".//ChibiOS//os/hal/include/hal_ioblock.h"
 1388              		.file 31 ".//ChibiOS//os/hal/ports/STM32/LLD/GPIOv2/pal_lld.h"
 1389              		.file 32 ".//ChibiOS//os/hal/include/adc.h"
 1390              		.file 33 ".//ChibiOS//os/hal/ports/STM32/LLD/ADCv2/adc_lld.h"
 1391              		.file 34 ".//ChibiOS//os/hal/include/can.h"
 1392              		.file 35 ".//ChibiOS//os/hal/ports/STM32/LLD/CANv1/can_lld.h"
 1393              		.file 36 ".//ChibiOS//os/hal/include/dac.h"
 1394              		.file 37 ".//ChibiOS//os/hal/ports/STM32/LLD/DACv1/dac_lld.h"
 1395              		.file 38 ".//ChibiOS//os/hal/include/ext.h"
 1396              		.file 39 ".//ChibiOS//os/hal/ports/STM32/LLD/EXTIv1/ext_lld.h"
 1397              		.file 40 ".//ChibiOS//os/hal/include/gpt.h"
 1398              		.file 41 ".//ChibiOS//os/hal/ports/STM32/LLD/TIMv1/gpt_lld.h"
 1399              		.file 42 ".//ChibiOS//os/hal/ports/STM32/LLD/TIMv1/stm32_tim.h"
 1400              		.file 43 ".//ChibiOS//os/hal/include/i2c.h"
ARM GAS  C:\Users\25521\AppData\Local\Temp\ccsTucTG.s 			page 26


 1401              		.file 44 ".//ChibiOS//os/hal/ports/STM32/LLD/I2Cv1/i2c_lld.h"
 1402              		.file 45 ".//ChibiOS//os/hal/include/i2s.h"
 1403              		.file 46 ".//ChibiOS//os/hal/ports/STM32/LLD/SPIv1/i2s_lld.h"
 1404              		.file 47 ".//ChibiOS//os/hal/include/pwm.h"
 1405              		.file 48 ".//ChibiOS//os/hal/ports/STM32/LLD/TIMv1/pwm_lld.h"
 1406              		.file 49 ".//ChibiOS//os/hal/include/serial.h"
 1407              		.file 50 ".//ChibiOS//os/hal/ports/STM32/LLD/USARTv1/serial_lld.h"
 1408              		.file 51 ".//ChibiOS//os/hal/include/sdc.h"
 1409              		.file 52 ".//ChibiOS//os/hal/ports/STM32/LLD/SDIOv1/sdc_lld.h"
 1410              		.file 53 ".//ChibiOS//os/hal/include/spi.h"
 1411              		.file 54 ".//ChibiOS//os/hal/ports/STM32/LLD/SPIv1/spi_lld.h"
 1412              		.file 55 ".//ChibiOS//os/hal/include/usb.h"
 1413              		.file 56 ".//ChibiOS//os/hal/ports/STM32/LLD/OTGv1/usb_lld.h"
 1414              		.file 57 ".//ChibiOS//os/hal/ports/STM32/LLD/OTGv1/stm32_otg.h"
 1415              		.file 58 ".//src/sensors/proximity.h"
 1416              		.file 59 ".//ChibiOS_ext/os/hal/include/../ports/STM32/STM32F4xx/dcmi_lld.h"
 1417              		.file 60 "d:\\eclipse_e-puck2_win32_11_apr_2018\\eclipse_e-puck2\\tools\\gcc-arm-none-eabi-7-2017-
 1418              		.file 61 ".//src/msgbus/messagebus.h"
 1419              		.file 62 "d:\\eclipse_e-puck2_win32_11_apr_2018\\eclipse_e-puck2\\tools\\gcc-arm-none-eabi-7-2017-
 1420              		.file 63 ".//src/parameter/parameter.h"
 1421              		.file 64 ".//src/main.h"
 1422              		.file 65 "<built-in>"