ARM GAS  C:\Users\25521\AppData\Local\Temp\cciOXpea.s 			page 1


   1              		.cpu cortex-m4
   2              		.eabi_attribute 27, 1
   3              		.eabi_attribute 28, 1
   4              		.eabi_attribute 20, 1
   5              		.eabi_attribute 21, 1
   6              		.eabi_attribute 23, 3
   7              		.eabi_attribute 24, 1
   8              		.eabi_attribute 25, 1
   9              		.eabi_attribute 26, 1
  10              		.eabi_attribute 30, 2
  11              		.eabi_attribute 34, 1
  12              		.eabi_attribute 18, 4
  13              		.file	"st_lld.c"
  14              		.text
  15              	.Ltext0:
  16              		.cfi_sections	.debug_frame
  17              		.section	.text.SysTick_Handler,"ax",%progbits
  18              		.align	1
  19              		.p2align 4,,15
  20              		.global	SysTick_Handler
  21              		.syntax unified
  22              		.thumb
  23              		.thumb_func
  24              		.fpu fpv4-sp-d16
  25              		.type	SysTick_Handler, %function
  26              	SysTick_Handler:
  27              	.LFB267:
  28              		.file 1 ".//ChibiOS//os/hal/ports/STM32/LLD/TIMv1/st_lld.c"
  29              		.loc 1 176 0
  30              		.cfi_startproc
  31              		@ args = 0, pretend = 0, frame = 8
  32              		@ frame_needed = 0, uses_anonymous_args = 0
  33 0000 10B5     		push	{r4, lr}
  34              		.cfi_def_cfa_offset 8
  35              		.cfi_offset 4, -8
  36              		.cfi_offset 14, -4
  37 0002 124C     		ldr	r4, .L7
  38 0004 82B0     		sub	sp, sp, #8
  39              		.cfi_def_cfa_offset 16
  40              		.loc 1 176 0
  41 0006 2368     		ldr	r3, [r4]
  42 0008 0193     		str	r3, [sp, #4]
  43              		.loc 1 178 0
  44 000a FFF7FEFF 		bl	_stats_increase_irq
  45              	.LVL0:
  46 000e FFF7FEFF 		bl	_dbg_check_enter_isr
  47              	.LVL1:
  48              	.LBB54:
  49              	.LBB55:
  50              	.LBB56:
  51              	.LBB57:
  52              	.LBB58:
  53              	.LBB59:
  54              	.LBB60:
  55              		.file 2 ".//ChibiOS//os/ext/CMSIS/include/core_cmFunc.h"
  56              		.loc 2 548 0
  57 0012 2023     		movs	r3, #32
ARM GAS  C:\Users\25521\AppData\Local\Temp\cciOXpea.s 			page 2


  58              		.syntax unified
  59              	@ 548 ".//ChibiOS//os/ext/CMSIS/include/core_cmFunc.h" 1
  60 0014 83F31188 		MSR basepri, r3
  61              	@ 0 "" 2
  62              	.LVL2:
  63              		.thumb
  64              		.syntax unified
  65              	.LBE60:
  66              	.LBE59:
  67              	.LBE58:
  68              	.LBE57:
  69              		.file 3 ".//ChibiOS//os/rt/include/chsys.h"
  70              		.loc 3 389 0
  71 0018 FFF7FEFF 		bl	_stats_start_measure_crit_isr
  72              	.LVL3:
  73              		.loc 3 390 0
  74 001c FFF7FEFF 		bl	_dbg_check_lock_from_isr
  75              	.LVL4:
  76              	.LBE56:
  77              	.LBE55:
  78              	.LBE54:
  79              	.LBB61:
  80              	.LBB62:
  81              		.file 4 ".//ChibiOS//os/hal/osal/rt/osal.h"
  82              		.loc 4 585 0
  83 0020 FFF7FEFF 		bl	chSysTimerHandlerI
  84              	.LVL5:
  85              	.LBE62:
  86              	.LBE61:
  87              	.LBB63:
  88              	.LBB64:
  89              	.LBB65:
  90              		.loc 3 408 0
  91 0024 FFF7FEFF 		bl	_dbg_check_unlock_from_isr
  92              	.LVL6:
  93              		.loc 3 409 0
  94 0028 FFF7FEFF 		bl	_stats_stop_measure_crit_isr
  95              	.LVL7:
  96              	.LBB66:
  97              	.LBB67:
  98              	.LBB68:
  99              	.LBB69:
 100              		.loc 2 548 0
 101 002c 0023     		movs	r3, #0
 102              		.syntax unified
 103              	@ 548 ".//ChibiOS//os/ext/CMSIS/include/core_cmFunc.h" 1
 104 002e 83F31188 		MSR basepri, r3
 105              	@ 0 "" 2
 106              	.LVL8:
 107              		.thumb
 108              		.syntax unified
 109              	.LBE69:
 110              	.LBE68:
 111              	.LBE67:
 112              	.LBE66:
 113              	.LBE65:
 114              	.LBE64:
ARM GAS  C:\Users\25521\AppData\Local\Temp\cciOXpea.s 			page 3


 115              	.LBE63:
 116              		.loc 1 184 0
 117 0032 FFF7FEFF 		bl	_dbg_check_leave_isr
 118              	.LVL9:
 119 0036 019A     		ldr	r2, [sp, #4]
 120 0038 2368     		ldr	r3, [r4]
 121 003a 9A42     		cmp	r2, r3
 122 003c 04D1     		bne	.L6
 123              		.loc 1 185 0
 124 003e 02B0     		add	sp, sp, #8
 125              		.cfi_remember_state
 126              		.cfi_def_cfa_offset 8
 127              		@ sp needed
 128 0040 BDE81040 		pop	{r4, lr}
 129              		.cfi_restore 14
 130              		.cfi_restore 4
 131              		.cfi_def_cfa_offset 0
 132              		.loc 1 184 0
 133 0044 FFF7FEBF 		b	_port_irq_epilogue
 134              	.LVL10:
 135              	.L6:
 136              		.cfi_restore_state
 137 0048 FFF7FEFF 		bl	__stack_chk_fail
 138              	.LVL11:
 139              	.L8:
 140              		.align	2
 141              	.L7:
 142 004c 00000000 		.word	__stack_chk_guard
 143              		.cfi_endproc
 144              	.LFE267:
 145              		.size	SysTick_Handler, .-SysTick_Handler
 146              		.section	.text.st_lld_init,"ax",%progbits
 147              		.align	1
 148              		.p2align 4,,15
 149              		.global	st_lld_init
 150              		.syntax unified
 151              		.thumb
 152              		.thumb_func
 153              		.fpu fpv4-sp-d16
 154              		.type	st_lld_init, %function
 155              	st_lld_init:
 156              	.LFB268:
 157              		.loc 1 223 0
 158              		.cfi_startproc
 159              		@ args = 0, pretend = 0, frame = 8
 160              		@ frame_needed = 0, uses_anonymous_args = 0
 161 0000 10B5     		push	{r4, lr}
 162              		.cfi_def_cfa_offset 8
 163              		.cfi_offset 4, -8
 164              		.cfi_offset 14, -4
 165 0002 0C4A     		ldr	r2, .L14
 166              		.loc 1 251 0
 167 0004 0C4B     		ldr	r3, .L14+4
 168              		.loc 1 223 0
 169 0006 1168     		ldr	r1, [r2]
 170              		.loc 1 251 0
 171 0008 0C4C     		ldr	r4, .L14+8
ARM GAS  C:\Users\25521\AppData\Local\Temp\cciOXpea.s 			page 4


 172              		.loc 1 223 0
 173 000a 82B0     		sub	sp, sp, #8
 174              		.cfi_def_cfa_offset 16
 175              		.loc 1 252 0
 176 000c 0020     		movs	r0, #0
 177              		.loc 1 223 0
 178 000e 0191     		str	r1, [sp, #4]
 179              		.loc 1 253 0
 180 0010 0721     		movs	r1, #7
 181              		.loc 1 251 0
 182 0012 5C60     		str	r4, [r3, #4]
 183              		.loc 1 252 0
 184 0014 9860     		str	r0, [r3, #8]
 185              		.loc 1 253 0
 186 0016 1960     		str	r1, [r3]
 187              		.loc 1 258 0
 188 0018 0199     		ldr	r1, [sp, #4]
 189 001a 1368     		ldr	r3, [r2]
 190 001c 9942     		cmp	r1, r3
 191 001e 06D1     		bne	.L13
 192 0020 0821     		movs	r1, #8
 193 0022 0B20     		movs	r0, #11
 194              		.loc 1 260 0
 195 0024 02B0     		add	sp, sp, #8
 196              		.cfi_remember_state
 197              		.cfi_def_cfa_offset 8
 198              		@ sp needed
 199 0026 BDE81040 		pop	{r4, lr}
 200              		.cfi_restore 14
 201              		.cfi_restore 4
 202              		.cfi_def_cfa_offset 0
 203              		.loc 1 258 0
 204 002a FFF7FEBF 		b	nvicSetSystemHandlerPriority
 205              	.LVL12:
 206              	.L13:
 207              		.cfi_restore_state
 208 002e FFF7FEFF 		bl	__stack_chk_fail
 209              	.LVL13:
 210              	.L15:
 211 0032 00BF     		.align	2
 212              	.L14:
 213 0034 00000000 		.word	__stack_chk_guard
 214 0038 10E000E0 		.word	-536813552
 215 003c 3F900200 		.word	167999
 216              		.cfi_endproc
 217              	.LFE268:
 218              		.size	st_lld_init, .-st_lld_init
 219              		.text
 220              	.Letext0:
 221              		.file 5 "d:\\eclipse_e-puck2_win32_11_apr_2018\\eclipse_e-puck2\\tools\\gcc-arm-none-eabi-7-2017-q
 222              		.file 6 "d:\\eclipse_e-puck2_win32_11_apr_2018\\eclipse_e-puck2\\tools\\gcc-arm-none-eabi-7-2017-q
 223              		.file 7 "d:\\eclipse_e-puck2_win32_11_apr_2018\\eclipse_e-puck2\\tools\\gcc-arm-none-eabi-7-2017-q
 224              		.file 8 ".//ChibiOS//os/rt/ports/ARMCMx/compilers/GCC/chtypes.h"
 225              		.file 9 ".//ChibiOS//os/rt/include/chsystypes.h"
 226              		.file 10 ".//ChibiOS//os/rt/include/chschd.h"
 227              		.file 11 ".//ChibiOS//os/ext/CMSIS/include/core_cm4.h"
 228              		.file 12 ".//ChibiOS//os/ext/CMSIS/ST/system_stm32f4xx.h"
ARM GAS  C:\Users\25521\AppData\Local\Temp\cciOXpea.s 			page 5


 229              		.file 13 ".//ChibiOS//os/ext/CMSIS/ST/stm32f407xx.h"
 230              		.file 14 ".//ChibiOS//os/rt/ports/ARMCMx/chcore.h"
 231              		.file 15 ".//ChibiOS//os/rt/ports/ARMCMx/chcore_v7m.h"
 232              		.file 16 ".//ChibiOS//os/rt/include/chdebug.h"
 233              		.file 17 ".//ChibiOS//os/rt/include/chtm.h"
 234              		.file 18 ".//ChibiOS//os/rt/include/chstats.h"
 235              		.file 19 ".//ChibiOS//os/rt/include/chsem.h"
 236              		.file 20 ".//ChibiOS//os/rt/include/chmtx.h"
 237              		.file 21 ".//ChibiOS//os/rt/include/chregistry.h"
 238              		.file 22 ".//ChibiOS//os/rt/include/chevents.h"
 239              		.file 23 ".//ChibiOS//os/rt/include/chqueues.h"
 240              		.file 24 ".//ChibiOS//os/hal/ports/STM32/LLD/DMAv2/stm32_dma.h"
 241              		.file 25 ".//ChibiOS//os/hal/include/hal_ioblock.h"
 242              		.file 26 ".//ChibiOS//os/hal/ports/STM32/LLD/GPIOv2/pal_lld.h"
 243              		.file 27 ".//ChibiOS//os/hal/include/adc.h"
 244              		.file 28 ".//ChibiOS//os/hal/ports/STM32/LLD/ADCv2/adc_lld.h"
 245              		.file 29 ".//ChibiOS//os/hal/include/can.h"
 246              		.file 30 ".//ChibiOS//os/hal/ports/STM32/LLD/CANv1/can_lld.h"
 247              		.file 31 ".//ChibiOS//os/hal/include/dac.h"
 248              		.file 32 ".//ChibiOS//os/hal/ports/STM32/LLD/DACv1/dac_lld.h"
 249              		.file 33 ".//ChibiOS//os/hal/include/ext.h"
 250              		.file 34 ".//ChibiOS//os/hal/ports/STM32/LLD/EXTIv1/ext_lld.h"
 251              		.file 35 ".//ChibiOS//os/hal/include/gpt.h"
 252              		.file 36 ".//ChibiOS//os/hal/ports/STM32/LLD/TIMv1/gpt_lld.h"
 253              		.file 37 ".//ChibiOS//os/hal/ports/STM32/LLD/TIMv1/stm32_tim.h"
 254              		.file 38 ".//ChibiOS//os/hal/include/i2c.h"
 255              		.file 39 ".//ChibiOS//os/hal/ports/STM32/LLD/I2Cv1/i2c_lld.h"
 256              		.file 40 ".//ChibiOS//os/hal/include/i2s.h"
 257              		.file 41 ".//ChibiOS//os/hal/ports/STM32/LLD/SPIv1/i2s_lld.h"
 258              		.file 42 ".//ChibiOS//os/hal/include/pwm.h"
 259              		.file 43 ".//ChibiOS//os/hal/ports/STM32/LLD/TIMv1/pwm_lld.h"
 260              		.file 44 ".//ChibiOS//os/hal/include/serial.h"
 261              		.file 45 ".//ChibiOS//os/hal/ports/STM32/LLD/USARTv1/serial_lld.h"
 262              		.file 46 ".//ChibiOS//os/hal/include/sdc.h"
 263              		.file 47 ".//ChibiOS//os/hal/ports/STM32/LLD/SDIOv1/sdc_lld.h"
 264              		.file 48 ".//ChibiOS//os/hal/include/spi.h"
 265              		.file 49 ".//ChibiOS//os/hal/ports/STM32/LLD/SPIv1/spi_lld.h"
 266              		.file 50 ".//ChibiOS//os/hal/include/usb.h"
 267              		.file 51 ".//ChibiOS//os/hal/ports/STM32/LLD/OTGv1/usb_lld.h"
 268              		.file 52 ".//ChibiOS//os/hal/ports/STM32/LLD/OTGv1/stm32_otg.h"
 269              		.file 53 ".//ChibiOS//os/hal/ports/common/ARMCMx/nvic.h"