ARM GAS  C:\Users\25521\AppData\Local\Temp\cchuEGrA.s 			page 1


   1              		.cpu cortex-m4
   2              		.eabi_attribute 27, 1
   3              		.eabi_attribute 28, 1
   4              		.eabi_attribute 20, 1
   5              		.eabi_attribute 21, 1
   6              		.eabi_attribute 23, 3
   7              		.eabi_attribute 24, 1
   8              		.eabi_attribute 25, 1
   9              		.eabi_attribute 26, 1
  10              		.eabi_attribute 30, 2
  11              		.eabi_attribute 34, 1
  12              		.eabi_attribute 18, 4
  13              		.file	"testpools.c"
  14              		.text
  15              	.Ltext0:
  16              		.cfi_sections	.debug_frame
  17              		.section	.text.null_provider,"ax",%progbits
  18              		.align	1
  19              		.p2align 4,,15
  20              		.syntax unified
  21              		.thumb
  22              		.thumb_func
  23              		.fpu fpv4-sp-d16
  24              		.type	null_provider, %function
  25              	null_provider:
  26              	.LFB230:
  27              		.file 1 ".//ChibiOS//test/rt/testpools.c"
  28              		.loc 1 60 0
  29              		.cfi_startproc
  30              		@ args = 0, pretend = 0, frame = 8
  31              		@ frame_needed = 0, uses_anonymous_args = 0
  32              	.LVL0:
  33 0000 00B5     		push	{lr}
  34              		.cfi_def_cfa_offset 4
  35              		.cfi_offset 14, -4
  36 0002 074B     		ldr	r3, .L6
  37 0004 83B0     		sub	sp, sp, #12
  38              		.cfi_def_cfa_offset 16
  39              		.loc 1 60 0
  40 0006 1A68     		ldr	r2, [r3]
  41 0008 0192     		str	r2, [sp, #4]
  42              		.loc 1 64 0
  43 000a 019A     		ldr	r2, [sp, #4]
  44 000c 1B68     		ldr	r3, [r3]
  45 000e 9A42     		cmp	r2, r3
  46 0010 03D1     		bne	.L5
  47 0012 0020     		movs	r0, #0
  48              	.LVL1:
  49 0014 03B0     		add	sp, sp, #12
  50              		.cfi_remember_state
  51              		.cfi_def_cfa_offset 4
  52              		@ sp needed
  53 0016 5DF804FB 		ldr	pc, [sp], #4
  54              	.LVL2:
  55              	.L5:
  56              		.cfi_restore_state
  57 001a FFF7FEFF 		bl	__stack_chk_fail
ARM GAS  C:\Users\25521\AppData\Local\Temp\cchuEGrA.s 			page 2


  58              	.LVL3:
  59              	.L7:
  60 001e 00BF     		.align	2
  61              	.L6:
  62 0020 00000000 		.word	__stack_chk_guard
  63              		.cfi_endproc
  64              	.LFE230:
  65              		.size	null_provider, .-null_provider
  66              		.section	.text.pools1_setup,"ax",%progbits
  67              		.align	1
  68              		.p2align 4,,15
  69              		.syntax unified
  70              		.thumb
  71              		.thumb_func
  72              		.fpu fpv4-sp-d16
  73              		.type	pools1_setup, %function
  74              	pools1_setup:
  75              	.LFB231:
  76              		.loc 1 66 0
  77              		.cfi_startproc
  78              		@ args = 0, pretend = 0, frame = 8
  79              		@ frame_needed = 0, uses_anonymous_args = 0
  80 0000 00B5     		push	{lr}
  81              		.cfi_def_cfa_offset 4
  82              		.cfi_offset 14, -4
  83 0002 094B     		ldr	r3, .L13
  84 0004 83B0     		sub	sp, sp, #12
  85              		.cfi_def_cfa_offset 16
  86              		.loc 1 66 0
  87 0006 1A68     		ldr	r2, [r3]
  88 0008 0192     		str	r2, [sp, #4]
  89              		.loc 1 68 0
  90 000a 019A     		ldr	r2, [sp, #4]
  91 000c 1B68     		ldr	r3, [r3]
  92 000e 9A42     		cmp	r2, r3
  93 0010 08D1     		bne	.L12
  94 0012 0648     		ldr	r0, .L13+4
  95 0014 0022     		movs	r2, #0
  96 0016 4FF4FC71 		mov	r1, #504
  97              		.loc 1 69 0
  98 001a 03B0     		add	sp, sp, #12
  99              		.cfi_remember_state
 100              		.cfi_def_cfa_offset 4
 101              		@ sp needed
 102 001c 5DF804EB 		ldr	lr, [sp], #4
 103              		.cfi_restore 14
 104              		.cfi_def_cfa_offset 0
 105              		.loc 1 68 0
 106 0020 FFF7FEBF 		b	chPoolObjectInit
 107              	.LVL4:
 108              	.L12:
 109              		.cfi_restore_state
 110 0024 FFF7FEFF 		bl	__stack_chk_fail
 111              	.LVL5:
 112              	.L14:
 113              		.align	2
 114              	.L13:
ARM GAS  C:\Users\25521\AppData\Local\Temp\cchuEGrA.s 			page 3


 115 0028 00000000 		.word	__stack_chk_guard
 116 002c 00000000 		.word	.LANCHOR0
 117              		.cfi_endproc
 118              	.LFE231:
 119              		.size	pools1_setup, .-pools1_setup
 120              		.section	.text.pools1_execute,"ax",%progbits
 121              		.align	1
 122              		.p2align 4,,15
 123              		.syntax unified
 124              		.thumb
 125              		.thumb_func
 126              		.fpu fpv4-sp-d16
 127              		.type	pools1_execute, %function
 128              	pools1_execute:
 129              	.LFB232:
 130              		.loc 1 71 0
 131              		.cfi_startproc
 132              		@ args = 0, pretend = 0, frame = 8
 133              		@ frame_needed = 0, uses_anonymous_args = 0
 134 0000 2DE9F041 		push	{r4, r5, r6, r7, r8, lr}
 135              		.cfi_def_cfa_offset 24
 136              		.cfi_offset 4, -24
 137              		.cfi_offset 5, -20
 138              		.cfi_offset 6, -16
 139              		.cfi_offset 7, -12
 140              		.cfi_offset 8, -8
 141              		.cfi_offset 14, -4
 142              		.loc 1 75 0
 143 0004 354B     		ldr	r3, .L31
 144              		.loc 1 71 0
 145 0006 364F     		ldr	r7, .L31+4
 146              		.loc 1 75 0
 147 0008 1D68     		ldr	r5, [r3]
 148 000a 3648     		ldr	r0, .L31+8
 149              		.loc 1 71 0
 150 000c 3B68     		ldr	r3, [r7]
 151              		.loc 1 79 0
 152 000e 354E     		ldr	r6, .L31+8
 153              		.loc 1 71 0
 154 0010 82B0     		sub	sp, sp, #8
 155              		.cfi_def_cfa_offset 32
 156              		.loc 1 75 0
 157 0012 2946     		mov	r1, r5
 158 0014 0522     		movs	r2, #5
 159              		.loc 1 71 0
 160 0016 0193     		str	r3, [sp, #4]
 161              		.loc 1 75 0
 162 0018 FFF7FEFF 		bl	chPoolLoadArray
 163              	.LVL6:
 164 001c 0524     		movs	r4, #5
 165              	.LVL7:
 166              	.L18:
 167              		.loc 1 79 0
 168 001e 3046     		mov	r0, r6
 169 0020 FFF7FEFF 		bl	chPoolAlloc
 170              	.LVL8:
 171 0024 011C     		adds	r1, r0, #0
ARM GAS  C:\Users\25521\AppData\Local\Temp\cchuEGrA.s 			page 4


 172 0026 18BF     		it	ne
 173 0028 0121     		movne	r1, #1
 174 002a 0120     		movs	r0, #1
 175 002c FFF7FEFF 		bl	_test_assert
 176              	.LVL9:
 177 0030 B0BB     		cbnz	r0, .L15
 178              	.LVL10:
 179              		.loc 1 78 0 discriminator 2
 180 0032 013C     		subs	r4, r4, #1
 181              	.LVL11:
 182 0034 F3D1     		bne	.L18
 183              		.loc 1 82 0
 184 0036 2B48     		ldr	r0, .L31+8
 185 0038 FFF7FEFF 		bl	chPoolAlloc
 186              	.LVL12:
 187 003c B0FA80F1 		clz	r1, r0
 188 0040 4909     		lsrs	r1, r1, #5
 189 0042 0220     		movs	r0, #2
 190 0044 FFF7FEFF 		bl	_test_assert
 191              	.LVL13:
 192 0048 50BB     		cbnz	r0, .L15
 193 004a 274C     		ldr	r4, .L31+12
 194              	.LVL14:
 195              	.LBB4:
 196              	.LBB5:
 197              		.loc 1 86 0
 198 004c DFF89480 		ldr	r8, .L31+8
 199 0050 04F11006 		add	r6, r4, #16
 200 0054 2946     		mov	r1, r5
 201 0056 4046     		mov	r0, r8
 202 0058 FFF7FEFF 		bl	chPoolFree
 203              	.LVL15:
 204              		.loc 1 85 0
 205 005c A642     		cmp	r6, r4
 206 005e 07D0     		beq	.L24
 207              	.L29:
 208 0060 54F8045B 		ldr	r5, [r4], #4
 209              		.loc 1 86 0
 210 0064 4046     		mov	r0, r8
 211 0066 2946     		mov	r1, r5
 212 0068 FFF7FEFF 		bl	chPoolFree
 213              	.LVL16:
 214              		.loc 1 85 0
 215 006c A642     		cmp	r6, r4
 216 006e F7D1     		bne	.L29
 217              	.L24:
 218              		.loc 1 90 0
 219 0070 1C4D     		ldr	r5, .L31+8
 220              		.loc 1 85 0
 221 0072 0524     		movs	r4, #5
 222              	.L20:
 223              	.LVL17:
 224              		.loc 1 90 0
 225 0074 2846     		mov	r0, r5
 226 0076 FFF7FEFF 		bl	chPoolAlloc
 227              	.LVL18:
 228 007a 011C     		adds	r1, r0, #0
ARM GAS  C:\Users\25521\AppData\Local\Temp\cchuEGrA.s 			page 5


 229 007c 18BF     		it	ne
 230 007e 0121     		movne	r1, #1
 231 0080 0320     		movs	r0, #3
 232 0082 FFF7FEFF 		bl	_test_assert
 233              	.LVL19:
 234 0086 58B9     		cbnz	r0, .L15
 235              	.LVL20:
 236              		.loc 1 89 0
 237 0088 013C     		subs	r4, r4, #1
 238              	.LVL21:
 239 008a F3D1     		bne	.L20
 240              		.loc 1 93 0
 241 008c 1548     		ldr	r0, .L31+8
 242 008e FFF7FEFF 		bl	chPoolAlloc
 243              	.LVL22:
 244 0092 B0FA80F1 		clz	r1, r0
 245 0096 4909     		lsrs	r1, r1, #5
 246 0098 0420     		movs	r0, #4
 247 009a FFF7FEFF 		bl	_test_assert
 248              	.LVL23:
 249 009e 30B1     		cbz	r0, .L30
 250              	.LVL24:
 251              	.L15:
 252              	.LBE5:
 253              	.LBE4:
 254              		.loc 1 98 0
 255 00a0 019A     		ldr	r2, [sp, #4]
 256 00a2 3B68     		ldr	r3, [r7]
 257 00a4 9A42     		cmp	r2, r3
 258 00a6 17D1     		bne	.L28
 259 00a8 02B0     		add	sp, sp, #8
 260              		.cfi_remember_state
 261              		.cfi_def_cfa_offset 24
 262              		@ sp needed
 263 00aa BDE8F081 		pop	{r4, r5, r6, r7, r8, pc}
 264              	.LVL25:
 265              	.L30:
 266              		.cfi_restore_state
 267              	.LBB8:
 268              	.LBB6:
 269              		.loc 1 96 0
 270 00ae 0F4A     		ldr	r2, .L31+16
 271 00b0 0C48     		ldr	r0, .L31+8
 272 00b2 1021     		movs	r1, #16
 273 00b4 FFF7FEFF 		bl	chPoolObjectInit
 274              	.LVL26:
 275              		.loc 1 97 0
 276 00b8 0A48     		ldr	r0, .L31+8
 277 00ba FFF7FEFF 		bl	chPoolAlloc
 278              	.LVL27:
 279 00be 019A     		ldr	r2, [sp, #4]
 280 00c0 3B68     		ldr	r3, [r7]
 281 00c2 9A42     		cmp	r2, r3
 282 00c4 08D1     		bne	.L28
 283 00c6 B0FA80F1 		clz	r1, r0
 284 00ca 4909     		lsrs	r1, r1, #5
 285 00cc 0520     		movs	r0, #5
ARM GAS  C:\Users\25521\AppData\Local\Temp\cchuEGrA.s 			page 6


 286              	.LBE6:
 287              	.LBE8:
 288              		.loc 1 98 0
 289 00ce 02B0     		add	sp, sp, #8
 290              		.cfi_remember_state
 291              		.cfi_def_cfa_offset 24
 292              		@ sp needed
 293 00d0 BDE8F041 		pop	{r4, r5, r6, r7, r8, lr}
 294              		.cfi_restore 14
 295              		.cfi_restore 8
 296              		.cfi_restore 7
 297              		.cfi_restore 6
 298              		.cfi_restore 5
 299              		.cfi_restore 4
 300              		.cfi_def_cfa_offset 0
 301              	.LVL28:
 302              	.LBB9:
 303              	.LBB7:
 304              		.loc 1 97 0
 305 00d4 FFF7FEBF 		b	_test_assert
 306              	.LVL29:
 307              	.L28:
 308              		.cfi_restore_state
 309              	.LBE7:
 310              	.LBE9:
 311              		.loc 1 98 0
 312 00d8 FFF7FEFF 		bl	__stack_chk_fail
 313              	.LVL30:
 314              	.L32:
 315              		.align	2
 316              	.L31:
 317 00dc 00000000 		.word	wa
 318 00e0 00000000 		.word	__stack_chk_guard
 319 00e4 00000000 		.word	.LANCHOR0
 320 00e8 04000000 		.word	wa+4
 321 00ec 00000000 		.word	null_provider
 322              		.cfi_endproc
 323              	.LFE232:
 324              		.size	pools1_execute, .-pools1_execute
 325              		.global	patternpools
 326              		.global	testpools1
 327              		.section	.data.mp1,"aw",%progbits
 328              		.align	2
 329              		.set	.LANCHOR0,. + 0
 330              		.type	mp1, %object
 331              		.size	mp1, 12
 332              	mp1:
 333 0000 00000000 		.word	0
 334 0004 F8010000 		.word	504
 335 0008 00000000 		.word	0
 336              		.section	.rodata.patternpools,"a",%progbits
 337              		.align	2
 338              		.type	patternpools, %object
 339              		.size	patternpools, 8
 340              	patternpools:
 341 0000 00000000 		.word	testpools1
 342 0004 00000000 		.word	0
ARM GAS  C:\Users\25521\AppData\Local\Temp\cchuEGrA.s 			page 7


 343              		.section	.rodata.str1.4,"aMS",%progbits,1
 344              		.align	2
 345              	.LC0:
 346 0000 4D656D6F 		.ascii	"Memory Pools, queue/dequeue\000"
 346      72792050 
 346      6F6F6C73 
 346      2C207175 
 346      6575652F 
 347              		.section	.rodata.testpools1,"a",%progbits
 348              		.align	2
 349              		.type	testpools1, %object
 350              		.size	testpools1, 16
 351              	testpools1:
 352 0000 00000000 		.word	.LC0
 353 0004 00000000 		.word	pools1_setup
 354 0008 00000000 		.word	0
 355 000c 00000000 		.word	pools1_execute
 356              		.text
 357              	.Letext0:
 358              		.file 2 "d:\\eclipse_e-puck2_win32_11_apr_2018\\eclipse_e-puck2\\tools\\gcc-arm-none-eabi-7-2017-q
 359              		.file 3 "d:\\eclipse_e-puck2_win32_11_apr_2018\\eclipse_e-puck2\\tools\\gcc-arm-none-eabi-7-2017-q
 360              		.file 4 "d:\\eclipse_e-puck2_win32_11_apr_2018\\eclipse_e-puck2\\tools\\gcc-arm-none-eabi-7-2017-q
 361              		.file 5 ".//ChibiOS//os/rt/ports/ARMCMx/compilers/GCC/chtypes.h"
 362              		.file 6 ".//ChibiOS//os/rt/include/chsystypes.h"
 363              		.file 7 ".//ChibiOS//os/rt/include/chschd.h"
 364              		.file 8 ".//ChibiOS//os/ext/CMSIS/include/core_cm4.h"
 365              		.file 9 ".//ChibiOS//os/ext/CMSIS/ST/system_stm32f4xx.h"
 366              		.file 10 ".//ChibiOS//os/rt/ports/ARMCMx/chcore.h"
 367              		.file 11 ".//ChibiOS//os/rt/ports/ARMCMx/chcore_v7m.h"
 368              		.file 12 ".//ChibiOS//os/rt/include/chdebug.h"
 369              		.file 13 ".//ChibiOS//os/rt/include/chtm.h"
 370              		.file 14 ".//ChibiOS//os/rt/include/chstats.h"
 371              		.file 15 ".//ChibiOS//os/rt/include/chsem.h"
 372              		.file 16 ".//ChibiOS//os/rt/include/chmtx.h"
 373              		.file 17 ".//ChibiOS//os/rt/include/chregistry.h"
 374              		.file 18 ".//ChibiOS//os/rt/include/chmemcore.h"
 375              		.file 19 ".//ChibiOS//os/rt/include/chmempools.h"
 376              		.file 20 ".//ChibiOS//test/rt/test.h"