ARM GAS  C:\Users\25521\AppData\Local\Temp\ccwZgtQd.s 			page 1


   1              		.cpu cortex-m4
   2              		.eabi_attribute 27, 1
   3              		.eabi_attribute 28, 1
   4              		.eabi_attribute 20, 1
   5              		.eabi_attribute 21, 1
   6              		.eabi_attribute 23, 3
   7              		.eabi_attribute 24, 1
   8              		.eabi_attribute 25, 1
   9              		.eabi_attribute 26, 1
  10              		.eabi_attribute 30, 2
  11              		.eabi_attribute 34, 1
  12              		.eabi_attribute 18, 4
  13              		.file	"testsys.c"
  14              		.text
  15              	.Ltext0:
  16              		.cfi_sections	.debug_frame
  17              		.section	.text.vtcb,"ax",%progbits
  18              		.align	1
  19              		.p2align 4,,15
  20              		.syntax unified
  21              		.thumb
  22              		.thumb_func
  23              		.fpu fpv4-sp-d16
  24              		.type	vtcb, %function
  25              	vtcb:
  26              	.LFB230:
  27              		.file 1 ".//ChibiOS//test/rt/testsys.c"
  28              		.loc 1 52 0
  29              		.cfi_startproc
  30              		@ args = 0, pretend = 0, frame = 8
  31              		@ frame_needed = 0, uses_anonymous_args = 0
  32              	.LVL0:
  33 0000 70B5     		push	{r4, r5, r6, lr}
  34              		.cfi_def_cfa_offset 16
  35              		.cfi_offset 4, -16
  36              		.cfi_offset 5, -12
  37              		.cfi_offset 6, -8
  38              		.cfi_offset 14, -4
  39 0002 154C     		ldr	r4, .L6
  40 0004 82B0     		sub	sp, sp, #8
  41              		.cfi_def_cfa_offset 24
  42              		.loc 1 52 0
  43 0006 2368     		ldr	r3, [r4]
  44 0008 0193     		str	r3, [sp, #4]
  45              	.LVL1:
  46              	.LBB241:
  47              	.LBB242:
  48              	.LBB243:
  49              	.LBB244:
  50              	.LBB245:
  51              	.LBB246:
  52              		.file 2 ".//ChibiOS//os/ext/CMSIS/include/core_cmFunc.h"
  53              		.loc 2 548 0
  54 000a 2026     		movs	r6, #32
  55              		.syntax unified
  56              	@ 548 ".//ChibiOS//os/ext/CMSIS/include/core_cmFunc.h" 1
  57 000c 86F31188 		MSR basepri, r6
ARM GAS  C:\Users\25521\AppData\Local\Temp\ccwZgtQd.s 			page 2


  58              	@ 0 "" 2
  59              	.LVL2:
  60              		.thumb
  61              		.syntax unified
  62              	.LBE246:
  63              	.LBE245:
  64              	.LBE244:
  65              	.LBE243:
  66              		.file 3 ".//ChibiOS//os/rt/include/chsys.h"
  67              		.loc 3 389 0
  68 0010 FFF7FEFF 		bl	_stats_start_measure_crit_isr
  69              	.LVL3:
  70              	.LBE242:
  71              	.LBE241:
  72              	.LBB248:
  73              	.LBB249:
  74              	.LBB250:
  75              	.LBB251:
  76              	.LBB252:
  77              	.LBB253:
  78              		.loc 2 548 0
  79 0014 0025     		movs	r5, #0
  80              	.LBE253:
  81              	.LBE252:
  82              	.LBE251:
  83              	.LBE250:
  84              	.LBE249:
  85              	.LBE248:
  86              	.LBB259:
  87              	.LBB247:
  88              		.loc 3 390 0
  89 0016 FFF7FEFF 		bl	_dbg_check_lock_from_isr
  90              	.LVL4:
  91              	.LBE247:
  92              	.LBE259:
  93              	.LBB260:
  94              	.LBB258:
  95              		.loc 3 408 0
  96 001a FFF7FEFF 		bl	_dbg_check_unlock_from_isr
  97              	.LVL5:
  98              		.loc 3 409 0
  99 001e FFF7FEFF 		bl	_stats_stop_measure_crit_isr
 100              	.LVL6:
 101              	.LBB257:
 102              	.LBB256:
 103              	.LBB255:
 104              	.LBB254:
 105              		.loc 2 548 0
 106              		.syntax unified
 107              	@ 548 ".//ChibiOS//os/ext/CMSIS/include/core_cmFunc.h" 1
 108 0022 85F31188 		MSR basepri, r5
 109              	@ 0 "" 2
 110              	.LVL7:
 111              		.thumb
 112              		.syntax unified
 113              	.LBE254:
 114              	.LBE255:
ARM GAS  C:\Users\25521\AppData\Local\Temp\ccwZgtQd.s 			page 3


 115              	.LBE256:
 116              	.LBE257:
 117              	.LBE258:
 118              	.LBE260:
 119              	.LBB261:
 120              	.LBB262:
 121              	.LBB263:
 122              	.LBB264:
 123              	.LBB265:
 124              	.LBB266:
 125              		.syntax unified
 126              	@ 548 ".//ChibiOS//os/ext/CMSIS/include/core_cmFunc.h" 1
 127 0026 86F31188 		MSR basepri, r6
 128              	@ 0 "" 2
 129              	.LVL8:
 130              		.thumb
 131              		.syntax unified
 132              	.LBE266:
 133              	.LBE265:
 134              	.LBE264:
 135              	.LBE263:
 136              		.loc 3 389 0
 137 002a FFF7FEFF 		bl	_stats_start_measure_crit_isr
 138              	.LVL9:
 139              		.loc 3 390 0
 140 002e FFF7FEFF 		bl	_dbg_check_lock_from_isr
 141              	.LVL10:
 142              	.LBE262:
 143              	.LBE261:
 144              		.loc 1 63 0
 145 0032 FFF7FEFF 		bl	chSysGetStatusAndLockX
 146              	.LVL11:
 147              		.loc 1 64 0
 148 0036 FFF7FEFF 		bl	chSysRestoreStatusX
 149              	.LVL12:
 150              	.LBB267:
 151              	.LBB268:
 152              		.loc 3 408 0
 153 003a FFF7FEFF 		bl	_dbg_check_unlock_from_isr
 154              	.LVL13:
 155              		.loc 3 409 0
 156 003e FFF7FEFF 		bl	_stats_stop_measure_crit_isr
 157              	.LVL14:
 158              	.LBB269:
 159              	.LBB270:
 160              	.LBB271:
 161              	.LBB272:
 162              		.loc 2 548 0
 163              		.syntax unified
 164              	@ 548 ".//ChibiOS//os/ext/CMSIS/include/core_cmFunc.h" 1
 165 0042 85F31188 		MSR basepri, r5
 166              	@ 0 "" 2
 167              	.LVL15:
 168              		.thumb
 169              		.syntax unified
 170              	.LBE272:
 171              	.LBE271:
ARM GAS  C:\Users\25521\AppData\Local\Temp\ccwZgtQd.s 			page 4


 172              	.LBE270:
 173              	.LBE269:
 174              	.LBE268:
 175              	.LBE267:
 176              		.loc 1 66 0
 177 0046 019A     		ldr	r2, [sp, #4]
 178 0048 2368     		ldr	r3, [r4]
 179 004a 9A42     		cmp	r2, r3
 180 004c 01D1     		bne	.L5
 181 004e 02B0     		add	sp, sp, #8
 182              		.cfi_remember_state
 183              		.cfi_def_cfa_offset 16
 184              		@ sp needed
 185 0050 70BD     		pop	{r4, r5, r6, pc}
 186              	.L5:
 187              		.cfi_restore_state
 188 0052 FFF7FEFF 		bl	__stack_chk_fail
 189              	.LVL16:
 190              	.L7:
 191 0056 00BF     		.align	2
 192              	.L6:
 193 0058 00000000 		.word	__stack_chk_guard
 194              		.cfi_endproc
 195              	.LFE230:
 196              		.size	vtcb, .-vtcb
 197              		.section	.text.sys2_execute,"ax",%progbits
 198              		.align	1
 199              		.p2align 4,,15
 200              		.syntax unified
 201              		.thumb
 202              		.thumb_func
 203              		.fpu fpv4-sp-d16
 204              		.type	sys2_execute, %function
 205              	sys2_execute:
 206              	.LFB232:
 207              		.loc 1 114 0
 208              		.cfi_startproc
 209              		@ args = 0, pretend = 0, frame = 8
 210              		@ frame_needed = 0, uses_anonymous_args = 0
 211 0000 30B5     		push	{r4, r5, lr}
 212              		.cfi_def_cfa_offset 12
 213              		.cfi_offset 4, -12
 214              		.cfi_offset 5, -8
 215              		.cfi_offset 14, -4
 216 0002 104C     		ldr	r4, .L12
 217 0004 83B0     		sub	sp, sp, #12
 218              		.cfi_def_cfa_offset 24
 219              		.loc 1 114 0
 220 0006 2368     		ldr	r3, [r4]
 221 0008 0193     		str	r3, [sp, #4]
 222              	.LVL17:
 223              	.LBB273:
 224              	.LBB274:
 225              	.LBB275:
 226              	.LBB276:
 227              	.LBB277:
 228              		.loc 2 548 0
ARM GAS  C:\Users\25521\AppData\Local\Temp\ccwZgtQd.s 			page 5


 229 000a 2025     		movs	r5, #32
 230              		.syntax unified
 231              	@ 548 ".//ChibiOS//os/ext/CMSIS/include/core_cmFunc.h" 1
 232 000c 85F31188 		MSR basepri, r5
 233              	@ 0 "" 2
 234              	.LVL18:
 235              		.thumb
 236              		.syntax unified
 237              	.LBE277:
 238              	.LBE276:
 239              	.LBB278:
 240              	.LBB279:
 241              		.loc 2 333 0
 242              		.syntax unified
 243              	@ 333 ".//ChibiOS//os/ext/CMSIS/include/core_cmFunc.h" 1
 244 0010 62B6     		cpsie i
 245              	@ 0 "" 2
 246              		.thumb
 247              		.syntax unified
 248              	.LBE279:
 249              	.LBE278:
 250              	.LBE275:
 251              		.loc 3 323 0
 252 0012 FFF7FEFF 		bl	_dbg_check_suspend
 253              	.LVL19:
 254              	.LBE274:
 255              	.LBE273:
 256              	.LBB280:
 257              	.LBB281:
 258              	.LBB282:
 259              	.LBB283:
 260              	.LBB284:
 261              		.loc 2 344 0
 262              		.syntax unified
 263              	@ 344 ".//ChibiOS//os/ext/CMSIS/include/core_cmFunc.h" 1
 264 0016 72B6     		cpsid i
 265              	@ 0 "" 2
 266              		.thumb
 267              		.syntax unified
 268              	.LBE284:
 269              	.LBE283:
 270              	.LBE282:
 271              		.loc 3 306 0
 272 0018 FFF7FEFF 		bl	_dbg_check_disable
 273              	.LVL20:
 274              	.LBE281:
 275              	.LBE280:
 276              	.LBB285:
 277              	.LBB286:
 278              	.LBB287:
 279              	.LBB288:
 280              	.LBB289:
 281              		.loc 2 548 0
 282              		.syntax unified
 283              	@ 548 ".//ChibiOS//os/ext/CMSIS/include/core_cmFunc.h" 1
 284 001c 85F31188 		MSR basepri, r5
 285              	@ 0 "" 2
ARM GAS  C:\Users\25521\AppData\Local\Temp\ccwZgtQd.s 			page 6


 286              	.LVL21:
 287              		.thumb
 288              		.syntax unified
 289              	.LBE289:
 290              	.LBE288:
 291              	.LBB290:
 292              	.LBB291:
 293              		.loc 2 333 0
 294              		.syntax unified
 295              	@ 333 ".//ChibiOS//os/ext/CMSIS/include/core_cmFunc.h" 1
 296 0020 62B6     		cpsie i
 297              	@ 0 "" 2
 298              		.thumb
 299              		.syntax unified
 300              	.LBE291:
 301              	.LBE290:
 302              	.LBE287:
 303              		.loc 3 323 0
 304 0022 FFF7FEFF 		bl	_dbg_check_suspend
 305              	.LVL22:
 306              	.LBE286:
 307              	.LBE285:
 308              	.LBB292:
 309              	.LBB293:
 310              		.loc 3 337 0
 311 0026 FFF7FEFF 		bl	_dbg_check_enable
 312              	.LVL23:
 313              	.LBB294:
 314              	.LBB295:
 315              	.LBB296:
 316              		.loc 2 548 0
 317 002a 0023     		movs	r3, #0
 318              		.syntax unified
 319              	@ 548 ".//ChibiOS//os/ext/CMSIS/include/core_cmFunc.h" 1
 320 002c 83F31188 		MSR basepri, r3
 321              	@ 0 "" 2
 322              	.LVL24:
 323              		.thumb
 324              		.syntax unified
 325              	.LBE296:
 326              	.LBE295:
 327              	.LBB297:
 328              	.LBB298:
 329              		.loc 2 333 0
 330              		.syntax unified
 331              	@ 333 ".//ChibiOS//os/ext/CMSIS/include/core_cmFunc.h" 1
 332 0030 62B6     		cpsie i
 333              	@ 0 "" 2
 334              		.thumb
 335              		.syntax unified
 336              	.LBE298:
 337              	.LBE297:
 338              	.LBE294:
 339              	.LBE293:
 340              	.LBE292:
 341              		.loc 1 120 0
 342 0032 019A     		ldr	r2, [sp, #4]
ARM GAS  C:\Users\25521\AppData\Local\Temp\ccwZgtQd.s 			page 7


 343 0034 2368     		ldr	r3, [r4]
 344 0036 9A42     		cmp	r2, r3
 345 0038 01D1     		bne	.L11
 346 003a 03B0     		add	sp, sp, #12
 347              		.cfi_remember_state
 348              		.cfi_def_cfa_offset 12
 349              		@ sp needed
 350 003c 30BD     		pop	{r4, r5, pc}
 351              	.L11:
 352              		.cfi_restore_state
 353 003e FFF7FEFF 		bl	__stack_chk_fail
 354              	.LVL25:
 355              	.L13:
 356 0042 00BF     		.align	2
 357              	.L12:
 358 0044 00000000 		.word	__stack_chk_guard
 359              		.cfi_endproc
 360              	.LFE232:
 361              		.size	sys2_execute, .-sys2_execute
 362              		.section	.text.sys1_execute,"ax",%progbits
 363              		.align	1
 364              		.p2align 4,,15
 365              		.syntax unified
 366              		.thumb
 367              		.thumb_func
 368              		.fpu fpv4-sp-d16
 369              		.type	sys1_execute, %function
 370              	sys1_execute:
 371              	.LFB231:
 372              		.loc 1 68 0
 373              		.cfi_startproc
 374              		@ args = 0, pretend = 0, frame = 24
 375              		@ frame_needed = 0, uses_anonymous_args = 0
 376 0000 70B5     		push	{r4, r5, r6, lr}
 377              		.cfi_def_cfa_offset 16
 378              		.cfi_offset 4, -16
 379              		.cfi_offset 5, -12
 380              		.cfi_offset 6, -8
 381              		.cfi_offset 14, -4
 382 0002 784D     		ldr	r5, .L48
 383 0004 86B0     		sub	sp, sp, #24
 384              		.cfi_def_cfa_offset 40
 385              		.loc 1 68 0
 386 0006 2B68     		ldr	r3, [r5]
 387 0008 0593     		str	r3, [sp, #20]
 388              		.loc 1 73 0
 389 000a FFF7FEFF 		bl	chSysGetStatusAndLockX
 390              	.LVL26:
 391              		.loc 1 74 0
 392 000e FFF7FEFF 		bl	chSysRestoreStatusX
 393              	.LVL27:
 394              	.LBB413:
 395              	.LBB414:
 396              	.LBB415:
 397              	.LBB416:
 398              	.LBB417:
 399              		.loc 2 548 0
ARM GAS  C:\Users\25521\AppData\Local\Temp\ccwZgtQd.s 			page 8


 400 0012 2023     		movs	r3, #32
 401              		.syntax unified
 402              	@ 548 ".//ChibiOS//os/ext/CMSIS/include/core_cmFunc.h" 1
 403 0014 83F31188 		MSR basepri, r3
 404              	@ 0 "" 2
 405              	.LVL28:
 406              		.thumb
 407              		.syntax unified
 408              	.LBE417:
 409              	.LBE416:
 410              	.LBE415:
 411              	.LBE414:
 412              	.LBE413:
 413              	.LBB419:
 414              	.LBB420:
 415              		.loc 3 367 0
 416 0018 734C     		ldr	r4, .L48+4
 417              	.LBE420:
 418              	.LBE419:
 419              	.LBB429:
 420              	.LBB418:
 421              		.loc 3 349 0
 422 001a FFF7FEFF 		bl	_stats_start_measure_crit_thd
 423              	.LVL29:
 424              		.loc 3 350 0
 425 001e FFF7FEFF 		bl	_dbg_check_lock
 426              	.LVL30:
 427              	.LBE418:
 428              	.LBE429:
 429              		.loc 1 78 0
 430 0022 FFF7FEFF 		bl	chSysGetStatusAndLockX
 431              	.LVL31:
 432              		.loc 1 79 0
 433 0026 FFF7FEFF 		bl	chSysRestoreStatusX
 434              	.LVL32:
 435              	.LBB430:
 436              	.LBB427:
 437              		.loc 3 360 0
 438 002a FFF7FEFF 		bl	_dbg_check_unlock
 439              	.LVL33:
 440              		.loc 3 361 0
 441 002e FFF7FEFF 		bl	_stats_stop_measure_crit_thd
 442              	.LVL34:
 443              		.loc 3 367 0
 444 0032 2368     		ldr	r3, [r4]
 445 0034 A342     		cmp	r3, r4
 446 0036 05D0     		beq	.L15
 447 0038 A269     		ldr	r2, [r4, #24]
 448 003a 9B68     		ldr	r3, [r3, #8]
 449 003c 9268     		ldr	r2, [r2, #8]
 450 003e 9A42     		cmp	r2, r3
 451 0040 C0F08680 		bcc	.L37
 452              	.L15:
 453              	.LVL35:
 454              	.LBB421:
 455              	.LBB422:
 456              	.LBB423:
ARM GAS  C:\Users\25521\AppData\Local\Temp\ccwZgtQd.s 			page 9


 457              		.loc 2 548 0
 458 0044 0023     		movs	r3, #0
 459              		.syntax unified
 460              	@ 548 ".//ChibiOS//os/ext/CMSIS/include/core_cmFunc.h" 1
 461 0046 83F31188 		MSR basepri, r3
 462              	@ 0 "" 2
 463              	.LVL36:
 464              		.thumb
 465              		.syntax unified
 466              	.LBE423:
 467              	.LBE422:
 468              	.LBE421:
 469              	.LBE427:
 470              	.LBE430:
 471              	.LBB431:
 472              	.LBB432:
 473              	.LBB433:
 474              	.LBB434:
 475              	.LBB435:
 476              	.LBB436:
 477              		.loc 2 535 0
 478              		.syntax unified
 479              	@ 535 ".//ChibiOS//os/ext/CMSIS/include/core_cmFunc.h" 1
 480 004a EFF31183 		MRS r3, basepri
 481              	@ 0 "" 2
 482              		.thumb
 483              		.syntax unified
 484              	.LBE436:
 485              	.LBE435:
 486              	.LBE434:
 487              	.LBE433:
 488              		.loc 3 422 0
 489 004e 002B     		cmp	r3, #0
 490 0050 00F08980 		beq	.L38
 491              	.L16:
 492              	.LBE432:
 493              	.LBE431:
 494              	.LBB447:
 495              	.LBB448:
 496              	.LBB449:
 497              	.LBB450:
 498              	.LBB451:
 499              	.LBB452:
 500              		.loc 2 535 0
 501              		.syntax unified
 502              	@ 535 ".//ChibiOS//os/ext/CMSIS/include/core_cmFunc.h" 1
 503 0054 EFF31183 		MRS r3, basepri
 504              	@ 0 "" 2
 505              		.thumb
 506              		.syntax unified
 507              	.LBE452:
 508              	.LBE451:
 509              	.LBE450:
 510              	.LBE449:
 511              		.loc 3 422 0
 512 0058 002B     		cmp	r3, #0
 513 005a 00F09080 		beq	.L39
ARM GAS  C:\Users\25521\AppData\Local\Temp\ccwZgtQd.s 			page 10


 514              	.L17:
 515              	.LBE448:
 516              	.LBE447:
 517              	.LBB463:
 518              	.LBB464:
 519              		.loc 3 360 0
 520 005e FFF7FEFF 		bl	_dbg_check_unlock
 521              	.LVL37:
 522              		.loc 3 361 0
 523 0062 FFF7FEFF 		bl	_stats_stop_measure_crit_thd
 524              	.LVL38:
 525              		.loc 3 367 0
 526 0066 2368     		ldr	r3, [r4]
 527 0068 A342     		cmp	r3, r4
 528 006a 04D0     		beq	.L18
 529 006c A269     		ldr	r2, [r4, #24]
 530 006e 9B68     		ldr	r3, [r3, #8]
 531 0070 9268     		ldr	r2, [r2, #8]
 532 0072 9A42     		cmp	r2, r3
 533 0074 68D3     		bcc	.L40
 534              	.L18:
 535              	.LVL39:
 536              	.LBB465:
 537              	.LBB466:
 538              	.LBB467:
 539              		.loc 2 548 0
 540 0076 0023     		movs	r3, #0
 541              		.syntax unified
 542              	@ 548 ".//ChibiOS//os/ext/CMSIS/include/core_cmFunc.h" 1
 543 0078 83F31188 		MSR basepri, r3
 544              	@ 0 "" 2
 545              	.LVL40:
 546              		.thumb
 547              		.syntax unified
 548              	.LBE467:
 549              	.LBE466:
 550              	.LBE465:
 551              	.LBE464:
 552              	.LBE463:
 553              	.LBB469:
 554              	.LBB470:
 555              	.LBB471:
 556              	.LBB472:
 557              	.LBB473:
 558 007c 2023     		movs	r3, #32
 559              		.syntax unified
 560              	@ 548 ".//ChibiOS//os/ext/CMSIS/include/core_cmFunc.h" 1
 561 007e 83F31188 		MSR basepri, r3
 562              	@ 0 "" 2
 563              	.LVL41:
 564              		.thumb
 565              		.syntax unified
 566              	.LBE473:
 567              	.LBE472:
 568              	.LBE471:
 569              		.loc 3 349 0
 570 0082 FFF7FEFF 		bl	_stats_start_measure_crit_thd
ARM GAS  C:\Users\25521\AppData\Local\Temp\ccwZgtQd.s 			page 11


 571              	.LVL42:
 572              		.loc 3 350 0
 573 0086 FFF7FEFF 		bl	_dbg_check_lock
 574              	.LVL43:
 575              	.LBE470:
 576              	.LBE469:
 577              	.LBB474:
 578              	.LBB475:
 579              	.LBB476:
 580              	.LBB477:
 581              	.LBB478:
 582              	.LBB479:
 583              		.loc 2 535 0
 584              		.syntax unified
 585              	@ 535 ".//ChibiOS//os/ext/CMSIS/include/core_cmFunc.h" 1
 586 008a EFF31183 		MRS r3, basepri
 587              	@ 0 "" 2
 588              		.thumb
 589              		.syntax unified
 590              	.LBE479:
 591              	.LBE478:
 592              	.LBE477:
 593              	.LBE476:
 594              		.loc 3 436 0
 595 008e 002B     		cmp	r3, #0
 596 0090 40F08D80 		bne	.L41
 597              	.L19:
 598              	.LBE475:
 599              	.LBE474:
 600              	.LBB489:
 601              	.LBB490:
 602              	.LBB491:
 603              	.LBB492:
 604              	.LBB493:
 605              	.LBB494:
 606              		.loc 2 535 0
 607              		.syntax unified
 608              	@ 535 ".//ChibiOS//os/ext/CMSIS/include/core_cmFunc.h" 1
 609 0094 EFF31183 		MRS r3, basepri
 610              	@ 0 "" 2
 611              		.thumb
 612              		.syntax unified
 613              	.LBE494:
 614              	.LBE493:
 615              	.LBE492:
 616              	.LBE491:
 617              		.loc 3 436 0
 618 0098 002B     		cmp	r3, #0
 619 009a 78D1     		bne	.L42
 620              	.L21:
 621              	.LVL44:
 622              	.LBE490:
 623              	.LBE489:
 624              	.LBB504:
 625              	.LBB505:
 626              		.file 4 ".//ChibiOS//os/rt/include/chvt.h"
 627              		.loc 4 210 0
ARM GAS  C:\Users\25521\AppData\Local\Temp\ccwZgtQd.s 			page 12


 628 009c 0023     		movs	r3, #0
 629 009e 0393     		str	r3, [sp, #12]
 630              	.LVL45:
 631              	.LBE505:
 632              	.LBE504:
 633              	.LBB506:
 634              	.LBB507:
 635              	.LBB508:
 636              	.LBB509:
 637              	.LBB510:
 638              	.LBB511:
 639              		.loc 2 548 0
 640 00a0 2023     		movs	r3, #32
 641              		.syntax unified
 642              	@ 548 ".//ChibiOS//os/ext/CMSIS/include/core_cmFunc.h" 1
 643 00a2 83F31188 		MSR basepri, r3
 644              	@ 0 "" 2
 645              	.LVL46:
 646              		.thumb
 647              		.syntax unified
 648              	.LBE511:
 649              	.LBE510:
 650              	.LBE509:
 651              		.loc 3 349 0
 652 00a6 FFF7FEFF 		bl	_stats_start_measure_crit_thd
 653              	.LVL47:
 654              		.loc 3 350 0
 655 00aa FFF7FEFF 		bl	_dbg_check_lock
 656              	.LVL48:
 657              	.LBE508:
 658              	.LBE507:
 659              	.LBB512:
 660              	.LBB513:
 661              	.LBB514:
 662              	.LBB515:
 663              	.LBB516:
 664              	.LBB517:
 665              		.loc 4 337 0
 666 00ae FFF7FEFF 		bl	chDbgCheckClassI
 667              	.LVL49:
 668              	.LBE517:
 669              	.LBE516:
 670              		.loc 4 374 0
 671 00b2 039B     		ldr	r3, [sp, #12]
 672              		.loc 4 375 0
 673 00b4 6E46     		mov	r6, sp
 674              		.loc 4 374 0
 675 00b6 13B1     		cbz	r3, .L23
 676              		.loc 4 375 0
 677 00b8 3046     		mov	r0, r6
 678 00ba FFF7FEFF 		bl	chVTDoResetI
 679              	.LVL50:
 680              	.L23:
 681              	.LBE515:
 682              	.LBE514:
 683              		.loc 4 422 0
 684 00be 0023     		movs	r3, #0
ARM GAS  C:\Users\25521\AppData\Local\Temp\ccwZgtQd.s 			page 13


 685 00c0 3046     		mov	r0, r6
 686 00c2 4A4A     		ldr	r2, .L48+8
 687 00c4 0121     		movs	r1, #1
 688 00c6 FFF7FEFF 		bl	chVTDoSetI
 689              	.LVL51:
 690              	.LBE513:
 691              	.LBE512:
 692              	.LBB518:
 693              	.LBB519:
 694              		.loc 3 360 0
 695 00ca FFF7FEFF 		bl	_dbg_check_unlock
 696              	.LVL52:
 697              		.loc 3 361 0
 698 00ce FFF7FEFF 		bl	_stats_stop_measure_crit_thd
 699              	.LVL53:
 700              		.loc 3 367 0
 701 00d2 2368     		ldr	r3, [r4]
 702 00d4 A342     		cmp	r3, r4
 703 00d6 04D0     		beq	.L24
 704 00d8 A269     		ldr	r2, [r4, #24]
 705 00da 9B68     		ldr	r3, [r3, #8]
 706 00dc 9268     		ldr	r2, [r2, #8]
 707 00de 9A42     		cmp	r2, r3
 708 00e0 2ED3     		bcc	.L43
 709              	.L24:
 710              	.LVL54:
 711              	.LBB520:
 712              	.LBB521:
 713              	.LBB522:
 714              		.loc 2 548 0
 715 00e2 0023     		movs	r3, #0
 716              		.syntax unified
 717              	@ 548 ".//ChibiOS//os/ext/CMSIS/include/core_cmFunc.h" 1
 718 00e4 83F31188 		MSR basepri, r3
 719              	@ 0 "" 2
 720              	.LVL55:
 721              		.thumb
 722              		.syntax unified
 723              	.LBE522:
 724              	.LBE521:
 725              	.LBE520:
 726              	.LBE519:
 727              	.LBE518:
 728              	.LBE506:
 729              		.loc 1 95 0
 730 00e8 0A20     		movs	r0, #10
 731 00ea FFF7FEFF 		bl	chThdSleep
 732              	.LVL56:
 733              	.LBB525:
 734              	.LBB526:
 735              	.LBB527:
 736              	.LBB528:
 737              	.LBB529:
 738              	.LBB530:
 739              	.LBB531:
 740              		.loc 2 548 0
 741 00ee 2023     		movs	r3, #32
ARM GAS  C:\Users\25521\AppData\Local\Temp\ccwZgtQd.s 			page 14


 742              		.syntax unified
 743              	@ 548 ".//ChibiOS//os/ext/CMSIS/include/core_cmFunc.h" 1
 744 00f0 83F31188 		MSR basepri, r3
 745              	@ 0 "" 2
 746              	.LVL57:
 747              		.thumb
 748              		.syntax unified
 749              	.LBE531:
 750              	.LBE530:
 751              	.LBE529:
 752              		.loc 3 349 0
 753 00f4 FFF7FEFF 		bl	_stats_start_measure_crit_thd
 754              	.LVL58:
 755              		.loc 3 350 0
 756 00f8 FFF7FEFF 		bl	_dbg_check_lock
 757              	.LVL59:
 758              	.LBE528:
 759              	.LBE527:
 760              	.LBB532:
 761              	.LBB533:
 762              		.loc 4 337 0
 763 00fc FFF7FEFF 		bl	chDbgCheckClassI
 764              	.LVL60:
 765              		.loc 4 339 0
 766 0100 039E     		ldr	r6, [sp, #12]
 767              	.LBE533:
 768              	.LBE532:
 769              	.LBB534:
 770              	.LBB535:
 771              		.loc 3 360 0
 772 0102 FFF7FEFF 		bl	_dbg_check_unlock
 773              	.LVL61:
 774              		.loc 3 361 0
 775 0106 FFF7FEFF 		bl	_stats_stop_measure_crit_thd
 776              	.LVL62:
 777              		.loc 3 367 0
 778 010a 2368     		ldr	r3, [r4]
 779 010c A342     		cmp	r3, r4
 780 010e 04D0     		beq	.L25
 781 0110 A269     		ldr	r2, [r4, #24]
 782 0112 9B68     		ldr	r3, [r3, #8]
 783 0114 9268     		ldr	r2, [r2, #8]
 784 0116 9A42     		cmp	r2, r3
 785 0118 0ED3     		bcc	.L44
 786              	.L25:
 787              	.LVL63:
 788              	.LBB536:
 789              	.LBB537:
 790              	.LBB538:
 791              		.loc 2 548 0
 792 011a 0023     		movs	r3, #0
 793              		.syntax unified
 794              	@ 548 ".//ChibiOS//os/ext/CMSIS/include/core_cmFunc.h" 1
 795 011c 83F31188 		MSR basepri, r3
 796              	@ 0 "" 2
 797              	.LVL64:
 798              		.thumb
ARM GAS  C:\Users\25521\AppData\Local\Temp\ccwZgtQd.s 			page 15


 799              		.syntax unified
 800              	.LBE538:
 801              	.LBE537:
 802              	.LBE536:
 803              	.LBE535:
 804              	.LBE534:
 805              	.LBE526:
 806              	.LBE525:
 807              		.loc 1 97 0
 808 0120 B6FA86F1 		clz	r1, r6
 809 0124 4909     		lsrs	r1, r1, #5
 810 0126 0120     		movs	r0, #1
 811 0128 FFF7FEFF 		bl	_test_assert
 812              	.LVL65:
 813              		.loc 1 98 0
 814 012c 059A     		ldr	r2, [sp, #20]
 815 012e 2B68     		ldr	r3, [r5]
 816 0130 9A42     		cmp	r2, r3
 817 0132 54D1     		bne	.L45
 818 0134 06B0     		add	sp, sp, #24
 819              		.cfi_remember_state
 820              		.cfi_def_cfa_offset 16
 821              	.LVL66:
 822              		@ sp needed
 823 0136 70BD     		pop	{r4, r5, r6, pc}
 824              	.LVL67:
 825              	.L44:
 826              		.cfi_restore_state
 827              	.LBB542:
 828              	.LBB541:
 829              	.LBB540:
 830              	.LBB539:
 831              		.loc 3 367 0
 832 0138 2D48     		ldr	r0, .L48+12
 833 013a FFF7FEFF 		bl	chSysHalt
 834              	.LVL68:
 835 013e ECE7     		b	.L25
 836              	.LVL69:
 837              	.L43:
 838              	.LBE539:
 839              	.LBE540:
 840              	.LBE541:
 841              	.LBE542:
 842              	.LBB543:
 843              	.LBB524:
 844              	.LBB523:
 845 0140 2B48     		ldr	r0, .L48+12
 846 0142 FFF7FEFF 		bl	chSysHalt
 847              	.LVL70:
 848 0146 CCE7     		b	.L24
 849              	.LVL71:
 850              	.L40:
 851              	.LBE523:
 852              	.LBE524:
 853              	.LBE543:
 854              	.LBB544:
 855              	.LBB468:
ARM GAS  C:\Users\25521\AppData\Local\Temp\ccwZgtQd.s 			page 16


 856 0148 2948     		ldr	r0, .L48+12
 857 014a FFF7FEFF 		bl	chSysHalt
 858              	.LVL72:
 859 014e 92E7     		b	.L18
 860              	.L37:
 861              	.LBE468:
 862              	.LBE544:
 863              	.LBB545:
 864              	.LBB428:
 865 0150 2748     		ldr	r0, .L48+12
 866 0152 FFF7FEFF 		bl	chSysHalt
 867              	.LVL73:
 868              	.LBB426:
 869              	.LBB425:
 870              	.LBB424:
 871              		.loc 2 548 0
 872 0156 0023     		movs	r3, #0
 873              		.syntax unified
 874              	@ 548 ".//ChibiOS//os/ext/CMSIS/include/core_cmFunc.h" 1
 875 0158 83F31188 		MSR basepri, r3
 876              	@ 0 "" 2
 877              	.LVL74:
 878              		.thumb
 879              		.syntax unified
 880              	.LBE424:
 881              	.LBE425:
 882              	.LBE426:
 883              	.LBE428:
 884              	.LBE545:
 885              	.LBB546:
 886              	.LBB446:
 887              	.LBB440:
 888              	.LBB439:
 889              	.LBB438:
 890              	.LBB437:
 891              		.loc 2 535 0
 892              		.syntax unified
 893              	@ 535 ".//ChibiOS//os/ext/CMSIS/include/core_cmFunc.h" 1
 894 015c EFF31183 		MRS r3, basepri
 895              	@ 0 "" 2
 896              		.thumb
 897              		.syntax unified
 898              	.LBE437:
 899              	.LBE438:
 900              	.LBE439:
 901              	.LBE440:
 902              		.loc 3 422 0
 903 0160 002B     		cmp	r3, #0
 904 0162 7FF477AF 		bne	.L16
 905              	.L38:
 906              	.LVL75:
 907              	.LBB441:
 908              	.LBB442:
 909              	.LBB443:
 910              	.LBB444:
 911              	.LBB445:
 912              		.loc 2 548 0
ARM GAS  C:\Users\25521\AppData\Local\Temp\ccwZgtQd.s 			page 17


 913 0166 2023     		movs	r3, #32
 914              		.syntax unified
 915              	@ 548 ".//ChibiOS//os/ext/CMSIS/include/core_cmFunc.h" 1
 916 0168 83F31188 		MSR basepri, r3
 917              	@ 0 "" 2
 918              	.LVL76:
 919              		.thumb
 920              		.syntax unified
 921              	.LBE445:
 922              	.LBE444:
 923              	.LBE443:
 924              		.loc 3 349 0
 925 016c FFF7FEFF 		bl	_stats_start_measure_crit_thd
 926              	.LVL77:
 927              		.loc 3 350 0
 928 0170 FFF7FEFF 		bl	_dbg_check_lock
 929              	.LVL78:
 930              	.LBE442:
 931              	.LBE441:
 932              	.LBE446:
 933              	.LBE546:
 934              	.LBB547:
 935              	.LBB462:
 936              	.LBB456:
 937              	.LBB455:
 938              	.LBB454:
 939              	.LBB453:
 940              		.loc 2 535 0
 941              		.syntax unified
 942              	@ 535 ".//ChibiOS//os/ext/CMSIS/include/core_cmFunc.h" 1
 943 0174 EFF31183 		MRS r3, basepri
 944              	@ 0 "" 2
 945              		.thumb
 946              		.syntax unified
 947              	.LBE453:
 948              	.LBE454:
 949              	.LBE455:
 950              	.LBE456:
 951              		.loc 3 422 0
 952 0178 002B     		cmp	r3, #0
 953 017a 7FF470AF 		bne	.L17
 954              	.L39:
 955              	.LVL79:
 956              	.LBB457:
 957              	.LBB458:
 958              	.LBB459:
 959              	.LBB460:
 960              	.LBB461:
 961              		.loc 2 548 0
 962 017e 2023     		movs	r3, #32
 963              		.syntax unified
 964              	@ 548 ".//ChibiOS//os/ext/CMSIS/include/core_cmFunc.h" 1
 965 0180 83F31188 		MSR basepri, r3
 966              	@ 0 "" 2
 967              	.LVL80:
 968              		.thumb
 969              		.syntax unified
ARM GAS  C:\Users\25521\AppData\Local\Temp\ccwZgtQd.s 			page 18


 970              	.LBE461:
 971              	.LBE460:
 972              	.LBE459:
 973              		.loc 3 349 0
 974 0184 FFF7FEFF 		bl	_stats_start_measure_crit_thd
 975              	.LVL81:
 976              		.loc 3 350 0
 977 0188 FFF7FEFF 		bl	_dbg_check_lock
 978              	.LVL82:
 979 018c 67E7     		b	.L17
 980              	.L42:
 981              	.LBE458:
 982              	.LBE457:
 983              	.LBE462:
 984              	.LBE547:
 985              	.LBB548:
 986              	.LBB502:
 987              	.LBB495:
 988              	.LBB496:
 989              		.loc 3 360 0
 990 018e FFF7FEFF 		bl	_dbg_check_unlock
 991              	.LVL83:
 992              		.loc 3 361 0
 993 0192 FFF7FEFF 		bl	_stats_stop_measure_crit_thd
 994              	.LVL84:
 995              		.loc 3 367 0
 996 0196 2368     		ldr	r3, [r4]
 997 0198 A342     		cmp	r3, r4
 998 019a 04D0     		beq	.L22
 999 019c A269     		ldr	r2, [r4, #24]
 1000 019e 9B68     		ldr	r3, [r3, #8]
 1001 01a0 9268     		ldr	r2, [r2, #8]
 1002 01a2 9A42     		cmp	r2, r3
 1003 01a4 13D3     		bcc	.L46
 1004              	.L22:
 1005              	.LVL85:
 1006              	.LBB497:
 1007              	.LBB498:
 1008              	.LBB499:
 1009              		.loc 2 548 0
 1010 01a6 0023     		movs	r3, #0
 1011              		.syntax unified
 1012              	@ 548 ".//ChibiOS//os/ext/CMSIS/include/core_cmFunc.h" 1
 1013 01a8 83F31188 		MSR basepri, r3
 1014              	@ 0 "" 2
 1015              	.LVL86:
 1016              		.thumb
 1017              		.syntax unified
 1018 01ac 76E7     		b	.L21
 1019              	.L41:
 1020              	.LBE499:
 1021              	.LBE498:
 1022              	.LBE497:
 1023              	.LBE496:
 1024              	.LBE495:
 1025              	.LBE502:
 1026              	.LBE548:
ARM GAS  C:\Users\25521\AppData\Local\Temp\ccwZgtQd.s 			page 19


 1027              	.LBB549:
 1028              	.LBB487:
 1029              	.LBB480:
 1030              	.LBB481:
 1031              		.loc 3 360 0
 1032 01ae FFF7FEFF 		bl	_dbg_check_unlock
 1033              	.LVL87:
 1034              		.loc 3 361 0
 1035 01b2 FFF7FEFF 		bl	_stats_stop_measure_crit_thd
 1036              	.LVL88:
 1037              		.loc 3 367 0
 1038 01b6 2368     		ldr	r3, [r4]
 1039 01b8 A342     		cmp	r3, r4
 1040 01ba 04D0     		beq	.L20
 1041 01bc A269     		ldr	r2, [r4, #24]
 1042 01be 9B68     		ldr	r3, [r3, #8]
 1043 01c0 9268     		ldr	r2, [r2, #8]
 1044 01c2 9A42     		cmp	r2, r3
 1045 01c4 07D3     		bcc	.L47
 1046              	.L20:
 1047              	.LVL89:
 1048              	.LBB482:
 1049              	.LBB483:
 1050              	.LBB484:
 1051              		.loc 2 548 0
 1052 01c6 0023     		movs	r3, #0
 1053              		.syntax unified
 1054              	@ 548 ".//ChibiOS//os/ext/CMSIS/include/core_cmFunc.h" 1
 1055 01c8 83F31188 		MSR basepri, r3
 1056              	@ 0 "" 2
 1057              	.LVL90:
 1058              		.thumb
 1059              		.syntax unified
 1060 01cc 62E7     		b	.L19
 1061              	.L46:
 1062              	.LBE484:
 1063              	.LBE483:
 1064              	.LBE482:
 1065              	.LBE481:
 1066              	.LBE480:
 1067              	.LBE487:
 1068              	.LBE549:
 1069              	.LBB550:
 1070              	.LBB503:
 1071              	.LBB501:
 1072              	.LBB500:
 1073              		.loc 3 367 0
 1074 01ce 0848     		ldr	r0, .L48+12
 1075 01d0 FFF7FEFF 		bl	chSysHalt
 1076              	.LVL91:
 1077 01d4 E7E7     		b	.L22
 1078              	.L47:
 1079              	.LBE500:
 1080              	.LBE501:
 1081              	.LBE503:
 1082              	.LBE550:
 1083              	.LBB551:
ARM GAS  C:\Users\25521\AppData\Local\Temp\ccwZgtQd.s 			page 20


 1084              	.LBB488:
 1085              	.LBB486:
 1086              	.LBB485:
 1087 01d6 0648     		ldr	r0, .L48+12
 1088 01d8 FFF7FEFF 		bl	chSysHalt
 1089              	.LVL92:
 1090 01dc F3E7     		b	.L20
 1091              	.LVL93:
 1092              	.L45:
 1093              	.LBE485:
 1094              	.LBE486:
 1095              	.LBE488:
 1096              	.LBE551:
 1097              		.loc 1 98 0
 1098 01de FFF7FEFF 		bl	__stack_chk_fail
 1099              	.LVL94:
 1100              	.L49:
 1101 01e2 00BF     		.align	2
 1102              	.L48:
 1103 01e4 00000000 		.word	__stack_chk_guard
 1104 01e8 00000000 		.word	ch
 1105 01ec 00000000 		.word	vtcb
 1106 01f0 00000000 		.word	.LANCHOR0
 1107              		.cfi_endproc
 1108              	.LFE231:
 1109              		.size	sys1_execute, .-sys1_execute
 1110              		.section	.text.sys3_execute,"ax",%progbits
 1111              		.align	1
 1112              		.p2align 4,,15
 1113              		.syntax unified
 1114              		.thumb
 1115              		.thumb_func
 1116              		.fpu fpv4-sp-d16
 1117              		.type	sys3_execute, %function
 1118              	sys3_execute:
 1119              	.LFB233:
 1120              		.loc 1 137 0
 1121              		.cfi_startproc
 1122              		@ args = 0, pretend = 0, frame = 8
 1123              		@ frame_needed = 0, uses_anonymous_args = 0
 1124 0000 70B5     		push	{r4, r5, r6, lr}
 1125              		.cfi_def_cfa_offset 16
 1126              		.cfi_offset 4, -16
 1127              		.cfi_offset 5, -12
 1128              		.cfi_offset 6, -8
 1129              		.cfi_offset 14, -4
 1130 0002 534E     		ldr	r6, .L65
 1131 0004 82B0     		sub	sp, sp, #8
 1132              		.cfi_def_cfa_offset 24
 1133              		.loc 1 137 0
 1134 0006 3368     		ldr	r3, [r6]
 1135 0008 0193     		str	r3, [sp, #4]
 1136              	.LVL95:
 1137              	.LBB604:
 1138              	.LBB605:
 1139              	.LBB606:
 1140              	.LBB607:
ARM GAS  C:\Users\25521\AppData\Local\Temp\ccwZgtQd.s 			page 21


 1141              	.LBB608:
 1142              		.loc 2 548 0
 1143 000a 2023     		movs	r3, #32
 1144              		.syntax unified
 1145              	@ 548 ".//ChibiOS//os/ext/CMSIS/include/core_cmFunc.h" 1
 1146 000c 83F31188 		MSR basepri, r3
 1147              	@ 0 "" 2
 1148              	.LVL96:
 1149              		.thumb
 1150              		.syntax unified
 1151              	.LBE608:
 1152              	.LBE607:
 1153              	.LBE606:
 1154              		.loc 3 349 0
 1155 0010 FFF7FEFF 		bl	_stats_start_measure_crit_thd
 1156              	.LVL97:
 1157              		.loc 3 350 0
 1158 0014 FFF7FEFF 		bl	_dbg_check_lock
 1159              	.LVL98:
 1160              	.LBE605:
 1161              	.LBE604:
 1162              		.loc 1 141 0
 1163 0018 0120     		movs	r0, #1
 1164 001a FFF7FEFF 		bl	chSysIntegrityCheckI
 1165              	.LVL99:
 1166              	.LBB609:
 1167              	.LBB610:
 1168              		.loc 3 367 0
 1169 001e 4D4C     		ldr	r4, .L65+4
 1170              	.LBE610:
 1171              	.LBE609:
 1172              		.loc 1 141 0
 1173 0020 0546     		mov	r5, r0
 1174              	.LVL100:
 1175              	.LBB616:
 1176              	.LBB614:
 1177              		.loc 3 360 0
 1178 0022 FFF7FEFF 		bl	_dbg_check_unlock
 1179              	.LVL101:
 1180              		.loc 3 361 0
 1181 0026 FFF7FEFF 		bl	_stats_stop_measure_crit_thd
 1182              	.LVL102:
 1183              		.loc 3 367 0
 1184 002a 2368     		ldr	r3, [r4]
 1185 002c A342     		cmp	r3, r4
 1186 002e 04D0     		beq	.L51
 1187 0030 A269     		ldr	r2, [r4, #24]
 1188 0032 9B68     		ldr	r3, [r3, #8]
 1189 0034 9268     		ldr	r2, [r2, #8]
 1190 0036 9A42     		cmp	r2, r3
 1191 0038 0FD3     		bcc	.L62
 1192              	.L51:
 1193              	.LVL103:
 1194              	.LBB611:
 1195              	.LBB612:
 1196              	.LBB613:
 1197              		.loc 2 548 0
ARM GAS  C:\Users\25521\AppData\Local\Temp\ccwZgtQd.s 			page 22


 1198 003a 0023     		movs	r3, #0
 1199              		.syntax unified
 1200              	@ 548 ".//ChibiOS//os/ext/CMSIS/include/core_cmFunc.h" 1
 1201 003c 83F31188 		MSR basepri, r3
 1202              	@ 0 "" 2
 1203              	.LVL104:
 1204              		.thumb
 1205              		.syntax unified
 1206              	.LBE613:
 1207              	.LBE612:
 1208              	.LBE611:
 1209              	.LBE614:
 1210              	.LBE616:
 1211              		.loc 1 143 0
 1212 0040 85F00101 		eor	r1, r5, #1
 1213 0044 C9B2     		uxtb	r1, r1
 1214 0046 0120     		movs	r0, #1
 1215 0048 FFF7FEFF 		bl	_test_assert
 1216              	.LVL105:
 1217 004c 48B1     		cbz	r0, .L63
 1218              	.LVL106:
 1219              	.L50:
 1220              		.loc 1 159 0
 1221 004e 019A     		ldr	r2, [sp, #4]
 1222 0050 3368     		ldr	r3, [r6]
 1223 0052 9A42     		cmp	r2, r3
 1224 0054 7AD1     		bne	.L61
 1225 0056 02B0     		add	sp, sp, #8
 1226              		.cfi_remember_state
 1227              		.cfi_def_cfa_offset 16
 1228              		@ sp needed
 1229 0058 70BD     		pop	{r4, r5, r6, pc}
 1230              	.LVL107:
 1231              	.L62:
 1232              		.cfi_restore_state
 1233              	.LBB617:
 1234              	.LBB615:
 1235              		.loc 3 367 0
 1236 005a 3F48     		ldr	r0, .L65+8
 1237 005c FFF7FEFF 		bl	chSysHalt
 1238              	.LVL108:
 1239 0060 EBE7     		b	.L51
 1240              	.L63:
 1241              	.LVL109:
 1242              	.LBE615:
 1243              	.LBE617:
 1244              	.LBB618:
 1245              	.LBB619:
 1246              	.LBB620:
 1247              	.LBB621:
 1248              	.LBB622:
 1249              		.loc 2 548 0
 1250 0062 2023     		movs	r3, #32
 1251              		.syntax unified
 1252              	@ 548 ".//ChibiOS//os/ext/CMSIS/include/core_cmFunc.h" 1
 1253 0064 83F31188 		MSR basepri, r3
 1254              	@ 0 "" 2
ARM GAS  C:\Users\25521\AppData\Local\Temp\ccwZgtQd.s 			page 23


 1255              	.LVL110:
 1256              		.thumb
 1257              		.syntax unified
 1258              	.LBE622:
 1259              	.LBE621:
 1260              	.LBE620:
 1261              		.loc 3 349 0
 1262 0068 FFF7FEFF 		bl	_stats_start_measure_crit_thd
 1263              	.LVL111:
 1264              		.loc 3 350 0
 1265 006c FFF7FEFF 		bl	_dbg_check_lock
 1266              	.LVL112:
 1267              	.LBE619:
 1268              	.LBE618:
 1269              		.loc 1 146 0
 1270 0070 0220     		movs	r0, #2
 1271 0072 FFF7FEFF 		bl	chSysIntegrityCheckI
 1272              	.LVL113:
 1273 0076 0546     		mov	r5, r0
 1274              	.LVL114:
 1275              	.LBB623:
 1276              	.LBB624:
 1277              		.loc 3 360 0
 1278 0078 FFF7FEFF 		bl	_dbg_check_unlock
 1279              	.LVL115:
 1280              		.loc 3 361 0
 1281 007c FFF7FEFF 		bl	_stats_stop_measure_crit_thd
 1282              	.LVL116:
 1283              		.loc 3 367 0
 1284 0080 2368     		ldr	r3, [r4]
 1285 0082 A342     		cmp	r3, r4
 1286 0084 04D0     		beq	.L54
 1287 0086 A269     		ldr	r2, [r4, #24]
 1288 0088 9B68     		ldr	r3, [r3, #8]
 1289 008a 9268     		ldr	r2, [r2, #8]
 1290 008c 9A42     		cmp	r2, r3
 1291 008e 59D3     		bcc	.L64
 1292              	.L54:
 1293              	.LVL117:
 1294              	.LBB625:
 1295              	.LBB626:
 1296              	.LBB627:
 1297              		.loc 2 548 0
 1298 0090 0023     		movs	r3, #0
 1299              		.syntax unified
 1300              	@ 548 ".//ChibiOS//os/ext/CMSIS/include/core_cmFunc.h" 1
 1301 0092 83F31188 		MSR basepri, r3
 1302              	@ 0 "" 2
 1303              	.LVL118:
 1304              		.thumb
 1305              		.syntax unified
 1306              	.LBE627:
 1307              	.LBE626:
 1308              	.LBE625:
 1309              	.LBE624:
 1310              	.LBE623:
 1311              		.loc 1 148 0
ARM GAS  C:\Users\25521\AppData\Local\Temp\ccwZgtQd.s 			page 24


 1312 0096 85F00101 		eor	r1, r5, #1
 1313 009a C9B2     		uxtb	r1, r1
 1314 009c 0220     		movs	r0, #2
 1315 009e FFF7FEFF 		bl	_test_assert
 1316              	.LVL119:
 1317 00a2 0028     		cmp	r0, #0
 1318 00a4 D3D1     		bne	.L50
 1319              	.LVL120:
 1320              	.LBB629:
 1321              	.LBB630:
 1322              	.LBB631:
 1323              	.LBB632:
 1324              	.LBB633:
 1325              	.LBB634:
 1326              	.LBB635:
 1327              		.loc 2 548 0
 1328 00a6 2023     		movs	r3, #32
 1329              		.syntax unified
 1330              	@ 548 ".//ChibiOS//os/ext/CMSIS/include/core_cmFunc.h" 1
 1331 00a8 83F31188 		MSR basepri, r3
 1332              	@ 0 "" 2
 1333              	.LVL121:
 1334              		.thumb
 1335              		.syntax unified
 1336              	.LBE635:
 1337              	.LBE634:
 1338              	.LBE633:
 1339              		.loc 3 349 0
 1340 00ac FFF7FEFF 		bl	_stats_start_measure_crit_thd
 1341              	.LVL122:
 1342              		.loc 3 350 0
 1343 00b0 FFF7FEFF 		bl	_dbg_check_lock
 1344              	.LVL123:
 1345              	.LBE632:
 1346              	.LBE631:
 1347              		.loc 1 151 0
 1348 00b4 0420     		movs	r0, #4
 1349 00b6 FFF7FEFF 		bl	chSysIntegrityCheckI
 1350              	.LVL124:
 1351 00ba 0546     		mov	r5, r0
 1352              	.LVL125:
 1353              	.LBB636:
 1354              	.LBB637:
 1355              		.loc 3 360 0
 1356 00bc FFF7FEFF 		bl	_dbg_check_unlock
 1357              	.LVL126:
 1358              		.loc 3 361 0
 1359 00c0 FFF7FEFF 		bl	_stats_stop_measure_crit_thd
 1360              	.LVL127:
 1361              		.loc 3 367 0
 1362 00c4 2368     		ldr	r3, [r4]
 1363 00c6 A342     		cmp	r3, r4
 1364 00c8 07D0     		beq	.L56
 1365 00ca A269     		ldr	r2, [r4, #24]
 1366 00cc 9B68     		ldr	r3, [r3, #8]
 1367 00ce 9268     		ldr	r2, [r2, #8]
 1368 00d0 9A42     		cmp	r2, r3
ARM GAS  C:\Users\25521\AppData\Local\Temp\ccwZgtQd.s 			page 25


 1369 00d2 02D2     		bcs	.L56
 1370 00d4 2048     		ldr	r0, .L65+8
 1371 00d6 FFF7FEFF 		bl	chSysHalt
 1372              	.LVL128:
 1373              	.L56:
 1374              	.LBB638:
 1375              	.LBB639:
 1376              	.LBB640:
 1377              		.loc 2 548 0
 1378 00da 0023     		movs	r3, #0
 1379              		.syntax unified
 1380              	@ 548 ".//ChibiOS//os/ext/CMSIS/include/core_cmFunc.h" 1
 1381 00dc 83F31188 		MSR basepri, r3
 1382              	@ 0 "" 2
 1383              	.LVL129:
 1384              		.thumb
 1385              		.syntax unified
 1386              	.LBE640:
 1387              	.LBE639:
 1388              	.LBE638:
 1389              	.LBE637:
 1390              	.LBE636:
 1391              		.loc 1 153 0
 1392 00e0 85F00101 		eor	r1, r5, #1
 1393 00e4 C9B2     		uxtb	r1, r1
 1394 00e6 0320     		movs	r0, #3
 1395 00e8 FFF7FEFF 		bl	_test_assert
 1396              	.LVL130:
 1397 00ec 0028     		cmp	r0, #0
 1398 00ee AED1     		bne	.L50
 1399              	.LVL131:
 1400              	.LBB641:
 1401              	.LBB642:
 1402              	.LBB643:
 1403              	.LBB644:
 1404              	.LBB645:
 1405              		.loc 2 548 0
 1406 00f0 2023     		movs	r3, #32
 1407              		.syntax unified
 1408              	@ 548 ".//ChibiOS//os/ext/CMSIS/include/core_cmFunc.h" 1
 1409 00f2 83F31188 		MSR basepri, r3
 1410              	@ 0 "" 2
 1411              	.LVL132:
 1412              		.thumb
 1413              		.syntax unified
 1414              	.LBE645:
 1415              	.LBE644:
 1416              	.LBE643:
 1417              		.loc 3 349 0
 1418 00f6 FFF7FEFF 		bl	_stats_start_measure_crit_thd
 1419              	.LVL133:
 1420              		.loc 3 350 0
 1421 00fa FFF7FEFF 		bl	_dbg_check_lock
 1422              	.LVL134:
 1423              	.LBE642:
 1424              	.LBE641:
 1425              		.loc 1 156 0
ARM GAS  C:\Users\25521\AppData\Local\Temp\ccwZgtQd.s 			page 26


 1426 00fe 0820     		movs	r0, #8
 1427 0100 FFF7FEFF 		bl	chSysIntegrityCheckI
 1428              	.LVL135:
 1429 0104 0546     		mov	r5, r0
 1430              	.LVL136:
 1431              	.LBB646:
 1432              	.LBB647:
 1433              		.loc 3 360 0
 1434 0106 FFF7FEFF 		bl	_dbg_check_unlock
 1435              	.LVL137:
 1436              		.loc 3 361 0
 1437 010a FFF7FEFF 		bl	_stats_stop_measure_crit_thd
 1438              	.LVL138:
 1439              		.loc 3 367 0
 1440 010e 2368     		ldr	r3, [r4]
 1441 0110 A342     		cmp	r3, r4
 1442 0112 07D0     		beq	.L57
 1443 0114 A269     		ldr	r2, [r4, #24]
 1444 0116 9B68     		ldr	r3, [r3, #8]
 1445 0118 9268     		ldr	r2, [r2, #8]
 1446 011a 9A42     		cmp	r2, r3
 1447 011c 02D2     		bcs	.L57
 1448 011e 0E48     		ldr	r0, .L65+8
 1449 0120 FFF7FEFF 		bl	chSysHalt
 1450              	.LVL139:
 1451              	.L57:
 1452              	.LBB648:
 1453              	.LBB649:
 1454              	.LBB650:
 1455              		.loc 2 548 0
 1456 0124 0023     		movs	r3, #0
 1457              		.syntax unified
 1458              	@ 548 ".//ChibiOS//os/ext/CMSIS/include/core_cmFunc.h" 1
 1459 0126 83F31188 		MSR basepri, r3
 1460              	@ 0 "" 2
 1461              	.LVL140:
 1462              		.thumb
 1463              		.syntax unified
 1464              	.LBE650:
 1465              	.LBE649:
 1466              	.LBE648:
 1467              	.LBE647:
 1468              	.LBE646:
 1469              		.loc 1 158 0
 1470 012a 019A     		ldr	r2, [sp, #4]
 1471 012c 3368     		ldr	r3, [r6]
 1472 012e 9A42     		cmp	r2, r3
 1473 0130 0CD1     		bne	.L61
 1474 0132 85F00101 		eor	r1, r5, #1
 1475 0136 C9B2     		uxtb	r1, r1
 1476 0138 0420     		movs	r0, #4
 1477              	.LBE630:
 1478              	.LBE629:
 1479              		.loc 1 159 0
 1480 013a 02B0     		add	sp, sp, #8
 1481              		.cfi_remember_state
 1482              		.cfi_def_cfa_offset 16
ARM GAS  C:\Users\25521\AppData\Local\Temp\ccwZgtQd.s 			page 27


 1483              		@ sp needed
 1484 013c BDE87040 		pop	{r4, r5, r6, lr}
 1485              		.cfi_restore 14
 1486              		.cfi_restore 6
 1487              		.cfi_restore 5
 1488              		.cfi_restore 4
 1489              		.cfi_def_cfa_offset 0
 1490              	.LVL141:
 1491              	.LBB652:
 1492              	.LBB651:
 1493              		.loc 1 158 0
 1494 0140 FFF7FEBF 		b	_test_assert
 1495              	.LVL142:
 1496              	.L64:
 1497              		.cfi_restore_state
 1498              	.LBE651:
 1499              	.LBE652:
 1500              	.LBB653:
 1501              	.LBB628:
 1502              		.loc 3 367 0
 1503 0144 0448     		ldr	r0, .L65+8
 1504 0146 FFF7FEFF 		bl	chSysHalt
 1505              	.LVL143:
 1506 014a A1E7     		b	.L54
 1507              	.LVL144:
 1508              	.L61:
 1509              	.LBE628:
 1510              	.LBE653:
 1511              		.loc 1 159 0
 1512 014c FFF7FEFF 		bl	__stack_chk_fail
 1513              	.LVL145:
 1514              	.L66:
 1515              		.align	2
 1516              	.L65:
 1517 0150 00000000 		.word	__stack_chk_guard
 1518 0154 00000000 		.word	ch
 1519 0158 00000000 		.word	.LANCHOR0
 1520              		.cfi_endproc
 1521              	.LFE233:
 1522              		.size	sys3_execute, .-sys3_execute
 1523              		.global	patternsys
 1524              		.global	testsys3
 1525              		.global	testsys2
 1526              		.global	testsys1
 1527              		.section	.rodata.__func__.7216,"a",%progbits
 1528              		.align	2
 1529              		.set	.LANCHOR0,. + 0
 1530              		.type	__func__.7216, %object
 1531              		.size	__func__.7216, 12
 1532              	__func__.7216:
 1533 0000 63685379 		.ascii	"chSysUnlock\000"
 1533      73556E6C 
 1533      6F636B00 
 1534              		.section	.rodata.patternsys,"a",%progbits
 1535              		.align	2
 1536              		.type	patternsys, %object
 1537              		.size	patternsys, 16
ARM GAS  C:\Users\25521\AppData\Local\Temp\ccwZgtQd.s 			page 28


 1538              	patternsys:
 1539 0000 00000000 		.word	testsys1
 1540 0004 00000000 		.word	testsys2
 1541 0008 00000000 		.word	testsys3
 1542 000c 00000000 		.word	0
 1543              		.section	.rodata.str1.4,"aMS",%progbits,1
 1544              		.align	2
 1545              	.LC0:
 1546 0000 53797374 		.ascii	"System, integrity\000"
 1546      656D2C20 
 1546      696E7465 
 1546      67726974 
 1546      7900
 1547 0012 0000     		.space	2
 1548              	.LC1:
 1549 0014 53797374 		.ascii	"System, interrupts handling\000"
 1549      656D2C20 
 1549      696E7465 
 1549      72727570 
 1549      74732068 
 1550              	.LC2:
 1551 0030 53797374 		.ascii	"System, critical zones\000"
 1551      656D2C20 
 1551      63726974 
 1551      6963616C 
 1551      207A6F6E 
 1552              		.section	.rodata.testsys1,"a",%progbits
 1553              		.align	2
 1554              		.type	testsys1, %object
 1555              		.size	testsys1, 16
 1556              	testsys1:
 1557 0000 30000000 		.word	.LC2
 1558 0004 00000000 		.word	0
 1559 0008 00000000 		.word	0
 1560 000c 00000000 		.word	sys1_execute
 1561              		.section	.rodata.testsys2,"a",%progbits
 1562              		.align	2
 1563              		.type	testsys2, %object
 1564              		.size	testsys2, 16
 1565              	testsys2:
 1566 0000 14000000 		.word	.LC1
 1567 0004 00000000 		.word	0
 1568 0008 00000000 		.word	0
 1569 000c 00000000 		.word	sys2_execute
 1570              		.section	.rodata.testsys3,"a",%progbits
 1571              		.align	2
 1572              		.type	testsys3, %object
 1573              		.size	testsys3, 16
 1574              	testsys3:
 1575 0000 00000000 		.word	.LC0
 1576 0004 00000000 		.word	0
 1577 0008 00000000 		.word	0
 1578 000c 00000000 		.word	sys3_execute
 1579              		.text
 1580              	.Letext0:
 1581              		.file 5 "d:\\eclipse_e-puck2_win32_11_apr_2018\\eclipse_e-puck2\\tools\\gcc-arm-none-eabi-7-2017-q
 1582              		.file 6 "d:\\eclipse_e-puck2_win32_11_apr_2018\\eclipse_e-puck2\\tools\\gcc-arm-none-eabi-7-2017-q
ARM GAS  C:\Users\25521\AppData\Local\Temp\ccwZgtQd.s 			page 29


 1583              		.file 7 "d:\\eclipse_e-puck2_win32_11_apr_2018\\eclipse_e-puck2\\tools\\gcc-arm-none-eabi-7-2017-q
 1584              		.file 8 ".//ChibiOS//os/rt/ports/ARMCMx/compilers/GCC/chtypes.h"
 1585              		.file 9 ".//ChibiOS//os/rt/include/chsystypes.h"
 1586              		.file 10 ".//ChibiOS//os/rt/include/chschd.h"
 1587              		.file 11 ".//ChibiOS//os/ext/CMSIS/include/core_cm4.h"
 1588              		.file 12 ".//ChibiOS//os/ext/CMSIS/ST/system_stm32f4xx.h"
 1589              		.file 13 ".//ChibiOS//os/rt/ports/ARMCMx/chcore.h"
 1590              		.file 14 ".//ChibiOS//os/rt/ports/ARMCMx/chcore_v7m.h"
 1591              		.file 15 ".//ChibiOS//os/rt/include/chdebug.h"
 1592              		.file 16 ".//ChibiOS//os/rt/include/chtm.h"
 1593              		.file 17 ".//ChibiOS//os/rt/include/chstats.h"
 1594              		.file 18 ".//ChibiOS//os/rt/include/chsem.h"
 1595              		.file 19 ".//ChibiOS//os/rt/include/chmtx.h"
 1596              		.file 20 ".//ChibiOS//os/rt/include/chregistry.h"
 1597              		.file 21 ".//ChibiOS//test/rt/test.h"
 1598              		.file 22 ".//ChibiOS//os/rt/include/chthreads.h"