ARM GAS  C:\Users\25521\AppData\Local\Temp\cchuEGrA.s 			page 1


   1              		.cpu cortex-m4
   2              		.eabi_attribute 27, 1
   3              		.eabi_attribute 28, 1
   4              		.eabi_attribute 20, 1
   5              		.eabi_attribute 21, 1
   6              		.eabi_attribute 23, 3
   7              		.eabi_attribute 24, 1
   8              		.eabi_attribute 25, 1
   9              		.eabi_attribute 26, 1
  10              		.eabi_attribute 30, 2
  11              		.eabi_attribute 34, 1
  12              		.eabi_attribute 18, 4
  13              		.file	"testpools.c"
  14              		.text
  15              	.Ltext0:
  16              		.cfi_sections	.debug_frame
  17              		.section	.text.null_provider,"ax",%progbits
  18              		.align	1
  19              		.p2align 4,,15
  20              		.syntax unified
  21              		.thumb
  22              		.thumb_func
  23              		.fpu fpv4-sp-d16
  24              		.type	null_provider, %function
  25              	null_provider:
  26              	.LFB230:
  27              		.file 1 ".//ChibiOS//test/rt/testpools.c"
  28              		.loc 1 60 0
  29              		.cfi_startproc
  30              		@ args = 0, pretend = 0, frame = 8
  31              		@ frame_needed = 0, uses_anonymous_args = 0
  32              	.LVL0:
  33 0000 00B5     		push	{lr}
  34              		.cfi_def_cfa_offset 4
  35              		.cfi_offset 14, -4
  36 0002 074B     		ldr	r3, .L6
  37 0004 83B0     		sub	sp, sp, #12
  38              		.cfi_def_cfa_offset 16
  39              		.loc 1 60 0
  40 0006 1A68     		ldr	r2, [r3]
  41 0008 0192     		str	r2, [sp, #4]
  42              		.loc 1 64 0
  43 000a 019A     		ldr	r2, [sp, #4]
  44 000c 1B68     		ldr	r3, [r3]
  45 000e 9A42     		cmp	r2, r3
  46 0010 03D1     		bne	.L5
  47 0012 0020     		movs	r0, #0
  48              	.LVL1:
  49 0014 03B0     		add	sp, sp, #12
  50              		.cfi_remember_state
  51              		.cfi_def_cfa_offset 4
  52              		@ sp needed
  53 0016 5DF804FB 		ldr	pc, [sp], #4
  54              	.LVL2:
  55              	.L5:
  56              		.cfi_restore_state
  57 001a FFF7FEFF 		bl	__stack_chk_fail
ARM GAS  C:\Users\25521\AppData\Local\Temp\cchuEGrA.s 			page 2


  58              	.LVL3:
  59              	.L7:
  60 001e 00BF     		.align	2
  61              	.L6:
  62 0020 00000000 		.word	__stack_chk_guard
  63              		.cfi_endproc
  64              	.LFE230:
  65              		.size	null_provider, .-null_provider
  66              		.section	.text.pools1_setup,"ax",%progbits
  67              		.align	1
  68              		.p2align 4,,15
  69              		.syntax unified
  70              		.thumb
  71              		.thumb_func
  72              		.fpu fpv4-sp-d16
  73              		.type	pools1_setup, %function
  74              	pools1_setup:
  75              	.LFB231:
  76              		.loc 1 66 0
  77              		.cfi_startproc
  78              		@ args = 0, pretend = 0, frame = 8
  79              		@ frame_needed = 0, uses_anonymous_args = 0
  80 0000 00B5     		push	{lr}
  81              		.cfi_def_cfa_offset 4
  82              		.cfi_offset 14, -4
  83 0002 094B     		ldr	r3, .L13
  84 0004 83B0     		sub	sp, sp, #12
  85              		.cfi_def_cfa_offset 16
  86              		.loc 1 66 0
  87 0006 1A68     		ldr	r2, [r3]
  88 0008 0192     		str	r2, [sp, #4]
  89              		.loc 1 68 0
  90 000a 019A     		ldr	r2, [sp, #4]
  91 000c 1B68     		ldr	r3, [r3]
  92 000e 9A42     		cmp	r2, r3
  93 0010 08D1     		bne	.L12
  94 0012 0648     		ldr	r0, .L13+4
  95 0014 0022     		movs	r2, #0
  96 0016 4FF4FC71 		mov	r1, #504
  97              		.loc 1 69 0
  98 001a 03B0     		add	sp, sp, #12
  99              		.cfi_remember_state
 100              		.cfi_def_cfa_offset 4
 101              		@ sp needed
 102 001c 5DF804EB 		ldr	lr, [sp], #4
 103              		.cfi_restore 14
 104              		.cfi_def_cfa_offset 0
 105              		.loc 1 68 0
 106 0020 FFF7FEBF 		b	chPoolObjectInit
 107              	.LVL4:
 108              	.L12:
 109              		.cfi_restore_state
 110 0024 FFF7FEFF 		bl	__stack_chk_fail
 111              	.LVL5:
 112              	.L14:
 113              		.align	2
 114              	.L13:
ARM GAS  C:\Users\25521\AppData\Local\Temp\cchuEGrA.s 			page 3


 115 0028 00000000 		.word	__stack_chk_guard
 116 002c 00000000 		.word	.LANCHOR0
 117              		.cfi_endproc
 118              	.LFE231:
 119              		.size	pools1_setup, .-pools1_setup
 120              		.section	.text.pools1_execute,"ax",%progbits
 121              		.align	1
 122              		.p2align 4,,15
 123              		.syntax unified
 124              		.thumb
 125              		.thumb_func
 126              		.fpu fpv4-sp-d16
 127              		.type	pools1_execute, %function
 128              	pools1_execute:
 129              	.LFB232:
 130              		.loc 1 71 0
 131              		.cfi_startproc
 132              		@ args = 0, pretend = 0, frame = 8
 133              		@ frame_needed = 0, uses_anonymous_args = 0
 134 0000 2DE9F041 		push	{r4, r5, r6, r7, r8, lr}
 135              		.cfi_def_cfa_offset 24
 136              		.cfi_offset 4, -24
 137              		.cfi_offset 5, -20
 138              		.cfi_offset 6, -16
 139              		.cfi_offset 7, -12
 140              		.cfi_offset 8, -8
 141              		.cfi_offset 14, -4
 142              		.loc 1 75 0
 143 0004 354B     		ldr	r3, .L31
 144              		.loc 1 71 0
 145 0006 364F     		ldr	r7, .L31+4
 146              		.loc 1 75 0
 147 0008 1D68     		ldr	r5, [r3]
 148 000a 3648     		ldr	r0, .L31+8
 149              		.loc 1 71 0
 150 000c 3B68     		ldr	r3, [r7]
 151              		.loc 1 79 0
 152 000e 354E     		ldr	r6, .L31+8
 153              		.loc 1 71 0
 154 0010 82B0     		sub	sp, sp, #8
 155              		.cfi_def_cfa_offset 32
 156              		.loc 1 75 0
 157 0012 2946     		mov	r1, r5
 158 0014 0522     		movs	r2, #5
 159              		.loc 1 71 0
 160 0016 0193     		str	r3, [sp, #4]
 161              		.loc 1 75 0
 162 0018 FFF7FEFF 		bl	chPoolLoadArray
 163              	.LVL6:
 164 001c 0524     		movs	r4, #5
 165              	.LVL7:
 166              	.L18:
 167              		.loc 1 79 0
 168 001e 3046     		mov	r0, r6
 169 0020 FFF7FEFF 		bl	chPoolAlloc
 170              	.LVL8:
 171 0024 011C     		adds	r1, r0, #0
ARM GAS  C:\Users\25521\AppData\Local\Temp\cchuEGrA.s 			page 4


 172 0026 18BF     		it	ne
 173 0028 0121     		movne	r1, #1
 174 002a 0120     		movs	r0, #1
 175 002c FFF7FEFF 		bl	_test_assert
 176              	.LVL9:
 177 0030 B0BB     		cbnz	r0, .L15
 178              	.LVL10:
 179              		.loc 1 78 0 discriminator 2
 180 0032 013C     		subs	r4, r4, #1
 181              	.LVL11:
 182 0034 F3D1     		bne	.L18
 183              		.loc 1 82 0
 184 0036 2B48     		ldr	r0, .L31+8
 185 0038 FFF7FEFF 		bl	chPoolAlloc
 186              	.LVL12:
 187 003c B0FA80F1 		clz	r1, r0
 188 0040 4909     		lsrs	r1, r1, #5
 189 0042 0220     		movs	r0, #2
 190 0044 FFF7FEFF 		bl	_test_assert
 191              	.LVL13:
 192 0048 50BB     		cbnz	r0, .L15
 193 004a 274C     		ldr	r4, .L31+12
 194              	.LVL14:
 195              	.LBB4:
 196              	.LBB5:
 197              		.loc 1 86 0
 198 004c DFF89480 		ldr	r8, .L31+8
 199 0050 04F11006 		add	r6, r4, #16
 200 0054 2946     		mov	r1, r5
 201 0056 4046     		mov	r0, r8
 202 0058 FFF7FEFF 		bl	chPoolFree
 203              	.LVL15:
 204              		.loc 1 85 0
 205 005c A642     		cmp	r6, r4
 206 005e 07D0     		beq	.L24
 207              	.L29:
 208 0060 54F8045B 		ldr	r5, [r4], #4
 209              		.loc 1 86 0
 210 0064 4046     		mov	r0, r8
 211 0066 2946     		mov	r1, r5
 212 0068 FFF7FEFF 		bl	chPoolFree
 213              	.LVL16:
 214              		.loc 1 85 0
 215 006c A642     		cmp	r6, r4
 216 006e F7D1     		bne	.L29
 217              	.L24:
 218              		.loc 1 90 0
 219 0070 1C4D     		ldr	r5, .L31+8
 220              		.loc 1 85 0
 221 0072 0524     		movs	r4, #5
 222              	.L20:
 223              	.LVL17:
 224              		.loc 1 90 0
 225 0074 2846     		mov	r0, r5
 226 0076 FFF7FEFF 		bl	chPoolAlloc
 227              	.LVL18:
 228 007a 011C     		adds	r1, r0, #0
ARM GAS  C:\Users\25521\AppData\Local\Temp\cchuEGrA.s 			page 5


 229 007c 18BF     		it	ne
 230 007e 0121     		movne	r1, #1
 231 0080 0320     		movs	r0, #3
 232 0082 FFF7FEFF 		bl	_test_assert
 233              	.LVL19:
 234 0086 58B9     		cbnz	r0, .L15
 235              	.LVL20:
 236              		.loc 1 89 0
 237 0088 013C     		subs	r4, r4, #1
 238              	.LVL21:
 239 008a F3D1     		bne	.L20
 240              		.loc 1 93 0
 241 008c 1548     		ldr	r0, .L31+8
 242 008e FFF7FEFF 		bl	chPoolAlloc
 243              	.LVL22:
 244 0092 B0FA80F1 		clz	r1, r0
 245 0096 4909     		lsrs	r1, r1, #5
 246 0098 0420     		movs	r0, #4
 247 009a FFF7FEFF 		bl	_test_assert
 248              	.LVL23:
 249 009e 30B1     		cbz	r0, .L30
 250              	.LVL24:
 251              	.L15:
 252              	.LBE5:
 253              	.LBE4:
 254              		.loc 1 98 0
 255 00a0 019A     		ldr	r2, [sp, #4]
 256 00a2 3B68     		ldr	r3, [r7]
 257 00a4 9A42     		cmp	r2, r3
 258 00a6 17D1     		bne	.L28
 259 00a8 02B0     		add	sp, sp, #8
 260              		.cfi_remember_state
 261              		.cfi_def_cfa_offset 24
 262              		@ sp needed
 263 00aa BDE8F081 		pop	{r4, r5, r6, r7, r8, pc}
 264              	.LVL25:
 265              	.L30:
 266              		.cfi_restore_state
 267              	.LBB8:
 268              	.LBB6:
 269              		.loc 1 96 0
 270 00ae 0F4A     		ldr	r2, .L31+16
 271 00b0 0C48     		ldr	r0, .L31+8
 272 00b2 1021     		movs	r1, #16
 273 00b4 FFF7FEFF 		bl	chPoolObjectInit
 274              	.LVL26:
 275              		.loc 1 97 0
 276 00b8 0A48     		ldr	r0, .L31+8
 277 00ba FFF7FEFF 		bl	chPoolAlloc
 278              	.LVL27:
 279 00be 019A     		ldr	r2, [sp, #4]
 280 00c0 3B68     		ldr	r3, [r7]
 281 00c2 9A42     		cmp	r2, r3
 282 00c4 08D1     		bne	.L28
 283 00c6 B0FA80F1 		clz	r1, r0
 284 00ca 4909     		lsrs	r1, r1, #5
 285 00cc 0520     		movs	r0, #5
ARM GAS  C:\Users\25521\AppData\Local\Temp\cchuEGrA.s 			page 6


 286              	.LBE6:
 287              	.LBE8:
 288              		.loc 1 98 0
 289 00ce 02B0     		add	sp, sp, #8
 290              		.cfi_remember_state
 291              		.cfi_def_cfa_offset 24
 292              		@ sp needed
 293 00d0 BDE8F041 		pop	{r4, r5, r6, r7, r8, lr}
 294              		.cfi_restore 14
 295              		.cfi_restore 8
 296              		.cfi_restore 7
 297              		.cfi_restore 6
 298              		.cfi_restore 5
 299              		.cfi_restore 4
 300              		.cfi_def_cfa_offset 0
 301              	.LVL28:
 302              	.LBB9:
 303              	.LBB7:
 304              		.loc 1 97 0
 305 00d4 FFF7FEBF 		b	_test_assert
 306              	.LVL29:
 307              	.L28:
 308              		.cfi_restore_state
 309              	.LBE7:
 310              	.LBE9:
 311              		.loc 1 98 0
 312 00d8 FFF7FEFF 		bl	__stack_chk_fail
 313              	.LVL30:
 314              	.L32:
 315              		.align	2
 316              	.L31:
 317 00dc 00000000 		.word	wa
 318 00e0 00000000 		.word	__stack_chk_guard
 319 00e4 00000000 		.word	.LANCHOR0
 320 00e8 04000000 		.word	wa+4
 321 00ec 00000000 		.word	null_provider
 322              		.cfi_endproc
 323              	.LFE232:
 324              		.size	pools1_execute, .-pools1_execute
 325              		.global	patternpools
 326              		.global	testpools1
 327              		.section	.data.mp1,"aw",%progbits
 328              		.align	2
 329              		.set	.LANCHOR0,. + 0
 330              		.type	mp1, %object
 331              		.size	mp1, 12
 332              	mp1:
 333 0000 00000000 		.word	0
 334 0004 F8010000 		.word	504
 335 0008 00000000 		.word	0
 336              		.section	.rodata.patternpools,"a",%progbits
 337              		.align	2
 338              		.type	patternpools, %object
 339              		.size	patternpools, 8
 340              	patternpools:
 341 0000 00000000 		.word	testpools1
 342 0004 00000000 		.word	0
ARM GAS  C:\Users\25521\AppData\Local\Temp\cchuEGrA.s 			page 7


 343              		.section	.rodata.str1.4,"aMS",%progbits,1
 344              		.align	2
 345              	.LC0:
 346 0000 4D656D6F 		.ascii	"Memory Pools, queue/dequeue\000"
 346      72792050 
 346      6F6F6C73 
 346      2C207175 
 346      6575652F 
 347              		.section	.rodata.testpools1,"a",%progbits
 348              		.align	2
 349              		.type	testpools1, %object
 350              		.size	testpools1, 16
 351              	testpools1:
 352 0000 00000000 		.word	.LC0
 353 0004 00000000 		.word	pools1_setup
 354 0008 00000000 		.word	0
 355 000c 00000000 		.word	pools1_execute
 356              		.text
 357              	.Letext0:
 358              		.file 2 "d:\\eclipse_e-puck2_win32_11_apr_2018\\eclipse_e-puck2\\tools\\gcc-arm-none-eabi-7-2017-q
 359              		.file 3 "d:\\eclipse_e-puck2_win32_11_apr_2018\\eclipse_e-puck2\\tools\\gcc-arm-none-eabi-7-2017-q
 360              		.file 4 "d:\\eclipse_e-puck2_win32_11_apr_2018\\eclipse_e-puck2\\tools\\gcc-arm-none-eabi-7-2017-q
 361              		.file 5 ".//ChibiOS//os/rt/ports/ARMCMx/compilers/GCC/chtypes.h"
 362              		.file 6 ".//ChibiOS//os/rt/include/chsystypes.h"
 363              		.file 7 ".//ChibiOS//os/rt/include/chschd.h"
 364              		.file 8 ".//ChibiOS//os/ext/CMSIS/include/core_cm4.h"
 365              		.file 9 ".//ChibiOS//os/ext/CMSIS/ST/system_stm32f4xx.h"
 366              		.file 10 ".//ChibiOS//os/rt/ports/ARMCMx/chcore.h"
 367              		.file 11 ".//ChibiOS//os/rt/ports/ARMCMx/chcore_v7m.h"
 368              		.file 12 ".//ChibiOS//os/rt/include/chdebug.h"
 369              		.file 13 ".//ChibiOS//os/rt/include/chtm.h"
 370              		.file 14 ".//ChibiOS//os/rt/include/chstats.h"
 371              		.file 15 ".//ChibiOS//os/rt/include/chsem.h"
 372              		.file 16 ".//ChibiOS//os/rt/include/chmtx.h"
 373              		.file 17 ".//ChibiOS//os/rt/include/chregistry.h"
 374              		.file 18 ".//ChibiOS//os/rt/include/chmemcore.h"
 375              		.file 19 ".//ChibiOS//os/rt/include/chmempools.h"
 376              		.file 20 ".//ChibiOS//test/rt/test.h"
 377              		.section	.debug_info,"",%progbits
 378              	.Ldebug_info0:
 379 0000 2E0E0000 		.4byte	0xe2e
 380 0004 0400     		.2byte	0x4
 381 0006 00000000 		.4byte	.Ldebug_abbrev0
 382 000a 04       		.byte	0x4
 383 000b 01       		.uleb128 0x1
 384 000c 58020000 		.4byte	.LASF182
 385 0010 0C       		.byte	0xc
 386 0011 68060000 		.4byte	.LASF183
 387 0015 CA070000 		.4byte	.LASF184
 388 0019 20000000 		.4byte	.Ldebug_ranges0+0x20
 389 001d 00000000 		.4byte	0
 390 0021 00000000 		.4byte	.Ldebug_line0
 391 0025 02       		.uleb128 0x2
 392 0026 04       		.byte	0x4
 393 0027 05       		.byte	0x5
 394 0028 696E7400 		.ascii	"int\000"
 395 002c 03       		.uleb128 0x3
ARM GAS  C:\Users\25521\AppData\Local\Temp\cchuEGrA.s 			page 8


 396 002d 22000000 		.4byte	.LASF4
 397 0031 02       		.byte	0x2
 398 0032 D8       		.byte	0xd8
 399 0033 37000000 		.4byte	0x37
 400 0037 04       		.uleb128 0x4
 401 0038 04       		.byte	0x4
 402 0039 07       		.byte	0x7
 403 003a 4B020000 		.4byte	.LASF0
 404 003e 04       		.uleb128 0x4
 405 003f 08       		.byte	0x8
 406 0040 05       		.byte	0x5
 407 0041 36010000 		.4byte	.LASF1
 408 0045 04       		.uleb128 0x4
 409 0046 08       		.byte	0x8
 410 0047 04       		.byte	0x4
 411 0048 19050000 		.4byte	.LASF2
 412 004c 04       		.uleb128 0x4
 413 004d 01       		.byte	0x1
 414 004e 06       		.byte	0x6
 415 004f 44010000 		.4byte	.LASF3
 416 0053 03       		.uleb128 0x3
 417 0054 46000000 		.4byte	.LASF5
 418 0058 03       		.byte	0x3
 419 0059 2B       		.byte	0x2b
 420 005a 5E000000 		.4byte	0x5e
 421 005e 04       		.uleb128 0x4
 422 005f 01       		.byte	0x1
 423 0060 08       		.byte	0x8
 424 0061 2C060000 		.4byte	.LASF6
 425 0065 04       		.uleb128 0x4
 426 0066 02       		.byte	0x2
 427 0067 05       		.byte	0x5
 428 0068 44060000 		.4byte	.LASF7
 429 006c 03       		.uleb128 0x3
 430 006d 6A070000 		.4byte	.LASF8
 431 0071 03       		.byte	0x3
 432 0072 39       		.byte	0x39
 433 0073 77000000 		.4byte	0x77
 434 0077 04       		.uleb128 0x4
 435 0078 02       		.byte	0x2
 436 0079 07       		.byte	0x7
 437 007a 0F040000 		.4byte	.LASF9
 438 007e 03       		.uleb128 0x3
 439 007f B1040000 		.4byte	.LASF10
 440 0083 03       		.byte	0x3
 441 0084 4D       		.byte	0x4d
 442 0085 89000000 		.4byte	0x89
 443 0089 04       		.uleb128 0x4
 444 008a 04       		.byte	0x4
 445 008b 05       		.byte	0x5
 446 008c 9E010000 		.4byte	.LASF11
 447 0090 03       		.uleb128 0x3
 448 0091 B5070000 		.4byte	.LASF12
 449 0095 03       		.byte	0x3
 450 0096 4F       		.byte	0x4f
 451 0097 9B000000 		.4byte	0x9b
 452 009b 04       		.uleb128 0x4
ARM GAS  C:\Users\25521\AppData\Local\Temp\cchuEGrA.s 			page 9


 453 009c 04       		.byte	0x4
 454 009d 07       		.byte	0x7
 455 009e 4C070000 		.4byte	.LASF13
 456 00a2 03       		.uleb128 0x3
 457 00a3 B4050000 		.4byte	.LASF14
 458 00a7 03       		.byte	0x3
 459 00a8 69       		.byte	0x69
 460 00a9 AD000000 		.4byte	0xad
 461 00ad 04       		.uleb128 0x4
 462 00ae 08       		.byte	0x8
 463 00af 07       		.byte	0x7
 464 00b0 95000000 		.4byte	.LASF15
 465 00b4 03       		.uleb128 0x3
 466 00b5 86080000 		.4byte	.LASF16
 467 00b9 04       		.byte	0x4
 468 00ba 18       		.byte	0x18
 469 00bb 53000000 		.4byte	0x53
 470 00bf 03       		.uleb128 0x3
 471 00c0 9C030000 		.4byte	.LASF17
 472 00c4 04       		.byte	0x4
 473 00c5 24       		.byte	0x24
 474 00c6 6C000000 		.4byte	0x6c
 475 00ca 03       		.uleb128 0x3
 476 00cb 24060000 		.4byte	.LASF18
 477 00cf 04       		.byte	0x4
 478 00d0 2C       		.byte	0x2c
 479 00d1 7E000000 		.4byte	0x7e
 480 00d5 05       		.uleb128 0x5
 481 00d6 CA000000 		.4byte	0xca
 482 00da 03       		.uleb128 0x3
 483 00db 14070000 		.4byte	.LASF19
 484 00df 04       		.byte	0x4
 485 00e0 30       		.byte	0x30
 486 00e1 90000000 		.4byte	0x90
 487 00e5 03       		.uleb128 0x3
 488 00e6 30000000 		.4byte	.LASF20
 489 00ea 04       		.byte	0x4
 490 00eb 3C       		.byte	0x3c
 491 00ec A2000000 		.4byte	0xa2
 492 00f0 03       		.uleb128 0x3
 493 00f1 FA040000 		.4byte	.LASF21
 494 00f5 05       		.byte	0x5
 495 00f6 45       		.byte	0x45
 496 00f7 DA000000 		.4byte	0xda
 497 00fb 03       		.uleb128 0x3
 498 00fc 08010000 		.4byte	.LASF22
 499 0100 05       		.byte	0x5
 500 0101 46       		.byte	0x46
 501 0102 E5000000 		.4byte	0xe5
 502 0106 03       		.uleb128 0x3
 503 0107 96060000 		.4byte	.LASF23
 504 010b 05       		.byte	0x5
 505 010c 48       		.byte	0x48
 506 010d B4000000 		.4byte	0xb4
 507 0111 03       		.uleb128 0x3
 508 0112 A7010000 		.4byte	.LASF24
 509 0116 05       		.byte	0x5
ARM GAS  C:\Users\25521\AppData\Local\Temp\cchuEGrA.s 			page 10


 510 0117 49       		.byte	0x49
 511 0118 B4000000 		.4byte	0xb4
 512 011c 03       		.uleb128 0x3
 513 011d CA050000 		.4byte	.LASF25
 514 0121 05       		.byte	0x5
 515 0122 4A       		.byte	0x4a
 516 0123 B4000000 		.4byte	0xb4
 517 0127 03       		.uleb128 0x3
 518 0128 84010000 		.4byte	.LASF26
 519 012c 05       		.byte	0x5
 520 012d 4B       		.byte	0x4b
 521 012e B4000000 		.4byte	0xb4
 522 0132 03       		.uleb128 0x3
 523 0133 06060000 		.4byte	.LASF27
 524 0137 05       		.byte	0x5
 525 0138 4C       		.byte	0x4c
 526 0139 DA000000 		.4byte	0xda
 527 013d 03       		.uleb128 0x3
 528 013e 46040000 		.4byte	.LASF28
 529 0142 05       		.byte	0x5
 530 0143 4D       		.byte	0x4d
 531 0144 CA000000 		.4byte	0xca
 532 0148 03       		.uleb128 0x3
 533 0149 A5040000 		.4byte	.LASF29
 534 014d 05       		.byte	0x5
 535 014e 4F       		.byte	0x4f
 536 014f DA000000 		.4byte	0xda
 537 0153 03       		.uleb128 0x3
 538 0154 3A020000 		.4byte	.LASF30
 539 0158 05       		.byte	0x5
 540 0159 51       		.byte	0x51
 541 015a CA000000 		.4byte	0xca
 542 015e 03       		.uleb128 0x3
 543 015f 51040000 		.4byte	.LASF31
 544 0163 05       		.byte	0x5
 545 0164 52       		.byte	0x52
 546 0165 DA000000 		.4byte	0xda
 547 0169 03       		.uleb128 0x3
 548 016a 97070000 		.4byte	.LASF32
 549 016e 06       		.byte	0x6
 550 016f 33       		.byte	0x33
 551 0170 DA000000 		.4byte	0xda
 552 0174 05       		.uleb128 0x5
 553 0175 69010000 		.4byte	0x169
 554 0179 03       		.uleb128 0x3
 555 017a 82070000 		.4byte	.LASF33
 556 017e 06       		.byte	0x6
 557 017f 3F       		.byte	0x3f
 558 0180 84010000 		.4byte	0x184
 559 0184 06       		.uleb128 0x6
 560 0185 31040000 		.4byte	.LASF57
 561 0189 68       		.byte	0x68
 562 018a 07       		.byte	0x7
 563 018b C2       		.byte	0xc2
 564 018c A2020000 		.4byte	0x2a2
 565 0190 07       		.uleb128 0x7
 566 0191 8F060000 		.4byte	.LASF34
ARM GAS  C:\Users\25521\AppData\Local\Temp\cchuEGrA.s 			page 11


 567 0195 07       		.byte	0x7
 568 0196 C3       		.byte	0xc3
 569 0197 AD020000 		.4byte	0x2ad
 570 019b 00       		.byte	0
 571 019c 07       		.uleb128 0x7
 572 019d F7050000 		.4byte	.LASF35
 573 01a1 07       		.byte	0x7
 574 01a2 C5       		.byte	0xc5
 575 01a3 AD020000 		.4byte	0x2ad
 576 01a7 04       		.byte	0x4
 577 01a8 07       		.uleb128 0x7
 578 01a9 11010000 		.4byte	.LASF36
 579 01ad 07       		.byte	0x7
 580 01ae C7       		.byte	0xc7
 581 01af 32010000 		.4byte	0x132
 582 01b3 08       		.byte	0x8
 583 01b4 07       		.uleb128 0x7
 584 01b5 69050000 		.4byte	.LASF37
 585 01b9 07       		.byte	0x7
 586 01ba C8       		.byte	0xc8
 587 01bb 2B050000 		.4byte	0x52b
 588 01bf 0C       		.byte	0xc
 589 01c0 07       		.uleb128 0x7
 590 01c1 C7010000 		.4byte	.LASF38
 591 01c5 07       		.byte	0x7
 592 01c6 CA       		.byte	0xca
 593 01c7 AD020000 		.4byte	0x2ad
 594 01cb 10       		.byte	0x10
 595 01cc 07       		.uleb128 0x7
 596 01cd 5B050000 		.4byte	.LASF39
 597 01d1 07       		.byte	0x7
 598 01d2 CB       		.byte	0xcb
 599 01d3 AD020000 		.4byte	0x2ad
 600 01d7 14       		.byte	0x14
 601 01d8 07       		.uleb128 0x7
 602 01d9 0E060000 		.4byte	.LASF40
 603 01dd 07       		.byte	0x7
 604 01de D2       		.byte	0xd2
 605 01df AA080000 		.4byte	0x8aa
 606 01e3 18       		.byte	0x18
 607 01e4 07       		.uleb128 0x7
 608 01e5 40020000 		.4byte	.LASF41
 609 01e9 07       		.byte	0x7
 610 01ea D8       		.byte	0xd8
 611 01eb C1080000 		.4byte	0x8c1
 612 01ef 1C       		.byte	0x1c
 613 01f0 07       		.uleb128 0x7
 614 01f1 4E060000 		.4byte	.LASF42
 615 01f5 07       		.byte	0x7
 616 01f6 DD       		.byte	0xdd
 617 01f7 11010000 		.4byte	0x111
 618 01fb 20       		.byte	0x20
 619 01fc 07       		.uleb128 0x7
 620 01fd AD060000 		.4byte	.LASF43
 621 0201 07       		.byte	0x7
 622 0202 E1       		.byte	0xe1
 623 0203 06010000 		.4byte	0x106
ARM GAS  C:\Users\25521\AppData\Local\Temp\cchuEGrA.s 			page 12


 624 0207 21       		.byte	0x21
 625 0208 07       		.uleb128 0x7
 626 0209 68080000 		.4byte	.LASF44
 627 020d 07       		.byte	0x7
 628 020e E6       		.byte	0xe6
 629 020f 1C010000 		.4byte	0x11c
 630 0213 22       		.byte	0x22
 631 0214 07       		.uleb128 0x7
 632 0215 56060000 		.4byte	.LASF45
 633 0219 07       		.byte	0x7
 634 021a EC       		.byte	0xec
 635 021b 27010000 		.4byte	0x127
 636 021f 23       		.byte	0x23
 637 0220 07       		.uleb128 0x7
 638 0221 B5030000 		.4byte	.LASF46
 639 0225 07       		.byte	0x7
 640 0226 F3       		.byte	0xf3
 641 0227 74010000 		.4byte	0x174
 642 022b 24       		.byte	0x24
 643 022c 08       		.uleb128 0x8
 644 022d 705F7500 		.ascii	"p_u\000"
 645 0231 07       		.byte	0x7
 646 0232 3101     		.2byte	0x131
 647 0234 D9070000 		.4byte	0x7d9
 648 0238 28       		.byte	0x28
 649 0239 09       		.uleb128 0x9
 650 023a F0040000 		.4byte	.LASF47
 651 023e 07       		.byte	0x7
 652 023f 3601     		.2byte	0x136
 653 0241 B3020000 		.4byte	0x2b3
 654 0245 2C       		.byte	0x2c
 655 0246 09       		.uleb128 0x9
 656 0247 CC030000 		.4byte	.LASF48
 657 024b 07       		.byte	0x7
 658 024c 3C01     		.2byte	0x13c
 659 024e D7020000 		.4byte	0x2d7
 660 0252 30       		.byte	0x30
 661 0253 09       		.uleb128 0x9
 662 0254 2C080000 		.4byte	.LASF49
 663 0258 07       		.byte	0x7
 664 0259 4001     		.2byte	0x140
 665 025b 3D010000 		.4byte	0x13d
 666 025f 38       		.byte	0x38
 667 0260 09       		.uleb128 0x9
 668 0261 09070000 		.4byte	.LASF50
 669 0265 07       		.byte	0x7
 670 0266 4601     		.2byte	0x146
 671 0268 48010000 		.4byte	0x148
 672 026c 3C       		.byte	0x3c
 673 026d 09       		.uleb128 0x9
 674 026e 3A060000 		.4byte	.LASF51
 675 0272 07       		.byte	0x7
 676 0273 4D01     		.2byte	0x14d
 677 0275 A4080000 		.4byte	0x8a4
 678 0279 40       		.byte	0x40
 679 027a 09       		.uleb128 0x9
 680 027b A1070000 		.4byte	.LASF52
ARM GAS  C:\Users\25521\AppData\Local\Temp\cchuEGrA.s 			page 13


 681 027f 07       		.byte	0x7
 682 0280 5101     		.2byte	0x151
 683 0282 32010000 		.4byte	0x132
 684 0286 44       		.byte	0x44
 685 0287 09       		.uleb128 0x9
 686 0288 6D010000 		.4byte	.LASF53
 687 028c 07       		.byte	0x7
 688 028d 5801     		.2byte	0x158
 689 028f 8A030000 		.4byte	0x38a
 690 0293 48       		.byte	0x48
 691 0294 09       		.uleb128 0x9
 692 0295 B5060000 		.4byte	.LASF54
 693 0299 07       		.byte	0x7
 694 029a 5E01     		.2byte	0x15e
 695 029c 8A070000 		.4byte	0x78a
 696 02a0 50       		.byte	0x50
 697 02a1 00       		.byte	0
 698 02a2 03       		.uleb128 0x3
 699 02a3 A5080000 		.4byte	.LASF55
 700 02a7 06       		.byte	0x6
 701 02a8 44       		.byte	0x44
 702 02a9 AD020000 		.4byte	0x2ad
 703 02ad 0A       		.uleb128 0xa
 704 02ae 04       		.byte	0x4
 705 02af 79010000 		.4byte	0x179
 706 02b3 03       		.uleb128 0x3
 707 02b4 C6040000 		.4byte	.LASF56
 708 02b8 06       		.byte	0x6
 709 02b9 49       		.byte	0x49
 710 02ba BE020000 		.4byte	0x2be
 711 02be 06       		.uleb128 0x6
 712 02bf 34070000 		.4byte	.LASF58
 713 02c3 04       		.byte	0x4
 714 02c4 07       		.byte	0x7
 715 02c5 B0       		.byte	0xb0
 716 02c6 D7020000 		.4byte	0x2d7
 717 02ca 07       		.uleb128 0x7
 718 02cb 8F060000 		.4byte	.LASF34
 719 02cf 07       		.byte	0x7
 720 02d0 B1       		.byte	0xb1
 721 02d1 AD020000 		.4byte	0x2ad
 722 02d5 00       		.byte	0
 723 02d6 00       		.byte	0
 724 02d7 03       		.uleb128 0x3
 725 02d8 BD060000 		.4byte	.LASF59
 726 02dc 06       		.byte	0x6
 727 02dd 50       		.byte	0x50
 728 02de E2020000 		.4byte	0x2e2
 729 02e2 06       		.uleb128 0x6
 730 02e3 5C000000 		.4byte	.LASF60
 731 02e7 08       		.byte	0x8
 732 02e8 07       		.byte	0x7
 733 02e9 B7       		.byte	0xb7
 734 02ea 07030000 		.4byte	0x307
 735 02ee 07       		.uleb128 0x7
 736 02ef 8F060000 		.4byte	.LASF34
 737 02f3 07       		.byte	0x7
ARM GAS  C:\Users\25521\AppData\Local\Temp\cchuEGrA.s 			page 14


 738 02f4 B8       		.byte	0xb8
 739 02f5 AD020000 		.4byte	0x2ad
 740 02f9 00       		.byte	0
 741 02fa 07       		.uleb128 0x7
 742 02fb F7050000 		.4byte	.LASF35
 743 02ff 07       		.byte	0x7
 744 0300 B9       		.byte	0xb9
 745 0301 AD020000 		.4byte	0x2ad
 746 0305 04       		.byte	0x4
 747 0306 00       		.byte	0
 748 0307 03       		.uleb128 0x3
 749 0308 0D000000 		.4byte	.LASF61
 750 030c 06       		.byte	0x6
 751 030d 57       		.byte	0x57
 752 030e 12030000 		.4byte	0x312
 753 0312 0B       		.uleb128 0xb
 754 0313 97040000 		.4byte	.LASF62
 755 0317 1C       		.byte	0x1c
 756 0318 07       		.byte	0x7
 757 0319 9001     		.2byte	0x190
 758 031b 6E030000 		.4byte	0x36e
 759 031f 09       		.uleb128 0x9
 760 0320 38050000 		.4byte	.LASF63
 761 0324 07       		.byte	0x7
 762 0325 9101     		.2byte	0x191
 763 0327 D7020000 		.4byte	0x2d7
 764 032b 00       		.byte	0
 765 032c 09       		.uleb128 0x9
 766 032d E9040000 		.4byte	.LASF64
 767 0331 07       		.byte	0x7
 768 0332 9201     		.2byte	0x192
 769 0334 32010000 		.4byte	0x132
 770 0338 08       		.byte	0x8
 771 0339 09       		.uleb128 0x9
 772 033a 63050000 		.4byte	.LASF65
 773 033e 07       		.byte	0x7
 774 033f 9401     		.2byte	0x194
 775 0341 2B050000 		.4byte	0x52b
 776 0345 0C       		.byte	0xc
 777 0346 09       		.uleb128 0x9
 778 0347 DF010000 		.4byte	.LASF66
 779 034b 07       		.byte	0x7
 780 034c 9701     		.2byte	0x197
 781 034e AD020000 		.4byte	0x2ad
 782 0352 10       		.byte	0x10
 783 0353 09       		.uleb128 0x9
 784 0354 9F050000 		.4byte	.LASF67
 785 0358 07       		.byte	0x7
 786 0359 9801     		.2byte	0x198
 787 035b AD020000 		.4byte	0x2ad
 788 035f 14       		.byte	0x14
 789 0360 09       		.uleb128 0x9
 790 0361 95050000 		.4byte	.LASF68
 791 0365 07       		.byte	0x7
 792 0366 9B01     		.2byte	0x19b
 793 0368 AD020000 		.4byte	0x2ad
 794 036c 18       		.byte	0x18
ARM GAS  C:\Users\25521\AppData\Local\Temp\cchuEGrA.s 			page 15


 795 036d 00       		.byte	0
 796 036e 03       		.uleb128 0x3
 797 036f AC070000 		.4byte	.LASF69
 798 0373 06       		.byte	0x6
 799 0374 5C       		.byte	0x5c
 800 0375 79030000 		.4byte	0x379
 801 0379 0A       		.uleb128 0xa
 802 037a 04       		.byte	0x4
 803 037b 7F030000 		.4byte	0x37f
 804 037f 0C       		.uleb128 0xc
 805 0380 8A030000 		.4byte	0x38a
 806 0384 0D       		.uleb128 0xd
 807 0385 8A030000 		.4byte	0x38a
 808 0389 00       		.byte	0
 809 038a 0E       		.uleb128 0xe
 810 038b 04       		.byte	0x4
 811 038c 0F       		.uleb128 0xf
 812 038d 8A030000 		.4byte	0x38a
 813 0391 03       		.uleb128 0x3
 814 0392 E7050000 		.4byte	.LASF70
 815 0396 06       		.byte	0x6
 816 0397 61       		.byte	0x61
 817 0398 9C030000 		.4byte	0x39c
 818 039c 0B       		.uleb128 0xb
 819 039d CD060000 		.4byte	.LASF71
 820 03a1 14       		.byte	0x14
 821 03a2 07       		.byte	0x7
 822 03a3 6B01     		.2byte	0x16b
 823 03a5 EB030000 		.4byte	0x3eb
 824 03a9 09       		.uleb128 0x9
 825 03aa 1A020000 		.4byte	.LASF72
 826 03ae 07       		.byte	0x7
 827 03af 6C01     		.2byte	0x16c
 828 03b1 C7080000 		.4byte	0x8c7
 829 03b5 00       		.byte	0
 830 03b6 09       		.uleb128 0x9
 831 03b7 FC010000 		.4byte	.LASF73
 832 03bb 07       		.byte	0x7
 833 03bc 6D01     		.2byte	0x16d
 834 03be C7080000 		.4byte	0x8c7
 835 03c2 04       		.byte	0x4
 836 03c3 09       		.uleb128 0x9
 837 03c4 C3030000 		.4byte	.LASF74
 838 03c8 07       		.byte	0x7
 839 03c9 6E01     		.2byte	0x16e
 840 03cb 69010000 		.4byte	0x169
 841 03cf 08       		.byte	0x8
 842 03d0 09       		.uleb128 0x9
 843 03d1 3A090000 		.4byte	.LASF75
 844 03d5 07       		.byte	0x7
 845 03d6 6F01     		.2byte	0x16f
 846 03d8 6E030000 		.4byte	0x36e
 847 03dc 0C       		.byte	0xc
 848 03dd 09       		.uleb128 0x9
 849 03de 3F080000 		.4byte	.LASF76
 850 03e2 07       		.byte	0x7
 851 03e3 7101     		.2byte	0x171
ARM GAS  C:\Users\25521\AppData\Local\Temp\cchuEGrA.s 			page 16


 852 03e5 8A030000 		.4byte	0x38a
 853 03e9 10       		.byte	0x10
 854 03ea 00       		.byte	0
 855 03eb 03       		.uleb128 0x3
 856 03ec E5000000 		.4byte	.LASF77
 857 03f0 06       		.byte	0x6
 858 03f1 66       		.byte	0x66
 859 03f2 F6030000 		.4byte	0x3f6
 860 03f6 0B       		.uleb128 0xb
 861 03f7 02050000 		.4byte	.LASF78
 862 03fb 10       		.byte	0x10
 863 03fc 07       		.byte	0x7
 864 03fd 7B01     		.2byte	0x17b
 865 03ff 38040000 		.4byte	0x438
 866 0403 09       		.uleb128 0x9
 867 0404 1A020000 		.4byte	.LASF72
 868 0408 07       		.byte	0x7
 869 0409 7C01     		.2byte	0x17c
 870 040b C7080000 		.4byte	0x8c7
 871 040f 00       		.byte	0
 872 0410 09       		.uleb128 0x9
 873 0411 FC010000 		.4byte	.LASF73
 874 0415 07       		.byte	0x7
 875 0416 7E01     		.2byte	0x17e
 876 0418 C7080000 		.4byte	0x8c7
 877 041c 04       		.byte	0x4
 878 041d 09       		.uleb128 0x9
 879 041e C3030000 		.4byte	.LASF74
 880 0422 07       		.byte	0x7
 881 0423 8001     		.2byte	0x180
 882 0425 69010000 		.4byte	0x169
 883 0429 08       		.byte	0x8
 884 042a 09       		.uleb128 0x9
 885 042b E7080000 		.4byte	.LASF79
 886 042f 07       		.byte	0x7
 887 0430 8201     		.2byte	0x182
 888 0432 74010000 		.4byte	0x174
 889 0436 0C       		.byte	0xc
 890 0437 00       		.byte	0
 891 0438 03       		.uleb128 0x3
 892 0439 6D000000 		.4byte	.LASF80
 893 043d 06       		.byte	0x6
 894 043e 6B       		.byte	0x6b
 895 043f 43040000 		.4byte	0x443
 896 0443 10       		.uleb128 0x10
 897 0444 04020000 		.4byte	.LASF81
 898 0448 1404     		.2byte	0x414
 899 044a 07       		.byte	0x7
 900 044b A201     		.2byte	0x1a2
 901 044d 86040000 		.4byte	0x486
 902 0451 09       		.uleb128 0x9
 903 0452 C0070000 		.4byte	.LASF82
 904 0456 07       		.byte	0x7
 905 0457 AA01     		.2byte	0x1aa
 906 0459 B0080000 		.4byte	0x8b0
 907 045d 00       		.byte	0
 908 045e 09       		.uleb128 0x9
ARM GAS  C:\Users\25521\AppData\Local\Temp\cchuEGrA.s 			page 17


 909 045f 6F080000 		.4byte	.LASF83
 910 0463 07       		.byte	0x7
 911 0464 AF01     		.2byte	0x1af
 912 0466 53010000 		.4byte	0x153
 913 046a 04       		.byte	0x4
 914 046b 09       		.uleb128 0x9
 915 046c 22020000 		.4byte	.LASF84
 916 0470 07       		.byte	0x7
 917 0471 B301     		.2byte	0x1b3
 918 0473 53010000 		.4byte	0x153
 919 0477 08       		.byte	0x8
 920 0478 09       		.uleb128 0x9
 921 0479 F2080000 		.4byte	.LASF85
 922 047d 07       		.byte	0x7
 923 047e B901     		.2byte	0x1b9
 924 0480 1C070000 		.4byte	0x71c
 925 0484 0C       		.byte	0xc
 926 0485 00       		.byte	0
 927 0486 03       		.uleb128 0x3
 928 0487 58040000 		.4byte	.LASF86
 929 048b 06       		.byte	0x6
 930 048c 70       		.byte	0x70
 931 048d 91040000 		.4byte	0x491
 932 0491 10       		.uleb128 0x10
 933 0492 94010000 		.4byte	.LASF87
 934 0496 7006     		.2byte	0x670
 935 0498 07       		.byte	0x7
 936 0499 C201     		.2byte	0x1c2
 937 049b FE040000 		.4byte	0x4fe
 938 049f 09       		.uleb128 0x9
 939 04a0 80080000 		.4byte	.LASF88
 940 04a4 07       		.byte	0x7
 941 04a5 C601     		.2byte	0x1c6
 942 04a7 07030000 		.4byte	0x307
 943 04ab 00       		.byte	0
 944 04ac 09       		.uleb128 0x9
 945 04ad 7D010000 		.4byte	.LASF89
 946 04b1 07       		.byte	0x7
 947 04b2 CA01     		.2byte	0x1ca
 948 04b4 EB030000 		.4byte	0x3eb
 949 04b8 1C       		.byte	0x1c
 950 04b9 08       		.uleb128 0x8
 951 04ba 64626700 		.ascii	"dbg\000"
 952 04be 07       		.byte	0x7
 953 04bf CE01     		.2byte	0x1ce
 954 04c1 38040000 		.4byte	0x438
 955 04c5 2C       		.byte	0x2c
 956 04c6 11       		.uleb128 0x11
 957 04c7 D5000000 		.4byte	.LASF90
 958 04cb 07       		.byte	0x7
 959 04cc D201     		.2byte	0x1d2
 960 04ce 79010000 		.4byte	0x179
 961 04d2 4004     		.2byte	0x440
 962 04d4 12       		.uleb128 0x12
 963 04d5 746D00   		.ascii	"tm\000"
 964 04d8 07       		.byte	0x7
 965 04d9 D701     		.2byte	0x1d7
ARM GAS  C:\Users\25521\AppData\Local\Temp\cchuEGrA.s 			page 18


 966 04db 3C070000 		.4byte	0x73c
 967 04df A804     		.2byte	0x4a8
 968 04e1 11       		.uleb128 0x11
 969 04e2 39000000 		.4byte	.LASF91
 970 04e6 07       		.byte	0x7
 971 04e7 DD01     		.2byte	0x1dd
 972 04e9 CE070000 		.4byte	0x7ce
 973 04ed B004     		.2byte	0x4b0
 974 04ef 11       		.uleb128 0x11
 975 04f0 2B020000 		.4byte	.LASF92
 976 04f4 07       		.byte	0x7
 977 04f5 E301     		.2byte	0x1e3
 978 04f7 CD080000 		.4byte	0x8cd
 979 04fb E804     		.2byte	0x4e8
 980 04fd 00       		.byte	0
 981 04fe 13       		.uleb128 0x13
 982 04ff FB000000 		.4byte	.LASF93
 983 0503 08       		.byte	0x8
 984 0504 FA06     		.2byte	0x6fa
 985 0506 D5000000 		.4byte	0xd5
 986 050a 14       		.uleb128 0x14
 987 050b A5030000 		.4byte	.LASF94
 988 050f 09       		.byte	0x9
 989 0510 4C       		.byte	0x4c
 990 0511 DA000000 		.4byte	0xda
 991 0515 03       		.uleb128 0x3
 992 0516 F3010000 		.4byte	.LASF95
 993 051a 0A       		.byte	0xa
 994 051b 65       		.byte	0x65
 995 051c 8A030000 		.4byte	0x38a
 996 0520 03       		.uleb128 0x3
 997 0521 BB040000 		.4byte	.LASF96
 998 0525 0A       		.byte	0xa
 999 0526 6D       		.byte	0x6d
 1000 0527 E5000000 		.4byte	0xe5
 1001 052b 06       		.uleb128 0x6
 1002 052c 24080000 		.4byte	.LASF97
 1003 0530 04       		.byte	0x4
 1004 0531 0A       		.byte	0xa
 1005 0532 89       		.byte	0x89
 1006 0533 44050000 		.4byte	0x544
 1007 0537 15       		.uleb128 0x15
 1008 0538 72313300 		.ascii	"r13\000"
 1009 053c 0A       		.byte	0xa
 1010 053d 8A       		.byte	0x8a
 1011 053e 8E060000 		.4byte	0x68e
 1012 0542 00       		.byte	0
 1013 0543 00       		.byte	0
 1014 0544 06       		.uleb128 0x6
 1015 0545 50000000 		.4byte	.LASF98
 1016 0549 64       		.byte	0x64
 1017 054a 0B       		.byte	0xb
 1018 054b FD       		.byte	0xfd
 1019 054c 8E060000 		.4byte	0x68e
 1020 0550 15       		.uleb128 0x15
 1021 0551 73313600 		.ascii	"s16\000"
 1022 0555 0B       		.byte	0xb
ARM GAS  C:\Users\25521\AppData\Local\Temp\cchuEGrA.s 			page 19


 1023 0556 FF       		.byte	0xff
 1024 0557 15050000 		.4byte	0x515
 1025 055b 00       		.byte	0
 1026 055c 08       		.uleb128 0x8
 1027 055d 73313700 		.ascii	"s17\000"
 1028 0561 0B       		.byte	0xb
 1029 0562 0001     		.2byte	0x100
 1030 0564 15050000 		.4byte	0x515
 1031 0568 04       		.byte	0x4
 1032 0569 08       		.uleb128 0x8
 1033 056a 73313800 		.ascii	"s18\000"
 1034 056e 0B       		.byte	0xb
 1035 056f 0101     		.2byte	0x101
 1036 0571 15050000 		.4byte	0x515
 1037 0575 08       		.byte	0x8
 1038 0576 08       		.uleb128 0x8
 1039 0577 73313900 		.ascii	"s19\000"
 1040 057b 0B       		.byte	0xb
 1041 057c 0201     		.2byte	0x102
 1042 057e 15050000 		.4byte	0x515
 1043 0582 0C       		.byte	0xc
 1044 0583 08       		.uleb128 0x8
 1045 0584 73323000 		.ascii	"s20\000"
 1046 0588 0B       		.byte	0xb
 1047 0589 0301     		.2byte	0x103
 1048 058b 15050000 		.4byte	0x515
 1049 058f 10       		.byte	0x10
 1050 0590 08       		.uleb128 0x8
 1051 0591 73323100 		.ascii	"s21\000"
 1052 0595 0B       		.byte	0xb
 1053 0596 0401     		.2byte	0x104
 1054 0598 15050000 		.4byte	0x515
 1055 059c 14       		.byte	0x14
 1056 059d 08       		.uleb128 0x8
 1057 059e 73323200 		.ascii	"s22\000"
 1058 05a2 0B       		.byte	0xb
 1059 05a3 0501     		.2byte	0x105
 1060 05a5 15050000 		.4byte	0x515
 1061 05a9 18       		.byte	0x18
 1062 05aa 08       		.uleb128 0x8
 1063 05ab 73323300 		.ascii	"s23\000"
 1064 05af 0B       		.byte	0xb
 1065 05b0 0601     		.2byte	0x106
 1066 05b2 15050000 		.4byte	0x515
 1067 05b6 1C       		.byte	0x1c
 1068 05b7 08       		.uleb128 0x8
 1069 05b8 73323400 		.ascii	"s24\000"
 1070 05bc 0B       		.byte	0xb
 1071 05bd 0701     		.2byte	0x107
 1072 05bf 15050000 		.4byte	0x515
 1073 05c3 20       		.byte	0x20
 1074 05c4 08       		.uleb128 0x8
 1075 05c5 73323500 		.ascii	"s25\000"
 1076 05c9 0B       		.byte	0xb
 1077 05ca 0801     		.2byte	0x108
 1078 05cc 15050000 		.4byte	0x515
 1079 05d0 24       		.byte	0x24
ARM GAS  C:\Users\25521\AppData\Local\Temp\cchuEGrA.s 			page 20


 1080 05d1 08       		.uleb128 0x8
 1081 05d2 73323600 		.ascii	"s26\000"
 1082 05d6 0B       		.byte	0xb
 1083 05d7 0901     		.2byte	0x109
 1084 05d9 15050000 		.4byte	0x515
 1085 05dd 28       		.byte	0x28
 1086 05de 08       		.uleb128 0x8
 1087 05df 73323700 		.ascii	"s27\000"
 1088 05e3 0B       		.byte	0xb
 1089 05e4 0A01     		.2byte	0x10a
 1090 05e6 15050000 		.4byte	0x515
 1091 05ea 2C       		.byte	0x2c
 1092 05eb 08       		.uleb128 0x8
 1093 05ec 73323800 		.ascii	"s28\000"
 1094 05f0 0B       		.byte	0xb
 1095 05f1 0B01     		.2byte	0x10b
 1096 05f3 15050000 		.4byte	0x515
 1097 05f7 30       		.byte	0x30
 1098 05f8 08       		.uleb128 0x8
 1099 05f9 73323900 		.ascii	"s29\000"
 1100 05fd 0B       		.byte	0xb
 1101 05fe 0C01     		.2byte	0x10c
 1102 0600 15050000 		.4byte	0x515
 1103 0604 34       		.byte	0x34
 1104 0605 08       		.uleb128 0x8
 1105 0606 73333000 		.ascii	"s30\000"
 1106 060a 0B       		.byte	0xb
 1107 060b 0D01     		.2byte	0x10d
 1108 060d 15050000 		.4byte	0x515
 1109 0611 38       		.byte	0x38
 1110 0612 08       		.uleb128 0x8
 1111 0613 73333100 		.ascii	"s31\000"
 1112 0617 0B       		.byte	0xb
 1113 0618 0E01     		.2byte	0x10e
 1114 061a 15050000 		.4byte	0x515
 1115 061e 3C       		.byte	0x3c
 1116 061f 08       		.uleb128 0x8
 1117 0620 723400   		.ascii	"r4\000"
 1118 0623 0B       		.byte	0xb
 1119 0624 1001     		.2byte	0x110
 1120 0626 15050000 		.4byte	0x515
 1121 062a 40       		.byte	0x40
 1122 062b 08       		.uleb128 0x8
 1123 062c 723500   		.ascii	"r5\000"
 1124 062f 0B       		.byte	0xb
 1125 0630 1101     		.2byte	0x111
 1126 0632 15050000 		.4byte	0x515
 1127 0636 44       		.byte	0x44
 1128 0637 08       		.uleb128 0x8
 1129 0638 723600   		.ascii	"r6\000"
 1130 063b 0B       		.byte	0xb
 1131 063c 1201     		.2byte	0x112
 1132 063e 15050000 		.4byte	0x515
 1133 0642 48       		.byte	0x48
 1134 0643 08       		.uleb128 0x8
 1135 0644 723700   		.ascii	"r7\000"
 1136 0647 0B       		.byte	0xb
ARM GAS  C:\Users\25521\AppData\Local\Temp\cchuEGrA.s 			page 21


 1137 0648 1301     		.2byte	0x113
 1138 064a 15050000 		.4byte	0x515
 1139 064e 4C       		.byte	0x4c
 1140 064f 08       		.uleb128 0x8
 1141 0650 723800   		.ascii	"r8\000"
 1142 0653 0B       		.byte	0xb
 1143 0654 1401     		.2byte	0x114
 1144 0656 15050000 		.4byte	0x515
 1145 065a 50       		.byte	0x50
 1146 065b 08       		.uleb128 0x8
 1147 065c 723900   		.ascii	"r9\000"
 1148 065f 0B       		.byte	0xb
 1149 0660 1501     		.2byte	0x115
 1150 0662 15050000 		.4byte	0x515
 1151 0666 54       		.byte	0x54
 1152 0667 08       		.uleb128 0x8
 1153 0668 72313000 		.ascii	"r10\000"
 1154 066c 0B       		.byte	0xb
 1155 066d 1601     		.2byte	0x116
 1156 066f 15050000 		.4byte	0x515
 1157 0673 58       		.byte	0x58
 1158 0674 08       		.uleb128 0x8
 1159 0675 72313100 		.ascii	"r11\000"
 1160 0679 0B       		.byte	0xb
 1161 067a 1701     		.2byte	0x117
 1162 067c 15050000 		.4byte	0x515
 1163 0680 5C       		.byte	0x5c
 1164 0681 08       		.uleb128 0x8
 1165 0682 6C7200   		.ascii	"lr\000"
 1166 0685 0B       		.byte	0xb
 1167 0686 1801     		.2byte	0x118
 1168 0688 15050000 		.4byte	0x515
 1169 068c 60       		.byte	0x60
 1170 068d 00       		.byte	0
 1171 068e 0A       		.uleb128 0xa
 1172 068f 04       		.byte	0x4
 1173 0690 44050000 		.4byte	0x544
 1174 0694 16       		.uleb128 0x16
 1175 0695 10       		.byte	0x10
 1176 0696 0C       		.byte	0xc
 1177 0697 51       		.byte	0x51
 1178 0698 CD060000 		.4byte	0x6cd
 1179 069c 07       		.uleb128 0x7
 1180 069d 1A000000 		.4byte	.LASF99
 1181 06a1 0C       		.byte	0xc
 1182 06a2 55       		.byte	0x55
 1183 06a3 69010000 		.4byte	0x169
 1184 06a7 00       		.byte	0
 1185 06a8 07       		.uleb128 0x7
 1186 06a9 B0010000 		.4byte	.LASF100
 1187 06ad 0C       		.byte	0xc
 1188 06ae 59       		.byte	0x59
 1189 06af AD020000 		.4byte	0x2ad
 1190 06b3 04       		.byte	0x4
 1191 06b4 07       		.uleb128 0x7
 1192 06b5 22090000 		.4byte	.LASF101
 1193 06b9 0C       		.byte	0xc
ARM GAS  C:\Users\25521\AppData\Local\Temp\cchuEGrA.s 			page 22


 1194 06ba 5D       		.byte	0x5d
 1195 06bb 8A030000 		.4byte	0x38a
 1196 06bf 08       		.byte	0x8
 1197 06c0 07       		.uleb128 0x7
 1198 06c1 77080000 		.4byte	.LASF102
 1199 06c5 0C       		.byte	0xc
 1200 06c6 61       		.byte	0x61
 1201 06c7 B4000000 		.4byte	0xb4
 1202 06cb 0C       		.byte	0xc
 1203 06cc 00       		.byte	0
 1204 06cd 03       		.uleb128 0x3
 1205 06ce 40050000 		.4byte	.LASF103
 1206 06d2 0C       		.byte	0xc
 1207 06d3 62       		.byte	0x62
 1208 06d4 94060000 		.4byte	0x694
 1209 06d8 17       		.uleb128 0x17
 1210 06d9 0804     		.2byte	0x408
 1211 06db 0C       		.byte	0xc
 1212 06dc 67       		.byte	0x67
 1213 06dd 06070000 		.4byte	0x706
 1214 06e1 07       		.uleb128 0x7
 1215 06e2 D7010000 		.4byte	.LASF104
 1216 06e6 0C       		.byte	0xc
 1217 06e7 6B       		.byte	0x6b
 1218 06e8 37000000 		.4byte	0x37
 1219 06ec 00       		.byte	0
 1220 06ed 07       		.uleb128 0x7
 1221 06ee 31050000 		.4byte	.LASF105
 1222 06f2 0C       		.byte	0xc
 1223 06f3 6F       		.byte	0x6f
 1224 06f4 06070000 		.4byte	0x706
 1225 06f8 04       		.byte	0x4
 1226 06f9 07       		.uleb128 0x7
 1227 06fa D2050000 		.4byte	.LASF106
 1228 06fe 0C       		.byte	0xc
 1229 06ff 73       		.byte	0x73
 1230 0700 0C070000 		.4byte	0x70c
 1231 0704 08       		.byte	0x8
 1232 0705 00       		.byte	0
 1233 0706 0A       		.uleb128 0xa
 1234 0707 04       		.byte	0x4
 1235 0708 CD060000 		.4byte	0x6cd
 1236 070c 18       		.uleb128 0x18
 1237 070d CD060000 		.4byte	0x6cd
 1238 0711 1C070000 		.4byte	0x71c
 1239 0715 19       		.uleb128 0x19
 1240 0716 37000000 		.4byte	0x37
 1241 071a 3F       		.byte	0x3f
 1242 071b 00       		.byte	0
 1243 071c 03       		.uleb128 0x3
 1244 071d AC000000 		.4byte	.LASF107
 1245 0721 0C       		.byte	0xc
 1246 0722 74       		.byte	0x74
 1247 0723 D8060000 		.4byte	0x6d8
 1248 0727 16       		.uleb128 0x16
 1249 0728 04       		.byte	0x4
 1250 0729 0D       		.byte	0xd
ARM GAS  C:\Users\25521\AppData\Local\Temp\cchuEGrA.s 			page 23


 1251 072a 38       		.byte	0x38
 1252 072b 3C070000 		.4byte	0x73c
 1253 072f 07       		.uleb128 0x7
 1254 0730 0C080000 		.4byte	.LASF108
 1255 0734 0D       		.byte	0xd
 1256 0735 3C       		.byte	0x3c
 1257 0736 F0000000 		.4byte	0xf0
 1258 073a 00       		.byte	0
 1259 073b 00       		.byte	0
 1260 073c 03       		.uleb128 0x3
 1261 073d 7E050000 		.4byte	.LASF109
 1262 0741 0D       		.byte	0xd
 1263 0742 3D       		.byte	0x3d
 1264 0743 27070000 		.4byte	0x727
 1265 0747 16       		.uleb128 0x16
 1266 0748 18       		.byte	0x18
 1267 0749 0D       		.byte	0xd
 1268 074a 48       		.byte	0x48
 1269 074b 8A070000 		.4byte	0x78a
 1270 074f 07       		.uleb128 0x7
 1271 0750 8B070000 		.4byte	.LASF110
 1272 0754 0D       		.byte	0xd
 1273 0755 49       		.byte	0x49
 1274 0756 F0000000 		.4byte	0xf0
 1275 075a 00       		.byte	0
 1276 075b 07       		.uleb128 0x7
 1277 075c 7C000000 		.4byte	.LASF111
 1278 0760 0D       		.byte	0xd
 1279 0761 4A       		.byte	0x4a
 1280 0762 F0000000 		.4byte	0xf0
 1281 0766 04       		.byte	0x4
 1282 0767 07       		.uleb128 0x7
 1283 0768 4C040000 		.4byte	.LASF112
 1284 076c 0D       		.byte	0xd
 1285 076d 4B       		.byte	0x4b
 1286 076e F0000000 		.4byte	0xf0
 1287 0772 08       		.byte	0x8
 1288 0773 15       		.uleb128 0x15
 1289 0774 6E00     		.ascii	"n\000"
 1290 0776 0D       		.byte	0xd
 1291 0777 4C       		.byte	0x4c
 1292 0778 5E010000 		.4byte	0x15e
 1293 077c 0C       		.byte	0xc
 1294 077d 07       		.uleb128 0x7
 1295 077e BF050000 		.4byte	.LASF113
 1296 0782 0D       		.byte	0xd
 1297 0783 4D       		.byte	0x4d
 1298 0784 FB000000 		.4byte	0xfb
 1299 0788 10       		.byte	0x10
 1300 0789 00       		.byte	0
 1301 078a 03       		.uleb128 0x3
 1302 078b 82000000 		.4byte	.LASF114
 1303 078f 0D       		.byte	0xd
 1304 0790 4E       		.byte	0x4e
 1305 0791 47070000 		.4byte	0x747
 1306 0795 16       		.uleb128 0x16
 1307 0796 38       		.byte	0x38
ARM GAS  C:\Users\25521\AppData\Local\Temp\cchuEGrA.s 			page 24


 1308 0797 0E       		.byte	0xe
 1309 0798 38       		.byte	0x38
 1310 0799 CE070000 		.4byte	0x7ce
 1311 079d 07       		.uleb128 0x7
 1312 079e FE030000 		.4byte	.LASF115
 1313 07a2 0E       		.byte	0xe
 1314 07a3 39       		.byte	0x39
 1315 07a4 5E010000 		.4byte	0x15e
 1316 07a8 00       		.byte	0
 1317 07a9 07       		.uleb128 0x7
 1318 07aa 15060000 		.4byte	.LASF116
 1319 07ae 0E       		.byte	0xe
 1320 07af 3A       		.byte	0x3a
 1321 07b0 5E010000 		.4byte	0x15e
 1322 07b4 04       		.byte	0x4
 1323 07b5 07       		.uleb128 0x7
 1324 07b6 0F090000 		.4byte	.LASF117
 1325 07ba 0E       		.byte	0xe
 1326 07bb 3B       		.byte	0x3b
 1327 07bc 8A070000 		.4byte	0x78a
 1328 07c0 08       		.byte	0x8
 1329 07c1 07       		.uleb128 0x7
 1330 07c2 8C040000 		.4byte	.LASF118
 1331 07c6 0E       		.byte	0xe
 1332 07c7 3D       		.byte	0x3d
 1333 07c8 8A070000 		.4byte	0x78a
 1334 07cc 20       		.byte	0x20
 1335 07cd 00       		.byte	0
 1336 07ce 03       		.uleb128 0x3
 1337 07cf 22040000 		.4byte	.LASF119
 1338 07d3 0E       		.byte	0xe
 1339 07d4 3F       		.byte	0x3f
 1340 07d5 95070000 		.4byte	0x795
 1341 07d9 1A       		.uleb128 0x1a
 1342 07da 04       		.byte	0x4
 1343 07db 07       		.byte	0x7
 1344 07dc FA       		.byte	0xfa
 1345 07dd 36080000 		.4byte	0x836
 1346 07e1 1B       		.uleb128 0x1b
 1347 07e2 29000000 		.4byte	.LASF120
 1348 07e6 07       		.byte	0x7
 1349 07e7 0101     		.2byte	0x101
 1350 07e9 3D010000 		.4byte	0x13d
 1351 07ed 1B       		.uleb128 0x1b
 1352 07ee CC000000 		.4byte	.LASF121
 1353 07f2 07       		.byte	0x7
 1354 07f3 0801     		.2byte	0x108
 1355 07f5 3D010000 		.4byte	0x13d
 1356 07f9 1B       		.uleb128 0x1b
 1357 07fa B8080000 		.4byte	.LASF122
 1358 07fe 07       		.byte	0x7
 1359 07ff 0F01     		.2byte	0x10f
 1360 0801 8A030000 		.4byte	0x38a
 1361 0805 1B       		.uleb128 0x1b
 1362 0806 8E010000 		.4byte	.LASF123
 1363 080a 07       		.byte	0x7
 1364 080b 1601     		.2byte	0x116
ARM GAS  C:\Users\25521\AppData\Local\Temp\cchuEGrA.s 			page 25


 1365 080d 36080000 		.4byte	0x836
 1366 0811 1B       		.uleb128 0x1b
 1367 0812 BC030000 		.4byte	.LASF124
 1368 0816 07       		.byte	0x7
 1369 0817 1E01     		.2byte	0x11e
 1370 0819 61080000 		.4byte	0x861
 1371 081d 1B       		.uleb128 0x1b
 1372 081e 63070000 		.4byte	.LASF125
 1373 0822 07       		.byte	0x7
 1374 0823 2701     		.2byte	0x127
 1375 0825 A4080000 		.4byte	0x8a4
 1376 0829 1B       		.uleb128 0x1b
 1377 082a 88060000 		.4byte	.LASF126
 1378 082e 07       		.byte	0x7
 1379 082f 2F01     		.2byte	0x12f
 1380 0831 48010000 		.4byte	0x148
 1381 0835 00       		.byte	0
 1382 0836 0A       		.uleb128 0xa
 1383 0837 04       		.byte	0x4
 1384 0838 A2020000 		.4byte	0x2a2
 1385 083c 06       		.uleb128 0x6
 1386 083d FC060000 		.4byte	.LASF127
 1387 0841 0C       		.byte	0xc
 1388 0842 0F       		.byte	0xf
 1389 0843 34       		.byte	0x34
 1390 0844 61080000 		.4byte	0x861
 1391 0848 07       		.uleb128 0x7
 1392 0849 CF010000 		.4byte	.LASF128
 1393 084d 0F       		.byte	0xf
 1394 084e 35       		.byte	0x35
 1395 084f D7020000 		.4byte	0x2d7
 1396 0853 00       		.byte	0
 1397 0854 07       		.uleb128 0x7
 1398 0855 04040000 		.4byte	.LASF129
 1399 0859 0F       		.byte	0xf
 1400 085a 37       		.byte	0x37
 1401 085b 53010000 		.4byte	0x153
 1402 085f 08       		.byte	0x8
 1403 0860 00       		.byte	0
 1404 0861 0A       		.uleb128 0xa
 1405 0862 04       		.byte	0x4
 1406 0863 3C080000 		.4byte	0x83c
 1407 0867 06       		.uleb128 0x6
 1408 0868 13080000 		.4byte	.LASF130
 1409 086c 14       		.byte	0x14
 1410 086d 10       		.byte	0x10
 1411 086e 39       		.byte	0x39
 1412 086f A4080000 		.4byte	0x8a4
 1413 0873 07       		.uleb128 0x7
 1414 0874 75010000 		.4byte	.LASF131
 1415 0878 10       		.byte	0x10
 1416 0879 3A       		.byte	0x3a
 1417 087a D7020000 		.4byte	0x2d7
 1418 087e 00       		.byte	0
 1419 087f 07       		.uleb128 0x7
 1420 0880 1A090000 		.4byte	.LASF132
 1421 0884 10       		.byte	0x10
ARM GAS  C:\Users\25521\AppData\Local\Temp\cchuEGrA.s 			page 26


 1422 0885 3C       		.byte	0x3c
 1423 0886 AD020000 		.4byte	0x2ad
 1424 088a 08       		.byte	0x8
 1425 088b 07       		.uleb128 0x7
 1426 088c 90070000 		.4byte	.LASF133
 1427 0890 10       		.byte	0x10
 1428 0891 3E       		.byte	0x3e
 1429 0892 FF090000 		.4byte	0x9ff
 1430 0896 0C       		.byte	0xc
 1431 0897 07       		.uleb128 0x7
 1432 0898 14020000 		.4byte	.LASF134
 1433 089c 10       		.byte	0x10
 1434 089d 41       		.byte	0x41
 1435 089e 53010000 		.4byte	0x153
 1436 08a2 10       		.byte	0x10
 1437 08a3 00       		.byte	0
 1438 08a4 0A       		.uleb128 0xa
 1439 08a5 04       		.byte	0x4
 1440 08a6 67080000 		.4byte	0x867
 1441 08aa 0A       		.uleb128 0xa
 1442 08ab 04       		.byte	0x4
 1443 08ac BC080000 		.4byte	0x8bc
 1444 08b0 05       		.uleb128 0x5
 1445 08b1 AA080000 		.4byte	0x8aa
 1446 08b5 04       		.uleb128 0x4
 1447 08b6 01       		.byte	0x1
 1448 08b7 08       		.byte	0x8
 1449 08b8 5E070000 		.4byte	.LASF135
 1450 08bc 0F       		.uleb128 0xf
 1451 08bd B5080000 		.4byte	0x8b5
 1452 08c1 0A       		.uleb128 0xa
 1453 08c2 04       		.byte	0x4
 1454 08c3 20050000 		.4byte	0x520
 1455 08c7 0A       		.uleb128 0xa
 1456 08c8 04       		.byte	0x4
 1457 08c9 91030000 		.4byte	0x391
 1458 08cd 18       		.uleb128 0x18
 1459 08ce 20050000 		.4byte	0x520
 1460 08d2 DD080000 		.4byte	0x8dd
 1461 08d6 19       		.uleb128 0x19
 1462 08d7 37000000 		.4byte	0x37
 1463 08db 30       		.byte	0x30
 1464 08dc 00       		.byte	0
 1465 08dd 1C       		.uleb128 0x1c
 1466 08de 636800   		.ascii	"ch\000"
 1467 08e1 07       		.byte	0x7
 1468 08e2 0902     		.2byte	0x209
 1469 08e4 86040000 		.4byte	0x486
 1470 08e8 16       		.uleb128 0x16
 1471 08e9 16       		.byte	0x16
 1472 08ea 11       		.byte	0x11
 1473 08eb 34       		.byte	0x34
 1474 08ec C9090000 		.4byte	0x9c9
 1475 08f0 07       		.uleb128 0x7
 1476 08f1 2C090000 		.4byte	.LASF136
 1477 08f5 11       		.byte	0x11
 1478 08f6 35       		.byte	0x35
ARM GAS  C:\Users\25521\AppData\Local\Temp\cchuEGrA.s 			page 27


 1479 08f7 C9090000 		.4byte	0x9c9
 1480 08fb 00       		.byte	0
 1481 08fc 07       		.uleb128 0x7
 1482 08fd D5040000 		.4byte	.LASF137
 1483 0901 11       		.byte	0x11
 1484 0902 36       		.byte	0x36
 1485 0903 B4000000 		.4byte	0xb4
 1486 0907 04       		.byte	0x4
 1487 0908 07       		.uleb128 0x7
 1488 0909 44070000 		.4byte	.LASF138
 1489 090d 11       		.byte	0x11
 1490 090e 37       		.byte	0x37
 1491 090f B4000000 		.4byte	0xb4
 1492 0913 05       		.byte	0x5
 1493 0914 07       		.uleb128 0x7
 1494 0915 3B040000 		.4byte	.LASF139
 1495 0919 11       		.byte	0x11
 1496 091a 38       		.byte	0x38
 1497 091b BF000000 		.4byte	0xbf
 1498 091f 06       		.byte	0x6
 1499 0920 07       		.uleb128 0x7
 1500 0921 DC050000 		.4byte	.LASF140
 1501 0925 11       		.byte	0x11
 1502 0926 39       		.byte	0x39
 1503 0927 B4000000 		.4byte	0xb4
 1504 092b 08       		.byte	0x8
 1505 092c 07       		.uleb128 0x7
 1506 092d 25050000 		.4byte	.LASF141
 1507 0931 11       		.byte	0x11
 1508 0932 3A       		.byte	0x3a
 1509 0933 B4000000 		.4byte	0xb4
 1510 0937 09       		.byte	0x9
 1511 0938 07       		.uleb128 0x7
 1512 0939 BE000000 		.4byte	.LASF142
 1513 093d 11       		.byte	0x11
 1514 093e 3B       		.byte	0x3b
 1515 093f B4000000 		.4byte	0xb4
 1516 0943 0A       		.byte	0xa
 1517 0944 07       		.uleb128 0x7
 1518 0945 1D070000 		.4byte	.LASF143
 1519 0949 11       		.byte	0x11
 1520 094a 3C       		.byte	0x3c
 1521 094b B4000000 		.4byte	0xb4
 1522 094f 0B       		.byte	0xb
 1523 0950 07       		.uleb128 0x7
 1524 0951 64040000 		.4byte	.LASF144
 1525 0955 11       		.byte	0x11
 1526 0956 3D       		.byte	0x3d
 1527 0957 B4000000 		.4byte	0xb4
 1528 095b 0C       		.byte	0xc
 1529 095c 07       		.uleb128 0x7
 1530 095d DE060000 		.4byte	.LASF145
 1531 0961 11       		.byte	0x11
 1532 0962 3E       		.byte	0x3e
 1533 0963 B4000000 		.4byte	0xb4
 1534 0967 0D       		.byte	0xd
 1535 0968 07       		.uleb128 0x7
ARM GAS  C:\Users\25521\AppData\Local\Temp\cchuEGrA.s 			page 28


 1536 0969 00000000 		.4byte	.LASF146
 1537 096d 11       		.byte	0x11
 1538 096e 3F       		.byte	0x3f
 1539 096f B4000000 		.4byte	0xb4
 1540 0973 0E       		.byte	0xe
 1541 0974 07       		.uleb128 0x7
 1542 0975 4F050000 		.4byte	.LASF147
 1543 0979 11       		.byte	0x11
 1544 097a 40       		.byte	0x40
 1545 097b B4000000 		.4byte	0xb4
 1546 097f 0F       		.byte	0xf
 1547 0980 07       		.uleb128 0x7
 1548 0981 50010000 		.4byte	.LASF148
 1549 0985 11       		.byte	0x11
 1550 0986 41       		.byte	0x41
 1551 0987 B4000000 		.4byte	0xb4
 1552 098b 10       		.byte	0x10
 1553 098c 07       		.uleb128 0x7
 1554 098d 18010000 		.4byte	.LASF149
 1555 0991 11       		.byte	0x11
 1556 0992 43       		.byte	0x43
 1557 0993 B4000000 		.4byte	0xb4
 1558 0997 11       		.byte	0x11
 1559 0998 07       		.uleb128 0x7
 1560 0999 60010000 		.4byte	.LASF150
 1561 099d 11       		.byte	0x11
 1562 099e 44       		.byte	0x44
 1563 099f B4000000 		.4byte	0xb4
 1564 09a3 12       		.byte	0x12
 1565 09a4 07       		.uleb128 0x7
 1566 09a5 DD040000 		.4byte	.LASF151
 1567 09a9 11       		.byte	0x11
 1568 09aa 45       		.byte	0x45
 1569 09ab B4000000 		.4byte	0xb4
 1570 09af 13       		.byte	0x13
 1571 09b0 07       		.uleb128 0x7
 1572 09b1 9E060000 		.4byte	.LASF152
 1573 09b5 11       		.byte	0x11
 1574 09b6 46       		.byte	0x46
 1575 09b7 B4000000 		.4byte	0xb4
 1576 09bb 14       		.byte	0x14
 1577 09bc 07       		.uleb128 0x7
 1578 09bd 6F040000 		.4byte	.LASF153
 1579 09c1 11       		.byte	0x11
 1580 09c2 48       		.byte	0x48
 1581 09c3 B4000000 		.4byte	0xb4
 1582 09c7 15       		.byte	0x15
 1583 09c8 00       		.byte	0
 1584 09c9 18       		.uleb128 0x18
 1585 09ca B5080000 		.4byte	0x8b5
 1586 09ce D9090000 		.4byte	0x9d9
 1587 09d2 19       		.uleb128 0x19
 1588 09d3 37000000 		.4byte	0x37
 1589 09d7 03       		.byte	0x3
 1590 09d8 00       		.byte	0
 1591 09d9 03       		.uleb128 0x3
 1592 09da B6010000 		.4byte	.LASF154
ARM GAS  C:\Users\25521\AppData\Local\Temp\cchuEGrA.s 			page 29


 1593 09de 11       		.byte	0x11
 1594 09df 49       		.byte	0x49
 1595 09e0 E8080000 		.4byte	0x8e8
 1596 09e4 0F       		.uleb128 0xf
 1597 09e5 D9090000 		.4byte	0x9d9
 1598 09e9 14       		.uleb128 0x14
 1599 09ea D7030000 		.4byte	.LASF155
 1600 09ee 11       		.byte	0x11
 1601 09ef 6E       		.byte	0x6e
 1602 09f0 E4090000 		.4byte	0x9e4
 1603 09f4 03       		.uleb128 0x3
 1604 09f5 2E010000 		.4byte	.LASF156
 1605 09f9 10       		.byte	0x10
 1606 09fa 34       		.byte	0x34
 1607 09fb 67080000 		.4byte	0x867
 1608 09ff 0A       		.uleb128 0xa
 1609 0a00 04       		.byte	0x4
 1610 0a01 F4090000 		.4byte	0x9f4
 1611 0a05 03       		.uleb128 0x3
 1612 0a06 32080000 		.4byte	.LASF157
 1613 0a0a 12       		.byte	0x12
 1614 0a0b 36       		.byte	0x36
 1615 0a0c 100A0000 		.4byte	0xa10
 1616 0a10 0A       		.uleb128 0xa
 1617 0a11 04       		.byte	0x4
 1618 0a12 160A0000 		.4byte	0xa16
 1619 0a16 1D       		.uleb128 0x1d
 1620 0a17 8A030000 		.4byte	0x38a
 1621 0a1b 250A0000 		.4byte	0xa25
 1622 0a1f 0D       		.uleb128 0xd
 1623 0a20 2C000000 		.4byte	0x2c
 1624 0a24 00       		.byte	0
 1625 0a25 06       		.uleb128 0x6
 1626 0a26 5C080000 		.4byte	.LASF158
 1627 0a2a 04       		.byte	0x4
 1628 0a2b 13       		.byte	0x13
 1629 0a2c 38       		.byte	0x38
 1630 0a2d 3E0A0000 		.4byte	0xa3e
 1631 0a31 07       		.uleb128 0x7
 1632 0a32 BF080000 		.4byte	.LASF159
 1633 0a36 13       		.byte	0x13
 1634 0a37 39       		.byte	0x39
 1635 0a38 3E0A0000 		.4byte	0xa3e
 1636 0a3c 00       		.byte	0
 1637 0a3d 00       		.byte	0
 1638 0a3e 0A       		.uleb128 0xa
 1639 0a3f 04       		.byte	0x4
 1640 0a40 250A0000 		.4byte	0xa25
 1641 0a44 16       		.uleb128 0x16
 1642 0a45 0C       		.byte	0xc
 1643 0a46 13       		.byte	0x13
 1644 0a47 40       		.byte	0x40
 1645 0a48 710A0000 		.4byte	0xa71
 1646 0a4c 07       		.uleb128 0x7
 1647 0a4d 1C080000 		.4byte	.LASF160
 1648 0a51 13       		.byte	0x13
 1649 0a52 41       		.byte	0x41
ARM GAS  C:\Users\25521\AppData\Local\Temp\cchuEGrA.s 			page 30


 1650 0a53 3E0A0000 		.4byte	0xa3e
 1651 0a57 00       		.byte	0
 1652 0a58 07       		.uleb128 0x7
 1653 0a59 6F050000 		.4byte	.LASF161
 1654 0a5d 13       		.byte	0x13
 1655 0a5e 42       		.byte	0x42
 1656 0a5f 2C000000 		.4byte	0x2c
 1657 0a63 04       		.byte	0x4
 1658 0a64 07       		.uleb128 0x7
 1659 0a65 E7010000 		.4byte	.LASF162
 1660 0a69 13       		.byte	0x13
 1661 0a6a 44       		.byte	0x44
 1662 0a6b 050A0000 		.4byte	0xa05
 1663 0a6f 08       		.byte	0x8
 1664 0a70 00       		.byte	0
 1665 0a71 03       		.uleb128 0x3
 1666 0a72 F0030000 		.4byte	.LASF163
 1667 0a76 13       		.byte	0x13
 1668 0a77 46       		.byte	0x46
 1669 0a78 440A0000 		.4byte	0xa44
 1670 0a7c 06       		.uleb128 0x6
 1671 0a7d 46080000 		.4byte	.LASF164
 1672 0a81 10       		.byte	0x10
 1673 0a82 14       		.byte	0x14
 1674 0a83 3B       		.byte	0x3b
 1675 0a84 B90A0000 		.4byte	0xab9
 1676 0a88 07       		.uleb128 0x7
 1677 0a89 0A040000 		.4byte	.LASF165
 1678 0a8d 14       		.byte	0x14
 1679 0a8e 3C       		.byte	0x3c
 1680 0a8f AA080000 		.4byte	0x8aa
 1681 0a93 00       		.byte	0
 1682 0a94 07       		.uleb128 0x7
 1683 0a95 8F050000 		.4byte	.LASF166
 1684 0a99 14       		.byte	0x14
 1685 0a9a 3D       		.byte	0x3d
 1686 0a9b BF0A0000 		.4byte	0xabf
 1687 0a9f 04       		.byte	0x4
 1688 0aa0 07       		.uleb128 0x7
 1689 0aa1 25010000 		.4byte	.LASF167
 1690 0aa5 14       		.byte	0x14
 1691 0aa6 3E       		.byte	0x3e
 1692 0aa7 BF0A0000 		.4byte	0xabf
 1693 0aab 08       		.byte	0x8
 1694 0aac 07       		.uleb128 0x7
 1695 0aad FE050000 		.4byte	.LASF168
 1696 0ab1 14       		.byte	0x14
 1697 0ab2 3F       		.byte	0x3f
 1698 0ab3 BF0A0000 		.4byte	0xabf
 1699 0ab7 0C       		.byte	0xc
 1700 0ab8 00       		.byte	0
 1701 0ab9 0F       		.uleb128 0xf
 1702 0aba 7C0A0000 		.4byte	0xa7c
 1703 0abe 1E       		.uleb128 0x1e
 1704 0abf 0A       		.uleb128 0xa
 1705 0ac0 04       		.byte	0x4
 1706 0ac1 BE0A0000 		.4byte	0xabe
ARM GAS  C:\Users\25521\AppData\Local\Temp\cchuEGrA.s 			page 31


 1707 0ac5 17       		.uleb128 0x17
 1708 0ac6 D809     		.2byte	0x9d8
 1709 0ac8 14       		.byte	0x14
 1710 0ac9 44       		.byte	0x44
 1711 0aca 0A0B0000 		.4byte	0xb0a
 1712 0ace 15       		.uleb128 0x15
 1713 0acf 543000   		.ascii	"T0\000"
 1714 0ad2 14       		.byte	0x14
 1715 0ad3 45       		.byte	0x45
 1716 0ad4 0A0B0000 		.4byte	0xb0a
 1717 0ad8 00       		.byte	0
 1718 0ad9 1F       		.uleb128 0x1f
 1719 0ada 543100   		.ascii	"T1\000"
 1720 0add 14       		.byte	0x14
 1721 0ade 46       		.byte	0x46
 1722 0adf 0A0B0000 		.4byte	0xb0a
 1723 0ae3 F801     		.2byte	0x1f8
 1724 0ae5 1F       		.uleb128 0x1f
 1725 0ae6 543200   		.ascii	"T2\000"
 1726 0ae9 14       		.byte	0x14
 1727 0aea 47       		.byte	0x47
 1728 0aeb 0A0B0000 		.4byte	0xb0a
 1729 0aef F003     		.2byte	0x3f0
 1730 0af1 1F       		.uleb128 0x1f
 1731 0af2 543300   		.ascii	"T3\000"
 1732 0af5 14       		.byte	0x14
 1733 0af6 48       		.byte	0x48
 1734 0af7 0A0B0000 		.4byte	0xb0a
 1735 0afb E805     		.2byte	0x5e8
 1736 0afd 1F       		.uleb128 0x1f
 1737 0afe 543400   		.ascii	"T4\000"
 1738 0b01 14       		.byte	0x14
 1739 0b02 49       		.byte	0x49
 1740 0b03 0A0B0000 		.4byte	0xb0a
 1741 0b07 E007     		.2byte	0x7e0
 1742 0b09 00       		.byte	0
 1743 0b0a 18       		.uleb128 0x18
 1744 0b0b 20050000 		.4byte	0x520
 1745 0b0f 1A0B0000 		.4byte	0xb1a
 1746 0b13 19       		.uleb128 0x19
 1747 0b14 37000000 		.4byte	0x37
 1748 0b18 3E       		.byte	0x3e
 1749 0b19 00       		.byte	0
 1750 0b1a 20       		.uleb128 0x20
 1751 0b1b 4F080000 		.4byte	.LASF185
 1752 0b1f D809     		.2byte	0x9d8
 1753 0b21 14       		.byte	0x14
 1754 0b22 43       		.byte	0x43
 1755 0b23 3D0B0000 		.4byte	0xb3d
 1756 0b27 21       		.uleb128 0x21
 1757 0b28 776100   		.ascii	"wa\000"
 1758 0b2b 14       		.byte	0x14
 1759 0b2c 4A       		.byte	0x4a
 1760 0b2d C50A0000 		.4byte	0xac5
 1761 0b31 22       		.uleb128 0x22
 1762 0b32 C0010000 		.4byte	.LASF169
 1763 0b36 14       		.byte	0x14
ARM GAS  C:\Users\25521\AppData\Local\Temp\cchuEGrA.s 			page 32


 1764 0b37 4B       		.byte	0x4b
 1765 0b38 3D0B0000 		.4byte	0xb3d
 1766 0b3c 00       		.byte	0
 1767 0b3d 18       		.uleb128 0x18
 1768 0b3e B4000000 		.4byte	0xb4
 1769 0b42 4E0B0000 		.4byte	0xb4e
 1770 0b46 23       		.uleb128 0x23
 1771 0b47 37000000 		.4byte	0x37
 1772 0b4b D709     		.2byte	0x9d7
 1773 0b4d 00       		.byte	0
 1774 0b4e 14       		.uleb128 0x14
 1775 0b4f FB070000 		.4byte	.LASF170
 1776 0b53 14       		.byte	0x14
 1777 0b54 4F       		.byte	0x4f
 1778 0b55 590B0000 		.4byte	0xb59
 1779 0b59 04       		.uleb128 0x4
 1780 0b5a 01       		.byte	0x1
 1781 0b5b 02       		.byte	0x2
 1782 0b5c 1E060000 		.4byte	.LASF171
 1783 0b60 18       		.uleb128 0x18
 1784 0b61 AD020000 		.4byte	0x2ad
 1785 0b65 700B0000 		.4byte	0xb70
 1786 0b69 19       		.uleb128 0x19
 1787 0b6a 37000000 		.4byte	0x37
 1788 0b6e 04       		.byte	0x4
 1789 0b6f 00       		.byte	0
 1790 0b70 14       		.uleb128 0x14
 1791 0b71 60060000 		.4byte	.LASF172
 1792 0b75 14       		.byte	0x14
 1793 0b76 A7       		.byte	0xa7
 1794 0b77 600B0000 		.4byte	0xb60
 1795 0b7b 14       		.uleb128 0x14
 1796 0b7c E0000000 		.4byte	.LASF173
 1797 0b80 14       		.byte	0x14
 1798 0b81 A8       		.byte	0xa8
 1799 0b82 1A0B0000 		.4byte	0xb1a
 1800 0b86 18       		.uleb128 0x18
 1801 0b87 8C030000 		.4byte	0x38c
 1802 0b8b 910B0000 		.4byte	0xb91
 1803 0b8f 24       		.uleb128 0x24
 1804 0b90 00       		.byte	0
 1805 0b91 0F       		.uleb128 0xf
 1806 0b92 860B0000 		.4byte	0xb86
 1807 0b96 25       		.uleb128 0x25
 1808 0b97 776100   		.ascii	"wa\000"
 1809 0b9a 14       		.byte	0x14
 1810 0b9b A9       		.byte	0xa9
 1811 0b9c 910B0000 		.4byte	0xb91
 1812 0ba0 14       		.uleb128 0x14
 1813 0ba1 E0030000 		.4byte	.LASF174
 1814 0ba5 14       		.byte	0x14
 1815 0ba6 AA       		.byte	0xaa
 1816 0ba7 590B0000 		.4byte	0xb59
 1817 0bab 26       		.uleb128 0x26
 1818 0bac 6D703100 		.ascii	"mp1\000"
 1819 0bb0 01       		.byte	0x1
 1820 0bb1 31       		.byte	0x31
ARM GAS  C:\Users\25521\AppData\Local\Temp\cchuEGrA.s 			page 33


 1821 0bb2 710A0000 		.4byte	0xa71
 1822 0bb6 05       		.uleb128 0x5
 1823 0bb7 03       		.byte	0x3
 1824 0bb8 00000000 		.4byte	mp1
 1825 0bbc 27       		.uleb128 0x27
 1826 0bbd 29070000 		.4byte	.LASF175
 1827 0bc1 01       		.byte	0x1
 1828 0bc2 64       		.byte	0x64
 1829 0bc3 B90A0000 		.4byte	0xab9
 1830 0bc7 05       		.uleb128 0x5
 1831 0bc8 03       		.byte	0x3
 1832 0bc9 00000000 		.4byte	testpools1
 1833 0bcd 18       		.uleb128 0x18
 1834 0bce E80B0000 		.4byte	0xbe8
 1835 0bd2 DD0B0000 		.4byte	0xbdd
 1836 0bd6 19       		.uleb128 0x19
 1837 0bd7 37000000 		.4byte	0x37
 1838 0bdb 01       		.byte	0x1
 1839 0bdc 00       		.byte	0
 1840 0bdd 0F       		.uleb128 0xf
 1841 0bde CD0B0000 		.4byte	0xbcd
 1842 0be2 0A       		.uleb128 0xa
 1843 0be3 04       		.byte	0x4
 1844 0be4 B90A0000 		.4byte	0xab9
 1845 0be8 0F       		.uleb128 0xf
 1846 0be9 E20B0000 		.4byte	0xbe2
 1847 0bed 27       		.uleb128 0x27
 1848 0bee A7050000 		.4byte	.LASF176
 1849 0bf2 01       		.byte	0x1
 1850 0bf3 70       		.byte	0x70
 1851 0bf4 DD0B0000 		.4byte	0xbdd
 1852 0bf8 05       		.uleb128 0x5
 1853 0bf9 03       		.byte	0x3
 1854 0bfa 00000000 		.4byte	patternpools
 1855 0bfe 28       		.uleb128 0x28
 1856 0bff 42090000 		.4byte	.LASF186
 1857 0c03 01       		.byte	0x1
 1858 0c04 47       		.byte	0x47
 1859 0c05 01       		.byte	0x1
 1860 0c06 140C0000 		.4byte	0xc14
 1861 0c0a 29       		.uleb128 0x29
 1862 0c0b 6900     		.ascii	"i\000"
 1863 0c0d 01       		.byte	0x1
 1864 0c0e 48       		.byte	0x48
 1865 0c0f 25000000 		.4byte	0x25
 1866 0c13 00       		.byte	0
 1867 0c14 2A       		.uleb128 0x2a
 1868 0c15 75070000 		.4byte	.LASF187
 1869 0c19 01       		.byte	0x1
 1870 0c1a 42       		.byte	0x42
 1871 0c1b 00000000 		.4byte	.LFB231
 1872 0c1f 30000000 		.4byte	.LFE231-.LFB231
 1873 0c23 01       		.uleb128 0x1
 1874 0c24 9C       		.byte	0x9c
 1875 0c25 560C0000 		.4byte	0xc56
 1876 0c29 2B       		.uleb128 0x2b
 1877 0c2a 24000000 		.4byte	.LVL4
ARM GAS  C:\Users\25521\AppData\Local\Temp\cchuEGrA.s 			page 34


 1878 0c2e F10D0000 		.4byte	0xdf1
 1879 0c32 4C0C0000 		.4byte	0xc4c
 1880 0c36 2C       		.uleb128 0x2c
 1881 0c37 01       		.uleb128 0x1
 1882 0c38 50       		.byte	0x50
 1883 0c39 05       		.uleb128 0x5
 1884 0c3a 03       		.byte	0x3
 1885 0c3b 00000000 		.4byte	.LANCHOR0
 1886 0c3f 2C       		.uleb128 0x2c
 1887 0c40 01       		.uleb128 0x1
 1888 0c41 51       		.byte	0x51
 1889 0c42 03       		.uleb128 0x3
 1890 0c43 0A       		.byte	0xa
 1891 0c44 F801     		.2byte	0x1f8
 1892 0c46 2C       		.uleb128 0x2c
 1893 0c47 01       		.uleb128 0x1
 1894 0c48 52       		.byte	0x52
 1895 0c49 01       		.uleb128 0x1
 1896 0c4a 30       		.byte	0x30
 1897 0c4b 00       		.byte	0
 1898 0c4c 2D       		.uleb128 0x2d
 1899 0c4d 28000000 		.4byte	.LVL5
 1900 0c51 FC0D0000 		.4byte	0xdfc
 1901 0c55 00       		.byte	0
 1902 0c56 2E       		.uleb128 0x2e
 1903 0c57 C7080000 		.4byte	.LASF188
 1904 0c5b 01       		.byte	0x1
 1905 0c5c 3C       		.byte	0x3c
 1906 0c5d 8A030000 		.4byte	0x38a
 1907 0c61 00000000 		.4byte	.LFB230
 1908 0c65 24000000 		.4byte	.LFE230-.LFB230
 1909 0c69 01       		.uleb128 0x1
 1910 0c6a 9C       		.byte	0x9c
 1911 0c6b 880C0000 		.4byte	0xc88
 1912 0c6f 2F       		.uleb128 0x2f
 1913 0c70 D5080000 		.4byte	.LASF189
 1914 0c74 01       		.byte	0x1
 1915 0c75 3C       		.byte	0x3c
 1916 0c76 2C000000 		.4byte	0x2c
 1917 0c7a 00000000 		.4byte	.LLST0
 1918 0c7e 2D       		.uleb128 0x2d
 1919 0c7f 1E000000 		.4byte	.LVL3
 1920 0c83 FC0D0000 		.4byte	0xdfc
 1921 0c87 00       		.byte	0
 1922 0c88 30       		.uleb128 0x30
 1923 0c89 FE0B0000 		.4byte	0xbfe
 1924 0c8d 00000000 		.4byte	.LFB232
 1925 0c91 F0000000 		.4byte	.LFE232-.LFB232
 1926 0c95 01       		.uleb128 0x1
 1927 0c96 9C       		.byte	0x9c
 1928 0c97 F10D0000 		.4byte	0xdf1
 1929 0c9b 31       		.uleb128 0x31
 1930 0c9c 0A0C0000 		.4byte	0xc0a
 1931 0ca0 3A000000 		.4byte	.LLST1
 1932 0ca4 32       		.uleb128 0x32
 1933 0ca5 00000000 		.4byte	.Ldebug_ranges0+0
 1934 0ca9 7A0D0000 		.4byte	0xd7a
ARM GAS  C:\Users\25521\AppData\Local\Temp\cchuEGrA.s 			page 35


 1935 0cad 33       		.uleb128 0x33
 1936 0cae 9B0C0000 		.4byte	0xc9b
 1937 0cb2 34       		.uleb128 0x34
 1938 0cb3 5C000000 		.4byte	.LVL15
 1939 0cb7 050E0000 		.4byte	0xe05
 1940 0cbb CC0C0000 		.4byte	0xccc
 1941 0cbf 2C       		.uleb128 0x2c
 1942 0cc0 01       		.uleb128 0x1
 1943 0cc1 50       		.byte	0x50
 1944 0cc2 02       		.uleb128 0x2
 1945 0cc3 78       		.byte	0x78
 1946 0cc4 00       		.sleb128 0
 1947 0cc5 2C       		.uleb128 0x2c
 1948 0cc6 01       		.uleb128 0x1
 1949 0cc7 51       		.byte	0x51
 1950 0cc8 02       		.uleb128 0x2
 1951 0cc9 75       		.byte	0x75
 1952 0cca 00       		.sleb128 0
 1953 0ccb 00       		.byte	0
 1954 0ccc 34       		.uleb128 0x34
 1955 0ccd 6C000000 		.4byte	.LVL16
 1956 0cd1 050E0000 		.4byte	0xe05
 1957 0cd5 E60C0000 		.4byte	0xce6
 1958 0cd9 2C       		.uleb128 0x2c
 1959 0cda 01       		.uleb128 0x1
 1960 0cdb 50       		.byte	0x50
 1961 0cdc 02       		.uleb128 0x2
 1962 0cdd 78       		.byte	0x78
 1963 0cde 00       		.sleb128 0
 1964 0cdf 2C       		.uleb128 0x2c
 1965 0ce0 01       		.uleb128 0x1
 1966 0ce1 51       		.byte	0x51
 1967 0ce2 02       		.uleb128 0x2
 1968 0ce3 75       		.byte	0x75
 1969 0ce4 00       		.sleb128 0
 1970 0ce5 00       		.byte	0
 1971 0ce6 34       		.uleb128 0x34
 1972 0ce7 7A000000 		.4byte	.LVL18
 1973 0ceb 100E0000 		.4byte	0xe10
 1974 0cef FA0C0000 		.4byte	0xcfa
 1975 0cf3 2C       		.uleb128 0x2c
 1976 0cf4 01       		.uleb128 0x1
 1977 0cf5 50       		.byte	0x50
 1978 0cf6 02       		.uleb128 0x2
 1979 0cf7 75       		.byte	0x75
 1980 0cf8 00       		.sleb128 0
 1981 0cf9 00       		.byte	0
 1982 0cfa 34       		.uleb128 0x34
 1983 0cfb 86000000 		.4byte	.LVL19
 1984 0cff 1B0E0000 		.4byte	0xe1b
 1985 0d03 0D0D0000 		.4byte	0xd0d
 1986 0d07 2C       		.uleb128 0x2c
 1987 0d08 01       		.uleb128 0x1
 1988 0d09 50       		.byte	0x50
 1989 0d0a 01       		.uleb128 0x1
 1990 0d0b 33       		.byte	0x33
 1991 0d0c 00       		.byte	0
ARM GAS  C:\Users\25521\AppData\Local\Temp\cchuEGrA.s 			page 36


 1992 0d0d 34       		.uleb128 0x34
 1993 0d0e 92000000 		.4byte	.LVL22
 1994 0d12 100E0000 		.4byte	0xe10
 1995 0d16 210D0000 		.4byte	0xd21
 1996 0d1a 2C       		.uleb128 0x2c
 1997 0d1b 01       		.uleb128 0x1
 1998 0d1c 50       		.byte	0x50
 1999 0d1d 02       		.uleb128 0x2
 2000 0d1e 75       		.byte	0x75
 2001 0d1f 00       		.sleb128 0
 2002 0d20 00       		.byte	0
 2003 0d21 34       		.uleb128 0x34
 2004 0d22 9E000000 		.4byte	.LVL23
 2005 0d26 1B0E0000 		.4byte	0xe1b
 2006 0d2a 340D0000 		.4byte	0xd34
 2007 0d2e 2C       		.uleb128 0x2c
 2008 0d2f 01       		.uleb128 0x1
 2009 0d30 50       		.byte	0x50
 2010 0d31 01       		.uleb128 0x1
 2011 0d32 34       		.byte	0x34
 2012 0d33 00       		.byte	0
 2013 0d34 34       		.uleb128 0x34
 2014 0d35 B8000000 		.4byte	.LVL26
 2015 0d39 F10D0000 		.4byte	0xdf1
 2016 0d3d 560D0000 		.4byte	0xd56
 2017 0d41 2C       		.uleb128 0x2c
 2018 0d42 01       		.uleb128 0x1
 2019 0d43 50       		.byte	0x50
 2020 0d44 02       		.uleb128 0x2
 2021 0d45 75       		.byte	0x75
 2022 0d46 00       		.sleb128 0
 2023 0d47 2C       		.uleb128 0x2c
 2024 0d48 01       		.uleb128 0x1
 2025 0d49 51       		.byte	0x51
 2026 0d4a 01       		.uleb128 0x1
 2027 0d4b 40       		.byte	0x40
 2028 0d4c 2C       		.uleb128 0x2c
 2029 0d4d 01       		.uleb128 0x1
 2030 0d4e 52       		.byte	0x52
 2031 0d4f 05       		.uleb128 0x5
 2032 0d50 03       		.byte	0x3
 2033 0d51 00000000 		.4byte	null_provider
 2034 0d55 00       		.byte	0
 2035 0d56 34       		.uleb128 0x34
 2036 0d57 BE000000 		.4byte	.LVL27
 2037 0d5b 100E0000 		.4byte	0xe10
 2038 0d5f 6A0D0000 		.4byte	0xd6a
 2039 0d63 2C       		.uleb128 0x2c
 2040 0d64 01       		.uleb128 0x1
 2041 0d65 50       		.byte	0x50
 2042 0d66 02       		.uleb128 0x2
 2043 0d67 75       		.byte	0x75
 2044 0d68 00       		.sleb128 0
 2045 0d69 00       		.byte	0
 2046 0d6a 35       		.uleb128 0x35
 2047 0d6b D8000000 		.4byte	.LVL29
 2048 0d6f 1B0E0000 		.4byte	0xe1b
ARM GAS  C:\Users\25521\AppData\Local\Temp\cchuEGrA.s 			page 37


 2049 0d73 2C       		.uleb128 0x2c
 2050 0d74 01       		.uleb128 0x1
 2051 0d75 50       		.byte	0x50
 2052 0d76 01       		.uleb128 0x1
 2053 0d77 35       		.byte	0x35
 2054 0d78 00       		.byte	0
 2055 0d79 00       		.byte	0
 2056 0d7a 34       		.uleb128 0x34
 2057 0d7b 1C000000 		.4byte	.LVL6
 2058 0d7f 260E0000 		.4byte	0xe26
 2059 0d83 990D0000 		.4byte	0xd99
 2060 0d87 2C       		.uleb128 0x2c
 2061 0d88 01       		.uleb128 0x1
 2062 0d89 50       		.byte	0x50
 2063 0d8a 02       		.uleb128 0x2
 2064 0d8b 76       		.byte	0x76
 2065 0d8c 00       		.sleb128 0
 2066 0d8d 2C       		.uleb128 0x2c
 2067 0d8e 01       		.uleb128 0x1
 2068 0d8f 51       		.byte	0x51
 2069 0d90 02       		.uleb128 0x2
 2070 0d91 75       		.byte	0x75
 2071 0d92 00       		.sleb128 0
 2072 0d93 2C       		.uleb128 0x2c
 2073 0d94 01       		.uleb128 0x1
 2074 0d95 52       		.byte	0x52
 2075 0d96 01       		.uleb128 0x1
 2076 0d97 35       		.byte	0x35
 2077 0d98 00       		.byte	0
 2078 0d99 34       		.uleb128 0x34
 2079 0d9a 24000000 		.4byte	.LVL8
 2080 0d9e 100E0000 		.4byte	0xe10
 2081 0da2 AD0D0000 		.4byte	0xdad
 2082 0da6 2C       		.uleb128 0x2c
 2083 0da7 01       		.uleb128 0x1
 2084 0da8 50       		.byte	0x50
 2085 0da9 02       		.uleb128 0x2
 2086 0daa 76       		.byte	0x76
 2087 0dab 00       		.sleb128 0
 2088 0dac 00       		.byte	0
 2089 0dad 34       		.uleb128 0x34
 2090 0dae 30000000 		.4byte	.LVL9
 2091 0db2 1B0E0000 		.4byte	0xe1b
 2092 0db6 C00D0000 		.4byte	0xdc0
 2093 0dba 2C       		.uleb128 0x2c
 2094 0dbb 01       		.uleb128 0x1
 2095 0dbc 50       		.byte	0x50
 2096 0dbd 01       		.uleb128 0x1
 2097 0dbe 31       		.byte	0x31
 2098 0dbf 00       		.byte	0
 2099 0dc0 34       		.uleb128 0x34
 2100 0dc1 3C000000 		.4byte	.LVL12
 2101 0dc5 100E0000 		.4byte	0xe10
 2102 0dc9 D40D0000 		.4byte	0xdd4
 2103 0dcd 2C       		.uleb128 0x2c
 2104 0dce 01       		.uleb128 0x1
 2105 0dcf 50       		.byte	0x50
ARM GAS  C:\Users\25521\AppData\Local\Temp\cchuEGrA.s 			page 38


 2106 0dd0 02       		.uleb128 0x2
 2107 0dd1 76       		.byte	0x76
 2108 0dd2 00       		.sleb128 0
 2109 0dd3 00       		.byte	0
 2110 0dd4 34       		.uleb128 0x34
 2111 0dd5 48000000 		.4byte	.LVL13
 2112 0dd9 1B0E0000 		.4byte	0xe1b
 2113 0ddd E70D0000 		.4byte	0xde7
 2114 0de1 2C       		.uleb128 0x2c
 2115 0de2 01       		.uleb128 0x1
 2116 0de3 50       		.byte	0x50
 2117 0de4 01       		.uleb128 0x1
 2118 0de5 32       		.byte	0x32
 2119 0de6 00       		.byte	0
 2120 0de7 2D       		.uleb128 0x2d
 2121 0de8 DC000000 		.4byte	.LVL30
 2122 0dec FC0D0000 		.4byte	0xdfc
 2123 0df0 00       		.byte	0
 2124 0df1 36       		.uleb128 0x36
 2125 0df2 7B040000 		.4byte	.LASF177
 2126 0df6 7B040000 		.4byte	.LASF177
 2127 0dfa 13       		.byte	0x13
 2128 0dfb 6C       		.byte	0x6c
 2129 0dfc 37       		.uleb128 0x37
 2130 0dfd EB060000 		.4byte	.LASF190
 2131 0e01 EB060000 		.4byte	.LASF190
 2132 0e05 36       		.uleb128 0x36
 2133 0e06 9A080000 		.4byte	.LASF178
 2134 0e0a 9A080000 		.4byte	.LASF178
 2135 0e0e 13       		.byte	0x13
 2136 0e0f 71       		.byte	0x71
 2137 0e10 36       		.uleb128 0x36
 2138 0e11 8E080000 		.4byte	.LASF179
 2139 0e15 8E080000 		.4byte	.LASF179
 2140 0e19 13       		.byte	0x13
 2141 0e1a 6F       		.byte	0x6f
 2142 0e1b 36       		.uleb128 0x36
 2143 0e1c DA080000 		.4byte	.LASF180
 2144 0e20 DA080000 		.4byte	.LASF180
 2145 0e24 14       		.byte	0x14
 2146 0e25 5A       		.byte	0x5a
 2147 0e26 36       		.uleb128 0x36
 2148 0e27 FF080000 		.4byte	.LASF181
 2149 0e2b FF080000 		.4byte	.LASF181
 2150 0e2f 13       		.byte	0x13
 2151 0e30 6D       		.byte	0x6d
 2152 0e31 00       		.byte	0
 2153              		.section	.debug_abbrev,"",%progbits
 2154              	.Ldebug_abbrev0:
 2155 0000 01       		.uleb128 0x1
 2156 0001 11       		.uleb128 0x11
 2157 0002 01       		.byte	0x1
 2158 0003 25       		.uleb128 0x25
 2159 0004 0E       		.uleb128 0xe
 2160 0005 13       		.uleb128 0x13
 2161 0006 0B       		.uleb128 0xb
 2162 0007 03       		.uleb128 0x3
ARM GAS  C:\Users\25521\AppData\Local\Temp\cchuEGrA.s 			page 39


 2163 0008 0E       		.uleb128 0xe
 2164 0009 1B       		.uleb128 0x1b
 2165 000a 0E       		.uleb128 0xe
 2166 000b 55       		.uleb128 0x55
 2167 000c 17       		.uleb128 0x17
 2168 000d 11       		.uleb128 0x11
 2169 000e 01       		.uleb128 0x1
 2170 000f 10       		.uleb128 0x10
 2171 0010 17       		.uleb128 0x17
 2172 0011 00       		.byte	0
 2173 0012 00       		.byte	0
 2174 0013 02       		.uleb128 0x2
 2175 0014 24       		.uleb128 0x24
 2176 0015 00       		.byte	0
 2177 0016 0B       		.uleb128 0xb
 2178 0017 0B       		.uleb128 0xb
 2179 0018 3E       		.uleb128 0x3e
 2180 0019 0B       		.uleb128 0xb
 2181 001a 03       		.uleb128 0x3
 2182 001b 08       		.uleb128 0x8
 2183 001c 00       		.byte	0
 2184 001d 00       		.byte	0
 2185 001e 03       		.uleb128 0x3
 2186 001f 16       		.uleb128 0x16
 2187 0020 00       		.byte	0
 2188 0021 03       		.uleb128 0x3
 2189 0022 0E       		.uleb128 0xe
 2190 0023 3A       		.uleb128 0x3a
 2191 0024 0B       		.uleb128 0xb
 2192 0025 3B       		.uleb128 0x3b
 2193 0026 0B       		.uleb128 0xb
 2194 0027 49       		.uleb128 0x49
 2195 0028 13       		.uleb128 0x13
 2196 0029 00       		.byte	0
 2197 002a 00       		.byte	0
 2198 002b 04       		.uleb128 0x4
 2199 002c 24       		.uleb128 0x24
 2200 002d 00       		.byte	0
 2201 002e 0B       		.uleb128 0xb
 2202 002f 0B       		.uleb128 0xb
 2203 0030 3E       		.uleb128 0x3e
 2204 0031 0B       		.uleb128 0xb
 2205 0032 03       		.uleb128 0x3
 2206 0033 0E       		.uleb128 0xe
 2207 0034 00       		.byte	0
 2208 0035 00       		.byte	0
 2209 0036 05       		.uleb128 0x5
 2210 0037 35       		.uleb128 0x35
 2211 0038 00       		.byte	0
 2212 0039 49       		.uleb128 0x49
 2213 003a 13       		.uleb128 0x13
 2214 003b 00       		.byte	0
 2215 003c 00       		.byte	0
 2216 003d 06       		.uleb128 0x6
 2217 003e 13       		.uleb128 0x13
 2218 003f 01       		.byte	0x1
 2219 0040 03       		.uleb128 0x3
ARM GAS  C:\Users\25521\AppData\Local\Temp\cchuEGrA.s 			page 40


 2220 0041 0E       		.uleb128 0xe
 2221 0042 0B       		.uleb128 0xb
 2222 0043 0B       		.uleb128 0xb
 2223 0044 3A       		.uleb128 0x3a
 2224 0045 0B       		.uleb128 0xb
 2225 0046 3B       		.uleb128 0x3b
 2226 0047 0B       		.uleb128 0xb
 2227 0048 01       		.uleb128 0x1
 2228 0049 13       		.uleb128 0x13
 2229 004a 00       		.byte	0
 2230 004b 00       		.byte	0
 2231 004c 07       		.uleb128 0x7
 2232 004d 0D       		.uleb128 0xd
 2233 004e 00       		.byte	0
 2234 004f 03       		.uleb128 0x3
 2235 0050 0E       		.uleb128 0xe
 2236 0051 3A       		.uleb128 0x3a
 2237 0052 0B       		.uleb128 0xb
 2238 0053 3B       		.uleb128 0x3b
 2239 0054 0B       		.uleb128 0xb
 2240 0055 49       		.uleb128 0x49
 2241 0056 13       		.uleb128 0x13
 2242 0057 38       		.uleb128 0x38
 2243 0058 0B       		.uleb128 0xb
 2244 0059 00       		.byte	0
 2245 005a 00       		.byte	0
 2246 005b 08       		.uleb128 0x8
 2247 005c 0D       		.uleb128 0xd
 2248 005d 00       		.byte	0
 2249 005e 03       		.uleb128 0x3
 2250 005f 08       		.uleb128 0x8
 2251 0060 3A       		.uleb128 0x3a
 2252 0061 0B       		.uleb128 0xb
 2253 0062 3B       		.uleb128 0x3b
 2254 0063 05       		.uleb128 0x5
 2255 0064 49       		.uleb128 0x49
 2256 0065 13       		.uleb128 0x13
 2257 0066 38       		.uleb128 0x38
 2258 0067 0B       		.uleb128 0xb
 2259 0068 00       		.byte	0
 2260 0069 00       		.byte	0
 2261 006a 09       		.uleb128 0x9
 2262 006b 0D       		.uleb128 0xd
 2263 006c 00       		.byte	0
 2264 006d 03       		.uleb128 0x3
 2265 006e 0E       		.uleb128 0xe
 2266 006f 3A       		.uleb128 0x3a
 2267 0070 0B       		.uleb128 0xb
 2268 0071 3B       		.uleb128 0x3b
 2269 0072 05       		.uleb128 0x5
 2270 0073 49       		.uleb128 0x49
 2271 0074 13       		.uleb128 0x13
 2272 0075 38       		.uleb128 0x38
 2273 0076 0B       		.uleb128 0xb
 2274 0077 00       		.byte	0
 2275 0078 00       		.byte	0
 2276 0079 0A       		.uleb128 0xa
ARM GAS  C:\Users\25521\AppData\Local\Temp\cchuEGrA.s 			page 41


 2277 007a 0F       		.uleb128 0xf
 2278 007b 00       		.byte	0
 2279 007c 0B       		.uleb128 0xb
 2280 007d 0B       		.uleb128 0xb
 2281 007e 49       		.uleb128 0x49
 2282 007f 13       		.uleb128 0x13
 2283 0080 00       		.byte	0
 2284 0081 00       		.byte	0
 2285 0082 0B       		.uleb128 0xb
 2286 0083 13       		.uleb128 0x13
 2287 0084 01       		.byte	0x1
 2288 0085 03       		.uleb128 0x3
 2289 0086 0E       		.uleb128 0xe
 2290 0087 0B       		.uleb128 0xb
 2291 0088 0B       		.uleb128 0xb
 2292 0089 3A       		.uleb128 0x3a
 2293 008a 0B       		.uleb128 0xb
 2294 008b 3B       		.uleb128 0x3b
 2295 008c 05       		.uleb128 0x5
 2296 008d 01       		.uleb128 0x1
 2297 008e 13       		.uleb128 0x13
 2298 008f 00       		.byte	0
 2299 0090 00       		.byte	0
 2300 0091 0C       		.uleb128 0xc
 2301 0092 15       		.uleb128 0x15
 2302 0093 01       		.byte	0x1
 2303 0094 27       		.uleb128 0x27
 2304 0095 19       		.uleb128 0x19
 2305 0096 01       		.uleb128 0x1
 2306 0097 13       		.uleb128 0x13
 2307 0098 00       		.byte	0
 2308 0099 00       		.byte	0
 2309 009a 0D       		.uleb128 0xd
 2310 009b 05       		.uleb128 0x5
 2311 009c 00       		.byte	0
 2312 009d 49       		.uleb128 0x49
 2313 009e 13       		.uleb128 0x13
 2314 009f 00       		.byte	0
 2315 00a0 00       		.byte	0
 2316 00a1 0E       		.uleb128 0xe
 2317 00a2 0F       		.uleb128 0xf
 2318 00a3 00       		.byte	0
 2319 00a4 0B       		.uleb128 0xb
 2320 00a5 0B       		.uleb128 0xb
 2321 00a6 00       		.byte	0
 2322 00a7 00       		.byte	0
 2323 00a8 0F       		.uleb128 0xf
 2324 00a9 26       		.uleb128 0x26
 2325 00aa 00       		.byte	0
 2326 00ab 49       		.uleb128 0x49
 2327 00ac 13       		.uleb128 0x13
 2328 00ad 00       		.byte	0
 2329 00ae 00       		.byte	0
 2330 00af 10       		.uleb128 0x10
 2331 00b0 13       		.uleb128 0x13
 2332 00b1 01       		.byte	0x1
 2333 00b2 03       		.uleb128 0x3
ARM GAS  C:\Users\25521\AppData\Local\Temp\cchuEGrA.s 			page 42


 2334 00b3 0E       		.uleb128 0xe
 2335 00b4 0B       		.uleb128 0xb
 2336 00b5 05       		.uleb128 0x5
 2337 00b6 3A       		.uleb128 0x3a
 2338 00b7 0B       		.uleb128 0xb
 2339 00b8 3B       		.uleb128 0x3b
 2340 00b9 05       		.uleb128 0x5
 2341 00ba 01       		.uleb128 0x1
 2342 00bb 13       		.uleb128 0x13
 2343 00bc 00       		.byte	0
 2344 00bd 00       		.byte	0
 2345 00be 11       		.uleb128 0x11
 2346 00bf 0D       		.uleb128 0xd
 2347 00c0 00       		.byte	0
 2348 00c1 03       		.uleb128 0x3
 2349 00c2 0E       		.uleb128 0xe
 2350 00c3 3A       		.uleb128 0x3a
 2351 00c4 0B       		.uleb128 0xb
 2352 00c5 3B       		.uleb128 0x3b
 2353 00c6 05       		.uleb128 0x5
 2354 00c7 49       		.uleb128 0x49
 2355 00c8 13       		.uleb128 0x13
 2356 00c9 38       		.uleb128 0x38
 2357 00ca 05       		.uleb128 0x5
 2358 00cb 00       		.byte	0
 2359 00cc 00       		.byte	0
 2360 00cd 12       		.uleb128 0x12
 2361 00ce 0D       		.uleb128 0xd
 2362 00cf 00       		.byte	0
 2363 00d0 03       		.uleb128 0x3
 2364 00d1 08       		.uleb128 0x8
 2365 00d2 3A       		.uleb128 0x3a
 2366 00d3 0B       		.uleb128 0xb
 2367 00d4 3B       		.uleb128 0x3b
 2368 00d5 05       		.uleb128 0x5
 2369 00d6 49       		.uleb128 0x49
 2370 00d7 13       		.uleb128 0x13
 2371 00d8 38       		.uleb128 0x38
 2372 00d9 05       		.uleb128 0x5
 2373 00da 00       		.byte	0
 2374 00db 00       		.byte	0
 2375 00dc 13       		.uleb128 0x13
 2376 00dd 34       		.uleb128 0x34
 2377 00de 00       		.byte	0
 2378 00df 03       		.uleb128 0x3
 2379 00e0 0E       		.uleb128 0xe
 2380 00e1 3A       		.uleb128 0x3a
 2381 00e2 0B       		.uleb128 0xb
 2382 00e3 3B       		.uleb128 0x3b
 2383 00e4 05       		.uleb128 0x5
 2384 00e5 49       		.uleb128 0x49
 2385 00e6 13       		.uleb128 0x13
 2386 00e7 3F       		.uleb128 0x3f
 2387 00e8 19       		.uleb128 0x19
 2388 00e9 3C       		.uleb128 0x3c
 2389 00ea 19       		.uleb128 0x19
 2390 00eb 00       		.byte	0
ARM GAS  C:\Users\25521\AppData\Local\Temp\cchuEGrA.s 			page 43


 2391 00ec 00       		.byte	0
 2392 00ed 14       		.uleb128 0x14
 2393 00ee 34       		.uleb128 0x34
 2394 00ef 00       		.byte	0
 2395 00f0 03       		.uleb128 0x3
 2396 00f1 0E       		.uleb128 0xe
 2397 00f2 3A       		.uleb128 0x3a
 2398 00f3 0B       		.uleb128 0xb
 2399 00f4 3B       		.uleb128 0x3b
 2400 00f5 0B       		.uleb128 0xb
 2401 00f6 49       		.uleb128 0x49
 2402 00f7 13       		.uleb128 0x13
 2403 00f8 3F       		.uleb128 0x3f
 2404 00f9 19       		.uleb128 0x19
 2405 00fa 3C       		.uleb128 0x3c
 2406 00fb 19       		.uleb128 0x19
 2407 00fc 00       		.byte	0
 2408 00fd 00       		.byte	0
 2409 00fe 15       		.uleb128 0x15
 2410 00ff 0D       		.uleb128 0xd
 2411 0100 00       		.byte	0
 2412 0101 03       		.uleb128 0x3
 2413 0102 08       		.uleb128 0x8
 2414 0103 3A       		.uleb128 0x3a
 2415 0104 0B       		.uleb128 0xb
 2416 0105 3B       		.uleb128 0x3b
 2417 0106 0B       		.uleb128 0xb
 2418 0107 49       		.uleb128 0x49
 2419 0108 13       		.uleb128 0x13
 2420 0109 38       		.uleb128 0x38
 2421 010a 0B       		.uleb128 0xb
 2422 010b 00       		.byte	0
 2423 010c 00       		.byte	0
 2424 010d 16       		.uleb128 0x16
 2425 010e 13       		.uleb128 0x13
 2426 010f 01       		.byte	0x1
 2427 0110 0B       		.uleb128 0xb
 2428 0111 0B       		.uleb128 0xb
 2429 0112 3A       		.uleb128 0x3a
 2430 0113 0B       		.uleb128 0xb
 2431 0114 3B       		.uleb128 0x3b
 2432 0115 0B       		.uleb128 0xb
 2433 0116 01       		.uleb128 0x1
 2434 0117 13       		.uleb128 0x13
 2435 0118 00       		.byte	0
 2436 0119 00       		.byte	0
 2437 011a 17       		.uleb128 0x17
 2438 011b 13       		.uleb128 0x13
 2439 011c 01       		.byte	0x1
 2440 011d 0B       		.uleb128 0xb
 2441 011e 05       		.uleb128 0x5
 2442 011f 3A       		.uleb128 0x3a
 2443 0120 0B       		.uleb128 0xb
 2444 0121 3B       		.uleb128 0x3b
 2445 0122 0B       		.uleb128 0xb
 2446 0123 01       		.uleb128 0x1
 2447 0124 13       		.uleb128 0x13
ARM GAS  C:\Users\25521\AppData\Local\Temp\cchuEGrA.s 			page 44


 2448 0125 00       		.byte	0
 2449 0126 00       		.byte	0
 2450 0127 18       		.uleb128 0x18
 2451 0128 01       		.uleb128 0x1
 2452 0129 01       		.byte	0x1
 2453 012a 49       		.uleb128 0x49
 2454 012b 13       		.uleb128 0x13
 2455 012c 01       		.uleb128 0x1
 2456 012d 13       		.uleb128 0x13
 2457 012e 00       		.byte	0
 2458 012f 00       		.byte	0
 2459 0130 19       		.uleb128 0x19
 2460 0131 21       		.uleb128 0x21
 2461 0132 00       		.byte	0
 2462 0133 49       		.uleb128 0x49
 2463 0134 13       		.uleb128 0x13
 2464 0135 2F       		.uleb128 0x2f
 2465 0136 0B       		.uleb128 0xb
 2466 0137 00       		.byte	0
 2467 0138 00       		.byte	0
 2468 0139 1A       		.uleb128 0x1a
 2469 013a 17       		.uleb128 0x17
 2470 013b 01       		.byte	0x1
 2471 013c 0B       		.uleb128 0xb
 2472 013d 0B       		.uleb128 0xb
 2473 013e 3A       		.uleb128 0x3a
 2474 013f 0B       		.uleb128 0xb
 2475 0140 3B       		.uleb128 0x3b
 2476 0141 0B       		.uleb128 0xb
 2477 0142 01       		.uleb128 0x1
 2478 0143 13       		.uleb128 0x13
 2479 0144 00       		.byte	0
 2480 0145 00       		.byte	0
 2481 0146 1B       		.uleb128 0x1b
 2482 0147 0D       		.uleb128 0xd
 2483 0148 00       		.byte	0
 2484 0149 03       		.uleb128 0x3
 2485 014a 0E       		.uleb128 0xe
 2486 014b 3A       		.uleb128 0x3a
 2487 014c 0B       		.uleb128 0xb
 2488 014d 3B       		.uleb128 0x3b
 2489 014e 05       		.uleb128 0x5
 2490 014f 49       		.uleb128 0x49
 2491 0150 13       		.uleb128 0x13
 2492 0151 00       		.byte	0
 2493 0152 00       		.byte	0
 2494 0153 1C       		.uleb128 0x1c
 2495 0154 34       		.uleb128 0x34
 2496 0155 00       		.byte	0
 2497 0156 03       		.uleb128 0x3
 2498 0157 08       		.uleb128 0x8
 2499 0158 3A       		.uleb128 0x3a
 2500 0159 0B       		.uleb128 0xb
 2501 015a 3B       		.uleb128 0x3b
 2502 015b 05       		.uleb128 0x5
 2503 015c 49       		.uleb128 0x49
 2504 015d 13       		.uleb128 0x13
ARM GAS  C:\Users\25521\AppData\Local\Temp\cchuEGrA.s 			page 45


 2505 015e 3F       		.uleb128 0x3f
 2506 015f 19       		.uleb128 0x19
 2507 0160 3C       		.uleb128 0x3c
 2508 0161 19       		.uleb128 0x19
 2509 0162 00       		.byte	0
 2510 0163 00       		.byte	0
 2511 0164 1D       		.uleb128 0x1d
 2512 0165 15       		.uleb128 0x15
 2513 0166 01       		.byte	0x1
 2514 0167 27       		.uleb128 0x27
 2515 0168 19       		.uleb128 0x19
 2516 0169 49       		.uleb128 0x49
 2517 016a 13       		.uleb128 0x13
 2518 016b 01       		.uleb128 0x1
 2519 016c 13       		.uleb128 0x13
 2520 016d 00       		.byte	0
 2521 016e 00       		.byte	0
 2522 016f 1E       		.uleb128 0x1e
 2523 0170 15       		.uleb128 0x15
 2524 0171 00       		.byte	0
 2525 0172 27       		.uleb128 0x27
 2526 0173 19       		.uleb128 0x19
 2527 0174 00       		.byte	0
 2528 0175 00       		.byte	0
 2529 0176 1F       		.uleb128 0x1f
 2530 0177 0D       		.uleb128 0xd
 2531 0178 00       		.byte	0
 2532 0179 03       		.uleb128 0x3
 2533 017a 08       		.uleb128 0x8
 2534 017b 3A       		.uleb128 0x3a
 2535 017c 0B       		.uleb128 0xb
 2536 017d 3B       		.uleb128 0x3b
 2537 017e 0B       		.uleb128 0xb
 2538 017f 49       		.uleb128 0x49
 2539 0180 13       		.uleb128 0x13
 2540 0181 38       		.uleb128 0x38
 2541 0182 05       		.uleb128 0x5
 2542 0183 00       		.byte	0
 2543 0184 00       		.byte	0
 2544 0185 20       		.uleb128 0x20
 2545 0186 17       		.uleb128 0x17
 2546 0187 01       		.byte	0x1
 2547 0188 03       		.uleb128 0x3
 2548 0189 0E       		.uleb128 0xe
 2549 018a 0B       		.uleb128 0xb
 2550 018b 05       		.uleb128 0x5
 2551 018c 3A       		.uleb128 0x3a
 2552 018d 0B       		.uleb128 0xb
 2553 018e 3B       		.uleb128 0x3b
 2554 018f 0B       		.uleb128 0xb
 2555 0190 01       		.uleb128 0x1
 2556 0191 13       		.uleb128 0x13
 2557 0192 00       		.byte	0
 2558 0193 00       		.byte	0
 2559 0194 21       		.uleb128 0x21
 2560 0195 0D       		.uleb128 0xd
 2561 0196 00       		.byte	0
ARM GAS  C:\Users\25521\AppData\Local\Temp\cchuEGrA.s 			page 46


 2562 0197 03       		.uleb128 0x3
 2563 0198 08       		.uleb128 0x8
 2564 0199 3A       		.uleb128 0x3a
 2565 019a 0B       		.uleb128 0xb
 2566 019b 3B       		.uleb128 0x3b
 2567 019c 0B       		.uleb128 0xb
 2568 019d 49       		.uleb128 0x49
 2569 019e 13       		.uleb128 0x13
 2570 019f 00       		.byte	0
 2571 01a0 00       		.byte	0
 2572 01a1 22       		.uleb128 0x22
 2573 01a2 0D       		.uleb128 0xd
 2574 01a3 00       		.byte	0
 2575 01a4 03       		.uleb128 0x3
 2576 01a5 0E       		.uleb128 0xe
 2577 01a6 3A       		.uleb128 0x3a
 2578 01a7 0B       		.uleb128 0xb
 2579 01a8 3B       		.uleb128 0x3b
 2580 01a9 0B       		.uleb128 0xb
 2581 01aa 49       		.uleb128 0x49
 2582 01ab 13       		.uleb128 0x13
 2583 01ac 00       		.byte	0
 2584 01ad 00       		.byte	0
 2585 01ae 23       		.uleb128 0x23
 2586 01af 21       		.uleb128 0x21
 2587 01b0 00       		.byte	0
 2588 01b1 49       		.uleb128 0x49
 2589 01b2 13       		.uleb128 0x13
 2590 01b3 2F       		.uleb128 0x2f
 2591 01b4 05       		.uleb128 0x5
 2592 01b5 00       		.byte	0
 2593 01b6 00       		.byte	0
 2594 01b7 24       		.uleb128 0x24
 2595 01b8 21       		.uleb128 0x21
 2596 01b9 00       		.byte	0
 2597 01ba 00       		.byte	0
 2598 01bb 00       		.byte	0
 2599 01bc 25       		.uleb128 0x25
 2600 01bd 34       		.uleb128 0x34
 2601 01be 00       		.byte	0
 2602 01bf 03       		.uleb128 0x3
 2603 01c0 08       		.uleb128 0x8
 2604 01c1 3A       		.uleb128 0x3a
 2605 01c2 0B       		.uleb128 0xb
 2606 01c3 3B       		.uleb128 0x3b
 2607 01c4 0B       		.uleb128 0xb
 2608 01c5 49       		.uleb128 0x49
 2609 01c6 13       		.uleb128 0x13
 2610 01c7 3F       		.uleb128 0x3f
 2611 01c8 19       		.uleb128 0x19
 2612 01c9 3C       		.uleb128 0x3c
 2613 01ca 19       		.uleb128 0x19
 2614 01cb 00       		.byte	0
 2615 01cc 00       		.byte	0
 2616 01cd 26       		.uleb128 0x26
 2617 01ce 34       		.uleb128 0x34
 2618 01cf 00       		.byte	0
ARM GAS  C:\Users\25521\AppData\Local\Temp\cchuEGrA.s 			page 47


 2619 01d0 03       		.uleb128 0x3
 2620 01d1 08       		.uleb128 0x8
 2621 01d2 3A       		.uleb128 0x3a
 2622 01d3 0B       		.uleb128 0xb
 2623 01d4 3B       		.uleb128 0x3b
 2624 01d5 0B       		.uleb128 0xb
 2625 01d6 49       		.uleb128 0x49
 2626 01d7 13       		.uleb128 0x13
 2627 01d8 02       		.uleb128 0x2
 2628 01d9 18       		.uleb128 0x18
 2629 01da 00       		.byte	0
 2630 01db 00       		.byte	0
 2631 01dc 27       		.uleb128 0x27
 2632 01dd 34       		.uleb128 0x34
 2633 01de 00       		.byte	0
 2634 01df 03       		.uleb128 0x3
 2635 01e0 0E       		.uleb128 0xe
 2636 01e1 3A       		.uleb128 0x3a
 2637 01e2 0B       		.uleb128 0xb
 2638 01e3 3B       		.uleb128 0x3b
 2639 01e4 0B       		.uleb128 0xb
 2640 01e5 49       		.uleb128 0x49
 2641 01e6 13       		.uleb128 0x13
 2642 01e7 3F       		.uleb128 0x3f
 2643 01e8 19       		.uleb128 0x19
 2644 01e9 02       		.uleb128 0x2
 2645 01ea 18       		.uleb128 0x18
 2646 01eb 00       		.byte	0
 2647 01ec 00       		.byte	0
 2648 01ed 28       		.uleb128 0x28
 2649 01ee 2E       		.uleb128 0x2e
 2650 01ef 01       		.byte	0x1
 2651 01f0 03       		.uleb128 0x3
 2652 01f1 0E       		.uleb128 0xe
 2653 01f2 3A       		.uleb128 0x3a
 2654 01f3 0B       		.uleb128 0xb
 2655 01f4 3B       		.uleb128 0x3b
 2656 01f5 0B       		.uleb128 0xb
 2657 01f6 27       		.uleb128 0x27
 2658 01f7 19       		.uleb128 0x19
 2659 01f8 20       		.uleb128 0x20
 2660 01f9 0B       		.uleb128 0xb
 2661 01fa 01       		.uleb128 0x1
 2662 01fb 13       		.uleb128 0x13
 2663 01fc 00       		.byte	0
 2664 01fd 00       		.byte	0
 2665 01fe 29       		.uleb128 0x29
 2666 01ff 34       		.uleb128 0x34
 2667 0200 00       		.byte	0
 2668 0201 03       		.uleb128 0x3
 2669 0202 08       		.uleb128 0x8
 2670 0203 3A       		.uleb128 0x3a
 2671 0204 0B       		.uleb128 0xb
 2672 0205 3B       		.uleb128 0x3b
 2673 0206 0B       		.uleb128 0xb
 2674 0207 49       		.uleb128 0x49
 2675 0208 13       		.uleb128 0x13
ARM GAS  C:\Users\25521\AppData\Local\Temp\cchuEGrA.s 			page 48


 2676 0209 00       		.byte	0
 2677 020a 00       		.byte	0
 2678 020b 2A       		.uleb128 0x2a
 2679 020c 2E       		.uleb128 0x2e
 2680 020d 01       		.byte	0x1
 2681 020e 03       		.uleb128 0x3
 2682 020f 0E       		.uleb128 0xe
 2683 0210 3A       		.uleb128 0x3a
 2684 0211 0B       		.uleb128 0xb
 2685 0212 3B       		.uleb128 0x3b
 2686 0213 0B       		.uleb128 0xb
 2687 0214 27       		.uleb128 0x27
 2688 0215 19       		.uleb128 0x19
 2689 0216 11       		.uleb128 0x11
 2690 0217 01       		.uleb128 0x1
 2691 0218 12       		.uleb128 0x12
 2692 0219 06       		.uleb128 0x6
 2693 021a 40       		.uleb128 0x40
 2694 021b 18       		.uleb128 0x18
 2695 021c 9742     		.uleb128 0x2117
 2696 021e 19       		.uleb128 0x19
 2697 021f 01       		.uleb128 0x1
 2698 0220 13       		.uleb128 0x13
 2699 0221 00       		.byte	0
 2700 0222 00       		.byte	0
 2701 0223 2B       		.uleb128 0x2b
 2702 0224 898201   		.uleb128 0x4109
 2703 0227 01       		.byte	0x1
 2704 0228 11       		.uleb128 0x11
 2705 0229 01       		.uleb128 0x1
 2706 022a 9542     		.uleb128 0x2115
 2707 022c 19       		.uleb128 0x19
 2708 022d 31       		.uleb128 0x31
 2709 022e 13       		.uleb128 0x13
 2710 022f 01       		.uleb128 0x1
 2711 0230 13       		.uleb128 0x13
 2712 0231 00       		.byte	0
 2713 0232 00       		.byte	0
 2714 0233 2C       		.uleb128 0x2c
 2715 0234 8A8201   		.uleb128 0x410a
 2716 0237 00       		.byte	0
 2717 0238 02       		.uleb128 0x2
 2718 0239 18       		.uleb128 0x18
 2719 023a 9142     		.uleb128 0x2111
 2720 023c 18       		.uleb128 0x18
 2721 023d 00       		.byte	0
 2722 023e 00       		.byte	0
 2723 023f 2D       		.uleb128 0x2d
 2724 0240 898201   		.uleb128 0x4109
 2725 0243 00       		.byte	0
 2726 0244 11       		.uleb128 0x11
 2727 0245 01       		.uleb128 0x1
 2728 0246 31       		.uleb128 0x31
 2729 0247 13       		.uleb128 0x13
 2730 0248 00       		.byte	0
 2731 0249 00       		.byte	0
 2732 024a 2E       		.uleb128 0x2e
ARM GAS  C:\Users\25521\AppData\Local\Temp\cchuEGrA.s 			page 49


 2733 024b 2E       		.uleb128 0x2e
 2734 024c 01       		.byte	0x1
 2735 024d 03       		.uleb128 0x3
 2736 024e 0E       		.uleb128 0xe
 2737 024f 3A       		.uleb128 0x3a
 2738 0250 0B       		.uleb128 0xb
 2739 0251 3B       		.uleb128 0x3b
 2740 0252 0B       		.uleb128 0xb
 2741 0253 27       		.uleb128 0x27
 2742 0254 19       		.uleb128 0x19
 2743 0255 49       		.uleb128 0x49
 2744 0256 13       		.uleb128 0x13
 2745 0257 11       		.uleb128 0x11
 2746 0258 01       		.uleb128 0x1
 2747 0259 12       		.uleb128 0x12
 2748 025a 06       		.uleb128 0x6
 2749 025b 40       		.uleb128 0x40
 2750 025c 18       		.uleb128 0x18
 2751 025d 9742     		.uleb128 0x2117
 2752 025f 19       		.uleb128 0x19
 2753 0260 01       		.uleb128 0x1
 2754 0261 13       		.uleb128 0x13
 2755 0262 00       		.byte	0
 2756 0263 00       		.byte	0
 2757 0264 2F       		.uleb128 0x2f
 2758 0265 05       		.uleb128 0x5
 2759 0266 00       		.byte	0
 2760 0267 03       		.uleb128 0x3
 2761 0268 0E       		.uleb128 0xe
 2762 0269 3A       		.uleb128 0x3a
 2763 026a 0B       		.uleb128 0xb
 2764 026b 3B       		.uleb128 0x3b
 2765 026c 0B       		.uleb128 0xb
 2766 026d 49       		.uleb128 0x49
 2767 026e 13       		.uleb128 0x13
 2768 026f 02       		.uleb128 0x2
 2769 0270 17       		.uleb128 0x17
 2770 0271 00       		.byte	0
 2771 0272 00       		.byte	0
 2772 0273 30       		.uleb128 0x30
 2773 0274 2E       		.uleb128 0x2e
 2774 0275 01       		.byte	0x1
 2775 0276 31       		.uleb128 0x31
 2776 0277 13       		.uleb128 0x13
 2777 0278 11       		.uleb128 0x11
 2778 0279 01       		.uleb128 0x1
 2779 027a 12       		.uleb128 0x12
 2780 027b 06       		.uleb128 0x6
 2781 027c 40       		.uleb128 0x40
 2782 027d 18       		.uleb128 0x18
 2783 027e 9742     		.uleb128 0x2117
 2784 0280 19       		.uleb128 0x19
 2785 0281 01       		.uleb128 0x1
 2786 0282 13       		.uleb128 0x13
 2787 0283 00       		.byte	0
 2788 0284 00       		.byte	0
 2789 0285 31       		.uleb128 0x31
ARM GAS  C:\Users\25521\AppData\Local\Temp\cchuEGrA.s 			page 50


 2790 0286 34       		.uleb128 0x34
 2791 0287 00       		.byte	0
 2792 0288 31       		.uleb128 0x31
 2793 0289 13       		.uleb128 0x13
 2794 028a 02       		.uleb128 0x2
 2795 028b 17       		.uleb128 0x17
 2796 028c 00       		.byte	0
 2797 028d 00       		.byte	0
 2798 028e 32       		.uleb128 0x32
 2799 028f 0B       		.uleb128 0xb
 2800 0290 01       		.byte	0x1
 2801 0291 55       		.uleb128 0x55
 2802 0292 17       		.uleb128 0x17
 2803 0293 01       		.uleb128 0x1
 2804 0294 13       		.uleb128 0x13
 2805 0295 00       		.byte	0
 2806 0296 00       		.byte	0
 2807 0297 33       		.uleb128 0x33
 2808 0298 34       		.uleb128 0x34
 2809 0299 00       		.byte	0
 2810 029a 31       		.uleb128 0x31
 2811 029b 13       		.uleb128 0x13
 2812 029c 00       		.byte	0
 2813 029d 00       		.byte	0
 2814 029e 34       		.uleb128 0x34
 2815 029f 898201   		.uleb128 0x4109
 2816 02a2 01       		.byte	0x1
 2817 02a3 11       		.uleb128 0x11
 2818 02a4 01       		.uleb128 0x1
 2819 02a5 31       		.uleb128 0x31
 2820 02a6 13       		.uleb128 0x13
 2821 02a7 01       		.uleb128 0x1
 2822 02a8 13       		.uleb128 0x13
 2823 02a9 00       		.byte	0
 2824 02aa 00       		.byte	0
 2825 02ab 35       		.uleb128 0x35
 2826 02ac 898201   		.uleb128 0x4109
 2827 02af 01       		.byte	0x1
 2828 02b0 11       		.uleb128 0x11
 2829 02b1 01       		.uleb128 0x1
 2830 02b2 9542     		.uleb128 0x2115
 2831 02b4 19       		.uleb128 0x19
 2832 02b5 31       		.uleb128 0x31
 2833 02b6 13       		.uleb128 0x13
 2834 02b7 00       		.byte	0
 2835 02b8 00       		.byte	0
 2836 02b9 36       		.uleb128 0x36
 2837 02ba 2E       		.uleb128 0x2e
 2838 02bb 00       		.byte	0
 2839 02bc 3F       		.uleb128 0x3f
 2840 02bd 19       		.uleb128 0x19
 2841 02be 3C       		.uleb128 0x3c
 2842 02bf 19       		.uleb128 0x19
 2843 02c0 6E       		.uleb128 0x6e
 2844 02c1 0E       		.uleb128 0xe
 2845 02c2 03       		.uleb128 0x3
 2846 02c3 0E       		.uleb128 0xe
ARM GAS  C:\Users\25521\AppData\Local\Temp\cchuEGrA.s 			page 51


 2847 02c4 3A       		.uleb128 0x3a
 2848 02c5 0B       		.uleb128 0xb
 2849 02c6 3B       		.uleb128 0x3b
 2850 02c7 0B       		.uleb128 0xb
 2851 02c8 00       		.byte	0
 2852 02c9 00       		.byte	0
 2853 02ca 37       		.uleb128 0x37
 2854 02cb 2E       		.uleb128 0x2e
 2855 02cc 00       		.byte	0
 2856 02cd 3F       		.uleb128 0x3f
 2857 02ce 19       		.uleb128 0x19
 2858 02cf 3C       		.uleb128 0x3c
 2859 02d0 19       		.uleb128 0x19
 2860 02d1 6E       		.uleb128 0x6e
 2861 02d2 0E       		.uleb128 0xe
 2862 02d3 03       		.uleb128 0x3
 2863 02d4 0E       		.uleb128 0xe
 2864 02d5 00       		.byte	0
 2865 02d6 00       		.byte	0
 2866 02d7 00       		.byte	0
 2867              		.section	.debug_loc,"",%progbits
 2868              	.Ldebug_loc0:
 2869              	.LLST0:
 2870 0000 00000000 		.4byte	.LVL0
 2871 0004 14000000 		.4byte	.LVL1
 2872 0008 0100     		.2byte	0x1
 2873 000a 50       		.byte	0x50
 2874 000b 14000000 		.4byte	.LVL1
 2875 000f 1A000000 		.4byte	.LVL2
 2876 0013 0400     		.2byte	0x4
 2877 0015 F3       		.byte	0xf3
 2878 0016 01       		.uleb128 0x1
 2879 0017 50       		.byte	0x50
 2880 0018 9F       		.byte	0x9f
 2881 0019 1A000000 		.4byte	.LVL2
 2882 001d 1D000000 		.4byte	.LVL3-1
 2883 0021 0100     		.2byte	0x1
 2884 0023 50       		.byte	0x50
 2885 0024 1D000000 		.4byte	.LVL3-1
 2886 0028 24000000 		.4byte	.LFE230
 2887 002c 0400     		.2byte	0x4
 2888 002e F3       		.byte	0xf3
 2889 002f 01       		.uleb128 0x1
 2890 0030 50       		.byte	0x50
 2891 0031 9F       		.byte	0x9f
 2892 0032 00000000 		.4byte	0
 2893 0036 00000000 		.4byte	0
 2894              	.LLST1:
 2895 003a 1C000000 		.4byte	.LVL6
 2896 003e 1E000000 		.4byte	.LVL7
 2897 0042 0200     		.2byte	0x2
 2898 0044 30       		.byte	0x30
 2899 0045 9F       		.byte	0x9f
 2900 0046 1E000000 		.4byte	.LVL7
 2901 004a 32000000 		.4byte	.LVL10
 2902 004e 0500     		.2byte	0x5
 2903 0050 35       		.byte	0x35
ARM GAS  C:\Users\25521\AppData\Local\Temp\cchuEGrA.s 			page 52


 2904 0051 74       		.byte	0x74
 2905 0052 00       		.sleb128 0
 2906 0053 1C       		.byte	0x1c
 2907 0054 9F       		.byte	0x9f
 2908 0055 32000000 		.4byte	.LVL10
 2909 0059 34000000 		.4byte	.LVL11
 2910 005d 0500     		.2byte	0x5
 2911 005f 36       		.byte	0x36
 2912 0060 74       		.byte	0x74
 2913 0061 00       		.sleb128 0
 2914 0062 1C       		.byte	0x1c
 2915 0063 9F       		.byte	0x9f
 2916 0064 34000000 		.4byte	.LVL11
 2917 0068 4C000000 		.4byte	.LVL14
 2918 006c 0500     		.2byte	0x5
 2919 006e 35       		.byte	0x35
 2920 006f 74       		.byte	0x74
 2921 0070 00       		.sleb128 0
 2922 0071 1C       		.byte	0x1c
 2923 0072 9F       		.byte	0x9f
 2924 0073 00000000 		.4byte	0
 2925 0077 00000000 		.4byte	0
 2926              		.section	.debug_aranges,"",%progbits
 2927 0000 2C000000 		.4byte	0x2c
 2928 0004 0200     		.2byte	0x2
 2929 0006 00000000 		.4byte	.Ldebug_info0
 2930 000a 04       		.byte	0x4
 2931 000b 00       		.byte	0
 2932 000c 0000     		.2byte	0
 2933 000e 0000     		.2byte	0
 2934 0010 00000000 		.4byte	.LFB230
 2935 0014 24000000 		.4byte	.LFE230-.LFB230
 2936 0018 00000000 		.4byte	.LFB231
 2937 001c 30000000 		.4byte	.LFE231-.LFB231
 2938 0020 00000000 		.4byte	.LFB232
 2939 0024 F0000000 		.4byte	.LFE232-.LFB232
 2940 0028 00000000 		.4byte	0
 2941 002c 00000000 		.4byte	0
 2942              		.section	.debug_ranges,"",%progbits
 2943              	.Ldebug_ranges0:
 2944 0000 4C000000 		.4byte	.LBB5
 2945 0004 A0000000 		.4byte	.LBE5
 2946 0008 AE000000 		.4byte	.LBB6
 2947 000c CE000000 		.4byte	.LBE6
 2948 0010 D4000000 		.4byte	.LBB7
 2949 0014 D8000000 		.4byte	.LBE7
 2950 0018 00000000 		.4byte	0
 2951 001c 00000000 		.4byte	0
 2952 0020 00000000 		.4byte	.LFB230
 2953 0024 24000000 		.4byte	.LFE230
 2954 0028 00000000 		.4byte	.LFB231
 2955 002c 30000000 		.4byte	.LFE231
 2956 0030 00000000 		.4byte	.LFB232
 2957 0034 F0000000 		.4byte	.LFE232
 2958 0038 00000000 		.4byte	0
 2959 003c 00000000 		.4byte	0
 2960              		.section	.debug_line,"",%progbits
ARM GAS  C:\Users\25521\AppData\Local\Temp\cchuEGrA.s 			page 53


 2961              	.Ldebug_line0:
 2962 0000 C3030000 		.section	.debug_str,"MS",%progbits,1
 2962      02006703 
 2962      00000201 
 2962      FB0E0D00 
 2962      01010101 
 2963              	.LASF146:
 2964 0000 63665F6F 		.ascii	"cf_off_older\000"
 2964      66665F6F 
 2964      6C646572 
 2964      00
 2965              	.LASF61:
 2966 000d 72656164 		.ascii	"ready_list_t\000"
 2966      795F6C69 
 2966      73745F74 
 2966      00
 2967              	.LASF99:
 2968 001a 73655F74 		.ascii	"se_time\000"
 2968      696D6500 
 2969              	.LASF4:
 2970 0022 73697A65 		.ascii	"size_t\000"
 2970      5F7400
 2971              	.LASF120:
 2972 0029 7264796D 		.ascii	"rdymsg\000"
 2972      736700
 2973              	.LASF20:
 2974 0030 75696E74 		.ascii	"uint64_t\000"
 2974      36345F74 
 2974      00
 2975              	.LASF91:
 2976 0039 6B65726E 		.ascii	"kernel_stats\000"
 2976      656C5F73 
 2976      74617473 
 2976      00
 2977              	.LASF5:
 2978 0046 5F5F7569 		.ascii	"__uint8_t\000"
 2978      6E74385F 
 2978      7400
 2979              	.LASF98:
 2980 0050 706F7274 		.ascii	"port_intctx\000"
 2980      5F696E74 
 2980      63747800 
 2981              	.LASF60:
 2982 005c 63685F74 		.ascii	"ch_threads_queue\000"
 2982      68726561 
 2982      64735F71 
 2982      75657565 
 2982      00
 2983              	.LASF80:
 2984 006d 73797374 		.ascii	"system_debug_t\000"
 2984      656D5F64 
 2984      65627567 
 2984      5F7400
 2985              	.LASF111:
 2986 007c 776F7273 		.ascii	"worst\000"
 2986      7400
 2987              	.LASF114:
ARM GAS  C:\Users\25521\AppData\Local\Temp\cchuEGrA.s 			page 54


 2988 0082 74696D65 		.ascii	"time_measurement_t\000"
 2988      5F6D6561 
 2988      73757265 
 2988      6D656E74 
 2988      5F7400
 2989              	.LASF15:
 2990 0095 6C6F6E67 		.ascii	"long long unsigned int\000"
 2990      206C6F6E 
 2990      6720756E 
 2990      7369676E 
 2990      65642069 
 2991              	.LASF107:
 2992 00ac 63685F74 		.ascii	"ch_trace_buffer_t\000"
 2992      72616365 
 2992      5F627566 
 2992      6665725F 
 2992      7400
 2993              	.LASF142:
 2994 00be 63685F74 		.ascii	"ch_threadsize\000"
 2994      68726561 
 2994      6473697A 
 2994      6500
 2995              	.LASF121:
 2996 00cc 65786974 		.ascii	"exitcode\000"
 2996      636F6465 
 2996      00
 2997              	.LASF90:
 2998 00d5 6D61696E 		.ascii	"mainthread\000"
 2998      74687265 
 2998      616400
 2999              	.LASF173:
 3000 00e0 74657374 		.ascii	"test\000"
 3000      00
 3001              	.LASF77:
 3002 00e5 76697274 		.ascii	"virtual_timers_list_t\000"
 3002      75616C5F 
 3002      74696D65 
 3002      72735F6C 
 3002      6973745F 
 3003              	.LASF93:
 3004 00fb 49544D5F 		.ascii	"ITM_RxBuffer\000"
 3004      52784275 
 3004      66666572 
 3004      00
 3005              	.LASF22:
 3006 0108 72747469 		.ascii	"rttime_t\000"
 3006      6D655F74 
 3006      00
 3007              	.LASF36:
 3008 0111 705F7072 		.ascii	"p_prio\000"
 3008      696F00
 3009              	.LASF149:
 3010 0118 63665F6F 		.ascii	"cf_off_state\000"
 3010      66665F73 
 3010      74617465 
 3010      00
 3011              	.LASF167:
ARM GAS  C:\Users\25521\AppData\Local\Temp\cchuEGrA.s 			page 55


 3012 0125 74656172 		.ascii	"teardown\000"
 3012      646F776E 
 3012      00
 3013              	.LASF156:
 3014 012e 6D757465 		.ascii	"mutex_t\000"
 3014      785F7400 
 3015              	.LASF1:
 3016 0136 6C6F6E67 		.ascii	"long long int\000"
 3016      206C6F6E 
 3016      6720696E 
 3016      7400
 3017              	.LASF3:
 3018 0144 7369676E 		.ascii	"signed char\000"
 3018      65642063 
 3018      68617200 
 3019              	.LASF148:
 3020 0150 63665F6F 		.ascii	"cf_off_stklimit\000"
 3020      66665F73 
 3020      746B6C69 
 3020      6D697400 
 3021              	.LASF150:
 3022 0160 63665F6F 		.ascii	"cf_off_flags\000"
 3022      66665F66 
 3022      6C616773 
 3022      00
 3023              	.LASF53:
 3024 016d 705F6D70 		.ascii	"p_mpool\000"
 3024      6F6F6C00 
 3025              	.LASF131:
 3026 0175 6D5F7175 		.ascii	"m_queue\000"
 3026      65756500 
 3027              	.LASF89:
 3028 017d 76746C69 		.ascii	"vtlist\000"
 3028      737400
 3029              	.LASF26:
 3030 0184 74736C69 		.ascii	"tslices_t\000"
 3030      6365735F 
 3030      7400
 3031              	.LASF123:
 3032 018e 77747472 		.ascii	"wttrp\000"
 3032      7000
 3033              	.LASF87:
 3034 0194 63685F73 		.ascii	"ch_system\000"
 3034      79737465 
 3034      6D00
 3035              	.LASF11:
 3036 019e 6C6F6E67 		.ascii	"long int\000"
 3036      20696E74 
 3036      00
 3037              	.LASF24:
 3038 01a7 74737461 		.ascii	"tstate_t\000"
 3038      74655F74 
 3038      00
 3039              	.LASF100:
 3040 01b0 73655F74 		.ascii	"se_tp\000"
 3040      7000
 3041              	.LASF154:
ARM GAS  C:\Users\25521\AppData\Local\Temp\cchuEGrA.s 			page 56


 3042 01b6 63686465 		.ascii	"chdebug_t\000"
 3042      6275675F 
 3042      7400
 3043              	.LASF169:
 3044 01c0 62756666 		.ascii	"buffer\000"
 3044      657200
 3045              	.LASF38:
 3046 01c7 705F6E65 		.ascii	"p_newer\000"
 3046      77657200 
 3047              	.LASF128:
 3048 01cf 735F7175 		.ascii	"s_queue\000"
 3048      65756500 
 3049              	.LASF104:
 3050 01d7 74625F73 		.ascii	"tb_size\000"
 3050      697A6500 
 3051              	.LASF66:
 3052 01df 725F6E65 		.ascii	"r_newer\000"
 3052      77657200 
 3053              	.LASF162:
 3054 01e7 6D705F70 		.ascii	"mp_provider\000"
 3054      726F7669 
 3054      64657200 
 3055              	.LASF95:
 3056 01f3 72656761 		.ascii	"regarm_t\000"
 3056      726D5F74 
 3056      00
 3057              	.LASF73:
 3058 01fc 76745F70 		.ascii	"vt_prev\000"
 3058      72657600 
 3059              	.LASF81:
 3060 0204 63685F73 		.ascii	"ch_system_debug\000"
 3060      79737465 
 3060      6D5F6465 
 3060      62756700 
 3061              	.LASF134:
 3062 0214 6D5F636E 		.ascii	"m_cnt\000"
 3062      7400
 3063              	.LASF72:
 3064 021a 76745F6E 		.ascii	"vt_next\000"
 3064      65787400 
 3065              	.LASF84:
 3066 0222 6C6F636B 		.ascii	"lock_cnt\000"
 3066      5F636E74 
 3066      00
 3067              	.LASF92:
 3068 022b 69646C65 		.ascii	"idle_thread_wa\000"
 3068      5F746872 
 3068      6561645F 
 3068      776100
 3069              	.LASF30:
 3070 023a 636E745F 		.ascii	"cnt_t\000"
 3070      7400
 3071              	.LASF41:
 3072 0240 705F7374 		.ascii	"p_stklimit\000"
 3072      6B6C696D 
 3072      697400
 3073              	.LASF0:
ARM GAS  C:\Users\25521\AppData\Local\Temp\cchuEGrA.s 			page 57


 3074 024b 756E7369 		.ascii	"unsigned int\000"
 3074      676E6564 
 3074      20696E74 
 3074      00
 3075              	.LASF182:
 3076 0258 474E5520 		.ascii	"GNU C11 7.2.1 20170904 (release) [ARM/embedded-7-br"
 3076      43313120 
 3076      372E322E 
 3076      31203230 
 3076      31373039 
 3077 028b 616E6368 		.ascii	"anch revision 255204] -mcpu=cortex-m4 -mfloat-abi=h"
 3077      20726576 
 3077      6973696F 
 3077      6E203235 
 3077      35323034 
 3078 02be 61726420 		.ascii	"ard -mfpu=fpv4-sp-d16 -mno-thumb-interwork -mthumb "
 3078      2D6D6670 
 3078      753D6670 
 3078      76342D73 
 3078      702D6431 
 3079 02f1 2D676764 		.ascii	"-ggdb -O2 -fomit-frame-pointer -falign-functions=16"
 3079      62202D4F 
 3079      32202D66 
 3079      6F6D6974 
 3079      2D667261 
 3080 0324 202D666E 		.ascii	" -fno-strict-aliasing -fstack-protector-all -ffunct"
 3080      6F2D7374 
 3080      72696374 
 3080      2D616C69 
 3080      6173696E 
 3081 0357 696F6E2D 		.ascii	"ion-sections -fdata-sections -fno-common -fsingle-p"
 3081      73656374 
 3081      696F6E73 
 3081      202D6664 
 3081      6174612D 
 3082 038a 72656369 		.ascii	"recision-constant\000"
 3082      73696F6E 
 3082      2D636F6E 
 3082      7374616E 
 3082      7400
 3083              	.LASF17:
 3084 039c 75696E74 		.ascii	"uint16_t\000"
 3084      31365F74 
 3084      00
 3085              	.LASF94:
 3086 03a5 53797374 		.ascii	"SystemCoreClock\000"
 3086      656D436F 
 3086      7265436C 
 3086      6F636B00 
 3087              	.LASF46:
 3088 03b5 705F7469 		.ascii	"p_time\000"
 3088      6D6500
 3089              	.LASF124:
 3090 03bc 77747365 		.ascii	"wtsemp\000"
 3090      6D7000
 3091              	.LASF74:
 3092 03c3 76745F64 		.ascii	"vt_delta\000"
ARM GAS  C:\Users\25521\AppData\Local\Temp\cchuEGrA.s 			page 58


 3092      656C7461 
 3092      00
 3093              	.LASF48:
 3094 03cc 705F6D73 		.ascii	"p_msgqueue\000"
 3094      67717565 
 3094      756500
 3095              	.LASF155:
 3096 03d7 63685F64 		.ascii	"ch_debug\000"
 3096      65627567 
 3096      00
 3097              	.LASF174:
 3098 03e0 74657374 		.ascii	"test_timer_done\000"
 3098      5F74696D 
 3098      65725F64 
 3098      6F6E6500 
 3099              	.LASF163:
 3100 03f0 6D656D6F 		.ascii	"memory_pool_t\000"
 3100      72795F70 
 3100      6F6F6C5F 
 3100      7400
 3101              	.LASF115:
 3102 03fe 6E5F6972 		.ascii	"n_irq\000"
 3102      7100
 3103              	.LASF129:
 3104 0404 735F636E 		.ascii	"s_cnt\000"
 3104      7400
 3105              	.LASF165:
 3106 040a 6E616D65 		.ascii	"name\000"
 3106      00
 3107              	.LASF9:
 3108 040f 73686F72 		.ascii	"short unsigned int\000"
 3108      7420756E 
 3108      7369676E 
 3108      65642069 
 3108      6E7400
 3109              	.LASF119:
 3110 0422 6B65726E 		.ascii	"kernel_stats_t\000"
 3110      656C5F73 
 3110      74617473 
 3110      5F7400
 3111              	.LASF57:
 3112 0431 63685F74 		.ascii	"ch_thread\000"
 3112      68726561 
 3112      6400
 3113              	.LASF139:
 3114 043b 63685F76 		.ascii	"ch_version\000"
 3114      65727369 
 3114      6F6E00
 3115              	.LASF28:
 3116 0446 6D73675F 		.ascii	"msg_t\000"
 3116      7400
 3117              	.LASF112:
 3118 044c 6C617374 		.ascii	"last\000"
 3118      00
 3119              	.LASF31:
 3120 0451 75636E74 		.ascii	"ucnt_t\000"
 3120      5F7400
ARM GAS  C:\Users\25521\AppData\Local\Temp\cchuEGrA.s 			page 59


 3121              	.LASF86:
 3122 0458 63685F73 		.ascii	"ch_system_t\000"
 3122      79737465 
 3122      6D5F7400 
 3123              	.LASF144:
 3124 0464 63665F6F 		.ascii	"cf_off_ctx\000"
 3124      66665F63 
 3124      747800
 3125              	.LASF153:
 3126 046f 63665F6F 		.ascii	"cf_off_time\000"
 3126      66665F74 
 3126      696D6500 
 3127              	.LASF177:
 3128 047b 6368506F 		.ascii	"chPoolObjectInit\000"
 3128      6F6C4F62 
 3128      6A656374 
 3128      496E6974 
 3128      00
 3129              	.LASF118:
 3130 048c 6D5F6372 		.ascii	"m_crit_isr\000"
 3130      69745F69 
 3130      737200
 3131              	.LASF62:
 3132 0497 63685F72 		.ascii	"ch_ready_list\000"
 3132      65616479 
 3132      5F6C6973 
 3132      7400
 3133              	.LASF29:
 3134 04a5 6576656E 		.ascii	"eventmask_t\000"
 3134      746D6173 
 3134      6B5F7400 
 3135              	.LASF10:
 3136 04b1 5F5F696E 		.ascii	"__int32_t\000"
 3136      7433325F 
 3136      7400
 3137              	.LASF96:
 3138 04bb 73746B61 		.ascii	"stkalign_t\000"
 3138      6C69676E 
 3138      5F7400
 3139              	.LASF56:
 3140 04c6 74687265 		.ascii	"threads_list_t\000"
 3140      6164735F 
 3140      6C697374 
 3140      5F7400
 3141              	.LASF137:
 3142 04d5 63685F7A 		.ascii	"ch_zero\000"
 3142      65726F00 
 3143              	.LASF151:
 3144 04dd 63665F6F 		.ascii	"cf_off_refs\000"
 3144      66665F72 
 3144      65667300 
 3145              	.LASF64:
 3146 04e9 725F7072 		.ascii	"r_prio\000"
 3146      696F00
 3147              	.LASF47:
 3148 04f0 705F7761 		.ascii	"p_waiting\000"
 3148      6974696E 
ARM GAS  C:\Users\25521\AppData\Local\Temp\cchuEGrA.s 			page 60


 3148      6700
 3149              	.LASF21:
 3150 04fa 7274636E 		.ascii	"rtcnt_t\000"
 3150      745F7400 
 3151              	.LASF78:
 3152 0502 63685F76 		.ascii	"ch_virtual_timers_list\000"
 3152      69727475 
 3152      616C5F74 
 3152      696D6572 
 3152      735F6C69 
 3153              	.LASF2:
 3154 0519 6C6F6E67 		.ascii	"long double\000"
 3154      20646F75 
 3154      626C6500 
 3155              	.LASF141:
 3156 0525 63685F74 		.ascii	"ch_timesize\000"
 3156      696D6573 
 3156      697A6500 
 3157              	.LASF105:
 3158 0531 74625F70 		.ascii	"tb_ptr\000"
 3158      747200
 3159              	.LASF63:
 3160 0538 725F7175 		.ascii	"r_queue\000"
 3160      65756500 
 3161              	.LASF103:
 3162 0540 63685F73 		.ascii	"ch_swc_event_t\000"
 3162      77635F65 
 3162      76656E74 
 3162      5F7400
 3163              	.LASF147:
 3164 054f 63665F6F 		.ascii	"cf_off_name\000"
 3164      66665F6E 
 3164      616D6500 
 3165              	.LASF39:
 3166 055b 705F6F6C 		.ascii	"p_older\000"
 3166      64657200 
 3167              	.LASF65:
 3168 0563 725F6374 		.ascii	"r_ctx\000"
 3168      7800
 3169              	.LASF37:
 3170 0569 705F6374 		.ascii	"p_ctx\000"
 3170      7800
 3171              	.LASF161:
 3172 056f 6D705F6F 		.ascii	"mp_object_size\000"
 3172      626A6563 
 3172      745F7369 
 3172      7A6500
 3173              	.LASF109:
 3174 057e 746D5F63 		.ascii	"tm_calibration_t\000"
 3174      616C6962 
 3174      72617469 
 3174      6F6E5F74 
 3174      00
 3175              	.LASF166:
 3176 058f 73657475 		.ascii	"setup\000"
 3176      7000
 3177              	.LASF68:
ARM GAS  C:\Users\25521\AppData\Local\Temp\cchuEGrA.s 			page 61


 3178 0595 725F6375 		.ascii	"r_current\000"
 3178      7272656E 
 3178      7400
 3179              	.LASF67:
 3180 059f 725F6F6C 		.ascii	"r_older\000"
 3180      64657200 
 3181              	.LASF176:
 3182 05a7 70617474 		.ascii	"patternpools\000"
 3182      65726E70 
 3182      6F6F6C73 
 3182      00
 3183              	.LASF14:
 3184 05b4 5F5F7569 		.ascii	"__uint64_t\000"
 3184      6E743634 
 3184      5F7400
 3185              	.LASF113:
 3186 05bf 63756D75 		.ascii	"cumulative\000"
 3186      6C617469 
 3186      766500
 3187              	.LASF25:
 3188 05ca 74726566 		.ascii	"trefs_t\000"
 3188      735F7400 
 3189              	.LASF106:
 3190 05d2 74625F62 		.ascii	"tb_buffer\000"
 3190      75666665 
 3190      7200
 3191              	.LASF140:
 3192 05dc 63685F70 		.ascii	"ch_ptrsize\000"
 3192      74727369 
 3192      7A6500
 3193              	.LASF70:
 3194 05e7 76697274 		.ascii	"virtual_timer_t\000"
 3194      75616C5F 
 3194      74696D65 
 3194      725F7400 
 3195              	.LASF35:
 3196 05f7 705F7072 		.ascii	"p_prev\000"
 3196      657600
 3197              	.LASF168:
 3198 05fe 65786563 		.ascii	"execute\000"
 3198      75746500 
 3199              	.LASF27:
 3200 0606 74707269 		.ascii	"tprio_t\000"
 3200      6F5F7400 
 3201              	.LASF40:
 3202 060e 705F6E61 		.ascii	"p_name\000"
 3202      6D6500
 3203              	.LASF116:
 3204 0615 6E5F6374 		.ascii	"n_ctxswc\000"
 3204      78737763 
 3204      00
 3205              	.LASF171:
 3206 061e 5F426F6F 		.ascii	"_Bool\000"
 3206      6C00
 3207              	.LASF18:
 3208 0624 696E7433 		.ascii	"int32_t\000"
 3208      325F7400 
ARM GAS  C:\Users\25521\AppData\Local\Temp\cchuEGrA.s 			page 62


 3209              	.LASF6:
 3210 062c 756E7369 		.ascii	"unsigned char\000"
 3210      676E6564 
 3210      20636861 
 3210      7200
 3211              	.LASF51:
 3212 063a 705F6D74 		.ascii	"p_mtxlist\000"
 3212      786C6973 
 3212      7400
 3213              	.LASF7:
 3214 0644 73686F72 		.ascii	"short int\000"
 3214      7420696E 
 3214      7400
 3215              	.LASF42:
 3216 064e 705F7374 		.ascii	"p_state\000"
 3216      61746500 
 3217              	.LASF45:
 3218 0656 705F7072 		.ascii	"p_preempt\000"
 3218      65656D70 
 3218      7400
 3219              	.LASF172:
 3220 0660 74687265 		.ascii	"threads\000"
 3220      61647300 
 3221              	.LASF183:
 3222 0668 2E2F2F43 		.ascii	".//ChibiOS//test/rt/testpools.c\000"
 3222      68696269 
 3222      4F532F2F 
 3222      74657374 
 3222      2F72742F 
 3223              	.LASF126:
 3224 0688 65776D61 		.ascii	"ewmask\000"
 3224      736B00
 3225              	.LASF34:
 3226 068f 705F6E65 		.ascii	"p_next\000"
 3226      787400
 3227              	.LASF23:
 3228 0696 746D6F64 		.ascii	"tmode_t\000"
 3228      655F7400 
 3229              	.LASF152:
 3230 069e 63665F6F 		.ascii	"cf_off_preempt\000"
 3230      66665F70 
 3230      7265656D 
 3230      707400
 3231              	.LASF43:
 3232 06ad 705F666C 		.ascii	"p_flags\000"
 3232      61677300 
 3233              	.LASF54:
 3234 06b5 705F7374 		.ascii	"p_stats\000"
 3234      61747300 
 3235              	.LASF59:
 3236 06bd 74687265 		.ascii	"threads_queue_t\000"
 3236      6164735F 
 3236      71756575 
 3236      655F7400 
 3237              	.LASF71:
 3238 06cd 63685F76 		.ascii	"ch_virtual_timer\000"
 3238      69727475 
ARM GAS  C:\Users\25521\AppData\Local\Temp\cchuEGrA.s 			page 63


 3238      616C5F74 
 3238      696D6572 
 3238      00
 3239              	.LASF145:
 3240 06de 63665F6F 		.ascii	"cf_off_newer\000"
 3240      66665F6E 
 3240      65776572 
 3240      00
 3241              	.LASF190:
 3242 06eb 5F5F7374 		.ascii	"__stack_chk_fail\000"
 3242      61636B5F 
 3242      63686B5F 
 3242      6661696C 
 3242      00
 3243              	.LASF127:
 3244 06fc 63685F73 		.ascii	"ch_semaphore\000"
 3244      656D6170 
 3244      686F7265 
 3244      00
 3245              	.LASF50:
 3246 0709 705F6570 		.ascii	"p_epending\000"
 3246      656E6469 
 3246      6E6700
 3247              	.LASF19:
 3248 0714 75696E74 		.ascii	"uint32_t\000"
 3248      33325F74 
 3248      00
 3249              	.LASF143:
 3250 071d 63665F6F 		.ascii	"cf_off_prio\000"
 3250      66665F70 
 3250      72696F00 
 3251              	.LASF175:
 3252 0729 74657374 		.ascii	"testpools1\000"
 3252      706F6F6C 
 3252      733100
 3253              	.LASF58:
 3254 0734 63685F74 		.ascii	"ch_threads_list\000"
 3254      68726561 
 3254      64735F6C 
 3254      69737400 
 3255              	.LASF138:
 3256 0744 63685F73 		.ascii	"ch_size\000"
 3256      697A6500 
 3257              	.LASF13:
 3258 074c 6C6F6E67 		.ascii	"long unsigned int\000"
 3258      20756E73 
 3258      69676E65 
 3258      6420696E 
 3258      7400
 3259              	.LASF135:
 3260 075e 63686172 		.ascii	"char\000"
 3260      00
 3261              	.LASF125:
 3262 0763 77746D74 		.ascii	"wtmtxp\000"
 3262      787000
 3263              	.LASF8:
 3264 076a 5F5F7569 		.ascii	"__uint16_t\000"
ARM GAS  C:\Users\25521\AppData\Local\Temp\cchuEGrA.s 			page 64


 3264      6E743136 
 3264      5F7400
 3265              	.LASF187:
 3266 0775 706F6F6C 		.ascii	"pools1_setup\000"
 3266      73315F73 
 3266      65747570 
 3266      00
 3267              	.LASF33:
 3268 0782 74687265 		.ascii	"thread_t\000"
 3268      61645F74 
 3268      00
 3269              	.LASF110:
 3270 078b 62657374 		.ascii	"best\000"
 3270      00
 3271              	.LASF133:
 3272 0790 6D5F6E65 		.ascii	"m_next\000"
 3272      787400
 3273              	.LASF32:
 3274 0797 73797374 		.ascii	"systime_t\000"
 3274      696D655F 
 3274      7400
 3275              	.LASF52:
 3276 07a1 705F7265 		.ascii	"p_realprio\000"
 3276      616C7072 
 3276      696F00
 3277              	.LASF69:
 3278 07ac 76746675 		.ascii	"vtfunc_t\000"
 3278      6E635F74 
 3278      00
 3279              	.LASF12:
 3280 07b5 5F5F7569 		.ascii	"__uint32_t\000"
 3280      6E743332 
 3280      5F7400
 3281              	.LASF82:
 3282 07c0 70616E69 		.ascii	"panic_msg\000"
 3282      635F6D73 
 3282      6700
 3283              	.LASF184:
 3284 07ca 473A5C30 		.ascii	"G:\\00Epuck\\00e-puck2_code\\e-puck2_main-processor"
 3284      30457075 
 3284      636B5C30 
 3284      30652D70 
 3284      75636B32 
 3285 07fa 00       		.ascii	"\000"
 3286              	.LASF170:
 3287 07fb 74657374 		.ascii	"test_global_fail\000"
 3287      5F676C6F 
 3287      62616C5F 
 3287      6661696C 
 3287      00
 3288              	.LASF108:
 3289 080c 6F666673 		.ascii	"offset\000"
 3289      657400
 3290              	.LASF130:
 3291 0813 63685F6D 		.ascii	"ch_mutex\000"
 3291      75746578 
 3291      00
ARM GAS  C:\Users\25521\AppData\Local\Temp\cchuEGrA.s 			page 65


 3292              	.LASF160:
 3293 081c 6D705F6E 		.ascii	"mp_next\000"
 3293      65787400 
 3294              	.LASF97:
 3295 0824 636F6E74 		.ascii	"context\000"
 3295      65787400 
 3296              	.LASF49:
 3297 082c 705F6D73 		.ascii	"p_msg\000"
 3297      6700
 3298              	.LASF157:
 3299 0832 6D656D67 		.ascii	"memgetfunc_t\000"
 3299      65746675 
 3299      6E635F74 
 3299      00
 3300              	.LASF76:
 3301 083f 76745F70 		.ascii	"vt_par\000"
 3301      617200
 3302              	.LASF164:
 3303 0846 74657374 		.ascii	"testcase\000"
 3303      63617365 
 3303      00
 3304              	.LASF185:
 3305 084f 74657374 		.ascii	"test_buffers\000"
 3305      5F627566 
 3305      66657273 
 3305      00
 3306              	.LASF158:
 3307 085c 706F6F6C 		.ascii	"pool_header\000"
 3307      5F686561 
 3307      64657200 
 3308              	.LASF44:
 3309 0868 705F7265 		.ascii	"p_refs\000"
 3309      667300
 3310              	.LASF83:
 3311 086f 6973725F 		.ascii	"isr_cnt\000"
 3311      636E7400 
 3312              	.LASF102:
 3313 0877 73655F73 		.ascii	"se_state\000"
 3313      74617465 
 3313      00
 3314              	.LASF88:
 3315 0880 726C6973 		.ascii	"rlist\000"
 3315      7400
 3316              	.LASF16:
 3317 0886 75696E74 		.ascii	"uint8_t\000"
 3317      385F7400 
 3318              	.LASF179:
 3319 088e 6368506F 		.ascii	"chPoolAlloc\000"
 3319      6F6C416C 
 3319      6C6F6300 
 3320              	.LASF178:
 3321 089a 6368506F 		.ascii	"chPoolFree\000"
 3321      6F6C4672 
 3321      656500
 3322              	.LASF55:
 3323 08a5 74687265 		.ascii	"thread_reference_t\000"
 3323      61645F72 
ARM GAS  C:\Users\25521\AppData\Local\Temp\cchuEGrA.s 			page 66


 3323      65666572 
 3323      656E6365 
 3323      5F7400
 3324              	.LASF122:
 3325 08b8 77746F62 		.ascii	"wtobjp\000"
 3325      6A7000
 3326              	.LASF159:
 3327 08bf 70685F6E 		.ascii	"ph_next\000"
 3327      65787400 
 3328              	.LASF188:
 3329 08c7 6E756C6C 		.ascii	"null_provider\000"
 3329      5F70726F 
 3329      76696465 
 3329      7200
 3330              	.LASF189:
 3331 08d5 73697A65 		.ascii	"size\000"
 3331      00
 3332              	.LASF180:
 3333 08da 5F746573 		.ascii	"_test_assert\000"
 3333      745F6173 
 3333      73657274 
 3333      00
 3334              	.LASF79:
 3335 08e7 76745F73 		.ascii	"vt_systime\000"
 3335      79737469 
 3335      6D6500
 3336              	.LASF85:
 3337 08f2 74726163 		.ascii	"trace_buffer\000"
 3337      655F6275 
 3337      66666572 
 3337      00
 3338              	.LASF181:
 3339 08ff 6368506F 		.ascii	"chPoolLoadArray\000"
 3339      6F6C4C6F 
 3339      61644172 
 3339      72617900 
 3340              	.LASF117:
 3341 090f 6D5F6372 		.ascii	"m_crit_thd\000"
 3341      69745F74 
 3341      686400
 3342              	.LASF132:
 3343 091a 6D5F6F77 		.ascii	"m_owner\000"
 3343      6E657200 
 3344              	.LASF101:
 3345 0922 73655F77 		.ascii	"se_wtobjp\000"
 3345      746F626A 
 3345      7000
 3346              	.LASF136:
 3347 092c 63685F69 		.ascii	"ch_identifier\000"
 3347      64656E74 
 3347      69666965 
 3347      7200
 3348              	.LASF75:
 3349 093a 76745F66 		.ascii	"vt_func\000"
 3349      756E6300 
 3350              	.LASF186:
 3351 0942 706F6F6C 		.ascii	"pools1_execute\000"
ARM GAS  C:\Users\25521\AppData\Local\Temp\cchuEGrA.s 			page 67


 3351      73315F65 
 3351      78656375 
 3351      746500
 3352              		.ident	"GCC: (GNU Tools for Arm Embedded Processors 7-2017-q4-major) 7.2.1 20170904 (release) [ARM
ARM GAS  C:\Users\25521\AppData\Local\Temp\cchuEGrA.s 			page 68


DEFINED SYMBOLS
                            *ABS*:00000000 testpools.c
C:\Users\25521\AppData\Local\Temp\cchuEGrA.s:18     .text.null_provider:00000000 $t
C:\Users\25521\AppData\Local\Temp\cchuEGrA.s:25     .text.null_provider:00000000 null_provider
C:\Users\25521\AppData\Local\Temp\cchuEGrA.s:62     .text.null_provider:00000020 $d
C:\Users\25521\AppData\Local\Temp\cchuEGrA.s:67     .text.pools1_setup:00000000 $t
C:\Users\25521\AppData\Local\Temp\cchuEGrA.s:74     .text.pools1_setup:00000000 pools1_setup
C:\Users\25521\AppData\Local\Temp\cchuEGrA.s:115    .text.pools1_setup:00000028 $d
C:\Users\25521\AppData\Local\Temp\cchuEGrA.s:121    .text.pools1_execute:00000000 $t
C:\Users\25521\AppData\Local\Temp\cchuEGrA.s:128    .text.pools1_execute:00000000 pools1_execute
C:\Users\25521\AppData\Local\Temp\cchuEGrA.s:317    .text.pools1_execute:000000dc $d
C:\Users\25521\AppData\Local\Temp\cchuEGrA.s:340    .rodata.patternpools:00000000 patternpools
C:\Users\25521\AppData\Local\Temp\cchuEGrA.s:351    .rodata.testpools1:00000000 testpools1
C:\Users\25521\AppData\Local\Temp\cchuEGrA.s:328    .data.mp1:00000000 $d
C:\Users\25521\AppData\Local\Temp\cchuEGrA.s:332    .data.mp1:00000000 mp1
C:\Users\25521\AppData\Local\Temp\cchuEGrA.s:337    .rodata.patternpools:00000000 $d
C:\Users\25521\AppData\Local\Temp\cchuEGrA.s:344    .rodata.str1.4:00000000 $d
C:\Users\25521\AppData\Local\Temp\cchuEGrA.s:348    .rodata.testpools1:00000000 $d

UNDEFINED SYMBOLS
__stack_chk_fail
__stack_chk_guard
chPoolObjectInit
chPoolLoadArray
chPoolAlloc
_test_assert
chPoolFree
wa
